(dp0
S'2010_4_6_st-398.txt'
p1
(lp2
(VU.S.
p3
I92
tp4
a(VEmbassy
p5
I93
tp6
a(VISI
p7
I179
tp8
a(VTaliban
p9
I235
tp10
a(VAFP
p11
I240
tp12
asS'2010_4_1_st-439.txt'
p13
(lp14
(VTNT
p15
I63
tp16
asS'2010_4_17_st-395.txt'
p17
(lp18
(VFederal
p19
I78
tp20
a(VInvestigation
p21
I79
tp22
a(VAgency
p23
I80
tp24
a(VFIA
p25
I87
tp26
a(VBalochistan
p27
I124
tp28
a(VShia
p29
I125
tp30
a(VCouncil
p31
I126
tp32
asS'2010_4_28_st-370.txt'
p33
(lp34
(VNeelachal
p35
I249
tp36
a(VExpress
p37
I250
tp38
asS'2010_5_1_st-420.txt'
p39
(lp40
(VAjmer
p41
I135
tp42
a(VDargah
p43
I136
tp44
a(VSpecial
p45
I164
tp46
a(VOperations
p47
I165
tp48
a(VGroup
p49
I166
tp50
a(VRajasthan
p51
I302
tp52
a(VPolice
p53
I303
tp54
asS'2010_4_7_st-43.txt'
p55
(lp56
(VMFB
p57
I62
tp58
a(VFisheries
p59
I122
tp60
asS'2010_3_30_st-396.txt'
p61
(lp62
(VCCTV
p63
I333
tp64
asS'2010_3_2_st-12.txt'
p65
(lp66
(VDefence
p67
I56
tp68
a(VMinistries
p69
I57
tp70
a(VTaliban
p71
I102
tp72
asS'2010_4_9_st-26.txt'
p73
(lp74
(VMaharashtra
p75
I10
tp76
a(VAnti-Terrorism
p77
I11
tp78
a(VSquad
p79
I12
tp80
a(VMaharashtra
p81
I90
tp82
a(VLegislative
p83
I91
tp84
a(V-RSB-
p85
I92
tp86
a(VAssembly
p87
I93
tp88
asS'2010_4_6_st-1.txt'
p89
(lp90
(VTaliban
p91
I6
tp92
a(VTaliban
p93
I63
tp94
a(VGeneral
p95
I87
tp96
a(VHeadquarters
p97
I88
tp98
a(Vof
p99
I89
tp100
a(Vthe
p101
I90
tp102
a(VArmy
p103
I91
tp104
a(VAwami
p105
I108
tp106
a(VNational
p107
I109
tp108
a(VParty
p109
I110
tp110
a(VNWFP
p111
I123
tp112
a(VNWFP
p113
I141
tp114
a(VAFP
p115
I149
tp116
a(VU.S.
p117
I238
tp118
a(VEmbassy
p119
I239
tp120
a(VISI
p121
I325
tp122
asS'2010_3_30_st-27.txt'
p123
(lp124
(VMinistry
p125
I145
tp126
a(Vof
p127
I146
tp128
a(VExternal
p129
I147
tp130
a(VAffairs
p131
I148
tp132
a(VForeign
p133
I202
tp134
a(VOffice
p135
I203
tp136
asS'2010_4_29_st-341.txt'
p137
(lp138
(VGuntakal
p139
I116
tp140
a(VDSP
p141
I117
tp142
a(VVictor
p143
I118
tp144
asS'2010_3_7_st-15.txt'
p145
(lp146
(VSikkim
p147
I144
tp148
a(VUniversity
p149
I145
tp150
asS'2010_4_2_st-340.txt'
p151
(lp152
(VBiju
p153
I41
tp154
a(VJanata
p155
I42
tp156
a(VDal
p157
I43
tp158
a(VCongress
p159
I49
tp160
a(VBJD
p161
I92
tp162
a(VCongress
p163
I96
tp164
asS'2010_3_20_st-446.txt'
p165
(lp166
(VRadhakrishnan
p167
I10
tp168
a(VHostel
p169
I11
tp170
a(VKhallikote
p171
I14
tp172
a(VAutonomous
p173
I15
tp174
a(VCollege
p175
I16
tp176
a(VKhallikote
p177
I52
tp178
a(VAutonomous
p179
I53
tp180
a(VCollege
p181
I54
tp182
asS'2010_4_16_st-456.txt'
p183
(lp184
sS'2010_5_2_st-384.txt'
p185
(lp186
(VAnti-Terrorism
p187
I5
tp188
a(VSquad
p189
I6
tp190
a(Vof
p191
I7
tp192
a(VRajasthan
p193
I8
tp194
a(VPolice
p195
I9
tp196
a(VHindu
p197
I62
tp198
a(VATS
p199
I169
tp200
asS'2010_5_2_st-373.txt'
p201
(lp202
(VAjmer
p203
I52
tp204
a(VDargah
p205
I53
tp206
a(VRajasthan
p207
I135
tp208
a(VHome
p209
I136
tp210
a(VCongress
p211
I296
tp212
a(VCongress
p213
I309
tp214
a(VAjmer
p215
I405
tp216
a(VDargah
p217
I406
tp218
asS'2010_3_2_st-286.txt'
p219
(lp220
(VNIA
p221
I20
tp222
a(VNational
p223
I87
tp224
a(VInvestigation
p225
I88
tp226
a(VAgency
p227
I89
tp228
a(VRest
p229
I98
tp230
a(VHouse
p231
I99
tp232
a(VNIA
p233
I108
tp234
a(VNIA
p235
I126
tp236
a(VKerala
p237
I151
tp238
a(VState
p239
I152
tp240
a(VRoad
p241
I153
tp242
a(VTransport
p243
I154
tp244
a(VCorporation
p245
I155
tp246
a(VState
p247
I202
tp248
a(VBorder
p249
I242
tp250
a(VSecurity
p251
I243
tp252
a(VForce
p253
I244
tp254
asS'2010_4_3_st-376.txt'
p255
(lp256
(VBatla
p257
I45
tp258
a(VHouse
p259
I46
tp260
a(VRajasthan
p261
I108
tp262
a(VHigh
p263
I109
tp264
a(VCourt
p265
I110
tp266
a(VSupreme
p267
I129
tp268
a(VCourt
p269
I130
tp270
a(VKota
p271
I216
tp272
a(VStudents
p273
I239
tp274
a(VIslamic
p275
I240
tp276
a(VMovement
p277
I241
tp278
a(Vof
p279
I242
tp280
a(VIndia
p281
I243
tp282
a(VBatla
p283
I293
tp284
a(VHouse
p285
I294
tp286
a(VAnti-Terrorism
p287
I310
tp288
a(VSquad
p289
I311
tp290
asS'2010_3_4_st-238.txt'
p291
(lp292
(VNational
p293
I17
tp294
a(VInvestigation
p295
I18
tp296
a(VAgency
p297
I19
tp298
a(VNIA
p299
I78
tp300
a(VPolice
p301
I134
tp302
a(VClub
p303
I135
tp304
a(VNIA
p305
I288
tp306
asS'2010_5_1_st-19.txt'
p307
(lp308
sS'2010_5_2_st-43.txt'
p309
(lp310
(VHindu
p311
I68
tp312
a(VATS
p313
I175
tp314
asS'2010_4_24_st-443.txt'
p315
(lp316
s.