(dp0
S'2010_4_6_st-398.txt'
p1
(lp2
(VAFP
p3
F0.3010299956639812
tp4
a(VTaliban
p5
F0.8450980400142568
tp6
a(VISI
p7
F1.7993405494535817
tp8
a(VEmbassy
p9
F2.173186268412274
tp10
a(VU.S.
p11
F2.1760912590556813
tp12
asS'2010_4_1_st-439.txt'
p13
(lp14
(VTNT
p15
F0.3010299956639812
tp16
asS'2010_4_17_st-395.txt'
p17
(lp18
(VCouncil
p19
F0.3010299956639812
tp20
a(VShia
p21
F0.47712125471966244
tp22
a(VBalochistan
p23
F0.6020599913279624
tp24
a(VFIA
p25
F1.6127838567197355
tp26
a(VAgency
p27
F1.6812412373755872
tp28
a(VInvestigation
p29
F1.6901960800285136
tp30
a(VFederal
p31
F1.6989700043360187
tp32
asS'2010_4_28_st-370.txt'
p33
(lp34
(VExpress
p35
F0.3010299956639812
tp36
a(VNeelachal
p37
F0.47712125471966244
tp38
asS'2010_5_1_st-420.txt'
p39
(lp40
(VPolice
p41
F0.3010299956639812
tp42
a(VRajasthan
p43
F0.47712125471966244
tp44
a(VGroup
p45
F2.143014800254095
tp46
a(VOperations
p47
F2.146128035678238
tp48
a(VSpecial
p49
F2.1492191126553797
tp50
a(VDargah
p51
F2.2278867046136734
tp52
a(VAjmer
p53
F2.230448921378274
tp54
asS'2010_4_7_st-43.txt'
p55
(lp56
(VFisheries
p57
F0.3010299956639812
tp58
a(VMFB
p59
F1.792391689498254
tp60
asS'2010_3_30_st-396.txt'
p61
(lp62
(VCCTV
p63
F0.3010299956639812
tp64
asS'2010_3_2_st-12.txt'
p65
(lp66
(VTaliban
p67
F0.3010299956639812
tp68
a(VMinistries
p69
F1.6720978579357175
tp70
a(VDefence
p71
F1.6812412373755872
tp72
asS'2010_4_9_st-26.txt'
p73
(lp74
(VAssembly
p75
F0.3010299956639812
tp76
a(V-RSB-
p77
F0.47712125471966244
tp78
a(VLegislative
p79
F0.6020599913279624
tp80
a(VSquad
p81
F1.919078092376074
tp82
a(VAnti-Terrorism
p83
F1.9242792860618816
tp84
a(VMaharashtra
p85
F1.9294189257142929
tp86
asS'2010_4_6_st-1.txt'
p87
(lp88
(VISI
p89
F0.3010299956639812
tp90
a(VEmbassy
p91
F1.9444826721501687
tp92
a(VU.S.
p93
F1.9493900066449128
tp94
a(VAFP
p95
F2.250420002308894
tp96
a(VNWFP
p97
F2.3096301674258988
tp98
a(VParty
p99
F2.3364597338485296
tp100
a(VNational
p101
F2.3384564936046046
tp102
a(VAwami
p103
F2.3404441148401185
tp104
a(VArmy
p105
F2.3729120029701067
tp106
a(Vthe
p107
F2.374748346010104
tp108
a(Vof
p109
F2.376576957056512
tp110
a(VHeadquarters
p111
F2.3783979009481375
tp112
a(VGeneral
p113
F2.380211241711606
tp114
a(VTaliban
p115
F2.506505032404872
tp116
asS'2010_3_30_st-27.txt'
p117
(lp118
(VOffice
p119
F0.3010299956639812
tp120
a(VForeign
p121
F0.47712125471966244
tp122
a(VAffairs
p123
F1.7558748556724915
tp124
a(VExternal
p125
F1.7634279935629373
tp126
a(Vof
p127
F1.7708520116421442
tp128
a(VMinistry
p129
F1.7781512503836436
tp130
asS'2010_4_29_st-341.txt'
p131
(lp132
(VVictor
p133
F0.3010299956639812
tp134
a(VDSP
p135
F0.47712125471966244
tp136
a(VGuntakal
p137
F0.6020599913279624
tp138
asS'2010_3_7_st-15.txt'
p139
(lp140
(VUniversity
p141
F0.3010299956639812
tp142
a(VSikkim
p143
F0.47712125471966244
tp144
asS'2010_4_2_st-340.txt'
p145
(lp146
(VBJD
p147
F0.3010299956639812
tp148
a(VCongress
p149
F1.6532125137753437
tp150
a(VDal
p151
F1.7075701760979363
tp152
a(VJanata
p153
F1.7160033436347992
tp154
a(VBiju
p155
F1.7242758696007892
tp156
asS'2010_3_20_st-446.txt'
p157
(lp158
(VCollege
p159
F0.3010299956639812
tp160
a(VAutonomous
p161
F0.47712125471966244
tp162
a(VKhallikote
p163
F0.6020599913279624
tp164
a(VHostel
p165
F0.8450980400142568
tp166
a(VRadhakrishnan
p167
F0.9030899869919435
tp168
asS'2010_4_16_st-456.txt'
p169
(lp170
sS'2010_5_2_st-384.txt'
p171
(lp172
(VATS
p173
F0.3010299956639812
tp174
a(VHindu
p175
F2.037426497940624
tp176
a(VPolice
p177
F2.2095150145426308
tp178
a(VRajasthan
p179
F2.2121876044039577
tp180
a(Vof
p181
F2.214843848047698
tp182
a(VSquad
p183
F2.2174839442139063
tp184
a(VAnti-Terrorism
p185
F2.220108088040055
tp186
asS'2010_5_2_st-373.txt'
p187
(lp188
(VCongress
p189
F0.3010299956639812
tp190
a(VHome
p191
F2.2095150145426308
tp192
a(VRajasthan
p193
F2.2121876044039577
tp194
a(VDargah
p195
F2.3891660843645326
tp196
a(VAjmer
p197
F2.3909351071033793
tp198
asS'2010_3_2_st-286.txt'
p199
(lp200
(VForce
p201
F0.3010299956639812
tp202
a(VSecurity
p203
F0.47712125471966244
tp204
a(VBorder
p205
F0.6020599913279624
tp206
a(VCorporation
p207
F1.9590413923210936
tp208
a(VTransport
p209
F1.9637878273455553
tp210
a(VRoad
p211
F1.968482948553935
tp212
a(VState
p213
F1.9731278535996986
tp214
a(VKerala
p215
F1.9777236052888478
tp216
a(VHouse
p217
F2.167317334748176
tp218
a(VRest
p219
F2.1702617153949575
tp220
a(VAgency
p221
F2.1958996524092336
tp222
a(VInvestigation
p223
F2.1986570869544226
tp224
a(VNational
p225
F2.2013971243204513
tp226
a(VNIA
p227
F2.3541084391474008
tp228
asS'2010_4_3_st-376.txt'
p229
(lp230
(VSquad
p231
F0.3010299956639812
tp232
a(VAnti-Terrorism
p233
F0.47712125471966244
tp234
a(VIndia
p235
F1.845098040014257
tp236
a(Vof
p237
F1.8512583487190752
tp238
a(VMovement
p239
F1.8573324964312685
tp240
a(VIslamic
p241
F1.863322860120456
tp242
a(VStudents
p243
F1.8692317197309762
tp244
a(VKota
p245
F1.9867717342662448
tp246
a(VSupreme
p247
F2.2648178230095364
tp248
a(VCourt
p249
F2.307496037913213
tp250
a(VHigh
p251
F2.3096301674258988
tp252
a(VRajasthan
p253
F2.311753861055754
tp254
a(VHouse
p255
F2.4265112613645754
tp256
a(VBatla
p257
F2.428134794028789
tp258
asS'2010_3_4_st-238.txt'
p259
(lp260
(VClub
p261
F0.3010299956639812
tp262
a(VPolice
p263
F0.47712125471966244
tp264
a(VNIA
p265
F1.7708520116421442
tp266
a(VAgency
p267
F2.0718820073061255
tp268
a(VInvestigation
p269
F2.075546961392531
tp270
a(VNational
p271
F2.0791812460476247
tp272
asS'2010_5_1_st-19.txt'
p273
(lp274
sS'2010_5_2_st-43.txt'
p275
(lp276
(VATS
p277
F0.3010299956639812
tp278
a(VHindu
p279
F2.037426497940624
tp280
asS'2010_4_24_st-443.txt'
p281
(lp282
s.