(dp0
S'2010_4_6_st-398.txt'
p1
(lp2
(VISLAMABAD
p3
I20
tp4
a(VU.S.
p5
I29
tp6
a(VPeshawar
p7
I33
tp8
a(VPeshawar
p9
I175
tp10
a(VU.S.
p11
I217
tp12
a(VNorth
p13
I225
tp14
a(VWaziristan
p15
I226
tp16
a(VU.S.
p17
I270
tp18
a(VPeshawar
p19
I274
tp20
asS'2010_4_1_st-439.txt'
p21
(lp22
(VMOSCOW
p23
I2
tp24
a(VRussia
p25
I10
tp26
a(VNorth
p27
I22
tp28
a(VCaucasus
p29
I23
tp30
a(VKyzlyar
p31
I36
tp32
a(VDagestan
p33
I43
tp34
a(VDagestan
p35
I144
tp36
a(VChechnya
p37
I155
tp38
a(VNorth
p39
I170
tp40
a(VCaucasus
p41
I171
tp42
a(VMoscow
p43
I189
tp44
a(VMetro
p45
I190
tp46
a(VNorth
p47
I271
tp48
a(VCaucasus
p49
I272
tp50
a(VRussia
p51
I287
tp52
asS'2010_4_17_st-395.txt'
p53
(lp54
(VBalochistan
p55
I22
tp56
a(VQuetta
p57
I25
tp58
asS'2010_4_28_st-370.txt'
p59
(lp60
(VKolkata
p61
I2
tp62
a(VMidnapur
p63
I14
tp64
a(VBhadutala
p65
I16
tp66
a(VWest
p67
I19
tp68
a(VBengal
p69
I20
tp70
a(VPaschim
p71
I22
tp72
a(VMedinipur
p73
I23
tp74
a(VMidnapur-Adra
p75
I49
tp76
a(VSouth
p77
I52
tp78
a(VEastern
p79
I53
tp80
a(VRailway
p81
I54
tp82
a(VWest
p83
I79
tp84
a(VBengal
p85
I80
tp86
a(VOrissa
p87
I84
tp88
a(VLalgarh
p89
I108
tp90
a(VPaschim
p91
I111
tp92
a(VMedinipur
p93
I112
tp94
a(VSouth
p95
I243
tp96
a(VEastern
p97
I244
tp98
a(VRailway
p99
I245
tp100
a(VSalboni
p101
I338
tp102
asS'2010_5_1_st-420.txt'
p103
(lp104
(VAjmer
p105
I27
tp106
a(VRajasthan
p107
I42
tp108
a(VMuzafarpur
p109
I54
tp110
a(VBihar
p111
I56
tp112
a(VBihariganj
p113
I69
tp114
a(VAjmer
p115
I71
tp116
a(VAjmer
p117
I118
tp118
a(VRajasthan
p119
I178
tp120
a(VMuzafarpur
p121
I197
tp122
a(VMalegaon
p123
I370
tp124
a(VRajasthan
p125
I397
tp126
a(VRajasthan
p127
I429
tp128
a(VStates
p129
I451
tp130
asS'2010_4_7_st-43.txt'
p131
(lp132
(VRameswaram
p133
I21
tp134
a(VKachchatheevu
p135
I54
tp136
a(VRameswaram
p137
I69
tp138
a(VDelft
p139
I84
tp140
a(VIsland
p141
I85
tp142
a(VKachchatheevu
p143
I87
tp144
a(VRameswaram
p145
I114
tp146
a(VRameswaram
p147
I124
tp148
a(VDelft
p149
I146
tp150
a(VIsland
p151
I147
tp152
a(VDelft
p153
I172
tp154
a(VIsland
p155
I173
tp156
a(VRameswaram
p157
I182
tp158
asS'2010_3_30_st-396.txt'
p159
(lp160
(VMOSCOW
p161
I10
tp162
a(VMoscow
p163
I26
tp164
a(VMoscow
p165
I55
tp166
a(VMetro
p167
I56
tp168
a(VMoscow
p169
I98
tp170
a(VLubyanka
p171
I209
tp172
a(VMoscow
p173
I383
tp174
a(VMetro
p175
I384
tp176
asS'2010_3_2_st-12.txt'
p177
(lp178
(VNew
p179
I0
tp180
a(VDelhi
p181
I1
tp182
a(VKabul
p183
I11
tp184
a(VIndia
p185
I13
tp186
a(VAfghanistan
p187
I46
tp188
a(VAfghanistan
p189
I83
tp190
asS'2010_4_9_st-26.txt'
p191
(lp192
(VPune
p193
I31
tp194
asS'2010_4_6_st-1.txt'
p195
(lp196
(VU.S.
p197
I13
tp198
a(VISLAMABAD
p199
I16
tp200
a(VU.S.
p201
I23
tp202
a(VPeshawar
p203
I26
tp204
a(VRawalpindi
p205
I93
tp206
a(VLower
p207
I114
tp208
a(VDir
p209
I115
tp210
a(VNorth
p211
I160
tp212
a(VWaziristan
p213
I161
tp214
a(VPeshawar
p215
I321
tp216
asS'2010_3_30_st-27.txt'
p217
(lp218
(VNEW
p219
I2
tp220
a(VDELHI
p221
I3
tp222
a(VIndia
p223
I5
tp224
a(VMoscow
p225
I16
tp226
a(VIndia
p227
I37
tp228
a(VMoscow
p229
I66
tp230
a(VRussia
p231
I104
tp232
a(VIndia
p233
I126
tp234
a(VIndia
p235
I214
tp236
asS'2010_4_29_st-341.txt'
p237
(lp238
(VKoukuntla
p239
I22
tp240
a(VUravakonda
p241
I25
tp242
a(VAnantapur
p243
I28
tp244
a(VVasanthamani
p245
I51
tp246
asS'2010_3_7_st-15.txt'
p247
(lp248
(VLUCKNOW
p249
I2
tp250
a(VU.P.
p251
I12
tp252
a(VDelhi
p253
I23
tp254
a(VSiddhartnagar
p255
I33
tp256
a(VDelhi
p257
I53
tp258
a(VDelhi
p259
I93
tp260
a(VDelhi
p261
I99
tp262
a(VLucknow
p263
I103
tp264
a(VSanjarpur
p265
I121
tp266
a(VAzamgarh
p267
I124
tp268
a(VLucknow
p269
I141
tp270
a(VGorakhpur
p271
I162
tp272
a(VVaranasi
p273
I172
tp274
a(VJaipur
p275
I189
tp276
a(VAhmedabad
p277
I198
tp278
a(VDelhi
p279
I207
tp280
a(VNepal
p281
I214
tp282
a(VSiddhartnagar
p283
I218
tp284
a(VUttar
p285
I221
tp286
a(VPradesh
p287
I222
tp288
asS'2010_4_2_st-340.txt'
p289
(lp290
(VPitatali
p291
I18
tp292
a(VChikiti
p293
I21
tp294
a(VGolanthara
p295
I24
tp296
a(VGanjam
p297
I28
tp298
a(VGirisola
p299
I82
tp300
a(VBrahmananda
p301
I127
tp302
a(VGagarin
p303
I128
tp304
a(VMohanty
p305
I129
tp306
asS'2010_3_20_st-446.txt'
p307
(lp308
(VBerhampur
p309
I138
tp310
a(VGate
p311
I254
tp312
a(VBazar
p313
I255
tp314
asS'2010_4_16_st-456.txt'
p315
(lp316
(VYANGON
p317
I0
tp318
a(VMyanmar
p319
I11
tp320
a(VYangon
p321
I16
tp322
a(VKandawgyi
p323
I63
tp324
a(VLake
p325
I64
tp326
asS'2010_5_2_st-384.txt'
p327
(lp328
(VAjmer
p329
I19
tp330
a(VShujapur
p331
I24
tp332
a(VMalwa
p333
I26
tp334
a(VMadhya
p335
I28
tp336
a(VPradesh
p337
I29
tp338
a(VAjmer
p339
I46
tp340
a(VAjmer
p341
I128
tp342
a(VMalegaon
p343
I159
tp344
a(VMalegaon
p345
I175
tp346
a(VAjmer
p347
I178
tp348
a(VMakkah
p349
I182
tp350
a(VMasjid
p351
I183
tp352
a(VHyderabad
p353
I185
tp354
asS'2010_5_2_st-373.txt'
p355
(lp356
(VRajasthan
p357
I15
tp358
a(VRajasthan
p359
I31
tp360
a(VMalegaon
p361
I62
tp362
a(VMakkah
p363
I75
tp364
a(VMasjid
p365
I76
tp366
a(VHyderabad
p367
I78
tp368
a(VAhat-e-Noor
p369
I106
tp370
a(VDargah
p371
I109
tp372
a(Vpremises
p373
I110
tp374
a(VAjmer
p375
I116
tp376
a(VRajasthan
p377
I180
tp378
a(VMadhya
p379
I227
tp380
a(VPradesh
p381
I228
tp382
a(VMhow
p383
I230
tp384
a(VDewas
p385
I260
tp386
a(VMhow
p387
I289
tp388
a(VMhow
p389
I299
tp390
a(VNew
p391
I422
tp392
a(VDelhi
p393
I423
tp394
a(VAjmer
p395
I432
tp396
asS'2010_3_2_st-286.txt'
p397
(lp398
(VKozhikode
p399
I9
tp400
a(VKOZHIKODE
p401
I29
tp402
a(VKozhikode
p403
I47
tp404
a(VViyyur
p405
I82
tp406
a(VCentral
p407
I83
tp408
a(VPrison
p409
I84
tp410
a(VKozhikode
p411
I93
tp412
a(VWest
p413
I101
tp414
a(VHill
p415
I102
tp416
a(VMavoor
p417
I161
tp418
a(VRoad
p419
I162
tp420
a(VBangladesh
p421
I234
tp422
a(VBangladesh
p423
I253
tp424
a(VBangalore
p425
I258
tp426
a(VMarad
p427
I294
tp428
a(VAnnakulam
p429
I322
tp430
a(VKannur
p431
I324
tp432
a(VKannur
p433
I340
tp434
asS'2010_4_3_st-376.txt'
p435
(lp436
(VJaipur
p437
I11
tp438
a(VUttar
p439
I40
tp440
a(VPradesh
p441
I41
tp442
a(VDelhi
p443
I49
tp444
a(VBani
p445
I67
tp446
a(VPark
p447
I68
tp448
a(VCourts
p449
I69
tp450
a(VComplex
p451
I70
tp452
a(VDistrict
p453
I84
tp454
a(VStates
p455
I139
tp456
a(VRajasthan
p457
I142
tp458
a(VSabarmati
p459
I179
tp460
a(VCentral
p461
I180
tp462
a(VJail
p463
I181
tp464
a(VGujarat
p465
I183
tp466
a(VJodhpur
p467
I220
tp468
a(VLucknow
p469
I267
tp470
a(VDelhi
p471
I296
tp472
a(VRajasthan
p473
I316
tp474
a(VDelhi
p475
I346
tp476
a(VAhmedabad
p477
I348
tp478
a(VAhmedabad
p479
I397
tp480
a(VCentral
p481
I413
tp482
a(VJail
p483
I414
tp484
a(VJaipur
p485
I518
tp486
asS'2010_3_4_st-238.txt'
p487
(lp488
(VKozhikode
p489
I7
tp490
a(VKANNUR
p491
I11
tp492
a(VKozhikode
p493
I47
tp494
a(VKozhikode
p495
I73
tp496
a(VKozhikode
p497
I105
tp498
a(VKannur
p499
I127
tp500
a(VAnakkulam
p501
I145
tp502
a(VMaidanappally
p503
I157
tp504
a(VPayyambalam
p505
I159
tp506
a(VChalad
p507
I170
tp508
a(VBangalore
p509
I238
tp510
a(VBangalore
p511
I252
tp512
a(VBangalore
p513
I268
tp514
a(VBangladesh
p515
I275
tp516
a(VKozhikode
p517
I294
tp518
asS'2010_5_1_st-19.txt'
p519
(lp520
(VAJMER
p521
I0
tp522
asS'2010_5_2_st-43.txt'
p523
(lp524
(VRajasthan
p525
I12
tp526
a(VAjmer
p527
I25
tp528
a(VShujapur
p529
I30
tp530
a(VMalwa
p531
I32
tp532
a(VMadhya
p533
I34
tp534
a(VPradesh
p535
I35
tp536
a(VAjmer
p537
I52
tp538
a(VAjmer
p539
I134
tp540
a(VMalegaon
p541
I165
tp542
a(VMalegaon
p543
I181
tp544
a(VAjmer
p545
I184
tp546
a(VMakkah
p547
I188
tp548
a(VMasjid
p549
I189
tp550
a(VHyderabad
p551
I191
tp552
a(VStates
p553
I209
tp554
asS'2010_4_24_st-443.txt'
p555
(lp556
(VBaghdad
p557
I28
tp558
a(VAl-Qaeda
p559
I58
tp560
a(VIraq
p561
I60
tp562
a(VU.S.
p563
I91
tp564
a(VMoqtada
p565
I116
tp566
a(Val-Sadr
p567
I117
tp568
a(VBaghdad
p569
I119
tp570
a(VSadr
p571
I124
tp572
a(VCity
p573
I125
tp574
a(VIraq
p575
I253
tp576
as.