(dp0
S'2010_4_6_st-398.txt'
p1
(lp2
(VAnita
p3
I0
tp4
a(VJoshua
p5
I1
tp6
a(VSuicide
p7
I2
tp8
asS'2010_4_1_st-439.txt'
p9
(lp10
(VVladimir
p11
I0
tp12
a(VRadyuhin
p13
I1
tp14
a(VVladimir
p15
I223
tp16
a(VPutin
p17
I224
tp18
a(VPutin
p19
I253
tp20
a(VSaid
p21
I301
tp22
a(VBuryatsky
p23
I302
tp24
asS'2010_4_17_st-395.txt'
p25
(lp26
(VAnita
p27
I0
tp28
a(VJoshua
p29
I1
tp30
a(VArshad
p31
I117
tp32
a(VZaidi
p33
I118
tp34
a(VZaidi
p35
I130
tp36
asS'2010_4_28_st-370.txt'
p37
(lp38
(VDilip
p39
I118
tp40
a(VKumar
p41
I119
tp42
a(VMitra
p43
I120
tp44
a(VBuddhadeb
p45
I306
tp46
a(VBhattacharjee
p47
I307
tp48
a(VMitra
p49
I357
tp50
asS'2010_5_1_st-420.txt'
p51
(lp52
(VSebastian
p53
I1
tp54
a(VJAIPUR
p55
I2
tp56
a(VKhwaja
p57
I23
tp58
a(VMoinuddin
p59
I24
tp60
a(VChishti
p61
I25
tp62
a(VDevendra
p63
I48
tp64
a(VGupta
p65
I49
tp66
a(VGupta
p67
I58
tp68
a(VGupta
p69
I94
tp70
a(VKapil
p71
I143
tp72
a(VGarg
p73
I144
tp74
a(VGupta
p75
I174
tp76
a(VShanti
p77
I181
tp78
a(VKumar
p79
I182
tp80
a(VDhariwal
p81
I183
tp82
a(VDevendra
p83
I199
tp84
a(VGupta
p85
I200
tp86
a(VDhariwal
p87
I236
tp88
a(VGarg
p89
I296
tp90
a(VGupta
p91
I310
tp92
a(VGarg
p93
I325
tp94
a(VGarg
p95
I343
tp96
a(VGarg
p97
I384
tp98
a(VGarg
p99
I425
tp100
a(VRamzan
p101
I484
tp102
a(VMaulanas
p103
I588
tp104
asS'2010_4_7_st-43.txt'
p105
(lp106
(VStalin
p107
I67
tp108
a(VStephen
p109
I94
tp110
a(VAlex
p111
I104
tp112
a(VT.
p113
I116
tp114
a(VIlamvazhuthi
p115
I117
tp116
a(VIlamvazhuthi
p117
I270
tp118
asS'2010_3_30_st-396.txt'
p119
(lp120
(VVladimir
p121
I0
tp122
a(VRadyuhin
p123
I1
tp124
asS'2010_3_2_st-12.txt'
p125
(lp126
(VShiv
p127
I28
tp128
a(VShankar
p129
I29
tp130
a(VMenon
p131
I30
tp132
a(VHaqqani
p133
I106
tp134
a(VMenon
p135
I121
tp136
a(VHamid
p137
I127
tp138
a(VKarzai
p139
I128
tp140
asS'2010_4_9_st-26.txt'
p141
(lp142
(VSiddhesh
p143
I0
tp144
a(VInamdar
p145
I1
tp146
a(VSatyapal
p147
I34
tp148
a(VSingh
p149
I35
tp150
a(VSingh
p151
I46
tp152
a(VP.
p153
I55
tp154
a(VChidambaram
p155
I56
tp156
asS'2010_4_6_st-1.txt'
p157
(lp158
(VAnita
p159
I0
tp160
a(VJoshua
p161
I1
tp162
a(VOver
p163
I2
tp164
a(VKhyber-Pukhtoonkhwa
p165
I143
tp166
asS'2010_3_30_st-27.txt'
p167
(lp168
(VManmohan
p169
I25
tp170
a(VSingh
p171
I26
tp172
a(VDmitry
p173
I31
tp174
a(VMedvedev
p175
I32
tp176
a(VSingh
p177
I135
tp178
a(VMedvedev
p179
I142
tp180
a(VS.M.
p181
I210
tp182
a(VKrishna
p183
I211
tp184
asS'2010_4_29_st-341.txt'
p185
(lp186
(VPaddy
p187
I104
tp188
a(VVasanthamani
p189
I132
tp190
asS'2010_3_7_st-15.txt'
p191
(lp192
(VSalman
p193
I28
tp194
a(VChhotu
p195
I30
tp196
a(VBrij
p197
I73
tp198
a(VLal
p199
I74
tp200
a(VSalman
p201
I81
tp202
a(VLal
p203
I114
tp204
a(VSalman
p205
I116
tp206
a(VManipal
p207
I147
tp208
a(VSalman
p209
I210
tp210
a(VBasti
p211
I216
tp212
asS'2010_4_2_st-340.txt'
p213
(lp214
(VChikiti
p215
I224
tp216
a(VK.Narasingha
p217
I228
tp218
a(VMurty
p219
I229
tp220
asS'2010_3_20_st-446.txt'
p221
(lp222
(VBERHAMPUR
p223
I2
tp224
a(VAnanga
p225
I122
tp226
a(VLima
p227
I123
tp228
a(VHarekrushna
p229
I127
tp230
a(VBehera
p231
I128
tp232
asS'2010_4_16_st-456.txt'
p233
(lp234
sS'2010_5_2_st-384.txt'
p235
(lp236
(VJAIPUR
p237
I2
tp238
a(VDevendra
p239
I38
tp240
a(VGupta
p241
I39
tp242
a(VChandrashekhar
p243
I48
tp244
a(VAbhinav
p245
I66
tp246
a(VBharat
p247
I67
tp248
a(VChandrashekhar
p249
I115
tp250
a(VDevendra
p251
I141
tp252
a(VChandrashekhar
p253
I143
tp254
a(VPragnya
p255
I162
tp256
a(VThakur
p257
I163
tp258
a(VSrikant
p259
I165
tp260
a(VPurohit
p261
I166
tp262
asS'2010_5_2_st-373.txt'
p263
(lp264
(VMadhya
p265
I23
tp266
a(VPradesh
p267
I24
tp268
a(VJAIPUR
p269
I25
tp270
a(VShanti
p271
I138
tp272
a(VDhariwal
p273
I139
tp274
a(VMadhya
p275
I177
tp276
a(VPradesh
p277
I178
tp278
a(VDhariwal
p279
I203
tp280
a(VSunil
p281
I218
tp282
a(VJoshi
p283
I219
tp284
a(VDevendra
p285
I234
tp286
a(VGupta
p287
I235
tp288
a(VAjmer
p289
I243
tp290
a(VDargah
p291
I244
tp292
a(VJoshi
p293
I250
tp294
a(VGupta
p295
I269
tp296
a(VJoshi
p297
I277
tp298
a(VPurohit
p299
I326
tp300
a(VSunil
p301
I336
tp302
a(VJoshi
p303
I337
tp304
a(VDevendra
p305
I347
tp306
a(VGupta
p307
I348
tp308
a(VDhariwal
p309
I351
tp310
a(VPurohit
p311
I355
tp312
a(VSunil
p313
I363
tp314
a(VJoshi
p315
I364
tp316
a(VAsimanand
p317
I366
tp318
a(VGupta
p319
I368
tp320
a(VRamesh
p321
I376
tp322
a(VKumar
p323
I377
tp324
a(VJamtada
p325
I389
tp326
a(VAsansol
p327
I391
tp328
a(VChittaranjan
p329
I393
tp330
a(VBabulal
p331
I414
tp332
a(VYadav
p333
I415
tp334
asS'2010_3_2_st-286.txt'
p335
(lp336
(VNazir
p337
I12
tp338
a(VNazir
p339
I25
tp340
a(VThadiyantavide
p341
I37
tp342
a(VNazir
p343
I38
tp344
a(VUmmer
p345
I41
tp346
a(VHaji
p347
I42
tp348
a(VNazir
p349
I63
tp350
a(VNazir
p351
I121
tp352
a(VT.K.
p353
I130
tp354
a(VRajmohan
p355
I131
tp356
a(VNazir
p357
I140
tp358
a(VNazir
p359
I180
tp360
a(VNazir
p361
I210
tp362
a(VAbdul
p363
I212
tp364
a(VHalim
p365
I213
tp366
a(VNazir
p367
I222
tp368
a(VShafaz
p369
I224
tp370
a(VSamsudheen
p371
I225
tp372
a(VHalim
p373
I263
tp374
a(VAzhar
p375
I313
tp376
a(VNazir
p377
I349
tp378
asS'2010_4_3_st-376.txt'
p379
(lp380
(VJAIPUR
p381
I2
tp382
a(VBaran
p383
I218
tp384
a(VShahbaz
p385
I264
tp386
a(VAhmed
p387
I265
tp388
a(VMohammed
p389
I269
tp390
a(VSarvar
p391
I270
tp392
a(VSaif-ur-Rehman
p393
I272
tp394
a(VAzamgarh
p395
I274
tp396
a(VMohammed
p397
I286
tp398
a(VSaif
p399
I287
tp400
a(VMohammed
p401
I352
tp402
a(VSaif
p403
I353
tp404
a(VSaif-ur-Rehman
p405
I391
tp406
a(VSarvar
p407
I430
tp408
a(VPaikar
p409
I433
tp410
a(VFarooq
p411
I434
tp412
asS'2010_3_4_st-238.txt'
p413
(lp414
(VThadiyantavide
p415
I29
tp416
a(VNazir
p417
I30
tp418
a(VNazir
p419
I54
tp420
a(VT.K.
p421
I85
tp422
a(VRajmohan
p423
I86
tp424
a(VNazir
p425
I114
tp426
a(VNazir
p427
I138
tp428
a(VNazir
p429
I201
tp430
a(VNazir
p431
I256
tp432
a(VShafas
p433
I260
tp434
a(VShamsuddin
p435
I261
tp436
asS'2010_5_1_st-19.txt'
p437
(lp438
(VDevendra
p439
I2
tp440
a(VGupta
p441
I3
tp442
a(VAjmer
p443
I11
tp444
a(VDargah
p445
I12
tp446
a(VDevendra
p447
I33
tp448
a(VGupta
p449
I34
tp450
a(VBihari
p451
I39
tp452
a(VGanj
p453
I40
tp454
asS'2010_5_2_st-43.txt'
p455
(lp456
(VJAIPUR
p457
I2
tp458
a(VDevendra
p459
I44
tp460
a(VGupta
p461
I45
tp462
a(VChandrashekhar
p463
I54
tp464
a(VAbhinav
p465
I72
tp466
a(VBharat
p467
I73
tp468
a(VChandrashekhar
p469
I121
tp470
a(VDevendra
p471
I147
tp472
a(VChandrashekhar
p473
I149
tp474
a(VPragnya
p475
I168
tp476
a(VThakur
p477
I169
tp478
a(VSrikant
p479
I171
tp480
a(VPurohit
p481
I172
tp482
asS'2010_4_24_st-443.txt'
p483
(lp484
s.