(dp0
S'2010_4_6_st-398.txt'
p1
(lp2
(VWaziristan
p3
F0.3010299956639812
tp4
a(VNorth
p5
F0.47712125471966244
tp6
a(VPeshawar
p7
F2.290034611362518
tp8
a(VU.S.
p9
F2.298853076409707
tp10
a(VISLAMABAD
p11
F2.3180633349627615
tp12
asS'2010_4_1_st-439.txt'
p13
(lp14
(VMetro
p15
F0.3010299956639812
tp16
a(VMoscow
p17
F0.47712125471966244
tp18
a(VChechnya
p19
F1.568201724066995
tp20
a(VDagestan
p21
F2.173186268412274
tp22
a(VKyzlyar
p23
F2.1931245983544616
tp24
a(VCaucasus
p25
F2.2278867046136734
tp26
a(VNorth
p27
F2.230448921378274
tp28
a(VRussia
p29
F2.2600713879850747
tp30
a(VMOSCOW
p31
F2.278753600952829
tp32
asS'2010_4_17_st-395.txt'
p33
(lp34
(VQuetta
p35
F0.3010299956639812
tp36
a(VBalochistan
p37
F0.6989700043360189
tp38
asS'2010_4_28_st-370.txt'
p39
(lp40
(VSalboni
p41
F0.3010299956639812
tp42
a(VLalgarh
p43
F2.3654879848909
tp44
a(VOrissa
p45
F2.4082399653118496
tp46
a(VRailway
p47
F2.456366033129043
tp48
a(VEastern
p49
F2.4578818967339924
tp50
a(VSouth
p51
F2.459392487759231
tp52
a(VMidnapur-Adra
p53
F2.4638929889859074
tp54
a(VMedinipur
p55
F2.5010592622177517
tp56
a(VPaschim
p57
F2.5024271199844326
tp58
a(VBengal
p59
F2.505149978319906
tp60
a(VWest
p61
F2.506505032404872
tp62
a(VBhadutala
p63
F2.510545010206612
tp64
a(VMidnapur
p65
F2.513217600067939
tp66
a(VKolkata
p67
F2.5289167002776547
tp68
asS'2010_5_1_st-420.txt'
p69
(lp70
(VStates
p71
F0.3010299956639812
tp72
a(VMalegaon
p73
F1.919078092376074
tp74
a(VBihariganj
p75
F2.584331224367531
tp76
a(VBihar
p77
F2.598790506763115
tp78
a(VMuzafarpur
p79
F2.6009728956867484
tp80
a(VRajasthan
p81
F2.6138418218760693
tp82
a(VAjmer
p83
F2.629409599102719
tp84
asS'2010_4_7_st-43.txt'
p85
(lp86
(VIsland
p87
F0.3010299956639812
tp88
a(VDelft
p89
F0.47712125471966244
tp90
a(VKachchatheevu
p91
F1.5185139398778875
tp92
a(VRameswaram
p93
F1.8195439355418688
tp94
asS'2010_3_30_st-396.txt'
p95
(lp96
(VLubyanka
p97
F0.3010299956639812
tp98
a(VMetro
p99
F2.1903316981702914
tp100
a(VMoscow
p101
F2.2671717284030137
tp102
a(VMOSCOW
p103
F2.303196057420489
tp104
asS'2010_3_2_st-12.txt'
p105
(lp106
(VAfghanistan
p107
F0.3010299956639812
tp108
a(VIndia
p109
F1.5440680443502757
tp110
a(VKabul
p111
F1.568201724066995
tp112
a(VDelhi
p113
F1.6720978579357175
tp114
a(VNew
p115
F1.6812412373755872
tp116
asS'2010_4_9_st-26.txt'
p117
(lp118
(VPune
p119
F0.3010299956639812
tp120
asS'2010_4_6_st-1.txt'
p121
(lp122
(VWaziristan
p123
F0.3010299956639812
tp124
a(VNorth
p125
F0.47712125471966244
tp126
a(VDir
p127
F1.6812412373755872
tp128
a(VLower
p129
F1.6901960800285136
tp130
a(VRawalpindi
p131
F1.845098040014257
tp132
a(VPeshawar
p133
F2.1367205671564067
tp134
a(VISLAMABAD
p135
F2.167317334748176
tp136
a(VU.S.
p137
F2.1760912590556813
tp138
asS'2010_3_30_st-27.txt'
p139
(lp140
(VRussia
p141
F0.3010299956639812
tp142
a(VMoscow
p143
F1.9542425094393248
tp144
a(VIndia
p145
F2.0043213737826426
tp146
a(VDELHI
p147
F2.012837224705172
tp148
a(VNEW
p149
F2.0170333392987803
tp150
asS'2010_4_29_st-341.txt'
p151
(lp152
(VVasanthamani
p153
F0.3010299956639812
tp154
a(VAnantapur
p155
F1.3979400086720377
tp156
a(VUravakonda
p157
F1.4471580313422192
tp158
a(VKoukuntla
p159
F1.4913616938342726
tp160
asS'2010_3_7_st-15.txt'
p161
(lp162
(VPradesh
p163
F0.3010299956639812
tp164
a(VUttar
p165
F0.47712125471966244
tp166
a(VNepal
p167
F1.0
tp168
a(VAhmedabad
p169
F1.414973347970818
tp170
a(VJaipur
p171
F1.5440680443502757
tp172
a(VVaranasi
p173
F1.7160033436347992
tp174
a(VGorakhpur
p175
F1.792391689498254
tp176
a(VAzamgarh
p177
F2.0
tp178
a(VSanjarpur
p179
F2.012837224705172
tp180
a(VLucknow
p181
F2.08278537031645
tp182
a(VSiddhartnagar
p183
F2.2810333672477277
tp184
a(VDelhi
p185
F2.303196057420489
tp186
a(VU.P.
p187
F2.3263358609287517
tp188
a(VLUCKNOW
p189
F2.346352974450639
tp190
asS'2010_4_2_st-340.txt'
p191
(lp192
(VMohanty
p193
F0.3010299956639812
tp194
a(VGagarin
p195
F0.47712125471966244
tp196
a(VBrahmananda
p197
F0.6020599913279624
tp198
a(VGirisola
p199
F1.6901960800285136
tp200
a(VGanjam
p201
F2.012837224705172
tp202
a(VGolanthara
p203
F2.0293837776852097
tp204
a(VChikiti
p205
F2.041392685158225
tp206
a(VPitatali
p207
F2.05307844348342
tp208
asS'2010_3_20_st-446.txt'
p209
(lp210
(VBazar
p211
F0.3010299956639812
tp212
a(VGate
p213
F0.47712125471966244
tp214
a(VBerhampur
p215
F2.075546961392531
tp216
asS'2010_4_16_st-456.txt'
p217
(lp218
(VLake
p219
F0.3010299956639812
tp220
a(VKandawgyi
p221
F0.47712125471966244
tp222
a(VYangon
p223
F1.6989700043360187
tp224
a(VMyanmar
p225
F1.7403626894942439
tp226
a(VYANGON
p227
F1.8195439355418688
tp228
asS'2010_5_2_st-384.txt'
p229
(lp230
(VHyderabad
p231
F0.3010299956639812
tp232
a(VMasjid
p233
F0.6020599913279624
tp234
a(VMakkah
p235
F0.6989700043360189
tp236
a(VMalegaon
p237
F1.4471580313422192
tp238
a(VPradesh
p239
F2.1986570869544226
tp240
a(VMadhya
p241
F2.2013971243204513
tp242
a(VMalwa
p243
F2.2068258760318495
tp244
a(VShujapur
p245
F2.2121876044039577
tp246
a(VAjmer
p247
F2.225309281725863
tp248
asS'2010_5_2_st-373.txt'
p249
(lp250
(VDelhi
p251
F0.3010299956639812
tp252
a(VNew
p253
F0.47712125471966244
tp254
a(VDewas
p255
F2.2174839442139063
tp256
a(VMhow
p257
F2.290034611362518
tp258
a(VPradesh
p259
F2.294466226161593
tp260
a(VMadhya
p261
F2.296665190261531
tp262
a(VAjmer
p263
F2.4899584794248346
tp264
a(Vpremises
p265
F2.4983105537896004
tp266
a(VDargah
p267
F2.499687082618404
tp268
a(VAhat-e-Noor
p269
F2.503790683057181
tp270
a(VHyderabad
p271
F2.5403294747908736
tp272
a(VMasjid
p273
F2.5428254269591797
tp274
a(VMakkah
p275
F2.5440680443502757
tp276
a(VMalegaon
p277
F2.5599066250361124
tp278
a(VRajasthan
p279
F2.6127838567197355
tp280
asS'2010_3_2_st-286.txt'
p281
(lp282
(VKannur
p283
F0.3010299956639812
tp284
a(VAnnakulam
p285
F0.6020599913279624
tp286
a(VMarad
p287
F1.505149978319906
tp288
a(VBangalore
p289
F1.8325089127062364
tp290
a(VBangladesh
p291
F1.9637878273455553
tp292
a(VRoad
p293
F2.214843848047698
tp294
a(VMavoor
p295
F2.2174839442139063
tp296
a(VHill
p297
F2.3502480183341627
tp298
a(VWest
p299
F2.3521825181113627
tp300
a(VPrison
p301
F2.383815365980431
tp302
a(VCentral
p303
F2.385606273598312
tp304
a(VViyyur
p305
F2.3873898263387296
tp306
a(VKOZHIKODE
p307
F2.4727564493172123
tp308
a(VKozhikode
p309
F2.5010592622177517
tp310
asS'2010_4_3_st-376.txt'
p311
(lp312
(VAhmedabad
p313
F0.3010299956639812
tp314
a(VLucknow
p315
F1.919078092376074
tp316
a(VJodhpur
p317
F2.113943352306837
tp318
a(VGujarat
p319
F2.2227164711475833
tp320
a(VJail
p321
F2.2278867046136734
tp322
a(VCentral
p323
F2.230448921378274
tp324
a(VSabarmati
p325
F2.2329961103921536
tp326
a(VRajasthan
p327
F2.3180633349627615
tp328
a(VStates
p329
F2.3242824552976926
tp330
a(VDistrict
p331
F2.424881636631067
tp332
a(VComplex
p333
F2.4471580313422194
tp334
a(VCourts
p335
F2.44870631990508
tp336
a(VPark
p337
F2.450249108319361
tp338
a(VBani
p339
F2.45178643552429
tp340
a(VDelhi
p341
F2.478566495593843
tp342
a(VPradesh
p343
F2.4899584794248346
tp344
a(VUttar
p345
F2.4913616938342726
tp346
a(VJaipur
p347
F2.530199698203082
tp348
asS'2010_3_4_st-238.txt'
p349
(lp350
(VBangladesh
p351
F0.3010299956639812
tp352
a(VBangalore
p353
F1.591064607026499
tp354
a(VChalad
p355
F2.0293837776852097
tp356
a(VPayyambalam
p357
F2.0718820073061255
tp358
a(VMaidanappally
p359
F2.0791812460476247
tp360
a(VAnakkulam
p361
F2.12057393120585
tp362
a(VKannur
p363
F2.1760912590556813
tp364
a(VKANNUR
p365
F2.424881636631067
tp366
a(VKozhikode
p367
F2.4313637641589874
tp368
asS'2010_5_1_st-19.txt'
p369
(lp370
(VAJMER
p371
F0.6020599913279624
tp372
asS'2010_5_2_st-43.txt'
p373
(lp374
(VStates
p375
F0.3010299956639812
tp376
a(VHyderabad
p377
F1.3010299956639813
tp378
a(VMasjid
p379
F1.3424226808222062
tp380
a(VMakkah
p381
F1.3617278360175928
tp382
a(VMalegaon
p383
F1.662757831681574
tp384
a(VPradesh
p385
F2.24551266781415
tp386
a(VMadhya
p387
F2.2479732663618064
tp388
a(VMalwa
p389
F2.2528530309798933
tp390
a(VShujapur
p391
F2.2576785748691846
tp392
a(VAjmer
p393
F2.2695129442179165
tp394
a(VRajasthan
p395
F2.298853076409707
tp396
asS'2010_4_24_st-443.txt'
p397
(lp398
(VCity
p399
F0.3010299956639812
tp400
a(VSadr
p401
F0.47712125471966244
tp402
a(Val-Sadr
p403
F1.0
tp404
a(VMoqtada
p405
F1.041392685158225
tp406
a(VU.S.
p407
F1.5563025007672873
tp408
a(VIraq
p409
F1.8260748027008264
tp410
a(VAl-Qaeda
p411
F1.8388490907372552
tp412
a(VBaghdad
p413
F1.99563519459755
tp414
as.