(dp0
S'2010_4_6_st-398.txt'
p1
(lp2
(VSuicide
p3
F0.3010299956639812
tp4
a(VJoshua
p5
F0.47712125471966244
tp6
a(VAnita
p7
F0.6020599913279624
tp8
asS'2010_4_1_st-439.txt'
p9
(lp10
(VBuryatsky
p11
F0.3010299956639812
tp12
a(VSaid
p13
F0.47712125471966244
tp14
a(VPutin
p15
F1.9030899869919435
tp16
a(VRadyuhin
p17
F2.481442628502305
tp18
a(VVladimir
p19
F2.482873583608754
tp20
asS'2010_4_17_st-395.txt'
p21
(lp22
(VZaidi
p23
F0.3010299956639812
tp24
a(VArshad
p25
F0.47712125471966244
tp26
a(VJoshua
p27
F2.075546961392531
tp28
a(VAnita
p29
F2.0791812460476247
tp30
asS'2010_4_28_st-370.txt'
p31
(lp32
(VBhattacharjee
p33
F0.3010299956639812
tp34
a(VBuddhadeb
p35
F0.47712125471966244
tp36
a(VMitra
p37
F2.2764618041732443
tp38
a(VKumar
p39
F2.278753600952829
tp40
a(VDilip
p41
F2.2810333672477277
tp42
asS'2010_5_1_st-420.txt'
p43
(lp44
(VMaulanas
p45
F0.3010299956639812
tp46
a(VRamzan
p47
F2.0253058652647704
tp48
a(VDhariwal
p49
F2.60959440922522
tp50
a(VKumar
p51
F2.61066016308988
tp52
a(VShanti
p53
F2.611723308007342
tp54
a(VGarg
p55
F2.649334858712142
tp56
a(VKapil
p57
F2.6503075231319366
tp58
a(VGupta
p59
F2.7331972651065692
tp60
a(VDevendra
p61
F2.733999286538387
tp62
a(VChishti
p63
F2.7520484478194387
tp64
a(VMoinuddin
p65
F2.7528164311882715
tp66
a(VKhwaja
p67
F2.7535830588929064
tp68
a(VJAIPUR
p69
F2.7693773260761385
tp70
a(VSebastian
p71
F2.7701152947871015
tp72
asS'2010_4_7_st-43.txt'
p73
(lp74
(VIlamvazhuthi
p75
F0.3010299956639812
tp76
a(VT.
p77
F0.47712125471966244
tp78
a(VAlex
p79
F1.1760912590556813
tp80
a(VStephen
p81
F1.3979400086720377
tp82
a(VStalin
p83
F1.7160033436347992
tp84
asS'2010_3_30_st-396.txt'
p85
(lp86
(VRadyuhin
p87
F0.47712125471966244
tp88
a(VVladimir
p89
F0.6020599913279624
tp90
asS'2010_3_2_st-12.txt'
p91
(lp92
(VKarzai
p93
F0.3010299956639812
tp94
a(VHamid
p95
F0.47712125471966244
tp96
a(VHaqqani
p97
F1.380211241711606
tp98
a(VMenon
p99
F2.0
tp100
a(VShankar
p101
F2.0043213737826426
tp102
a(VShiv
p103
F2.0086001717619175
tp104
asS'2010_4_9_st-26.txt'
p105
(lp106
(VChidambaram
p107
F0.3010299956639812
tp108
a(VP.
p109
F0.47712125471966244
tp110
a(VSingh
p111
F1.3617278360175928
tp112
a(VSatyapal
p113
F1.380211241711606
tp114
a(VInamdar
p115
F1.7558748556724915
tp116
a(VSiddhesh
p117
F1.7634279935629373
tp118
asS'2010_4_6_st-1.txt'
p119
(lp120
(VKhyber-Pukhtoonkhwa
p121
F0.3010299956639812
tp122
a(VOver
p123
F2.155336037465062
tp124
a(VJoshua
p125
F2.1583624920952498
tp126
a(VAnita
p127
F2.161368002234975
tp128
asS'2010_3_30_st-27.txt'
p129
(lp130
(VKrishna
p131
F0.3010299956639812
tp132
a(VS.M.
p133
F0.47712125471966244
tp134
a(VMedvedev
p135
F2.2576785748691846
tp136
a(VDmitry
p137
F2.2600713879850747
tp138
a(VSingh
p139
F2.271841606536499
tp140
a(VManmohan
p141
F2.27415784926368
tp142
asS'2010_4_29_st-341.txt'
p143
(lp144
(VVasanthamani
p145
F0.3010299956639812
tp146
a(VPaddy
p147
F1.4771212547196624
tp148
asS'2010_3_7_st-15.txt'
p149
(lp150
(VBasti
p151
F0.3010299956639812
tp152
a(VManipal
p153
F1.8512583487190752
tp154
a(VLal
p155
F2.1583624920952498
tp156
a(VBrij
p157
F2.161368002234975
tp158
a(VChhotu
p159
F2.27415784926368
tp160
a(VSalman
p161
F2.278753600952829
tp162
asS'2010_4_2_st-340.txt'
p163
(lp164
(VMurty
p165
F0.3010299956639812
tp166
a(VK.Narasingha
p167
F0.47712125471966244
tp168
a(VChikiti
p169
F0.8450980400142568
tp170
asS'2010_3_20_st-446.txt'
p171
(lp172
(VBehera
p173
F0.3010299956639812
tp174
a(VHarekrushna
p175
F0.47712125471966244
tp176
a(VLima
p177
F0.8450980400142568
tp178
a(VAnanga
p179
F0.9030899869919435
tp180
a(VBERHAMPUR
p181
F2.1072099696478683
tp182
asS'2010_4_16_st-456.txt'
p183
(lp184
sS'2010_5_2_st-384.txt'
p185
(lp186
(VPurohit
p187
F0.3010299956639812
tp188
a(VSrikant
p189
F0.47712125471966244
tp190
a(VThakur
p191
F0.6989700043360189
tp192
a(VPragnya
p193
F0.7781512503836436
tp194
a(VBharat
p195
F2.0043213737826426
tp196
a(VAbhinav
p197
F2.0086001717619175
tp198
a(VChandrashekhar
p199
F2.0791812460476247
tp200
a(VGupta
p201
F2.110589710299249
tp202
a(VDevendra
p203
F2.113943352306837
tp204
a(VJAIPUR
p205
F2.220108088040055
tp206
asS'2010_5_2_st-373.txt'
p207
(lp208
(VYadav
p209
F0.3010299956639812
tp210
a(VBabulal
p211
F0.47712125471966244
tp212
a(VChittaranjan
p213
F1.380211241711606
tp214
a(VAsansol
p215
F1.414973347970818
tp216
a(VJamtada
p217
F1.4471580313422192
tp218
a(VKumar
p219
F1.6020599913279625
tp220
a(VRamesh
p221
F1.6127838567197355
tp222
a(VAsimanand
p223
F1.7075701760979363
tp224
a(VPurohit
p225
F1.9590413923210936
tp226
a(VDargah
p227
F2.2380461031287955
tp228
a(VAjmer
p229
F2.2405492482825995
tp230
a(VGupta
p231
F2.2600713879850747
tp232
a(VDevendra
p233
F2.2624510897304293
tp234
a(VJoshi
p235
F2.296665190261531
tp236
a(VSunil
p237
F2.298853076409707
tp238
a(VDhariwal
p239
F2.444044795918076
tp240
a(VShanti
p241
F2.4456042032735974
tp242
a(VJAIPUR
p243
F2.593286067020457
tp244
a(VPradesh
p245
F2.5943925503754266
tp246
a(VMadhya
p247
F2.595496221825574
tp248
asS'2010_3_2_st-286.txt'
p249
(lp250
(VAzhar
p251
F0.3010299956639812
tp252
a(VSamsudheen
p253
F1.9542425094393248
tp254
a(VShafaz
p255
F1.9590413923210936
tp256
a(VHalim
p257
F2.0086001717619175
tp258
a(VAbdul
p259
F2.012837224705172
tp260
a(VRajmohan
p261
F2.2648178230095364
tp262
a(VT.K.
p263
F2.2671717284030137
tp264
a(VHaji
p265
F2.436162647040756
tp266
a(VUmmer
p267
F2.437750562820388
tp268
a(VThadiyantavide
p269
F2.444044795918076
tp270
a(VNazir
p271
F2.481442628502305
tp272
asS'2010_4_3_st-376.txt'
p273
(lp274
(VFarooq
p275
F0.3010299956639812
tp276
a(VPaikar
p277
F0.47712125471966244
tp278
a(VSaif
p279
F2.173186268412274
tp280
a(VAzamgarh
p281
F2.2095150145426308
tp282
a(VSaif-ur-Rehman
p283
F2.214843848047698
tp284
a(VSarvar
p285
F2.220108088040055
tp286
a(VMohammed
p287
F2.2227164711475833
tp288
a(VAhmed
p289
F2.2329961103921536
tp290
a(VShahbaz
p291
F2.2355284469075487
tp292
a(VBaran
p293
F2.3384564936046046
tp294
a(VJAIPUR
p295
F2.637489729512511
tp296
asS'2010_3_4_st-238.txt'
p297
(lp298
(VShamsuddin
p299
F0.3010299956639812
tp300
a(VShafas
p301
F0.47712125471966244
tp302
a(VRajmohan
p303
F2.2479732663618064
tp304
a(VT.K.
p305
F2.250420002308894
tp306
a(VNazir
p307
F2.367355921026019
tp308
a(VThadiyantavide
p309
F2.369215857410143
tp310
asS'2010_5_1_st-19.txt'
p311
(lp312
(VGanj
p313
F0.3010299956639812
tp314
a(VBihari
p315
F0.47712125471966244
tp316
a(VDargah
p317
F1.4771212547196624
tp318
a(VAjmer
p319
F1.4913616938342726
tp320
a(VGupta
p321
F1.591064607026499
tp322
a(VDevendra
p323
F1.6020599913279625
tp324
asS'2010_5_2_st-43.txt'
p325
(lp326
(VPurohit
p327
F0.3010299956639812
tp328
a(VSrikant
p329
F0.47712125471966244
tp330
a(VThakur
p331
F0.6989700043360189
tp332
a(VPragnya
p333
F0.7781512503836436
tp334
a(VBharat
p335
F2.0043213737826426
tp336
a(VAbhinav
p337
F2.0086001717619175
tp338
a(VChandrashekhar
p339
F2.0791812460476247
tp340
a(VGupta
p341
F2.110589710299249
tp342
a(VDevendra
p343
F2.113943352306837
tp344
a(VJAIPUR
p345
F2.2355284469075487
tp346
asS'2010_4_24_st-443.txt'
p347
(lp348
s.