(dp0
S'LOC'
p1
(lp2
(lp3
S'Ghaziabad railway station'
p4
aS'70'
p5
aS'Neutral'
p6
aa(lp7
S'Srinagar'
p8
aS'84'
p9
aS'Neutral'
p10
aa(lp11
S'Kashmir'
p12
aS'95'
p13
aS'Neutral'
p14
aasS'PER'
p15
(lp16
(lp17
S'Mukesh Singhal'
p18
aS'36'
p19
aS'Others'
p20
aa(lp21
S'Fayaz'
p22
aS'81'
p23
aS'Accused'
p24
aasS'TIM'
p25
(lp26
sS'hot_setting'
p27
S''
p28
sS'DAT'
p29
(lp30
S'Tuesday:20'
p31
aS'August:63'
p32
aS'August 12:63'
p33
aS'2008:66'
p34
asS'death'
p35
g28
sS'title'
p36
S'Hizbul militant gets 10-year RI'
p37
sS'det_loc'
p38
(lp39
S'India'
p40
aS'Uttar Pradesh'
p41
aS'Ghaziabad'
p42
ag28
ag28
asS'terror_group'
p43
(lp44
S'Hizb-ul-Mujahideen / Hizb-Ul-Mujahideen Pir Panjal Regiment'
p45
asS'content'
p46
S'A Hizbul Mujahideen terrorist was sentenced to rigorous imprisonment for 10 years by a fast track court here on Tuesday for attempting to set off explosions in the city . Additional District and Sessions judge Mukesh Singhal , while awarding the sentence to Fayaz , 21 , called him a threat to society . The Uttar Pradesh police arrested him , on August 12 , 2008 , near the Ghaziabad railway station with explosives and firearms . The prosecution said Fayaz , a Srinagar resident , was wanted in several bomb blast cases in Kashmir . PTI OPEN'
p47
sS'injured'
p48
g28
sS'org_unorg'
p49
S'Organized'
p50
sS'O'
p51
(lp52
S'terrorist:4'
p53
aS'rigorous imprisonment:8'
p54
aS'fast track court:15'
p55
aS'explosions:26'
p56
aS'railway station:71'
p57
aS'explosives:74'
p58
aS'firearms:76'
p59
aS'prosecution:79'
p60
aS'resident:85'
p61
aS'bomb blast:91'
p62
asS'unexpl'
p63
(lp64
g28
asS'ocassion'
p65
g28
sS'link'
p66
S'http://www.thehindu.com/todays-paper/hizbul-militant-gets-10year-ri/article969163.ece'
p67
sS'date'
p68
S'22-12-2010'
p69
sS'target'
p70
g28
sS'hot_spot'
p71
g28
sS'delivery_mod'
p72
g28
sS'delivery_met'
p73
g28
sS'expl'
p74
(lp75
g28
asS'ORG'
p76
(lp77
(lp78
S'Hizbul Mujahideen'
p79
aS'2'
p80
aS'Others'
p81
aa(lp82
S'Uttar Pradesh police'
p83
aS'56'
p84
aS'Others'
p85
aas.