(dp0
S'LOC'
p1
(lp2
(lp3
S'Ahmedabad'
p4
aS'240'
p5
aS'Neutral'
p6
aa(lp7
S'Ahmedabad'
p8
aS'280'
p9
aS'Neutral'
p10
aa(lp11
S'Ahmedabad'
p12
aS'298'
p13
aS'Neutral'
p14
aa(lp15
S'Hyderabad'
p16
aS'320'
p17
aS'Neutral'
p18
aasS'PER'
p19
(lp20
(lp21
S'Devender Gupta'
p22
aS'67'
p23
aS'Accused'
p24
aa(lp25
S'Lokesh Sharma'
p26
aS'70'
p27
aS'Accused'
p28
aa(lp29
S'N. Ramachander Rao'
p30
aS'203'
p31
aS'Comment'
p32
aa(lp33
S'Viqaruddin Ahmed'
p34
aS'258'
p35
aS'Accused'
p36
aa(lp37
S'Viqar'
p38
aS'261'
p39
aS'Accused'
p40
aa(lp41
S'Syed Ahmed Jali'
p42
aS'265'
p43
aS'Accused'
p44
aa(lp45
S'Suleman'
p46
aS'269'
p47
aS'Accused'
p48
aa(lp49
S'Viqar'
p50
aS'282'
p51
aS'Accused'
p52
aa(lp53
S'Vinaysinh'
p54
aS'291'
p55
aS'Victim'
p56
aasS'TIM'
p57
(lp58
sS'hot_setting'
p59
S''
p60
sS'DAT'
p61
(lp62
S'Monday:5'
p63
aS'2007:16'
p64
aS'June:109'
p65
aS'June 17:109'
p66
aS'Friday:231'
p67
aS'Monday:245'
p68
aS'2007:300'
p69
asS'death'
p70
g60
sS'title'
p71
S'Mecca Masjid blast: bail pleas dismissed'
p72
sS'org_unorg'
p73
S'Organized'
p74
sS'terror_group'
p75
(lp76
g60
asS'content'
p77
S"A local court on Monday dismissed the bail petitions filed by the two accused in 2007 Mecca Masjid bomb blast on the grounds that investigations are still on . It has also granted 90 days time to CBI for completing the investigation and filing the charge-sheet . The 14 -LCB- + t -RCB- -LCB- + h -RCB- Additional Chief Metropolitan Magistrate rejected the bail pleas of Devender Gupta and Lokesh Sharma who were arrested by the Rajasthan ATS in connection with Ajmer bomb blast case . The CBI later brought them to the city on a prisoner 's transit warrant in connection with Mecca Masjid blast case on June 17 and produced them in the court which remanded them to judicial custody . The court has observed that it 's a very sensitive case and religious feelings were involved in it . Investigations were not completed . Some more material objects have to be collected after apprehending the prime accused . Moreover , Unlawful activities prevention Act is invoked in this case to grant mandatory period of further 90 days for completing the investigation and filing charge-sheet . Hence , petitioners are not entitled for bail , it said . Defense counsel N. Ramachander Rao said a bail application would be moved in the session 's court after receiving the order copy . The court heard the bail pleas on Friday . Meanwhile , the Crime Branch officials from Ahmedabad approached the court on Monday requesting to hand over two pistols seized from the terror operative , Viqaruddin Ahmed alias Viqar and his associate Syed Ahmed Jali alias Suleman for scientific investigation into the constable 's shootout case in Ahmedabad . Viqar and his associates shot dead a police constable Vinaysinh under Maninagar police station limits in Ahmedabad in 2007 while looting a bank . They were also responsible for killing of a home guard and a constable in Hyderabad . OPEN"
p78
sS'injured'
p79
g60
sS'det_loc'
p80
(lp81
S'India'
p82
aS'Andhra Pradesh'
p83
ag60
ag60
ag60
asS'O'
p84
(lp85
S'court:3'
p86
aS'bail:8'
p87
aS'mecca masjid bomb blast:17'
p88
aS'investigation:42'
p89
aS'charge-sheet:46'
p90
aS'additional chief metropolitan:58'
p91
aS'magistrate:61'
p92
aS'bail:64'
p93
aS'ajmer bomb blast case:82'
p94
aS'prisoner:97'
p95
aS'transit warrant:99'
p96
aS'court:116'
p97
aS'custody:122'
p98
aS'sensitive case:133'
p99
aS'investigations:143'
p100
aS'prime accused:159'
p101
aS'prevention act:166'
p102
aS'prevention:166'
p103
aS'investigation:184'
p104
aS'defense counsel:201'
p105
aS'bail application:208'
p106
aS'terror operative:255'
p107
aS'associate:264'
p108
aS'suleman:269'
p109
aS'investigation:272'
p110
aS'constable:275'
p111
aS'shootout case:277'
p112
aS'constable:290'
p113
aS'killing:311'
p114
aS'home guard:314'
p115
aS'constable:318'
p116
asS'unexpl'
p117
(lp118
g60
asS'ocassion'
p119
g60
sS'link'
p120
S'http://www.thehindu.com/todays-paper/tp-national/tp-andhrapradesh/mecca-masjid-blast-bail-pleas-dismissed/article889147.ece'
p121
sS'date'
p122
S'18-05-2007'
p123
sS'target'
p124
S'Religious Places'
p125
sS'hot_spot'
p126
g60
sS'delivery_mod'
p127
g60
sS'delivery_met'
p128
S'Planted'
p129
sS'expl'
p130
(lp131
g60
asS'ORG'
p132
(lp133
(lp134
S'CBI'
p135
aS'38'
p136
aS'Others'
p137
aa(lp138
S'Rajasthan ATS'
p139
aS'77'
p140
aS'Others'
p141
aa(lp142
S'CBI'
p143
aS'88'
p144
aS'Others'
p145
aa(lp146
S'Mecca Masjid'
p147
aS'104'
p148
aS'Others'
p149
aa(lp150
S'Crime Branch'
p151
aS'236'
p152
aS'Others'
p153
aa(lp154
S'Maninagar police station'
p155
aS'293'
p156
aS'Others'
p157
aas.