(dp0
S'LOC'
p1
(lp2
(lp3
S'Ajmer'
p4
aS'339'
p5
aS'Event'
p6
aa(lp7
S'Ajmer'
p8
aS'373'
p9
aS'Event'
p10
aasS'PER'
p11
(lp12
(lp13
S'O. Narasimham Murthy'
p14
aS'233'
p15
aS'Comment'
p16
aa(lp17
S'Murthy'
p18
aS'302'
p19
aS'Comment'
p20
aasS'TIM'
p21
(lp22
sS'hot_setting'
p23
S''
p24
sS'DAT'
p25
(lp26
S'May 18 , 2007 : 56'
p27
aS'June:212'
p28
aS'June 9:212'
p29
aS'1994:274'
p30
aS'June:432'
p31
aS'June 9:432'
p32
asS'death'
p33
g24
sS'title'
p34
S"Setback' for Masjid blast case"
p35
sS'org_unorg'
p36
S'Organized'
p37
sS'terror_group'
p38
(lp39
g24
asS'content'
p40
S"The possibility of identifying the origin of explosives used in Mecca Masjid blast is bleak as the Andhra Pradesh Forensic Laboratory ( APFSL ) had destroyed the seized explosives . Chemical analysis Police had recovered an unexploded improvised explosive device ( IED ) from the mosque after another IED went off killing nine persons on May 18 , 2007 . The unexploded IED was then sent to the APFSL for chemical analysis . But after it completed its job , the laboratory authorities ordered destruction of the explosive charges . The destruction of the explosives came to light after the Central Bureau of Investigation ( CBI ) had written to the APFSL a month ago asking to send samples of the explosives so that it could try and find out where the explosives were made and the corresponding batch numbers . The CBI , which took over the blast investigation , wanted to send the samples to the Defence Research and Development Organisation ( DRDO ) for chemical fingerprinting . The DRDO has the necessary technological knowhow to pin-pointedly determine where the explosives were manufactured and that could have been clinching scientific evidence against the accused persons . But the CBI was in for a surprise when the APFSL informed on June 9 that it had destroyed all the samples in the interest of lab safety and security . Dangerous APFSL Director O. Narasimham Murthy said explosive substances sent to the lab would be destroyed as storing explosives posed a danger to the lab . The front portion of the three-storeyed lab was destroyed in an accidental blast of stored explosives , in 1994 . We get explosives for analysis from different States . We can not possibly store all the explosives in the lab . It 's dangerous , Mr. Murthy explained . CBI sources said the investigation was now based on circumstantial evidences . Had FSL provided us the samples , it could have helped us get scientific evidence against the accused , they explained . Ajmer samples The agency is now being helped by the NSG 's National Bomb Data Centre in determining the place of manufacture of explosives . We are also trying to get samples seized in Ajmer where the same accused persons triggered a similar explosion at a religious place , sources said . Cyclotol According to sources , the IEDs used in Masjidblast had 200 to 300 grams of Cyclotol - a mixture of RDX ( 90 per cent ) and Trinitrotoluene or TNT ( 10 per cent ) . APFSL informs CBI on June 9 that it had destroyed all the samples We can not possibly store all the explosives in the lab : APFSL Director OPEN"
p41
sS'injured'
p42
g24
sS'det_loc'
p43
(lp44
S'India'
p45
aS'Andhra Pradesh'
p46
ag24
ag24
ag24
asS'O'
p47
(lp48
S'possibility:2'
p49
aS'origin:6'
p50
aS'mecca masjid blast:11'
p51
aS'chemical analysis:31'
p52
aS'chemical analysis police:31'
p53
aS'chemical:31'
p54
aS'analysis:32'
p55
aS'improvised explosive device:38'
p56
aS'explosive device:39'
p57
aS'ied:42'
p58
aS'mosque:46'
p59
aS'ied:49'
p60
aS'ied:63'
p61
aS'apfsl:69'
p62
aS'chemical analysis:71'
p63
aS'job:79'
p64
aS'laboratory:82'
p65
aS'destruction:85'
p66
aS'explosive:88'
p67
aS'destruction:92'
p68
aS'light:98'
p69
aS'apfsl:112'
p70
aS'month:114'
p71
aS'batch:139'
p72
aS'blast investigation:149'
p73
aS'chemical:168'
p74
aS'drdo:172'
p75
aS'knowhow:177'
p76
aS'evidence:193'
p77
aS'surprise:206'
p78
aS'apfsl:209'
p79
aS'interest:223'
p80
aS'lab safety:225'
p81
aS'security:228'
p82
aS'apfsl director:231'
p83
aS'explosive:237'
p84
aS'lab:242'
p85
aS'danger:251'
p86
aS'lab:254'
p87
aS'front portion:257'
p88
aS'lab:262'
p89
aS'blast:268'
p90
aS'analysis:280'
p91
aS'store:289'
p92
aS'lab:295'
p93
aS'investigation:309'
p94
aS'fsl:318'
p95
aS'evidence:331'
p96
aS'agency:342'
p97
aS'nsg:349'
p98
aS'national:351'
p99
aS'national bomb data:351'
p100
aS'national bomb:351'
p101
aS'bomb:352'
p102
aS'centre:354'
p103
aS'place:358'
p104
aS'manufacture:360'
p105
aS'explosion:382'
p106
aS'place:386'
p107
aS'cyclotol:391'
p108
aS'masjidblast:400'
p109
aS'cyclotol:407'
p110
aS'mixture:410'
p111
aS'rdx:412'
p112
aS'cent:416'
p113
aS'trinitrotoluene:419'
p114
aS'tnt:421'
p115
aS'cent:425'
p116
aS'apfsl:428'
p117
aS'store:445'
p118
aS'lab:451'
p119
asS'unexpl'
p120
(lp121
g24
asS'ocassion'
p122
g24
sS'link'
p123
S'http://www.thehindu.com/todays-paper/setback-for-masjid-blast-case/article491266.ece'
p124
sS'date'
p125
S'18-05-2007'
p126
sS'target'
p127
S'Religious Places'
p128
sS'hot_spot'
p129
S'Mecca Masjid blast'
p130
sS'delivery_mod'
p131
g24
sS'delivery_met'
p132
g24
sS'expl'
p133
(lp134
S'RDX'
p135
aS'TNT'
p136
asS'ORG'
p137
(lp138
(lp139
S'Andhra Pradesh Forensic Laboratory'
p140
aS'18'
p141
aS'Others'
p142
aa(lp143
S'APFSL'
p144
aS'23'
p145
aS'Others'
p146
aa(lp147
S'APFSL'
p148
aS'69'
p149
aS'Others'
p150
aa(lp151
S'Central Bureau of Investigation'
p152
aS'101'
p153
aS'Others'
p154
aa(lp155
S'CBI'
p156
aS'106'
p157
aS'Others'
p158
aa(lp159
S'APFSL'
p160
aS'112'
p161
aS'Others'
p162
aa(lp163
S'CBI'
p164
aS'143'
p165
aS'Others'
p166
aa(lp167
S'Defence Research and Development Organisation'
p168
aS'159'
p169
aS'Others'
p170
aa(lp171
S'DRDO'
p172
aS'165'
p173
aS'Others'
p174
aa(lp175
S'DRDO'
p176
aS'172'
p177
aS'Others'
p178
aa(lp179
S'CBI'
p180
aS'201'
p181
aS'Others'
p182
aa(lp183
S'APFSL'
p184
aS'209'
p185
aS'Others'
p186
aa(lp187
S'APFSL'
p188
aS'231'
p189
aS'Others'
p190
aa(lp191
S'CBI'
p192
aS'305'
p193
aS'Others'
p194
aa(lp195
S'NSG'
p196
aS'349'
p197
aS'Others'
p198
aa(lp199
S'National Bomb Data Centre'
p200
aS'351'
p201
aS'Others'
p202
aa(lp203
S'APFSL'
p204
aS'428'
p205
aS'Others'
p206
aa(lp207
S'CBI'
p208
aS'430'
p209
aS'Others'
p210
aas.