(dp0
S'LOC'
p1
(lp2
(lp3
S'AJMER'
p4
aS'1'
p5
aS'Event'
p6
aa(lp7
S'Bihari Ganj'
p8
aS'40'
p9
aS'Accused Location'
p10
aasS'PER'
p11
(lp12
(lp13
S'Devendra Gupta'
p14
aS'3'
p15
aS'Accused'
p16
aa(lp17
S'Devendra Gupta'
p18
aS'34'
p19
aS'Accused'
p20
aasS'TIM'
p21
(lp22
sS'hot_setting'
p23
S''
p24
sS'DAT'
p25
(lp26
S'2007:11'
p27
aS'Wednesday:46'
p28
asS'death'
p29
g24
sS'title'
p30
S'Ajmer blast suspect remanded'
p31
sS'org_unorg'
p32
S'Organized'
p33
sS'terror_group'
p34
(lp35
g24
asS'content'
p36
S'AJMER : Devendra Gupta , arrested in connection with the 2007 Ajmer Dargah bomb blast and suspected to have links with a Hindu militant outfit , was remanded to 12-day police custody . Devendra Gupta , a resident of Bihari Ganj , was arrested on Wednesday when he had gone to meet his mother , sources said . PTI OPEN'
p37
sS'injured'
p38
g24
sS'det_loc'
p39
(lp40
S'India'
p41
aS'Rajasthan'
p42
aS'Ajmer'
p43
ag24
ag24
asS'O'
p44
(lp45
S'ajmer dargah bomb blast:12'
p46
aS'hindu militant outfit:23'
p47
asS'unexpl'
p48
(lp49
g24
asS'ocassion'
p50
g24
sS'link'
p51
S'http://www.thehindu.com/todays-paper/ajmer-blast-suspect-remanded/article759282.ece'
p52
sS'date'
p53
S'11-10-2007'
p54
sS'target'
p55
S'Religious Places'
p56
sS'hot_spot'
p57
S'Ajmer dargah'
p58
sS'delivery_mod'
p59
g24
sS'delivery_met'
p60
S'Planted'
p61
sS'expl'
p62
(lp63
g24
asS'ORG'
p64
(lp65
s.