(dp0
S'LOC'
p1
(lp2
(lp3
S'Delhi'
p4
aS'15'
p5
aS'Event'
p6
aa(lp7
S'U.P.'
p8
aS'36'
p9
aS'Neutral'
p10
aa(lp11
S'Delhi'
p12
aS'42'
p13
aS'Assoc Event Location'
p14
aa(lp15
S'U.P.'
p16
aS'136'
p17
aS'Neutral'
p18
aa(lp19
S'Gorakhpur'
p20
aS'149'
p21
aS'Event'
p22
aS'Neutral'
p23
aa(lp24
S'Varanasi'
p25
aS'159'
p26
aS'Event'
p27
aS'Neutral'
p28
aa(lp29
S'Jaipur'
p30
aS'176'
p31
aS'Event'
p32
aS'Neutral'
p33
aa(lp34
S'Ahmedabad'
p35
aS'185'
p36
aS'Event'
p37
aS'Neutral'
p38
aa(lp39
S'Delhi'
p40
aS'194'
p41
aS'Event'
p42
aS'Neutral'
p43
aa(lp44
S'Nepal'
p45
aS'201'
p46
aS'Neutral'
p47
aa(lp48
S'Basti'
p49
aS'203'
p50
aS'Neutral'
p51
aa(lp52
S'Siddhartnagar'
p53
aS'205'
p54
aS'Neutral'
p55
aa(lp56
S'UP'
p57
aS'208'
p58
aS'Neutral'
p59
aasS'PER'
p60
(lp61
(lp62
S'Salman'
p63
aS'19'
p64
aS'Accused'
p65
aa(lp66
S'Chhotu'
p67
aS'21'
p68
aS'Accused'
p69
aa(lp70
S'Salman'
p71
aS'53'
p72
aS'Accused'
p73
aa(lp74
S'Salman'
p75
aS'116'
p76
aS'Accused'
p77
aa(lp78
S'Salman'
p79
aS'139'
p80
aS'Accused'
p81
aa(lp82
S'Salman'
p83
aS'197'
p84
aS'Accused'
p85
aasS'TIM'
p86
(lp87
sS'hot_setting'
p88
S''
p89
sS'DAT'
p90
(lp91
S'Sunday:44'
p92
aS'March:104'
p93
aS'March 15:104'
p94
aS'May:151'
p95
aS'May 22:151'
p96
aS'November:163'
p97
aS'November 23:163'
p98
aS'November 23 , 2007:163'
p99
aS'May 13:169'
p100
aS'May:169'
p101
aS'2008:172'
p102
aS'July 26:187'
p103
aS'July:187'
p104
aS'2008:190'
p105
aS'September:234'
p106
aS'September 13:234'
p107
aS'2008:237'
p108
asS'death'
p109
g89
sS'title'
p110
S'Police remand for blasts accused'
p111
sS'det_loc'
p112
(lp113
S'India'
p114
aS'Delhi'
p115
aS'New Delhi'
p116
ag89
aS'Accused was arrested for involvement in multiple serial bomb blast cases'
p117
asS'terror_group'
p118
(lp119
g89
asS'content'
p120
S'Staff Reporter NEW DELHI : An alleged Indian Mujahideen operative and accused in the Delhi bomb blasts , Salman alias Chhotu , who has been arrested by the Anti-Terrorist Squad ( ATS ) of the U.P. police , was brought to Delhi on Sunday and remanded to eight days police custody . Salman , who has been named an accused in five FIRs lodged by the Delhi police , was brought to the Capital by a team of Delhi Police Special Cell after obtaining his transit remand . He was produced before a duty magistrate who sent him to the police custody till March 15 . The police had sought ten days custodial interrogation of Salman to unearth the Indian Mujahideen network and interrogate him in connection with several blast cases . According to the U.P. police , Salman was also involved in the serial bomb blasts in Gorakhpur on May 22 , 2007 , blasts in the Varanasi civil court on November 23 , 2007 , the May 13 , 2008 bomb blasts in Jaipur , as well as the serial blasts in Ahmedabad on July 26 , 2008 . Following the Delhi blasts , Salman slipped away to Nepal via Basti and Siddhartnagar districts of UP . He carried a cash reward of Rs .1 lakh on his head announced the Delhi Police for his alleged involvement in the blasts on September 13 , 2008 . OPEN'
p121
sS'injured'
p122
g89
sS'org_unorg'
p123
S'Organized'
p124
sS'O'
p125
(lp126
S'anti-terrorist:29'
p127
aS'anti-terrorist squad:29'
p128
aS'interrogation:114'
p129
aS'serial bomb:145'
p130
asS'unexpl'
p131
(lp132
g89
asS'ocassion'
p133
g89
sS'link'
p134
S'http://www.thehindu.com/todays-paper/tp-national/tp-newdelhi/police-remand-for-blasts-accused/article724956.ece'
p135
sS'date'
p136
S'08-03-2010'
p137
sS'target'
p138
g89
sS'hot_spot'
p139
g89
sS'delivery_mod'
p140
g89
sS'delivery_met'
p141
g89
sS'expl'
p142
(lp143
g89
asS'ORG'
p144
(lp145
(lp146
S'Indian Mujahideen'
p147
aS'8'
p148
aS'Accused'
p149
aa(lp150
S'Anti-Terrorist Squad'
p151
aS'29'
p152
aS'Others'
p153
aa(lp154
S'ATS'
p155
aS'32'
p156
aS'Others'
p157
aa(lp158
S'Delhi police'
p159
aS'67'
p160
aS'Others'
p161
aa(lp162
S'Delhi Police Special Cell'
p163
aS'79'
p164
aS'Others'
p165
aa(lp166
S'Indian Mujahideen'
p167
aS'120'
p168
aS'Accused'
p169
aa(lp170
S'Delhi Police'
p171
aS'224'
p172
aS'Others'
p173
aas.