(dp0
S'LOC'
p1
(lp2
(lp3
S'Ajmer'
p4
aS'8'
p5
aS'Neutral'
p6
aa(lp7
S'Ajmer'
p8
aS'155'
p9
aS'Neutral'
p10
aa(lp11
S'Rajasthan'
p12
aS'178'
p13
aS'Neutral'
p14
aasS'PER'
p15
(lp16
(lp17
S'Harshad Bai Solanki'
p18
aS'29'
p19
aS'Accused'
p20
aa(lp21
S'Mukesh Vasani'
p22
aS'34'
p23
aS'Accused'
p24
aa(lp25
S'Rattan Lal Mund'
p26
aS'46'
p27
aS'Others'
p28
aa(lp29
S'Harshad Bai Solanki'
p30
aS'93'
p31
aS'Others'
p32
aa(lp33
S'Mukesh Vasani'
p34
aS'110'
p35
aS'Others'
p36
aa(lp37
S'Aseemanand'
p38
aS'166'
p39
aS'Others'
p40
aasS'TIM'
p41
(lp42
sS'hot_setting'
p43
S''
p44
sS'DAT'
p45
(lp46
S'Tuesday:10'
p47
aS'December:26'
p48
aS'December 7:26'
p49
aS'October:75'
p50
aS'October 11:75'
p51
aS'October 11 , 2007:75'
p52
asS'death'
p53
g44
sS'title'
p54
S'Judicial remand for Ajmer blast accused'
p55
sS'det_loc'
p56
(lp57
S'India'
p58
aS'Rajasthan'
p59
aS'Ajmer'
p60
ag44
aS'Ajmer Dargah'
p61
asS'terror_group'
p62
(lp63
g44
asS'content'
p64
S"The court of Chief Judicial Magistrate in Ajmer on Tuesday remanded two of the arrested in the Ajmer Dargah blast case to judicial custody till December 7 . Harshad Bai Solanki , and Mukesh Vasani were in police custody till now . CJM court of Rattan Lal Mund ordered their judicial custody after the Rajasthan 's Anti Terror Squad ( ATS ) , probing the Ajmer Dargah bomb blast which claimed three lives on October 11 , 2007 , informed that they had done with the accused for the time being . Harshad Bai Solanki is charged with manufacturing and packing the bombs used in the subversive activity while Mukesh Vasani has been accused of planting them in Dargah premises . The ATS , which has filed an 806-page charge sheet in this connection , has so far arrested five persons . The case is being tried in the District and Sessions Court , Ajmer . ATS sources here said they would try to bring Aseemanand , one of the said kingpins of the conspiracy , to Rajasthan for questioning after getting him on a transit remand . OPEN"
p65
sS'injured'
p66
g44
sS'org_unorg'
p67
S'Organized'
p68
sS'O'
p69
(lp70
S'court:2'
p71
aS'chief judicial:4'
p72
aS'magistrate:6'
p73
aS'ajmer dargah blast case:18'
p74
aS'custody:24'
p75
aS'custody:39'
p76
aS'cjm court:43'
p77
aS'custody:52'
p78
aS'ajmer dargah bomb blast:66'
p79
aS'time:90'
p80
aS'packing:101'
p81
aS'activity:108'
p82
aS'charge sheet:130'
p83
aS'connection:134'
p84
aS'case:144'
p85
aS'conspiracy:175'
p86
aS'transit remand:186'
p87
asS'unexpl'
p88
(lp89
g44
asS'ocassion'
p90
g44
sS'link'
p91
S'http://www.thehindu.com/todays-paper/tp-national/tp-newdelhi/judicial-remand-for-ajmer-blast-accused/article908562.ece'
p92
sS'date'
p93
S'11-10-2007'
p94
sS'target'
p95
S'Religious Places'
p96
sS'hot_spot'
p97
S'Ajmer dargah'
p98
sS'delivery_mod'
p99
g44
sS'delivery_met'
p100
S'Planted'
p101
sS'expl'
p102
(lp103
g44
asS'ORG'
p104
(lp105
(lp106
S"Rajasthan 's Anti Terror Squad"
p107
aS'55'
p108
aS'Others'
p109
aa(lp110
S'ATS'
p111
aS'61'
p112
aS'Others'
p113
aa(lp114
S'ATS'
p115
aS'123'
p116
aS'Others'
p117
aa(lp118
S'Sessions Court'
p119
aS'152'
p120
aS'Others'
p121
aa(lp122
S'ATS'
p123
aS'157'
p124
aS'Others'
p125
aas.