(dp0
S'LOC'
p1
(lp2
(lp3
S'Sodigadde-Banasale'
p4
aS'15'
p5
aS'Event'
p6
aa(lp7
S'Belke Gram Panchayat'
p8
aS'17'
p9
aS'Event'
p10
aa(lp11
S'Bhatkal taluk'
p12
aS'22'
p13
aS'Event'
p14
aa(lp15
S'Mangalore'
p16
aS'109'
p17
aS'Neutral'
p18
aa(lp19
S'Bangalore'
p20
aS'111'
p21
aS'Neutral'
p22
aa(lp23
S'Bhatkal'
p24
aS'127'
p25
aS'Event'
p26
aasS'PER'
p27
(lp28
(lp29
S'Kartik Ramesh Naik'
p30
aS'43'
p31
aS'Others'
p32
aa(lp33
S'Ramesh Mastappa Naik'
p34
aS'53'
p35
aS'Others'
p36
aa(lp37
S'Vedamurty'
p38
aS'75'
p39
aS'Others'
p40
aa(lp41
S'Naik'
p42
aS'95'
p43
aS'Others'
p44
aa(lp45
S'Vedamurthy'
p46
aS'118'
p47
aS'Others'
p48
aasS'TIM'
p49
(lp50
sS'hot_setting'
p51
S''
p52
sS'DAT'
p53
(lp54
S'Sunday:25'
p55
asS'death'
p56
S'2'
p57
sS'title'
p58
S'Boy killed in blast in Bhatkal'
p59
sS'det_loc'
p60
(lp61
S'India'
p62
aS'Karnataka'
p63
ag52
aS'Uttara Kannada'
p64
aS'Belke Gram Panchayat limits in Bhatkal taluk'
p65
asS'terror_group'
p66
(lp67
g52
asS'content'
p68
S"A 12-year-old boy was killed and his father seriously injured in a blast in Sodigadde-Banasale in Belke Gram Panchayat limits in Bhatkal taluk on Sunday . The reason behind the blast is yet to be ascertained . According to local people , Kartik Ramesh Naik ( 12 ) and his father , Ramesh Mastappa Naik , were preparing a sulphur mixture for a crude bomb to scare away pigs . Deputy Superintendent of Police Vedamurty said that the exact reason behind the blast was not known . He said that the police searched Mr. Naik 's house but they did not find any clues . Forensic experts from Mangalore and Bangalore had been called in , Mr. Vedamurthy said . This is the second blast in Bhatkal this week . OPEN"
p69
sS'injured'
p70
S'0'
p71
sS'org_unorg'
p72
S'Organized'
p73
sS'O'
p74
(lp75
S'sulphur mixture for a crude bomb:60'
p76
aS'crude bomb:64'
p77
asS'unexpl'
p78
(lp79
g52
asS'ocassion'
p80
g52
sS'link'
p81
S'http://www.thehindu.com/todays-paper/tp-national/tp-karnataka/boy-killed-in-blast-in-bhatkal/article616952.ece'
p82
sS'date'
p83
S'05-09-2010'
p84
sS'target'
p85
g52
sS'hot_spot'
p86
g52
sS'delivery_mod'
p87
g52
sS'delivery_met'
p88
g52
sS'expl'
p89
(lp90
S'Crude bomb'
p91
asS'ORG'
p92
(lp93
s.