(dp0
S'LOC'
p1
(lp2
(lp3
S'Karnataka'
p4
aS'2'
p5
aS'Event'
p6
aa(lp7
S'Bangalore'
p8
aS'13'
p9
aS'Event'
p10
aa(lp11
S'Kasaragod'
p12
aS'19'
p13
aS'Event'
p14
aasS'PER'
p15
(lp16
(lp17
S'Ibrahim Moulavi'
p18
aS'6'
p19
aS'Accused'
p20
aS'Others'
p21
aasS'TIM'
p22
(lp23
sS'hot_setting'
p24
S''
p25
sS'DAT'
p26
(lp27
sS'death'
p28
g25
sS'title'
p29
S'Bangalore blasts accused held'
p30
sS'org_unorg'
p31
S'Organized'
p32
sS'terror_group'
p33
(lp34
g25
asS'content'
p35
S'The Karnataka Police have arrested Ibrahim Moulavi , an accused in the Bangalore bomb blasts case , near Kasaragod . Page 4 OPEN'
p36
sS'injured'
p37
g25
sS'det_loc'
p38
(lp39
S'India'
p40
aS'Karnataka'
p41
ag25
aS'Kasaragod'
p42
ag25
asS'O'
p43
(lp44
S'bangalore bomb blasts:13'
p45
aS'kasaragod:19'
p46
asS'unexpl'
p47
(lp48
g25
asS'ocassion'
p49
g25
sS'link'
p50
S'http://www.thehindu.com/todays-paper/tp-national/tp-karnataka/bangalore-blasts-accused-held/article835234.ece'
p51
sS'date'
p52
S'25-07-2008'
p53
sS'target'
p54
g25
sS'hot_spot'
p55
g25
sS'delivery_mod'
p56
g25
sS'delivery_met'
p57
g25
sS'expl'
p58
(lp59
g25
asS'ORG'
p60
(lp61
s.