(dp0
S'LOC'
p1
(lp2
(lp3
S'Veliyam'
p4
aS'19'
p5
aS'Neutral'
p6
aa(lp7
S'Punalur'
p8
aS'103'
p9
aS'Neutral'
p10
aasS'PER'
p11
(lp12
sS'TIM'
p13
(lp14
sS'hot_setting'
p15
S''
p16
sS'DAT'
p17
(lp18
S'November:24'
p19
aS'November 19:24'
p20
asS'death'
p21
g16
sS'title'
p22
S'Sketch of suspect released'
p23
sS'det_loc'
p24
(lp25
S'India'
p26
aS'Kerala'
p27
ag16
aS'Veliyam'
p28
ag16
asS'terror_group'
p29
(lp30
S'Miscreants,Dacoits & Smuggler Gang'
p31
asS'content'
p32
S': The police have released a sketch of a person suspected to be behind the bomb explosion at Veliyam on the night of November 19 . The police said the man was seen moving around in suspicious circumstances and vanished soon after the blast . The sketch was prepared on the basis of information given by those who claimed to have the person . On the basis of eyewitness accounts , the police said the suspect would be about 22 years of age , roughly 5.4 ft height with dark complexion . Information about the person can be passed on to the Punalur Dy . SP at 0475-2222595 or 9497990026 . OPEN'
p33
sS'injured'
p34
g16
sS'org_unorg'
p35
S'Organized'
p36
sS'O'
p37
(lp38
S'sketch:7'
p39
aS'bomb explosion:16'
p40
aS'night:22'
p41
aS'blast:44'
p42
aS'sketch:47'
p43
aS'eyewitness:69'
p44
aS'suspect:76'
p45
aS'information:93'
p46
asS'unexpl'
p47
(lp48
g16
asS'ocassion'
p49
g16
sS'link'
p50
S'http://www.thehindu.com/todays-paper/tp-national/tp-kerala/sketch-of-suspect-released/article914594.ece'
p51
sS'date'
p52
S'13-11-2010'
p53
sS'target'
p54
g16
sS'hot_spot'
p55
g16
sS'delivery_mod'
p56
g16
sS'delivery_met'
p57
S'Planted'
p58
sS'expl'
p59
(lp60
g16
asS'ORG'
p61
(lp62
s.