(dp0
S'LOC'
p1
(lp2
(lp3
S'Ajmer'
p4
aS'11'
p5
aS'Neutral'
p6
aa(lp7
S'Godhra'
p8
aS'27'
p9
aS'Source'
p10
aa(lp11
S'Gujarat'
p12
aS'29'
p13
aS'Source'
p14
aa(lp15
S'Ahata-e-Noor'
p16
aS'37'
p17
aS'Event'
p18
aa(lp19
S'Godhra'
p20
aS'62'
p21
aS'Source'
p22
aa(lp23
S'Ajmer'
p24
aS'71'
p25
aS'Neutral'
p26
aa(lp27
S'Vadodara'
p28
aS'122'
p29
aS'Neutral'
p30
aa(lp31
S'Dewas'
p32
aS'167'
p33
aS'Neutral'
p34
aa(lp35
S'Madhya Pradesh'
p36
aS'169'
p37
aS'Neutral'
p38
aa(lp39
S'Godhra'
p40
aS'183'
p41
aS'Neutral'
p42
aa(lp43
S'Vadodara'
p44
aS'278'
p45
aS'Neutral'
p46
aa(lp47
S'Ajmer'
p48
aS'349'
p49
aS'Neutral'
p50
aa(lp51
S'Ajmer'
p52
aS'444'
p53
aS'Neutral'
p54
aasS'PER'
p55
(lp56
(lp57
S'Mukesh Vasani'
p58
aS'54'
p59
aS'Accused'
p60
aa(lp61
S'Kapil Garg'
p62
aS'93'
p63
aS'Comment'
p64
aa(lp65
S'Harshad Bhai Solanki'
p66
aS'116'
p67
aS'Accused'
p68
aa(lp69
S'Harsdhad'
p70
aS'124'
p71
aS'Accused'
p72
aa(lp73
S'Mukesh'
p74
aS'130'
p75
aS'Accused'
p76
aa(lp77
S'Garg'
p78
aS'135'
p79
aS'Accused'
p80
aa(lp81
S'Mukesh'
p82
aS'137'
p83
aS'Accused'
p84
aa(lp85
S'Sunil Joshi'
p86
aS'159'
p87
aS'Accused'
p88
aa(lp89
S'Mukesh'
p90
aS'185'
p91
aS'Accused'
p92
aa(lp93
S'Garg'
p94
aS'213'
p95
aS'Accused'
p96
aa(lp97
S'Mukesh'
p98
aS'215'
p99
aS'Accused'
p100
aa(lp101
S'Harshad'
p102
aS'262'
p103
aS'Accused'
p104
aa(lp105
S'Sunil Joshi'
p106
aS'301'
p107
aS'Accused'
p108
aa(lp109
S'Mukesh'
p110
aS'318'
p111
aS'Accused'
p112
aa(lp113
S'Mukesh'
p114
aS'369'
p115
aS'Accused'
p116
aa(lp117
S'Harshad'
p118
aS'385'
p119
aS'Accused'
p120
aa(lp121
S'Indresh Kumar'
p122
aS'411'
p123
aS'Accused'
p124
aa(lp125
S'Sangh Parivar'
p126
aS'420'
p127
aS'Accused'
p128
aa(lp129
S'Devendra Gupta'
p130
aS'451'
p131
aS'Accused'
p132
aa(lp133
S'Lokesh Sharma'
p134
aS'454'
p135
aS'Accused'
p136
aa(lp137
S'Chadrashekhar Lave'
p138
aS'457'
p139
aS'Accused'
p140
aa(lp141
S'Sandeep Dange'
p142
aS'463'
p143
aS'Accused'
p144
aa(lp145
S'Ramji Kalsangre'
p146
aS'466'
p147
aS'Accused'
p148
aasS'TIM'
p149
(lp150
sS'hot_setting'
p151
S''
p152
sS'DAT'
p153
(lp154
S'October 11:43'
p155
aS'October:43'
p156
aS'October 11 , 2007:43'
p157
aS'Wednesday:64'
p158
aS'Thursday:73'
p159
aS'November 9:83'
p160
aS'November:83'
p161
aS'2007:172'
p162
aS'2002:273'
p163
aS'November 9:288'
p164
aS'November:288'
p165
aS'2004:295'
p166
aS'October:446'
p167
aS'October 22:446'
p168
asS'death'
p169
S'3'
p170
sS'title'
p171
S'Ajmer dargah blast: Man with RSS link arrested for planting bomb'
p172
sS'det_loc'
p173
(lp174
S'India'
p175
aS'Rajasthan'
p176
aS'Jaipur'
p177
aS'Godhra'
p178
ag152
asS'terror_group'
p179
(lp180
g152
asS'content'
p181
S"Barely two days after capturing the alleged bomb-maker in the Ajmer dargah blast case , the Rajasthan Anti-Terrorism Squad has arrested an anti-cow slaughter activist from Godhra in Gujarat on charges of planting the bomb at Ahata-e-Noor in the Sufi shrine on October 11 , 2007 , leaving three persons dead . Remanded Mukesh Vasani , 42 , was arrested from Godhra on Wednesday and produced in a court in Ajmer on Thursday . He has been remanded to police custody till November 9 . Additional Director-General of Police ( ATS ) Kapil Garg said here that this was the fifth arrest in the case , coming just two days after an alleged key conspirator Harshad Bhai Solanki was nabbed in Vadodara . Harsdhad reportedly revealed the name of Mukesh during interrogation . Mr. Garg said Mukesh was entrusted with the task of planting the bomb on the dargah premises by the main accused and the mastermind , Sunil Joshi , who was later murdered at Dewas in Madhya Pradesh in 2007 . A resident of Kalal Darwaza near Ice Factory in Godhra , Mukesh worked as a building contractor and is believed to be a Rashtriya Swayamsevak Sangh activist associated with the campaign for a ban on cow slaughter . Mr. Garg said Mukesh was an important ingredient of execution of the bomb blast and had admitted to having planted the bomb at the courtyard opposite the mausoleum in the dargah . The bomb exploded at the time of Iftar , when the devotees were breaking the Ramzan fast . Harshad , who happens to be a main accused in the 2002 Best Bakery carnage in Vadodara as well , is also in police custody till November 9 . He was absconding since 2004 and he allegedly conspired with Sunil Joshi during the period of hiding to carry out the dargah blast . The arrest of Mukesh is a major breakthrough for ATS , which has so far captured the accused involved in the conspiracy for gathering the bomb-making material , assembling them , packaging bombs to Ajmer and triggering the blast . The latest arrest exposes the man who actually planted the bomb . RSS link Mukesh is the fourth accused with the suspected RSS links apprehended in the case , while Harshad is believed to have strong Vishwa Hindu Parishad links . The investigation and arrests by the ATS , along with the reference to RSS leader Indresh Kumar in the charge-sheet , have revealed the Sangh Parivar 's links to the blast case . The ATS had filed its charge-sheet in the Additional Chief Judicial Magistrate 's court in Ajmer on October 22 against five persons Devendra Gupta , Lokesh Sharma , Chadrashekhar Lave and two absconding accused Sandeep Dange and Ramji Kalsangre . OPEN"
p182
sS'injured'
p183
g152
sS'org_unorg'
p184
S'Organized'
p185
sS'O'
p186
(lp187
S'ajmer dargah blast case:11'
p188
aS'anti-cow slaughter:23'
p189
aS'murdered at dewas:165'
p190
aS'kalal darwaza:177'
p191
aS'rashtriya swayamsevak sangh:197'
p192
aS'bomb blast:224'
p193
aS'best bakery:274'
p194
asS'unexpl'
p195
(lp196
g152
asS'ocassion'
p197
g152
sS'link'
p198
S'http://www.thehindu.com/todays-paper/tp-national/ajmer-dargah-blast-man-with-rss-link-arrested-for-planting-bomb/article869848.ece'
p199
sS'date'
p200
S'11-10-2007'
p201
sS'target'
p202
g152
sS'hot_spot'
p203
S'Ajmer dargah'
p204
sS'delivery_mod'
p205
g152
sS'delivery_met'
p206
g152
sS'expl'
p207
(lp208
g152
asS'ORG'
p209
(lp210
(lp211
S'Barely'
p212
aS'1'
p213
aS'Others'
p214
aa(lp215
S'Rajasthan Anti-Terrorism Squad'
p216
aS'17'
p217
aS'Others'
p218
aa(lp219
S'Ice Factory'
p220
aS'180'
p221
aS'Others'
p222
aa(lp223
S'Rashtriya Swayamsevak Sangh'
p224
aS'197'
p225
aS'Others'
p226
aa(lp227
S'RSS'
p228
aS'367'
p229
aS'Others'
p230
aa(lp231
S'RSS'
p232
aS'377'
p233
aS'Others'
p234
aa(lp235
S'Vishwa Hindu Parishad'
p236
aS'391'
p237
aS'Others'
p238
aa(lp239
S'RSS'
p240
aS'409'
p241
aS'Others'
p242
aas.