(dp0
S'LOC'
p1
(lp2
(lp3
S'The'
p4
aS'1'
p5
aS'Neutral'
p6
aa(lp7
S'central Iraq'
p8
aS'13'
p9
aS'Neutral'
p10
aa(lp11
S'Iraq'
p12
aS'14'
p13
aS'Neutral'
p14
aa(lp15
S'Balad Ruz'
p16
aS'46'
p17
aS'Event'
p18
aS'Neutral'
p19
aa(lp20
S'Baquba'
p21
aS'65'
p22
aS'Neutral'
p23
aa(lp24
S'Balad Ruz'
p25
aS'107'
p26
aS'Neutral'
p27
aa(lp28
S'Baquba'
p29
aS'201'
p30
aS'Event'
p31
aS'Neutral'
p32
aa(lp33
S'Iraq'
p34
aS'236'
p35
aS'Neutral'
p36
aasS'PER'
p37
(lp38
(lp39
S'Ahmed Alwan'
p40
aS'55'
p41
aS'Others'
p42
aa(lp43
S'Dr. Alwan'
p44
aS'103'
p45
aS'Others'
p46
aa(lp47
S'Ahmed al-Tamimi'
p48
aS'112'
p49
aS'Others'
p50
aasS'TIM'
p51
(lp52
sS'hot_setting'
p53
S''
p54
sS'DAT'
p55
(lp56
S'Saturday:29'
p57
aS'October:36'
p58
aS'Friday night:38'
p59
aS'Friday night:38'
p60
aS'Friday:38'
p61
aS'Friday:77'
p62
aS'Friday:117'
p63
aS'2008:157'
p64
aS'2003:183'
p65
aS'Friday:187'
p66
asS'death'
p67
S'30'
p68
sS'title'
p69
S'Iraq: coffee shop bombing kills 30'
p70
sS'det_loc'
p71
(lp72
S'Iraq'
p73
ag54
ag54
aS'Baquba'
p74
ag54
asS'terror_group'
p75
(lp76
S'Al-Queda'
p77
asS'content'
p78
S"The death toll from a suicide bombing at a coffee house in central Iraq 's restive Diyala province has risen to 30 , a medical official said on Saturday , making the deadliest attack in October . Friday night 's bombing in the town of Balad Ruz also wounded 68 people , according to Ahmed Alwan , a doctor at the general hospital of Baquba , the provincial capital of Diyala . The final toll from Friday 's bombing is 30 dead and 68 wounded . All the dead are men , but the wounded include three women and two children , Dr. Alwan said . Balad Ruz police chief Major Ahmed al-Tamimi had given on Friday a toll of 25 dead and 70 wounded when a suicide bomber detonated a belt filled with explosives at a coffee house in the centre of the city . Fall in bombings Suicide bombings across Iraq have fallen since 2008 when Diyala province was an Al-Qaeda stronghold . Although the militants have lost ground , the province remains one of the most restive since the 2003 U.S.-led invasion . Friday 's attack took place in a region with a Kurdish Shia majority . Baquba , once a stronghold of Al-Qaeda , is the ethnically mixed capital of Diyala , which remains one of the country 's most unstable provinces . The blast was the first major attack in Iraq in several weeks , as a seven-month political stalemate surrounding the formation of a new government has dragged on . AFP OPEN"
p79
sS'injured'
p80
S'78'
p81
sS'org_unorg'
p82
S'Organized'
p83
sS'O'
p84
(lp85
S'suicide bombing:6'
p86
aS'coffee house:10'
p87
aS'diyala province:17'
p88
aS'attack:34'
p89
aS'bombing:41'
p90
aS'bombing:79'
p91
aS'suicide bomber:128'
p92
aS'coffee house:138'
p93
aS'suicide:150'
p94
aS'iraq:153'
p95
aS'diyala province:159'
p96
aS'province:160'
p97
aS'al-qaeda stronghold:163'
p98
aS'baquba:201'
p99
aS'stronghold:205'
p100
aS'al-qaeda:207'
p101
asS'unexpl'
p102
(lp103
g54
asS'ocassion'
p104
g54
sS'link'
p105
S'http://www.thehindu.com/todays-paper/tp-international/iraq-coffee-shop-bombing-kills-30/article860616.ece'
p106
sS'date'
p107
S'31-10-2010'
p108
sS'target'
p109
S'Government Building'
p110
sS'hot_spot'
p111
S'coffee house in central Iraq'
p112
sS'delivery_mod'
p113
g54
sS'delivery_met'
p114
S'Planted'
p115
sS'expl'
p116
(lp117
S'Crude bomb'
p118
asS'ORG'
p119
(lp120
(lp121
S'Al-Qaeda'
p122
aS'163'
p123
aS'Others'
p124
aa(lp125
S'Al-Qaeda'
p126
aS'207'
p127
aS'Others'
p128
aas.