(dp0
S'LOC'
p1
(lp2
(lp3
S'U.P.'
p4
aS'13'
p5
aS'Neutral'
p6
aa(lp7
S'Delhi'
p8
aS'24'
p9
aS'Event'
p10
aS'Neutral'
p11
aa(lp12
S'Siddhartnagar'
p13
aS'34'
p14
aS'Event'
p15
aS'Neutral'
p16
aa(lp17
S'Lucknow'
p18
aS'104'
p19
aS'Neutral'
p20
aa(lp21
S'Sanjarpur'
p22
aS'122'
p23
aS'Source'
p24
aS'Neutral'
p25
aa(lp26
S'Azamgarh'
p27
aS'125'
p28
aS'Neutral'
p29
aa(lp30
S'Manipal'
p31
aS'148'
p32
aS'Neutral'
p33
aa(lp34
S'Gorakhpur'
p35
aS'163'
p36
aS'Neutral'
p37
aa(lp38
S'Varanasi'
p39
aS'173'
p40
aS'Neutral'
p41
aa(lp42
S'Jaipur'
p43
aS'190'
p44
aS'Neutral'
p45
aa(lp46
S'Ahmedabad'
p47
aS'199'
p48
aS'Neutral'
p49
aa(lp50
S'Delhi'
p51
aS'208'
p52
aS'Neutral'
p53
aa(lp54
S'Nepal'
p55
aS'215'
p56
aS'Neutral'
p57
aa(lp58
S'Basti'
p59
aS'217'
p60
aS'Neutral'
p61
aa(lp62
S'Siddhartnagar'
p63
aS'219'
p64
aS'Neutral'
p65
aa(lp66
S'Uttar Pradesh'
p67
aS'222'
p68
aS'Neutral'
p69
aasS'PER'
p70
(lp71
(lp72
S'Salman'
p73
aS'29'
p74
aS'Accused'
p75
aa(lp76
S'Brij Lal'
p77
aS'74'
p78
aS'Comment'
p79
aa(lp80
S'Salman'
p81
aS'82'
p82
aS'Accused'
p83
aa(lp84
S'Lal'
p85
aS'115'
p86
aS'Others'
p87
aa(lp88
S'Salman'
p89
aS'117'
p90
aS'Accused'
p91
aa(lp92
S'Salman'
p93
aS'211'
p94
aS'Accused'
p95
aasS'TIM'
p96
(lp97
sS'hot_setting'
p98
S''
p99
sS'DAT'
p100
(lp101
S'Friday night:37'
p102
aS'Friday:37'
p103
aS'September:63'
p104
aS'September 13:63'
p105
aS'2008:66'
p106
aS'Saturday:80'
p107
aS'2008:151'
p108
aS'May 22:165'
p109
aS'May:165'
p110
aS'November:177'
p111
aS'November 23:177'
p112
aS'November 23 , 2007:177'
p113
aS'May:183'
p114
aS'May 13:183'
p115
aS'2008:186'
p116
aS'July 26:201'
p117
aS'July:201'
p118
aS'2008:204'
p119
asS'death'
p120
S'0'
p121
sS'title'
p122
S'Delhi blasts accused arrested in U.P.'
p123
sS'org_unorg'
p124
S'Organized'
p125
sS'terror_group'
p126
(lp127
g99
asS'content'
p128
S'Special Correspondent LUCKNOW : The Anti-Terrorist Squad ( ATS ) of the U.P. police arrested an Indian Mujahideen operative and accused in the Delhi serial bomb blasts , Salman alias Chhotu , in Siddhartnagar district on Friday night . He carried a reward of Rs .1 lakh on his head announced by the Delhi police for his involvement in the blasts on September 13 , 2008 . ADG ( Law and Order ) Brij Lal told reporters here on Saturday that Salman had been named an accused in five FIRs lodged by the Delhi police . A team of Delhi police had reached Lucknow to secure his transit remand for further investigations . Mr. Lal said Salman , who belongs to Sanjarpur village in Azamgarh district , was enrolled in the Bachelor of Computer Applications ( BCA ) course on the Lucknow campus of Sikkim University , Manipal , in 2008 . He was also involved in the serial bomb blasts in Gorakhpur on May 22 , 2007 , blasts in the Varanasi civil court on November 23 , 2007 , the May 13 , 2008 bomb blasts in Jaipur , as well as the serial blasts in Ahmedabad on July 26 , 2008 . Following the Delhi blasts , Salman slipped away to Nepal via Basti and Siddhartnagar districts of Uttar Pradesh . OPEN'
p129
sS'injured'
p130
g121
sS'det_loc'
p131
(lp132
S'India'
p133
aS'Uttar Pradesh'
p134
aS'Siddharth Nagar'
p135
aS'Lucknow'
p136
ag99
asS'O'
p137
(lp138
S'anti-terrorist squad:6'
p139
aS'delhi serial bomb blasts:24'
p140
aS'chhotu:31'
p141
aS'siddhartnagar district:34'
p142
aS'serial bomb blasts in gorakhpur:159'
p143
aS'court:175'
p144
aS'2008 bomb blasts in jaipur:186'
p145
asS'unexpl'
p146
(lp147
g99
asS'ocassion'
p148
g99
sS'link'
p149
S'http://www.thehindu.com/todays-paper/delhi-blasts-accused-arrested-in-up/article724558.ece'
p150
sS'date'
p151
S'26-02-2010'
p152
sS'target'
p153
g99
sS'hot_spot'
p154
g99
sS'delivery_mod'
p155
g99
sS'delivery_met'
p156
g99
sS'expl'
p157
(lp158
g99
asS'ORG'
p159
(lp160
(lp161
S'Indian Mujahideen'
p162
aS'17'
p163
aS'Accused'
p164
aa(lp165
S'Delhi police'
p166
aS'54'
p167
aS'Others'
p168
aa(lp169
S'Sikkim University'
p170
aS'145'
p171
aS'Others'
p172
aas.