(dp0
S'LOC'
p1
(lp2
(lp3
S'Myanmar'
p4
aS'12'
p5
aS'Neutral'
p6
aa(lp7
S'Yangon'
p8
aS'17'
p9
aS'Event'
p10
aa(lp11
S'Kandawgyi Lake'
p12
aS'64'
p13
aS'Neutral'
p14
aasS'PER'
p15
(lp16
sS'TIM'
p17
(lp18
S'3 p.m.:51'
p19
asS'hot_setting'
p20
S''
p21
sS'DAT'
p22
(lp23
S'Thursday:19'
p24
asS'death'
p25
S'10'
p26
sS'title'
p27
S'Myanmar blasts kill 9'
p28
sS'det_loc'
p29
(lp30
g21
ag21
ag21
aS'Yangon'
p31
ag21
asS'terror_group'
p32
(lp33
g21
asS'content'
p34
S"YANGON : Three bombs ripped through traditional New Year festivities in Myanmar 's biggest city of Yangon on Thursday , killing nine people and injuring 94 others , said officials and state television . There was no indication as to who was behind the blasts , which occurred at about 3 p.m. near some 20 pavilions erected for the celebrations at the sprawling Kandawgyi Lake . In the past , the government has blamed bomb blasts on exiled anti-government groups and insurgents . AP OPEN"
p35
sS'injured'
p36
S'94'
p37
sS'org_unorg'
p38
S'Organized'
p39
sS'O'
p40
(lp41
S'traditional new:7'
p42
aS'new year festivities:8'
p43
aS'new year:8'
p44
aS'year:9'
p45
aS'city:15'
p46
aS'yangon:17'
p47
aS'state television:32'
p48
aS'indication:38'
p49
aS'government:72'
p50
aS'bomb:75'
p51
aS'anti-government:79'
p52
asS'unexpl'
p53
(lp54
g21
asS'ocassion'
p55
g21
sS'link'
p56
S'http://www.thehindu.com/todays-paper/tp-international/myanmar-blasts-kill-9/article750579.ece'
p57
sS'date'
p58
S'01-04-2010'
p59
sS'target'
p60
g21
sS'hot_spot'
p61
g21
sS'delivery_mod'
p62
g21
sS'delivery_met'
p63
g21
sS'expl'
p64
(lp65
g21
asS'ORG'
p66
(lp67
s.