(dp0
S'LOC'
p1
(lp2
(lp3
S'Kodagu'
p4
aS'2'
p5
aS'Neutral'
p6
aa(lp7
S'Somwarpet'
p8
aS'12'
p9
aS'Neutral'
p10
aa(lp11
S'Siddapur'
p12
aS'16'
p13
aS'Neutral'
p14
aa(lp15
S'Hosathota'
p16
aS'60'
p17
aS'Neutral'
p18
aa(lp19
S'Somwarpet taluk'
p20
aS'62'
p21
aS'Neutral'
p22
aa(lp23
S'Bangalore'
p24
aS'78'
p25
aS'Neutral'
p26
aa(lp27
S'Kerala'
p28
aS'103'
p29
aS'Neutral'
p30
aasS'PER'
p31
(lp32
(lp33
S'K.K. Shahina'
p34
aS'26'
p35
aS'Accused'
p36
aS'Others'
p37
aa(lp38
S'Manjunath Annigeri'
p39
aS'34'
p40
aS'Others'
p41
aa(lp42
S'Shahina'
p43
aS'55'
p44
aS'Others'
p45
aa(lp46
S'K. Nasir'
p47
aS'68'
p48
aS'Assoc Accused'
p49
aS'Others'
p50
aa(lp51
S'V.S. Achuthanandan'
p52
aS'111'
p53
aS'Others'
p54
aasS'TIM'
p55
(lp56
sS'hot_setting'
p57
S''
p58
sS'DAT'
p59
(lp60
S'Saturday:41'
p61
aS'2008:99'
p62
asS'death'
p63
g58
sS'title'
p64
S'We have acted on complaints: SP'
p65
sS'det_loc'
p66
(lp67
S'India'
p68
aS'Karnataka'
p69
ag58
aS'Kodagu'
p70
ag58
asS'terror_group'
p71
(lp72
g58
asS'content'
p73
S'The Kodagu police acted on complaints by two persons one from Somwarpet and another from Siddapur in the district in registering cases against Tehelka reporter K.K. Shahina and others , Superintendent of Police Manjunath Annigeri told The Hindu here on Saturday . It is not a suo motu case , he clarified . Ms. Shahina and four others visited Hosathota in Somwarpet taluk last week , where K. Nasir , who was arrested in connection with the Bangalore bomb blasts case , stayed in the guise of a ginger cultivator until his disappearance months before the blasts in 2008 . Journalists in Kerala submitted a memorandum to their Chief Minister V.S. Achuthanandan expressing concern over the registering of cases . OPEN'
p74
sS'injured'
p75
g58
sS'org_unorg'
p76
S'Organized'
p77
sS'O'
p78
(lp79
S'tehelka reporter:24'
p80
aS'reporter:25'
p81
aS'arrested:73'
p82
aS'bangalore bomb blasts case:78'
p83
aS'ginger cultivator:89'
p84
asS'unexpl'
p85
(lp86
g58
asS'ocassion'
p87
g58
sS'link'
p88
S'http://www.thehindu.com/todays-paper/tp-national/tp-kerala/we-have-acted-on-complaints-sp/article933167.ece'
p89
sS'date'
p90
S'25-07-2008'
p91
sS'target'
p92
g58
sS'hot_spot'
p93
S'Bangalore, Bangalore bomb blasts case'
p94
sS'delivery_mod'
p95
g58
sS'delivery_met'
p96
g58
sS'expl'
p97
(lp98
g58
asS'ORG'
p99
(lp100
(lp101
S'The Hindu'
p102
aS'37'
p103
aS'Others'
p104
aas.