(dp0
S'LOC'
p1
(lp2
(lp3
S'Poonamallee'
p4
aS'13'
p5
aS'Neutral'
p6
aa(lp7
S'Tamil Nadu'
p8
aS'30'
p9
aS'Neutral'
p10
aa(lp11
S'Kerala'
p12
aS'33'
p13
aS'Neutral'
p14
aa(lp15
S'Tiruchi'
p16
aS'78'
p17
aS'Neutral'
p18
aasS'PER'
p19
(lp20
(lp21
S'Kunangudi R.M. Haneefa'
p22
aS'45'
p23
aS'Accused'
p24
aa(lp25
S'R.M. Haneefa'
p26
aS'46'
p27
aS'Accused'
p28
aa(lp29
S'Ali Abdullah'
p30
aS'49'
p31
aS'Accused'
p32
aa(lp33
S"Erwadi ' Kasim"
p34
aS'52'
p35
aS'Accused'
p36
aa(lp37
S'Abdul Raheem'
p38
aS'56'
p39
aS'Accused'
p40
aa(lp41
S'Mubarak Ali'
p42
aS'59'
p43
aS'Accused'
p44
aa(lp45
S'Mohammed'
p46
aS'62'
p47
aS'Accused'
p48
aa(lp49
S'Riyas Rahman'
p50
aS'64'
p51
aS'Accused'
p52
aa(lp53
S'Ranjit Ahamed'
p54
aS'67'
p55
aS'Accused'
p56
aa(lp57
S'Mohammed Sultan'
p58
aS'88'
p59
aS'Accused'
p60
aS'Victim'
p61
aa(lp62
S'Asraf Ali'
p63
aS'92'
p64
aS'Accused'
p65
aasS'TIM'
p66
(lp67
sS'hot_setting'
p68
S''
p69
sS'DAT'
p70
(lp71
S'Friday:16'
p72
aS'December:35'
p73
aS'December 12:35'
p74
aS'December 12 , 1997:35'
p75
aS'1997:83'
p76
asS'death'
p77
S'10'
p78
sS'title'
p79
S'Eight acquitted in serial blasts cases'
p80
sS'det_loc'
p81
(lp82
S'India'
p83
aS'Tamil Nadu'
p84
aS'Kancheepuram'
p85
aS'Poonamallee'
p86
ag69
asS'terror_group'
p87
(lp88
g69
asS'content'
p89
S"Staff Reporter KANCHEEPURAM : The Special Court for Bomb Blast cases , Poonamallee , on Friday acquitted eight persons arrested in connection with serial blasts at railway stations in Tamil Nadu and Kerala on December 12 , 1997 . The Special Investigation Team arrested Kunangudi R.M. Haneefa , Ali Abdullah , Erwadi ' Kasim , Abdul Raheem , Mubarak Ali , Mohammed , Riyas Rahman and Ranjit Ahamed in connection with the serial blasts in Erode , Tiruchi and Aleppey stations in 1997 . Another accused , Mohammed Sultan died while Asraf Ali , believed to be the mastermind , remained elusive . Ten persons were killed and 72 injured in the blasts . The case was tried at the Special Court after filing of charge sheets against the arrested persons by the SIT . Around 150 witnesses were examined . OPEN"
p90
sS'injured'
p91
S'72'
p92
sS'org_unorg'
p93
S'Organized'
p94
sS'O'
p95
(lp96
S'special court:6'
p97
aS'bomb blast:9'
p98
aS'connection:22'
p99
aS'serial:24'
p100
aS'railway:27'
p101
aS'investigation:42'
p102
aS'investigation team:42'
p103
aS'team:43'
p104
aS'erwadi:52'
p105
aS'connection:70'
p106
aS'serial:73'
p107
aS'aleppey:80'
p108
aS'mastermind:99'
p109
aS'case:116'
p110
aS'filing:124'
p111
aS'charge:126'
p112
aS'sit:134'
p113
asS'unexpl'
p114
(lp115
g69
asS'ocassion'
p116
g69
sS'link'
p117
S'http://www.thehindu.com/todays-paper/tp-national/tp-tamilnadu/eight-acquitted-in-serial-blasts-cases/article772440.ece'
p118
sS'date'
p119
S'23-05-2010'
p120
sS'target'
p121
S'Railway Station'
p122
sS'hot_spot'
p123
g69
sS'delivery_mod'
p124
g69
sS'delivery_met'
p125
g69
sS'expl'
p126
(lp127
g69
asS'ORG'
p128
(lp129
(lp130
S'Special Court'
p131
aS'121'
p132
aS'Others'
p133
aas.