(dp0
S'LOC'
p1
(lp2
(lp3
S'Saranda'
p4
aS'18'
p5
aS'Neutral'
p6
aa(lp7
S'Jharkhand'
p8
aS'21'
p9
aS'Neutral'
p10
aa(lp11
S'West Singhbhum'
p12
aS'23'
p13
aS'Neutral'
p14
aa(lp15
S'Anandpur'
p16
aS'35'
p17
aS'Neutral'
p18
aa(lp19
S'Jharkhand'
p20
aS'55'
p21
aS'Neutral'
p22
aa(lp23
S'Orissa.More'
p24
aS'57'
p25
aS'Neutral'
p26
aa(lp27
S'Panchayat Bhawan'
p28
aS'117'
p29
aS'Neutral'
p30
aasS'PER'
p31
(lp32
(lp33
S'Neyaz Ahmad'
p34
aS'93'
p35
aS'Others'
p36
aa(lp37
S'Banu Pratap Singh'
p38
aS'108'
p39
aS'Others'
p40
aasS'TIM'
p41
(lp42
sS'hot_setting'
p43
S'anti-Naxal operation'
p44
sS'DAT'
p45
(lp46
S'Saturday:27'
p47
aS'Monday morning:42'
p48
aS'Monday:42'
p49
asS'death'
p50
S'13'
p51
sS'title'
p52
S'10 Naxals, three policemen killed'
p53
sS'det_loc'
p54
(lp55
S'India'
p56
aS'Jharkhand'
p57
aS'Ranchi'
p58
aS''
p59
ag59
asS'terror_group'
p60
(lp61
S'Maoist Communist Centre (MCC)'
p62
asS'content'
p63
S"Even as more than 10 Maoists and three policemen were killed in an anti-Naxal operation in the Saranda forest in Jharkhand 's West Singhbhum district since Saturday , Naxalites blasted the Panchayat Bhawan , Anandpur , and a hostel here on Monday morning . The operation was launched jointly by the security forces of Jharkhand and Orissa.More than 4,000 personnel of the Central Reserve Police Force , Jharkhand Jaguar , the STF and the Commando Battalion for Resolute Action ( CoBRA ) and two helicopters have been deployed . Director-General of Police Neyaz Ahmad said the bodies of some of the rebels were recovered . CRPF DIG Banu Pratap Singh said CRPF personnel camped in the Panchayat Bhawan and the hostel nearly two months ago . Three cane bombs , two weapons and five grenades were recovered . OPEN"
p64
sS'injured'
p65
g59
sS'org_unorg'
p66
S'Organized'
p67
sS'O'
p68
(lp69
S'anti-naxal:14'
p70
aS'operation:15'
p71
aS'forest:19'
p72
aS'district:25'
p73
aS'hostel:39'
p74
aS'morning:43'
p75
aS'operation:46'
p76
aS'security:52'
p77
aS'director-general:90'
p78
aS'crpf dig:106'
p79
aS'hostel:121'
p80
aS'cane:128'
p81
asS'unexpl'
p82
(lp83
g59
asS'ocassion'
p84
S'Operations against terrorist groups'
p85
sS'link'
p86
S'http://www.thehindu.com/todays-paper/10-naxals-three-policemen-killed/article799691.ece'
p87
sS'date'
p88
S'28-09-2010'
p89
sS'target'
p90
g59
sS'hot_spot'
p91
g59
sS'delivery_mod'
p92
g59
sS'delivery_met'
p93
g59
sS'expl'
p94
(lp95
g59
asS'ORG'
p96
(lp97
(lp98
S'Maoists'
p99
aS'6'
p100
aS'Accused'
p101
aa(lp102
S'Naxalites'
p103
aS'29'
p104
aS'Accused'
p105
aa(lp106
S'Panchayat Bhawan'
p107
aS'32'
p108
aS'Others'
p109
aa(lp110
S'Central Reserve Police Force'
p111
aS'63'
p112
aS'Others'
p113
aa(lp114
S'Jharkhand Jaguar'
p115
aS'68'
p116
aS'Others'
p117
aa(lp118
S'STF'
p119
aS'72'
p120
aS'Others'
p121
aa(lp122
S'Commando Battalion for Resolute Action'
p123
aS'75'
p124
aS'Others'
p125
aa(lp126
S'CoBRA'
p127
aS'81'
p128
aS'Others'
p129
aa(lp130
S'CRPF'
p131
aS'106'
p132
aS'Others'
p133
aa(lp134
S'CRPF'
p135
aS'112'
p136
aS'Others'
p137
aas.