(dp0
S'LOC'
p1
(lp2
(lp3
S'Rajgir railway station'
p4
aS'16'
p5
aS'Event'
p6
aa(lp7
S'Bihar'
p8
aS'20'
p9
aS'Neutral'
p10
aa(lp11
S'Nalanda'
p12
aS'22'
p13
aS'Event'
p14
aa(lp15
S'Rajgir'
p16
aS'65'
p17
aS'Neutral'
p18
aasS'PER'
p19
(lp20
(lp21
S'Santosh Kumar'
p22
aS'67'
p23
aS'Comment'
p24
aa(lp25
S'Kumar'
p26
aS'100'
p27
aS'Comment'
p28
aasS'TIM'
p29
(lp30
sS'hot_setting'
p31
S''
p32
sS'DAT'
p33
(lp34
S'Thursday:25'
p35
asS'death'
p36
S'0'
p37
sS'title'
p38
S'Bombs explode outside railway station in Bihar'
p39
sS'det_loc'
p40
(lp41
S'India'
p42
aS'Bihar'
p43
aS'Nalanda'
p44
aS'Rajgir'
p45
aS'Rajgir railway station'
p46
asS'terror_group'
p47
(lp48
g32
asS'content'
p49
S"Two bombs , wrapped in a polythene bag , exploded at the entrance of the Rajgir railway station in Bihar 's Nalanda district on Thursday , a police official said . The explosives , lying on a heap of garbage , went off when a dog tried to open the bag in search of food , Deputy Superintendent of Police ( DSP ) , Rajgir , Santosh Kumar said . The dog died on the spot . There were nine other bombs in the bag , the DSP said . No person sustained injuries in the blasts , Mr. Kumar said , adding the station premises had been sealed and an investigation started . PTI OPEN"
p50
sS'injured'
p51
g37
sS'org_unorg'
p52
S'Unorganized'
p53
sS'O'
p54
(lp55
S'polythene bag:7'
p56
aS'exploded:10'
p57
aS'explosives:33'
p58
aS'injuries:94'
p59
aS'blasts:97'
p60
aS'investigation:112'
p61
asS'unexpl'
p62
(lp63
g32
asS'ocassion'
p64
g32
sS'link'
p65
S'http://www.thehindu.com/todays-paper/bombs-explode-outside-railway-station-in-bihar/article869618.ece'
p66
sS'date'
p67
S'28-10-2010'
p68
sS'target'
p69
S'Railway Station'
p70
sS'hot_spot'
p71
S'Rajgir railway station garbage'
p72
sS'delivery_mod'
p73
g32
sS'delivery_met'
p74
S'Accidental'
p75
sS'expl'
p76
(lp77
g32
asS'ORG'
p78
(lp79
s.