(dp0
S'LOC'
p1
(lp2
(lp3
S'Kozhikode'
p4
aS'10'
p5
aS'Neutral'
p6
aa(lp7
S'KOZHIKODE'
p8
aS'30'
p9
aS'Event'
p10
aa(lp11
S'Kozhikode'
p12
aS'48'
p13
aS'Event'
p14
aa(lp15
S'Viyyur'
p16
aS'83'
p17
aS'Neutral'
p18
aa(lp19
S'Kozhikode'
p20
aS'94'
p21
aS'Neutral'
p22
aa(lp23
S'mofussil bus stations'
p24
aS'158'
p25
aS'Neutral'
p26
aa(lp27
S'Mavoor Road'
p28
aS'162'
p29
aS'Neutral'
p30
aa(lp31
S'Bangladesh'
p32
aS'235'
p33
aS'Neutral'
p34
aa(lp35
S'Bangladesh'
p36
aS'254'
p37
aS'Neutral'
p38
aa(lp39
S'Bangalore'
p40
aS'259'
p41
aS'Neutral'
p42
aa(lp43
S'Annakulam'
p44
aS'323'
p45
aS'Neutral'
p46
aa(lp47
S'Kannur'
p48
aS'325'
p49
aS'Neutral'
p50
aa(lp51
S'Maithanapally'
p52
aS'338'
p53
aS'Assoc Event Location'
p54
aa(lp55
S'Kannur'
p56
aS'341'
p57
aS'Neutral'
p58
aa(lp59
S'mofussil bus station'
p60
aS'381'
p61
aS'Assoc Event Location'
p62
aasS'PER'
p63
(lp64
(lp65
S'Nazir'
p66
aS'26'
p67
aS'Accused'
p68
aa(lp69
S'Thadiyantavide Nazir'
p70
aS'38'
p71
aS'Accused'
p72
aa(lp73
S'Ummer Haji'
p74
aS'42'
p75
aS'Accused'
p76
aa(lp77
S'Nazir'
p78
aS'64'
p79
aS'Accused'
p80
aa(lp81
S'Nazir'
p82
aS'122'
p83
aS'Accused'
p84
aa(lp85
S'T.K. Rajmohan'
p86
aS'131'
p87
aS'Others'
p88
aa(lp89
S'Nazir'
p90
aS'141'
p91
aS'Accused'
p92
aa(lp93
S'Nazir'
p94
aS'181'
p95
aS'Accused'
p96
aa(lp97
S'Nazir'
p98
aS'211'
p99
aS'Accused'
p100
aa(lp101
S'Abdul Halim'
p102
aS'213'
p103
aS'Accused'
p104
aa(lp105
S'Nazir'
p106
aS'223'
p107
aS'Accused'
p108
aa(lp109
S'Shafaz Samsudheen'
p110
aS'225'
p111
aS'Accused'
p112
aa(lp113
S'Halim'
p114
aS'264'
p115
aS'Accused'
p116
aa(lp117
S'Azhar'
p118
aS'314'
p119
aS'Accused'
p120
aa(lp121
S'Nazir'
p122
aS'350'
p123
aS'Others'
p124
aasS'TIM'
p125
(lp126
sS'hot_setting'
p127
S''
p128
sS'DAT'
p129
(lp130
S'Monday:50'
p131
aS'Tuesday:165'
p132
aS'March 3:172'
p133
aS'2006:175'
p134
aS'July:261'
p135
aS'July 2007:261'
p136
aS'May 2 , 2003 : 299'
p137
asS'death'
p138
g128
sS'title'
p139
S'Nazir brought to city to collect evidence'
p140
sS'det_loc'
p141
(lp142
S'India'
p143
aS'Kerala'
p144
aS'Kozhikode'
p145
aS'Calicut'
p146
ag128
asS'terror_group'
p147
(lp148
S'Lashkar-e-Taiba / Pasban-E-Ahle Hadis (LeT)'
p149
asS'content'
p150
S'Staff Reporter Terror suspect is the prime accused in Kozhikode twin-blast case Nazir to be taken to blast sites today NIA has secured custody of Nazir for 10 days KOZHIKODE : Suspected Lashkar-e-Taiba ( LeT ) operative Thadiyantavide Nazir , alias Ummer Haji , was brought to Kozhikode on Monday to collect evidence in connection with the twin-blast case in the city . Nazir , who is the first accused in the blast case , was brought amid tight security from the Viyyur Central Prison to the National Investigation Agency ( NIA ) Kozhikode camp office at the Rest House at West Hill in the morning . The NIA , which is probing the case , has secured the custody of Nazir for 10 days . NIA Superintendent of Police T.K. Rajmohan is investigating the case . Official sources said Nazir would be taken to the two blast sites at the Kerala State Road Transport Corporation and mofussil bus stations on Mavoor Road on Tuesday . The explosions had occurred on March 3 , 2006 . Investigations had revealed that Nazir had meticulously planned the blasts and executed the operation through a network of youths in the State . Earlier , the State police had established the links between the Nazir and Abdul Halim , the third accused in the case . Nazir and Shafaz Samsudheen , another accused , were nabbed by the Bangladesh police and later handed over to the Border Security Force ( BSF ) . Both had fled to Bangladesh after the terror-attacks in Bangalore in July 2007 . Halim had confessed to the interrogators that he had made two bombs for exploding them at the bus stations in protest against the denial of bail to the accused in the Marad massacre case of May 2 , 2003 . The improvised explosives devices were made at the house of Azhar , another accused in the case , at Annakulam in Kannur . He admitted that he had tested the bombs twice on the Maithanapally beach in Kannur . But now it has been revealed that Nazir had masterminded he two explosions to plant terror-attacks in other cities in the country . Two persons , including a policeman , had sustained injuries in the blast at the mofussil bus station . OPEN'
p151
sS'injured'
p152
g128
sS'org_unorg'
p153
S'Organized'
p154
sS'O'
p155
(lp156
S'twin-blast case:11'
p157
aS'lashkar-e-taiba:33'
p158
aS'twin-blast case:58'
p159
aS'accused:70'
p160
aS'blast:73'
p161
aS'viyyur central prison:83'
p162
aS'investigation:89'
p163
aS'marad massacre case:295'
p164
aS'mofussil bus station:381'
p165
asS'unexpl'
p166
(lp167
g128
asS'ocassion'
p168
g128
sS'link'
p169
S'http://www.thehindu.com/todays-paper/tp-national/tp-kerala/nazir-brought-to-city-to-collect-evidence/article720856.ece'
p170
sS'date'
p171
S'03-03-2006'
p172
sS'target'
p173
S'Public Transport'
p174
sS'hot_spot'
p175
S'bus station'
p176
sS'delivery_mod'
p177
g128
sS'delivery_met'
p178
S'Planted'
p179
sS'expl'
p180
(lp181
S'IED'
p182
asS'ORG'
p183
(lp184
(lp185
S'NIA'
p186
aS'21'
p187
aS'Others'
p188
aa(lp189
S'Lashkar-e-Taiba'
p190
aS'33'
p191
aS'Accused'
p192
aa(lp193
S'National Investigation Agency'
p194
aS'88'
p195
aS'Others'
p196
aa(lp197
S'NIA'
p198
aS'92'
p199
aS'Others'
p200
aa(lp201
S'NIA'
p202
aS'109'
p203
aS'Others'
p204
aa(lp205
S'NIA'
p206
aS'127'
p207
aS'Others'
p208
aa(lp209
S'Kerala State Road Transport Corporation'
p210
aS'152'
p211
aS'Others'
p212
aa(lp213
S'Border Security Force'
p214
aS'243'
p215
aS'Others'
p216
aa(lp217
S'BSF'
p218
aS'247'
p219
aS'Others'
p220
aas.