(dp0
S'LOC'
p1
(lp2
(lp3
S'Mecca Masjid'
p4
aS'20'
p5
aS'Neutral'
p6
aasS'PER'
p7
(lp8
(lp9
S'Swami Asimanand'
p10
aS'25'
p11
aS'Accused'
p12
aa(lp13
S'Chennakesava'
p14
aS'37'
p15
aS'Others'
p16
aa(lp17
S'Asimanand'
p18
aS'55'
p19
aS'Accused'
p20
aa(lp21
S'Chennakesava'
p22
aS'70'
p23
aS'Others'
p24
aa(lp25
S'Asimanand'
p26
aS'75'
p27
aS'Accused'
p28
aasS'TIM'
p29
(lp30
sS'hot_setting'
p31
S''
p32
sS'DAT'
p33
(lp34
S'Monday:5'
p35
aS'November 24:8'
p36
aS'November 30:63'
p37
asS'death'
p38
g32
sS'title'
p39
S"Court defers hearing on CBI's plea"
p40
sS'det_loc'
p41
(lp42
S'India'
p43
aS'Andhra Pradesh'
p44
ag32
aS'Hyderabad'
p45
ag32
asS'terror_group'
p46
(lp47
g32
asS'content'
p48
S"A local court on Monday deferred to November 24 the arguments on CBI 's request seeking 15-day custody of Mecca Masjid bomb blast accused Swami Asimanand . The court has postponed the hearing after defence counsel Chennakesava sought more time to study the case and to file a counter petition after meeting his client Asimanand , who is under judicial custody till November 30 . The magistrate had appointed Chennakesava as counsel to represent Asimanand . OPEN"
p49
sS'injured'
p50
g32
sS'org_unorg'
p51
S'Organized'
p52
sS'O'
p53
(lp54
S'court:3'
p55
aS'custody:18'
p56
aS'court:29'
p57
aS'hearing:33'
p58
aS'defence counsel:35'
p59
aS'case:44'
p60
aS'petition:50'
p61
aS'custody:61'
p62
aS'magistrate:67'
p63
aS'counsel:72'
p64
asS'unexpl'
p65
(lp66
g32
asS'ocassion'
p67
g32
sS'link'
p68
S'http://www.thehindu.com/todays-paper/tp-national/tp-andhrapradesh/court-defers-hearing-on-cbis-plea/article906408.ece'
p69
sS'date'
p70
S'18-05-2007'
p71
sS'target'
p72
S'Religious Places'
p73
sS'hot_spot'
p74
S'Mecca Masjid bomb blast'
p75
sS'delivery_mod'
p76
g32
sS'delivery_met'
p77
g32
sS'expl'
p78
(lp79
g32
asS'ORG'
p80
(lp81
(lp82
S'CBI'
p83
aS'13'
p84
aS'Others'
p85
aas.