(dp0
S'LOC'
p1
(lp2
(lp3
S'Rajasthan'
p4
aS'14'
p5
aS'Neutral'
p6
aa(lp7
S'Jaipur'
p8
aS'71'
p9
aS'Neutral'
p10
aa(lp11
S'Hyderabad'
p12
aS'219'
p13
aS'Neutral'
p14
aa(lp15
S'Jaipur'
p16
aS'240'
p17
aS'Neutral'
p18
aa(lp19
S'Ajmer'
p20
aS'283'
p21
aS'Neutral'
p22
aa(lp23
S'Hyderabad'
p24
aS'443'
p25
aS'Neutral'
p26
aasS'PER'
p27
(lp28
(lp29
S'Indresh Kumar'
p30
aS'35'
p31
aS'Accused'
p32
aS'Others'
p33
aa(lp34
S'Kumar'
p35
aS'64'
p36
aS'Accused'
p37
aa(lp38
S'Kumar'
p39
aS'111'
p40
aS'Accused'
p41
aa(lp42
S'Kumar'
p43
aS'222'
p44
aS'Accused'
p45
aa(lp46
S'Sunil Joshi'
p47
aS'287'
p48
aS'Accused'
p49
aa(lp50
S'Pragnya Singh Thakur'
p51
aS'307'
p52
aS'Accused'
p53
aa(lp54
S'Sunil Joshi'
p55
aS'359'
p56
aS'Accused'
p57
aa(lp58
S'Lokesh Sharma'
p59
aS'367'
p60
aS'Accused'
p61
aa(lp62
S'Ramji Kalsangare'
p63
aS'370'
p64
aS'Accused'
p65
aa(lp66
S'Devendra Gupta'
p67
aS'389'
p68
aS'Accused'
p69
aa(lp70
S'Sandeep Dange'
p71
aS'406'
p72
aS'Accused'
p73
aa(lp74
S'Sunil Joshi'
p75
aS'409'
p76
aS'Accused'
p77
aa(lp78
S'Chandrashekhar'
p79
aS'430'
p80
aS'Accused'
p81
aa(lp82
S'Devendra'
p83
aS'438'
p84
aS'Accused'
p85
aa(lp86
S'Lokesh'
p87
aS'440'
p88
aS'Accused'
p89
aa(lp90
S'Sandeep'
p91
aS'454'
p92
aS'Accused'
p93
aa(lp94
S'Ramji'
p95
aS'456'
p96
aS'Accused'
p97
aa(lp98
S'Jagendra Agrawal'
p99
aS'490'
p100
aS'Comment'
p101
aa(lp102
S'Devendra'
p103
aS'495'
p104
aS'Accused'
p105
aa(lp106
S'Chandrashekhar'
p107
aS'497'
p108
aS'Accused'
p109
aa(lp110
S'Lokesh'
p111
aS'499'
p112
aS'Accused'
p113
aasS'TIM'
p114
(lp115
sS'hot_setting'
p116
S''
p117
sS'DAT'
p118
(lp119
S'2007:21'
p120
aS'Friday:27'
p121
aS'October:73'
p122
aS'October 31:73'
p123
aS'October 31 , 2005:73'
p124
aS'October 26:525'
p125
aS'October:525'
p126
asS'death'
p127
g117
sS'title'
p128
S"Ajmer blast case: RSS leader's name figures in charge sheet"
p129
sS'det_loc'
p130
(lp131
S'India'
p132
aS'Rajasthan'
p133
aS'Ajmer'
p134
ag117
ag117
asS'terror_group'
p135
(lp136
g117
asS'content'
p137
S"The charge sheet filed by the Anti-Terrorism Squad ( ATS ) of the Rajasthan police against five accused in the 2007 Ajmer dargah blast case on Friday has named senior Rashtriya Swayamsevak Sangh leader Indresh Kumar as having provided guidance for a conspiracy hatched by radical elements for planting bombs in several cities across the country . Despite pointing the finger at Mr. Kumar for addressing a secret meeting in Jaipur on October 31 , 2005 , the charge sheet , filed in an Ajmer court , has not arraigned him as an accused . It only says the probe is still continuing , though the RSS has denied Mr. Kumar 's involvement . The ATS has not identified the RSS or the radical outfit Abhinav Bharat as being involved in the conspiracy for the blast , drawing flak from activist groups here . They have alleged that the investigating agencies are trying to pre-empt the conclusions about the Sangh Parivar 's direct role in terrorism . The 806-page charge sheet says the office-bearers of some organisations hatched a conspiracy to counter the terror attacks on Hindu religious places and prepared a list of targets where the blasts are to be carried out . These included the Ajmer dargah , the Malegaon mosque and the Makkah Masjid in Hyderabad . Mr. Kumar , says the charge sheet , addressed a secret meeting of radical activists at a guesthouse in Jaipur , where he exhorted them to get affiliated to various religious bodies for completing their mission . This will eliminate the scope for suspicion about their trips to different cities . According to the charge sheet , the main accused in the Ajmer blast case , Sunil Joshi of Indore ( who was later murdered ) ; the prime accused in the Malegaon blast case , Pragnya Singh Thakur ; and four others checked into the guesthouse under fake names for attending the meeting . The roles of different persons were decided at the meeting , with the prime task of carrying out the blast at the time of Iftar ' at Ahata-e-Noor in the dargah assigned to Sunil Joshi , alleges the charge sheet . Lokesh Sharma and Ramji Kalsangare were asked to collect weapons and explosives and carry out a recce . The charge sheet says Devendra Gupta was asked to arrange for a mobile SIM card with fake identity papers , while Sandeep Dange and Sunil Joshi would have to arrange for money for the terror activities . The ATS produced one of the accused , Chandrashekhar , in the court while two others Devendra and Lokesh are in Hyderabad for interrogation in connection with the Makkah Masjid blast . Sandeep and Ramji , who are reportedly absconding , were named as accused . The prosecution appended to the charge sheet 213 support documents as well as a list of 133 witnesses . Chief Judicial Magistrate Jagendra Agrawal took cognisance against Devendra , Chandrashekhar and Lokesh under various Sections of the Indian Penal Code , the Explosives Act and the Unlawful Activities ( Prevention ) Act and posted the case to October 26 . OPEN"
p138
sS'injured'
p139
g117
sS'org_unorg'
p140
S'Organized'
p141
sS'O'
p142
(lp143
S'charge sheet:2'
p144
aS'anti-terrorism squad:7'
p145
aS'ajmer dargah blast case:22'
p146
aS'conspiracy:43'
p147
aS'country:56'
p148
aS'secret meeting:68'
p149
aS'charge sheet:79'
p150
aS'ajmer court:85'
p151
aS'probe:100'
p152
aS'involvement:113'
p153
aS'radical outfit:124'
p154
aS'conspiracy:133'
p155
aS'blast:136'
p156
aS'activist:141'
p157
aS'sangh parivar:160'
p158
aS'terrorism:166'
p159
aS'charge sheet:170'
p160
aS'conspiracy:180'
p161
aS'terror:184'
p162
aS'hindu:187'
p163
aS'charge sheet:226'
p164
aS'secret meeting:231'
p165
aS'guesthouse:238'
p166
aS'mission:256'
p167
aS'scope:262'
p168
aS'suspicion:264'
p169
aS'charge sheet:275'
p170
aS'ajmer blast case:283'
p171
aS'malegaon blast case:303'
p172
aS'guesthouse:317'
p173
aS'meeting:324'
p174
aS'meeting:335'
p175
aS'ahata-e-noor:353'
p176
aS'dargah:356'
p177
aS'charge sheet:364'
p178
aS'recce:383'
p179
aS'charge sheet:386'
p180
aS'mobile sim:397'
p181
aS'sim card:398'
p182
aS'card:399'
p183
aS'fake identity:401'
p184
aS'money:416'
p185
aS'terror:419'
p186
aS'court:434'
p187
aS'interrogation:445'
p188
aS'connection:447'
p189
aS'prosecution:469'
p190
aS'charge sheet:473'
p191
aS'support:476'
p192
aS'magistrate:489'
p193
aS'cognisance:493'
p194
aS'indian penal code:505'
p195
aS'act:511'
p196
aS'prevention:517'
p197
aS'case:523'
p198
asS'unexpl'
p199
(lp200
g117
asS'ocassion'
p201
g117
sS'link'
p202
S'http://www.thehindu.com/todays-paper/ajmer-blast-case-rss-leaders-name-figures-in-charge-sheet/article846111.ece'
p203
sS'date'
p204
S'11-10-2007'
p205
sS'target'
p206
g117
sS'hot_spot'
p207
S'Ajmer dargah'
p208
sS'delivery_mod'
p209
g117
sS'delivery_met'
p210
g117
sS'expl'
p211
(lp212
g117
asS'ORG'
p213
(lp214
(lp215
S'Anti-Terrorism Squad'
p216
aS'7'
p217
aS'Others'
p218
aa(lp219
S'ATS'
p220
aS'10'
p221
aS'Others'
p222
aa(lp223
S'Rashtriya Swayamsevak Sangh'
p224
aS'31'
p225
aS'Others'
p226
aa(lp227
S'RSS'
p228
aS'107'
p229
aS'Others'
p230
aa(lp231
S'ATS'
p232
aS'116'
p233
aS'Others'
p234
aa(lp235
S'RSS'
p236
aS'121'
p237
aS'Others'
p238
aa(lp239
S'Abhinav Bharat'
p240
aS'126'
p241
aS'Others'
p242
aa(lp243
S'Ajmer dargah'
p244
aS'208'
p245
aS'Victim'
p246
aa(lp247
S'Malegaon mosque'
p248
aS'212'
p249
aS'Victim'
p250
aa(lp251
S'Makkah Masjid'
p252
aS'216'
p253
aS'Victim'
p254
aa(lp255
S'ATS'
p256
aS'423'
p257
aS'Others'
p258
aas.