(dp0
S'LOC'
p1
(lp2
(lp3
S'India'
p4
aS'25'
p5
aS'Neutral'
p6
aa(lp7
S'Delhi'
p8
aS'48'
p9
aS'Neutral'
p10
aa(lp11
S'Uttar Pradesh'
p12
aS'50'
p13
aS'Neutral'
p14
aa(lp15
S'Bangalore'
p16
aS'53'
p17
aS'Neutral'
p18
aa(lp19
S'Mumbai'
p20
aS'55'
p21
aS'Neutral'
p22
aa(lp23
S'Varanasi'
p24
aS'146'
p25
aS'Neutral'
p26
aa(lp27
S'Pune'
p28
aS'199'
p29
aS'Neutral'
p30
aa(lp31
S'Pune'
p32
aS'225'
p33
aS'Neutral'
p34
aa(lp35
S'Bangalore'
p36
aS'235'
p37
aS'Neutral'
p38
aa(lp39
S'Ahmedabad'
p40
aS'237'
p41
aS'Neutral'
p42
aa(lp43
S'New Delhi'
p44
aS'239'
p45
aS'Neutral'
p46
aasS'PER'
p47
(lp48
sS'TIM'
p49
(lp50
sS'hot_setting'
p51
S''
p52
sS'DAT'
p53
(lp54
S'Friday:115'
p55
aS'February:140'
p56
aS'February 23:140'
p57
aS'2005:143'
p58
aS'2008:157'
p59
aS'2008:242'
p60
asS'death'
p61
g52
sS'title'
p62
S'Indian Mujahideen declared terror outfit'
p63
sS'det_loc'
p64
(lp65
S'India'
p66
aS'Delhi'
p67
aS'New Delhi'
p68
ag52
ag52
asS'terror_group'
p69
(lp70
S'Indian Mujahideen'
p71
aS'Students Islamic Movement of India'
p72
aS'Lashkar-e-Taiba / Pasban-E-Ahle Hadis (LeT)'
p73
asS'content'
p74
S"The government has declared the Indian Mujahideen ( IM ) , suspected to be a shadow outfit of the banned Students Islamic Movement of India ( SIMI ) and Pakistan-based Lashker-e-Taiba , a terrorist outfit . The IM is allegedly involved in the serial bomb blasts in Delhi , Uttar Pradesh , Bangalore and Mumbai . It has been added to the list of terror groups under the Unlawful Activities ( Prevention ) Act , 1967 . An order has been issued adding the Indian Mujahideen and all its formations and front organisations to the list of Unlawful Activities ( Prevention ) Act , 1967 , the Home Ministry said in a statement on Friday . Under the Act , the government has banned 34 groups and declared them terror outfits . The IM came to light after the February 23 , 2005 blast in Varanasi . Its hand was suspected in the incident . In 2008 , it was allegedly involved in many terror attacks . Intelligence agencies believe that the outfit is also a front group of the Harkat-ul-Jihad-al Islami ( HuJI ) . A sleeper cell of the IM was suspected to be behind the Pune blast earlier this year in which two foreign nationals and seven others were killed and 60 injured . The attack at the German Bakery in Pune was similar to the group 's earlier strikes in Bangalore , Ahmedabad and New Delhi in 2008 , say sources in intelligence agencies . OPEN"
p75
sS'injured'
p76
g52
sS'org_unorg'
p77
S'Organized'
p78
sS'O'
p79
(lp80
S'simi:27'
p81
aS'serial bomb blasts:44'
p82
aS'prevention:72'
p83
aS'home ministry:108'
p84
aS'government:122'
p85
aS'terror outfits:130'
p86
aS'im:134'
p87
aS'light:137'
p88
aS'blast:144'
p89
aS'hand:149'
p90
aS'incident:154'
p91
aS'terror:165'
p92
aS'intelligence agencies:168'
p93
aS'outfit:173'
p94
aS'front group:177'
p95
aS'huji:184'
p96
aS'sleeper cell:188'
p97
aS'pune blast:199'
p98
aS'blast:200'
p99
aS'attack:219'
p100
aS'intelligence:247'
p101
asS'unexpl'
p102
(lp103
g52
asS'ocassion'
p104
g52
sS'link'
p105
S'http://www.thehindu.com/todays-paper/indian-mujahideen-declared-terror-outfit/article469163.ece'
p106
sS'date'
p107
S'05-06-2010'
p108
sS'target'
p109
g52
sS'hot_spot'
p110
g52
sS'delivery_mod'
p111
g52
sS'delivery_met'
p112
g52
sS'expl'
p113
(lp114
g52
asS'ORG'
p115
(lp116
(lp117
S'Indian Mujahideen'
p118
aS'6'
p119
aS'Others'
p120
aa(lp121
S'IM'
p122
aS'9'
p123
aS'Others'
p124
aa(lp125
S'Students Islamic Movement of India'
p126
aS'21'
p127
aS'Others'
p128
aa(lp129
S'SIMI'
p130
aS'27'
p131
aS'Others'
p132
aa(lp133
S'Lashker-e-Taiba'
p134
aS'31'
p135
aS'Others'
p136
aa(lp137
S'IM'
p138
aS'38'
p139
aS'Others'
p140
aa(lp141
S'Indian Mujahideen'
p142
aS'85'
p143
aS'Others'
p144
aa(lp145
S'Harkat-ul-Jihad-al Islami'
p146
aS'181'
p147
aS'Others'
p148
aa(lp149
S'IM'
p150
aS'192'
p151
aS'Others'
p152
aa(lp153
S'German Bakery'
p154
aS'222'
p155
aS'Victim'
p156
aS'Others'
p157
aas.