(dp0
S'LOC'
p1
(lp2
(lp3
S'Kodagu'
p4
aS'14'
p5
aS'Neutral'
p6
aa(lp7
S'Bangalore'
p8
aS'21'
p9
aS'Neutral'
p10
aa(lp11
S'Lakkere paisari'
p12
aS'28'
p13
aS'Neutral'
p14
aa(lp15
S'Hosathota'
p16
aS'31'
p17
aS'Neutral'
p18
aa(lp19
S'Somwarpet'
p20
aS'33'
p21
aS'Neutral'
p22
aa(lp23
S'Kodagu'
p24
aS'54'
p25
aS'Neutral'
p26
aa(lp27
S'Lakkere paisari'
p28
aS'70'
p29
aS'Neutral'
p30
aa(lp31
S'Lakkere paisari'
p32
aS'88'
p33
aS'Neutral'
p34
aa(lp35
S'Madikeri'
p36
aS'111'
p37
aS'Neutral'
p38
aa(lp39
S'Lakkere paisari'
p40
aS'119'
p41
aS'Neutral'
p42
aa(lp43
S'Bangalore'
p44
aS'141'
p45
aS'Neutral'
p46
aa(lp47
S'Hosathota'
p48
aS'150'
p49
aS'Neutral'
p50
aa(lp51
S'mahajar'
p52
aS'158'
p53
aS'Neutral'
p54
aa(lp55
S'Sunticoppa'
p56
aS'179'
p57
aS'Neutral'
p58
aa(lp59
S'Lakkere paisari'
p60
aS'187'
p61
aS'Neutral'
p62
aa(lp63
S'Bangalore'
p64
aS'212'
p65
aS'Neutral'
p66
aa(lp67
S'Hosathota'
p68
aS'221'
p69
aS'Accused Location'
p70
aa(lp71
S'Kerala'
p72
aS'232'
p73
aS'Neutral'
p74
aa(lp75
S'Hosathota'
p76
aS'249'
p77
aS'Accused Location'
p78
aasS'PER'
p79
(lp80
(lp81
S'Abdul Nasir Maudany'
p82
aS'9'
p83
aS'Accused'
p84
aa(lp85
S'Manjunath Annigeri'
p86
aS'58'
p87
aS'Others'
p88
aa(lp89
S'Maudany'
p90
aS'66'
p91
aS'Accused'
p92
aa(lp93
S'Maudany'
p94
aS'86'
p95
aS'Accused'
p96
aa(lp97
S'Maudany'
p98
aS'99'
p99
aS'Accused'
p100
aa(lp101
S'Tadiyandavide Nasir'
p102
aS'134'
p103
aS'Accused'
p104
aa(lp105
S'Maudany'
p106
aS'169'
p107
aS'Accused'
p108
aa(lp109
S'Maudany'
p110
aS'191'
p111
aS'Accused'
p112
aa(lp113
S'Nasir'
p114
aS'198'
p115
aS'Accused'
p116
aa(lp117
S'Nasir'
p118
aS'217'
p119
aS'Accused'
p120
aa(lp121
S'Nasir'
p122
aS'241'
p123
aS'Accused'
p124
aasS'TIM'
p125
(lp126
S'5.30 p.m.:91'
p127
asS'hot_setting'
p128
S''
p129
sS'DAT'
p130
(lp131
S'Saturday:36'
p132
aS'Saturday:113'
p133
aS'Saturday morning:113'
p134
aS'2006:223'
p135
asS'death'
p136
g129
sS'title'
p137
S"Maudany's Kodagu links being probed"
p138
sS'det_loc'
p139
(lp140
S'India'
p141
aS'Karnataka'
p142
aS'Madikeri'
p143
ag129
ag129
asS'terror_group'
p144
(lp145
g129
asS'content'
p146
S"People 's Democratic Party ( PDP ) leader Abdul Nasir Maudany 's alleged Kodagu links are being explored by the Bangalore police , who took him to Lakkere paisari at Hosathota in Somwarpet taluk on Saturday as part of the investigation , according to information received here . The news was confirmed by Kodagu Superintendent of Police Manjunath Annigeri . I have information that Mr. Maudany was taken to Lakkere paisari for investigation today , he told The Hindu . The police team brought Mr. Maudany to Lakkere paisari around 5.30 p.m. , the source said . Mr. Maudany and three others ' were interrogated at a homestay facility near Madikeri since Saturday morning and later taken to Lakkere paisari , sources said . A person who had rented out a room to Tadiyandavide Nasir , an accused in the Bangalore serial blasts case , during his stay at Hosathota was interrogated and the police conducted a mahajar of the room . It was also stated that Mr. Maudany was allowed to offer prayers at a masjid in Sunticoppa on his request after the visit to Lakkere paisari . Mr. Maudany 's name was allegedly mentioned by Nasir , who was arrested by the police last year in connection with the Bangalore bomb blasts case . Nasir had stayed at Hosathota since 2006 in the guise of a ginger cultivator from Kerala before his sudden disappearance from the area . Nasir is said to have manufactured bombs at Hosathota and he was visited frequently by strangers . OPEN"
p147
sS'injured'
p148
g129
sS'org_unorg'
p149
S'Organized'
p150
sS'O'
p151
(lp152
S'democratic party:3'
p153
aS'pdp:6'
p154
aS'leader:8'
p155
aS'kodagu:14'
p156
aS'investigation:41'
p157
aS'information:45'
p158
aS'superintendent:55'
p159
aS'information:63'
p160
aS'investigation today:73'
p161
aS'bangalore serial blasts case:141'
p162
aS'mahajar:158'
p163
aS'masjid:177'
p164
aS'request:182'
p165
aS'year:207'
p166
aS'bangalore bomb blasts case:212'
p167
aS'guise:226'
p168
aS'ginger cultivator:229'
p169
aS'disappearance:236'
p170
asS'unexpl'
p171
(lp172
g129
asS'ocassion'
p173
g129
sS'link'
p174
S'http://www.thehindu.com/todays-paper/tp-national/tp-kerala/maudanys-kodagu-links-being-probed/article587541.ece'
p175
sS'date'
p176
S'25-07-2008'
p177
sS'target'
p178
g129
sS'hot_spot'
p179
S'Bangalore bomb blasts case'
p180
sS'delivery_mod'
p181
g129
sS'delivery_met'
p182
g129
sS'expl'
p183
(lp184
g129
asS'ORG'
p185
(lp186
(lp187
S"People 's Democratic Party"
p188
aS'1'
p189
aS'Others'
p190
aa(lp191
S'The Hindu'
p192
aS'78'
p193
aS'Others'
p194
aas.