(dp0
S'LOC'
p1
(lp2
(lp3
S'Kodagu'
p4
aS'23'
p5
aS'Neutral'
p6
aa(lp7
S'Hosathota'
p8
aS'57'
p9
aS'Neutral'
p10
aa(lp11
S'Bangalore'
p12
aS'71'
p13
aS'Neutral'
p14
aa(lp15
S'Hosathotha'
p16
aS'85'
p17
aS'Event'
p18
aa(lp19
S'Hosathotha'
p20
aS'122'
p21
aS'Neutral'
p22
aa(lp23
S'Bangalore'
p24
aS'141'
p25
aS'Neutral'
p26
aa(lp27
S'Kodagu'
p28
aS'149'
p29
aS'Neutral'
p30
aa(lp31
S'Bangalore'
p32
aS'161'
p33
aS'Neutral'
p34
aasS'PER'
p35
(lp36
(lp37
S'Abdul Nasir Maudany'
p38
aS'10'
p39
aS'Others'
p40
aa(lp41
S'Maudany'
p42
aS'45'
p43
aS'Accused'
p44
aa(lp45
S'Maudani'
p46
aS'52'
p47
aS'Accused'
p48
aa(lp49
S'Maudany'
p50
aS'87'
p51
aS'Accused'
p52
aa(lp53
S'T. Nazir'
p54
aS'93'
p55
aS'Accused'
p56
aa(lp57
S'Maudany'
p58
aS'139'
p59
aS'Accused'
p60
aa(lp61
S'Maudany'
p62
aS'151'
p63
aS'Accused'
p64
aa(lp65
S'Maudany'
p66
aS'202'
p67
aS'Accused'
p68
aa(lp69
S'Maudany'
p70
aS'222'
p71
aS'Accused'
p72
aasS'TIM'
p73
(lp74
sS'hot_setting'
p75
S''
p76
sS'DAT'
p77
(lp78
S'Friday:15'
p79
aS'Friday:34'
p80
aS'July:73'
p81
aS'July 2008:73'
p82
aS'Monday:163'
p83
asS'death'
p84
S'1'
p85
sS'title'
p86
S'Maudany taken to Kodagu'
p87
sS'det_loc'
p88
(lp89
S'India'
p90
aS'Karnataka'
p91
aS'Bangalore Urban'
p92
aS'Kodagu'
p93
ag76
asS'terror_group'
p94
(lp95
g76
asS'content'
p96
S"Kerala People 's Democratic Party ( PDP ) leader Abdul Nasir Maudany was on Friday taken by the Bangalore City police to Kodagu . Sources in the city police told The Hindu on Friday that a team of four officials left by road with Maudany . The team wanted to take Maudani to a place in Hosathota where they say the conspiracy to carry out the serial bomb blasts in Bangalore in July 2008 was hatched . It is at a ginger plantation at Hosathotha that Maudany is supposed to have met T. Nazir , the prime accused in the blasts in which a woman was killed and 20 were injured . The team wanted to investigate whether the plantation at Hosathotha was being used as a covert meeting place for hatching conspiracies . The police team with Maudany left Bangalore by road in the morning and reached Kodagu . Maudany and the team is expected to be back in Bangalore on Monday . Meanwhile , the city police have recorded the statement of 255 witnesses in relation to serial blasts . Since more than a dozen accused in the blasts are PDP members , the needle of suspicion was on Maudany , a senior police official on condition of anonymity told The Hindu . Sources said the two-day interrogation of Maudany had so far not revealed anything substantial . OPEN"
p97
sS'injured'
p98
S'20'
p99
sS'org_unorg'
p100
S'Organized'
p101
sS'O'
p102
(lp103
S'conspiracy:62'
p104
aS'serial bomb blasts:67'
p105
aS'ginger plantation:82'
p106
aS'killed:107'
p107
aS'injured:111'
p108
aS'statement:173'
p109
aS'serial blasts:180'
p110
aS'suspicion:199'
p111
aS'interrogation:220'
p112
aS'anything:228'
p113
asS'unexpl'
p114
(lp115
g76
asS'ocassion'
p116
g76
sS'link'
p117
S'http://www.thehindu.com/todays-paper/tp-national/tp-karnataka/maudany-taken-to-kodagu/article585320.ece'
p118
sS'date'
p119
S'25-07-2008'
p120
sS'target'
p121
g76
sS'hot_spot'
p122
g76
sS'delivery_mod'
p123
g76
sS'delivery_met'
p124
g76
sS'expl'
p125
(lp126
g76
asS'ORG'
p127
(lp128
(lp129
S"Kerala People 's Democratic Party"
p130
ag85
aS'Others'
p131
aa(lp132
S'PDP'
p133
aS'7'
p134
aS'Others'
p135
aa(lp136
S'Bangalore City police'
p137
aS'19'
p138
aS'Others'
p139
aa(lp140
S'The Hindu'
p141
aS'31'
p142
aS'Others'
p143
aa(lp144
S'PDP'
p145
aS'193'
p146
aS'Others'
p147
aa(lp148
S'The Hindu'
p149
aS'213'
p150
aS'Others'
p151
aas.