(dp0
S'LOC'
p1
(lp2
(lp3
S'Sonitpur'
p4
aS'42'
p5
aS'Neutral'
p6
aa(lp7
S'Batasipur'
p8
aS'62'
p9
aS'Event'
p10
aa(lp11
S'Sonitpur'
p12
aS'64'
p13
aS'Neutral'
p14
aa(lp15
S'Mazbat'
p16
aS'67'
p17
aS'Event'
p18
aa(lp19
S'Udalguri'
p20
aS'69'
p21
aS'Neutral'
p22
aa(lp23
S'Missamari'
p24
aS'79'
p25
aS'Neutral'
p26
aasS'PER'
p27
(lp28
(lp29
S'Ranjan'
p30
aS'17'
p31
aS'Assoc Accused'
p32
aa(lp33
S'Birman Basumatari'
p34
aS'47'
p35
aS'Accused'
p36
aa(lp37
S'Gagan Basumatari'
p38
aS'50'
p39
aS'Accused'
p40
aasS'TIM'
p41
(lp42
sS'hot_setting'
p43
S''
p44
sS'DAT'
p45
(lp46
S'Wednesday:45'
p47
asS'death'
p48
g44
sS'title'
p49
S'Two NDFB militants surrender'
p50
sS'org_unorg'
p51
S'Unorganized'
p52
sS'terror_group'
p53
(lp54
S'National Democratic Front of Bodoland (NDFB)'
p55
asS'content'
p56
S'Two militants of the National Democratic Front of Bodoland ( NDFB ) , belonging to the Ranjan Daimary-led anti-talks faction and suspected to be involved in two bomb blasts on rail tracks last week , surrendered to the police here in Sonitpur district on Wednesday . Birman Basumatari and Gagan Basumatari were allegedly involved in the blasts on the tracks near Batasipur in Sonitpur district and Mazbat in Udalguri district . The militants , who surrendered at the Missamari station , deposited two 9 mm pistols , three rounds of ammunition and a hand-grenade . PTI OPEN'
p57
sS'injured'
p58
g44
sS'det_loc'
p59
(lp60
S'India'
p61
aS'Assam'
p62
aS'Sonitpur'
p63
aS'Tezpur'
p64
ag44
asS'O'
p65
(lp66
S'daimary-led:18'
p67
aS'faction:20'
p68
aS'bomb:28'
p69
aS'rail:31'
p70
aS'week:34'
p71
aS'district:43'
p72
aS'blasts:57'
p73
aS'district:65'
p74
aS'district:70'
p75
aS'militants:73'
p76
aS'surrendered:76'
p77
aS'station:80'
p78
aS'9 mm pistols:84'
p79
aS'mm:85'
p80
aS'ammunition:91'
p81
aS'hand-grenade:94'
p82
asS'unexpl'
p83
(lp84
g44
asS'ocassion'
p85
g44
sS'link'
p86
S'http://www.thehindu.com/todays-paper/two-ndfb-militants-surrender/article516146.ece'
p87
sS'date'
p88
S'15-07-2010'
p89
sS'target'
p90
g44
sS'hot_spot'
p91
g44
sS'delivery_mod'
p92
g44
sS'delivery_met'
p93
g44
sS'expl'
p94
(lp95
g44
asS'ORG'
p96
(lp97
(lp98
S'National Democratic Front of Bodoland'
p99
aS'5'
p100
aS'Accused'
p101
aa(lp102
S'NDFB'
p103
aS'11'
p104
aS'Accused'
p105
aas.