(dp0
S'LOC'
p1
(lp2
(lp3
S'Indore'
p4
aS'50'
p5
aS'Source'
p6
aa(lp7
S'Ajmer Dargah'
p8
aS'78'
p9
aS'Event'
p10
aa(lp11
S'Indore'
p12
aS'82'
p13
aS'Neutral'
p14
aa(lp15
S'Gujarat'
p16
aS'84'
p17
aS'Neutral'
p18
aasS'PER'
p19
(lp20
(lp21
S'Sunil Joshi'
p22
aS'58'
p23
aS'Accused'
p24
aa(lp25
S'Satyendra Singh'
p26
aS'89'
p27
aS'Comment'
p28
aasS'TIM'
p29
(lp30
sS'hot_setting'
p31
S''
p32
sS'DAT'
p33
(lp34
S'2007:20'
p35
aS'Saturday:94'
p36
asS'death'
p37
g32
sS'title'
p38
S'Car recovered in Ajmer blast case'
p39
sS'det_loc'
p40
(lp41
S'India'
p42
aS'Rajasthan'
p43
aS'Jaipur'
p44
aS'Ajmer'
p45
ag32
asS'terror_group'
p46
(lp47
g32
asS'content'
p48
S'The Rajasthan Anti-Terrorism Squad has seized a car believed to have been used to transport the bombs for the 2007 Ajmer Dargah blast even as the names of four more people cropped up in connection with the case . We have recovered a Santro car and brought it from Indore , recently . It was used by Sunil Joshi ( who died during the course of investigation ) to carry bombs , which were planted in the Ajmer Dargah , from Indore to Gujarat , ATS Additional SP Satyendra Singh told PTI on Saturday The team brought it here as an evidence . The car was sold to somebody else and no fresh arrest has been made in this connection , he said . OPEN'
p49
sS'injured'
p50
g32
sS'org_unorg'
p51
S'Organized'
p52
sS'O'
p53
(lp54
S'squad:4'
p55
aS'transport:15'
p56
aS'bombs:17'
p57
aS'ajmer dargah blast:21'
p58
aS'blast:23'
p59
aS'santro car:44'
p60
aS'course:65'
p61
aS'investigation:67'
p62
aS'bombs:71'
p63
aS'team:96'
p64
aS'evidence:102'
p65
aS'car:105'
p66
aS'arrest:114'
p67
asS'unexpl'
p68
(lp69
g32
asS'ocassion'
p70
g32
sS'link'
p71
S'http://www.thehindu.com/todays-paper/car-recovered-in-ajmer-blast-case/article980757.ece'
p72
sS'date'
p73
S'11-10-2007'
p74
sS'target'
p75
g32
sS'hot_spot'
p76
S'Ajmer dargah'
p77
sS'delivery_mod'
p78
g32
sS'delivery_met'
p79
S'Planted'
p80
sS'expl'
p81
(lp82
g32
asS'ORG'
p83
(lp84
(lp85
S'Rajasthan Anti-Terrorism Squad'
p86
aS'2'
p87
aS'Others'
p88
aa(lp89
S'ATS'
p90
aS'86'
p91
aS'Others'
p92
aas.