(dp0
S'LOC'
p1
(lp2
sS'PER'
p3
(lp4
sS'TIM'
p5
(lp6
sS'hot_setting'
p7
S''
p8
sS'DAT'
p9
(lp10
S'2007:20'
p11
asS'death'
p12
g8
sS'title'
p13
S'Ajmer blast: car recovered'
p14
sS'det_loc'
p15
(lp16
S'India'
p17
aS'Rajasthan'
p18
aS'Jaipur'
p19
aS'Ajmer'
p20
ag8
asS'terror_group'
p21
(lp22
g8
asS'content'
p23
S'The Rajasthan Anti-Terrorism Squad has seized a car believed to have been used to transport the bombs for the 2007 Ajmer Dargah blast . PTI OPEN'
p24
sS'injured'
p25
g8
sS'org_unorg'
p26
S'Organized'
p27
sS'O'
p28
(lp29
S'ajmer dargah blast:21'
p30
asS'unexpl'
p31
(lp32
g8
asS'ocassion'
p33
g8
sS'link'
p34
S'http://www.thehindu.com/todays-paper/ajmer-blast-car-recovered/article980321.ece'
p35
sS'date'
p36
S'11-10-2007'
p37
sS'target'
p38
S'Religious Places'
p39
sS'hot_spot'
p40
S'Ajmer dargah'
p41
sS'delivery_mod'
p42
g8
sS'delivery_met'
p43
g8
sS'expl'
p44
(lp45
g8
asS'ORG'
p46
(lp47
(lp48
S'Rajasthan Anti-Terrorism Squad'
p49
aS'2'
p50
aS'Others'
p51
aas.