(dp0
S'LOC'
p1
(lp2
(lp3
S'Anwarserry camp'
p4
aS'51'
p5
aS'Neutral'
p6
aa(lp7
S'Bangalore'
p8
aS'76'
p9
aS'Event'
p10
aasS'PER'
p11
(lp12
(lp13
S'Abdul Nasir Maudany'
p14
aS'12'
p15
aS'Accused'
p16
aa(lp17
S'Poonthura Siraj'
p18
aS'37'
p19
aS'Others'
p20
aa(lp21
S'Siraj'
p22
aS'43'
p23
aS'Others'
p24
aa(lp25
S'Maudany'
p26
aS'49'
p27
aS'Accused'
p28
aa(lp29
S'Maundany'
p30
aS'67'
p31
aS'Accused'
p32
aasS'TIM'
p33
(lp34
sS'hot_setting'
p35
S''
p36
sS'DAT'
p37
(lp38
S'2008:20'
p39
aS'Monday:65'
p40
asS'death'
p41
g36
sS'title'
p42
S'Maudany is innocent: PDP'
p43
sS'det_loc'
p44
(lp45
S'India'
p46
aS'Karnataka'
p47
aS'Bangalore Urban'
p48
ag36
ag36
asS'terror_group'
p49
(lp50
g36
asS'content'
p51
S"The inclusion of People 's Democratic Party ( PDP ) leader Abdul Nasir Maudany as an accused in the 2008 Bangalore serial bomb blast case is a conspiracy to weaken that case , party working chairman Poonthura Siraj has said . Mr. Siraj was talking to mediapersons from Maudany 's Anwarserry camp , near here , after the party 's central council meeting on Monday . Maundany is innocent and had no hand in the Bangalore blasts . The party will counter the conspiracy legally . An anticipatory bail application will be moved in the Bangalore Sessions Court , he said . OPEN"
p52
sS'injured'
p53
g36
sS'org_unorg'
p54
S'Organized'
p55
sS'O'
p56
(lp57
S'bangalore serial bomb blast case:21'
p58
aS'bangalore blasts:76'
p59
asS'unexpl'
p60
(lp61
g36
asS'ocassion'
p62
g36
sS'link'
p63
S'http://www.thehindu.com/todays-paper/tp-national/tp-kerala/maudany-is-innocent-pdp/article457311.ece'
p64
sS'date'
p65
S'25-07-2008'
p66
sS'target'
p67
g36
sS'hot_spot'
p68
S'Bangalore, Bangalore Serial bomb blast'
p69
sS'delivery_mod'
p70
g36
sS'delivery_met'
p71
g36
sS'expl'
p72
(lp73
g36
asS'ORG'
p74
(lp75
(lp76
S"People 's Democratic Party"
p77
aS'4'
p78
aS'Others'
p79
aa(lp80
S'PDP'
p81
aS'9'
p82
aS'Others'
p83
aa(lp84
S'Bangalore Sessions Court'
p85
aS'96'
p86
aS'Others'
p87
aas.