(dp0
S'LOC'
p1
(lp2
(lp3
S'Sompeta'
p4
aS'24'
p5
aS'Neutral'
p6
aa(lp7
S'Srikakulam'
p8
aS'26'
p9
aS'Neutral'
p10
aa(lp11
S'Sompeta'
p12
aS'70'
p13
aS'Neutral'
p14
aasS'PER'
p15
(lp16
(lp17
S'C. Bhaskar Rao'
p18
aS'46'
p19
aS'Comment'
p20
aa(lp21
S'Krishna Murthy'
p22
aS'73'
p23
aS'Others'
p24
aasS'TIM'
p25
(lp26
sS'hot_setting'
p27
S''
p28
sS'DAT'
p29
(lp30
S'Wednesday:29'
p31
asS'death'
p32
S'0'
p33
sS'title'
p34
S'Probe sought'
p35
sS'org_unorg'
p36
S'Organized'
p37
sS'terror_group'
p38
(lp39
g28
asS'content'
p40
S'The Organisation for Protection of Democratic Rights ( OPDR ) has strongly condemned the bomb blast at the hospital of Krishna Murthy at Sompeta in Srikakulam district on Wednesday and demanded a probe into the incident . In a statement , OPDR State general secretary C. Bhaskar Rao said that the bomb blast could be the handiwork of the police or the management of the power plant proposed at Sompeta as Dr. Krishna Murthy had been relentlessly campaigning against the project . He said the State government should immediately order a probe to find out the people who planted the bomb and bring them to book at the earliest . OPEN'
p41
sS'injured'
p42
g33
sS'det_loc'
p43
(lp44
S'India'
p45
aS'Orissa'
p46
ag28
ag28
aS'hospital of Krishna Murthy at Sompeta'
p47
asS'O'
p48
(lp49
S'bomb blast:15'
p50
aS'probe:33'
p51
aS'incident:36'
p52
aS'statement:40'
p53
aS'secretary:45'
p54
aS'bomb blast:52'
p55
aS'handiwork:57'
p56
aS'management:63'
p57
aS'power plant:66'
p58
aS'campaigning:78'
p59
aS'project:81'
p60
aS'state government:86'
p61
aS'order:90'
p62
aS'probe:92'
p63
aS'bomb:101'
p64
aS'book:106'
p65
asS'unexpl'
p66
(lp67
g28
asS'ocassion'
p68
g28
sS'link'
p69
S'http://www.thehindu.com/todays-paper/tp-national/tp-andhrapradesh/probe-sought/article778707.ece'
p70
sS'date'
p71
S'22-09-2010'
p72
sS'target'
p73
g28
sS'hot_spot'
p74
S'bomb blast at the hospital of Krishna Murthy'
p75
sS'delivery_mod'
p76
g28
sS'delivery_met'
p77
g28
sS'expl'
p78
(lp79
g28
asS'ORG'
p80
(lp81
(lp82
S'Organisation for Protection of Democratic Rights'
p83
aS'2'
p84
aS'Others'
p85
aa(lp86
S'OPDR'
p87
aS'9'
p88
aS'Others'
p89
aa(lp90
S'hospital of Krishna Murthy'
p91
aS'19'
p92
aS'Others'
p93
aa(lp94
S'OPDR'
p95
aS'42'
p96
aS'Others'
p97
aas.