(dp0
S'LOC'
p1
(lp2
(lp3
S'JAIPUR'
p4
aS'3'
p5
aS'Neutral'
p6
aa(lp7
S'Rajasthan'
p8
aS'13'
p9
aS'Neutral'
p10
aa(lp11
S'Shujapur'
p12
aS'31'
p13
aS'Event'
p14
aa(lp15
S'Malwa'
p16
aS'33'
p17
aS'Event'
p18
aa(lp19
S'Madhya Pradesh'
p20
aS'35'
p21
aS'Neutral'
p22
aa(lp23
S'Ajmer'
p24
aS'53'
p25
aS'Assoc Event Location'
p26
aa(lp27
S'Ajmer'
p28
aS'135'
p29
aS'Neutral'
p30
aa(lp31
S'Malegaon'
p32
aS'182'
p33
aS'Assoc Event Location'
p34
aa(lp35
S'Hyderabad'
p36
aS'192'
p37
aS'Assoc Event Location'
p38
aasS'PER'
p39
(lp40
(lp41
S'Devendra Gupta'
p42
aS'45'
p43
aS'Accused'
p44
aa(lp45
S'Chandrashekhar'
p46
aS'55'
p47
aS'Accused'
p48
aa(lp49
S'Chandrashekhar'
p50
aS'122'
p51
aS'Accused'
p52
aa(lp53
S'Devendra'
p54
aS'148'
p55
aS'Accused'
p56
aa(lp57
S'Chandrashekhar'
p58
aS'150'
p59
aS'Accused'
p60
aa(lp61
S'Pragnya Thakur'
p62
aS'169'
p63
aS'Accused'
p64
aa(lp65
S'Srikant Purohit'
p66
aS'172'
p67
aS'Accused'
p68
aasS'TIM'
p69
(lp70
sS'hot_setting'
p71
S''
p72
sS'DAT'
p73
(lp74
S'Friday evening:16'
p75
aS'Friday:16'
p76
aS'October:24'
p77
aS'October 2007:24'
p78
aS'Saturday:120'
p79
asS'death'
p80
g72
sS'title'
p81
S'Another suspect held'
p82
sS'org_unorg'
p83
S'Organized'
p84
sS'terror_group'
p85
(lp86
g72
asS'content'
p87
S"Special Correspondent JAIPUR : The Anti-Terrorism Squad ( ATS ) of the Rajasthan police on Friday evening arrested a second suspect in the October 2007 Ajmer dargah blast case from Shujapur near Malwa in Madhya Pradesh . Earlier this week , the key suspect Devendra Gupta , 36 , was nabbed in Ajmer . Chandrashekhar , suspected to be a key member of the terror module of a Hindu extremist outfit , Abhinav Bharat , was arrested on evidence indicating that he had been entrusted with supplying the mobile phone and SIM cards which were used for carrying out the bomb attack that killed three persons . In fact , the cellphone was reportedly recovered from him . On Saturday , Chandrashekhar was produced in the court of the additional chief judicial magistrate in Ajmer and remanded to 12 days ' police custody . The names of Devendra and Chandrashekhar cropped up during the interrogation of and narco tests on the prime suspects in the Malegaon case , Pragnya Thakur and Srikant Purohit . The ATS believes that the blasts at Malegaon , the Ajmer dargah and the Makkah Masjid in Hyderabad were part of a single conspiracy . Police teams are likely to be sent shortly to other States for further investigation . OPEN"
p88
sS'injured'
p89
g72
sS'det_loc'
p90
(lp91
S'India'
p92
aS'Rajasthan'
p93
aS'Jaipur'
p94
ag72
aS'Shujapur near Malwa in Madhya Pradesh'
p95
asS'O'
p96
(lp97
S'anti-terrorism squad:6'
p98
aS'suspect:21'
p99
aS'ajmer dargah blast case:26'
p100
aS'key suspect:43'
p101
aS'hindu extremist outfit:69'
p102
aS'evidence:79'
p103
aS'bomb attack:101'
p104
aS'cellphone:112'
p105
aS'custody:143'
p106
aS'interrogation:155'
p107
aS'narco:158'
p108
aS'malegaon case:166'
p109
aS'ajmer dargah:185'
p110
aS'investigation:213'
p111
asS'unexpl'
p112
(lp113
g72
asS'ocassion'
p114
g72
sS'link'
p115
S'http://www.thehindu.com/todays-paper/tp-national/another-suspect-held/article760089.ece'
p116
sS'date'
p117
S'11-10-2007'
p118
sS'target'
p119
S'Religious Places'
p120
sS'hot_spot'
p121
S'Ajmer dargah'
p122
sS'delivery_mod'
p123
g72
sS'delivery_met'
p124
S'Planted'
p125
sS'expl'
p126
(lp127
S'Crude bomb'
p128
asS'ORG'
p129
(lp130
(lp131
S'Abhinav Bharat'
p132
aS'73'
p133
aS'Accused'
p134
aa(lp135
S'Ajmer dargah'
p136
aS'185'
p137
aS'Others'
p138
aa(lp139
S'Makkah Masjid'
p140
aS'189'
p141
aS'Others'
p142
aas.