(dp0
S'LOC'
p1
(lp2
(lp3
S'Uganda'
p4
aS'14'
p5
aS'Neutral'
p6
aa(lp7
S'Ugandan'
p8
aS'78'
p9
aS'Neutral'
p10
aa(lp11
S'Somali'
p12
aS'109'
p13
aS'Neutral'
p14
aa(lp15
S'Uganda'
p16
aS'121'
p17
aS'Neutral'
p18
aa(lp19
S'Burundi'
p20
aS'123'
p21
aS'Neutral'
p22
aa(lp23
S'Somalia'
p24
aS'137'
p25
aS'Neutral'
p26
aa(lp27
S'Afghanistan'
p28
aS'152'
p29
aS'Neutral'
p30
aa(lp31
S'Iraq'
p32
aS'154'
p33
aS'Neutral'
p34
aa(lp35
S'Somalia'
p36
aS'163'
p37
aS'Neutral'
p38
aa(lp39
S'Mogadishu'
p40
aS'205'
p41
aS'Neutral'
p42
aa(lp43
S'Somali'
p44
aS'227'
p45
aS'Neutral'
p46
aasS'PER'
p47
(lp48
(lp49
S'Fred Opolot'
p50
aS'81'
p51
aS'Others'
p52
aa(lp53
S'Sheik Ali Mohamud Rage'
p54
aS'196'
p55
aS'Others'
p56
aasS'TIM'
p57
(lp58
sS'hot_setting'
p59
S''
p60
sS'DAT'
p61
(lp62
S'Monday:9'
p63
aS'Sunday:76'
p64
aS'Monday:85'
p65
aS'Sunday:172'
p66
asS'death'
p67
S'74'
p68
sS'title'
p69
S'Uganda twin blasts kill 74'
p70
sS'det_loc'
p71
(lp72
S'Uganda'
p73
ag60
ag60
aS'Kampala'
p74
ag60
asS'terror_group'
p75
(lp76
g60
asS'content'
p77
S"An Al-Qaeda-linked Somali militant group claimed responsibility on Monday for twin bombings in Uganda that killed 74 people watching the World Cup final on TV , saying the militants would carry out attacks against our enemy wherever they are . The explosions ripped through two bars packed with soccer fans watching the final moments of the World Cup final on television in an Ethiopian-themed restaurant and at a gathering in a Kampala rugby club on Sunday . Ugandan government spokesman Fred Opolot said on Monday there were indications that two suicide bombers took part in the attacks . The blasts came two days after a commander with the Somali group , Al-Shabab , called for militants to attack sites in Uganda and Burundi , two nations that contribute troops to the African Union peacekeeping force in Somalia . Al-Shabab , whose ranks are swelled by militant veterans of the conflicts in Afghanistan and Iraq , has long threatened to attack outside of Somalia 's borders , but the bombings late on Sunday are the first time the group has done so . We will carry out attacks against our enemy wherever they are , said Sheik Ali Mohamud Rage , a militant spokesman in Mogadishu . No one will deter us from performing our Islamic duty . Ugandan officials had said earlier that they suspected the Somali group was involved . One of the targets was an Ethiopian restaurant a nation despised by the Al-Shabab militants . The attacks on two soft targets filled with civilians raised concerns about the capabilities and motives of Al-Shabab , which the U.S. State Department has declared a terrorist organisation . Indians killed A California-based aid group , meanwhile , said one of its American workers was among the dead . Police said Ethiopian , Indian and Congolese nationals were also among those killed and wounded , said police . AP OPEN"
p78
sS'injured'
p79
g60
sS'org_unorg'
p80
S'Organized'
p81
sS'O'
p82
(lp83
S'group:5'
p84
aS'responsibility:7'
p85
aS'twin:11'
p86
aS'bombings:12'
p87
aS'killed:16'
p88
aS'world cup:21'
p89
aS'tv:25'
p90
aS'attacks:33'
p91
aS'enemy:36'
p92
aS'explosions:42'
p93
aS'soccer:49'
p94
aS'world cup:57'
p95
aS'television:61'
p96
aS'restaurant:65'
p97
aS'gathering:69'
p98
aS'kampala:72'
p99
aS'club:74'
p100
aS'suicide:91'
p101
aS'suicide bombers:91'
p102
aS'part:94'
p103
aS'commander:106'
p104
aS'group:110'
p105
aS'al-shabab:112'
p106
aS'attack:118'
p107
aS'african union:132'
p108
aS'force:135'
p109
aS'al-shabab:139'
p110
aS'attack:160'
p111
aS'bombings:169'
p112
aS'time:176'
p113
aS'group:178'
p114
aS'enemy:190'
p115
aS'spokesman:203'
p116
aS'duty:216'
p117
aS'ugandan:218'
p118
aS'group:228'
p119
aS'ethiopian:238'
p120
aS'restaurant:239'
p121
aS'nation:241'
p122
aS'al-shabab:245'
p123
aS'al-shabab militants:245'
p124
aS'attacks:249'
p125
aS'targets:253'
p126
aS'terrorist organisation:275'
p127
aS'indians:278'
p128
aS'california-based:281'
p129
aS'aid group:282'
p130
aS'american workers:291'
p131
aS'american:291'
p132
aS'ethiopian:300'
p133
aS'indian:302'
p134
aS'congolese:304'
p135
aS'killed:310'
p136
asS'unexpl'
p137
(lp138
g60
asS'ocassion'
p139
g60
sS'link'
p140
S'http://www.thehindu.com/todays-paper/tp-international/uganda-twin-blasts-kill-74/article512931.ece'
p141
sS'date'
p142
S'13-07-2010'
p143
sS'target'
p144
S'Hotel and Restaurant'
p145
sS'hot_spot'
p146
S'Ethiopian-themed restaurant'
p147
sS'delivery_mod'
p148
S'Human'
p149
sS'delivery_met'
p150
S'Planted'
p151
sS'expl'
p152
(lp153
g60
asS'ORG'
p154
(lp155
(lp156
S'Al-Qaeda-linked'
p157
aS'2'
p158
aS'Accused'
p159
aS'Others'
p160
aa(lp161
S'Kampala rugby club'
p162
aS'72'
p163
aS'Others'
p164
aa(lp165
S'Al-Shabab'
p166
aS'112'
p167
aS'Accused'
p168
aa(lp169
S'Al-Shabab'
p170
aS'265'
p171
aS'Accused'
p172
aa(lp173
S'U.S. State Department'
p174
aS'269'
p175
aS'Others'
p176
aas.