(dp0
S'LOC'
p1
(lp2
(lp3
S'Malegaon'
p4
aS'18'
p5
aS'Event'
p6
aa(lp7
S'Nashik'
p8
aS'63'
p9
aS'Neutral'
p10
aasS'PER'
p11
(lp12
(lp13
S'Sadhvi Pragya Singh Thakur'
p14
aS'8'
p15
aS'Accused'
p16
aa(lp17
S'Sadhvi Pragya'
p18
aS'47'
p19
aS'Accused'
p20
aa(lp21
S'Sadhvi'
p22
aS'92'
p23
aS'Accused'
p24
aa(lp25
S'Ganesh Sovani'
p26
aS'101'
p27
aS'Comment'
p28
aasS'TIM'
p29
(lp30
sS'hot_setting'
p31
S''
p32
sS'DAT'
p33
(lp34
S'Thursday:5'
p35
aS'2008:17'
p36
aS'September:56'
p37
aS'September 3:56'
p38
asS'death'
p39
g32
sS'title'
p40
S'Sadhvi to be shifted to ayurvedic hospital'
p41
sS'det_loc'
p42
(lp43
S'India'
p44
aS'Maharashtra'
p45
aS'Mumbai-City'
p46
aS'Malegaon'
p47
ag32
asS'terror_group'
p48
(lp49
g32
asS'content'
p50
S'A special court on Thursday directed that Sadhvi Pragya Singh Thakur , prime accused in the 2008 Malegaon bomb blast case , be shifted to an ayurvedic medical centre here from the Maharashtra Government-run J J Hospital where she is undergoing treatment for multiple ailments . Sadhvi Pragya , shifted to J J Hospital on September 3 from an ayurvedic hospital in Nashik , had approached the court seeking permission to undergo ayurvedic treatment . She has been undergoing treatment for spine problem and other ailments , her lawyer said . Sadhvi responds only to ayurvedic treatment , her counsel Ganesh Sovani said . - PTI OPEN'
p51
sS'injured'
p52
g32
sS'org_unorg'
p53
S'Organized'
p54
sS'O'
p55
(lp56
S'court:3'
p57
aS'malegaon bomb blast case:18'
p58
aS'treatment:42'
p59
aS'hospital:61'
p60
aS'court:68'
p61
aS'permission:70'
p62
aS'treatment:74'
p63
aS'spine problem:82'
p64
aS'lawyer:89'
p65
aS'treatment:97'
p66
asS'unexpl'
p67
(lp68
g32
asS'ocassion'
p69
g32
sS'link'
p70
S'http://www.thehindu.com/todays-paper/tp-national/tp-newdelhi/sadhvi-to-be-shifted-to-ayurvedic-hospital/article624647.ece'
p71
sS'date'
p72
S'29-09-2008'
p73
sS'target'
p74
g32
sS'hot_spot'
p75
S'Malegaon bomb blast case'
p76
sS'delivery_mod'
p77
g32
sS'delivery_met'
p78
g32
sS'expl'
p79
(lp80
g32
asS'ORG'
p81
(lp82
(lp83
S'J J Hospital'
p84
aS'35'
p85
aS'Others'
p86
aa(lp87
S'J J Hospital'
p88
aS'52'
p89
aS'Others'
p90
aas.