(dp0
S'LOC'
p1
(lp2
(lp3
S'New Delhi'
p4
aS'1'
p5
aS'Neutral'
p6
aa(lp7
S'Kabul'
p8
aS'12'
p9
aS'Event'
p10
aa(lp11
S'India'
p12
aS'14'
p13
aS'Neutral'
p14
aa(lp15
S'Afghan capital'
p16
aS'23'
p17
aS'Neutral'
p18
aa(lp19
S'Afghanistan'
p20
aS'47'
p21
aS'Neutral'
p22
aa(lp23
S'Afghanistan'
p24
aS'84'
p25
aS'Neutral'
p26
aa(lp27
S'Afghan'
p28
aS'133'
p29
aS'Neutral'
p30
aasS'PER'
p31
(lp32
(lp33
S'Shankar Menon'
p34
aS'30'
p35
aS'Others'
p36
aa(lp37
S'Menon'
p38
aS'122'
p39
aS'Others'
p40
aa(lp41
S'Hamid Karzai'
p42
aS'128'
p43
aS'Others'
p44
aasS'TIM'
p45
(lp46
sS'hot_setting'
p47
S''
p48
sS'DAT'
p49
(lp50
S'March 5:38'
p51
aS'March:38'
p52
asS'death'
p53
g48
sS'title'
p54
S'India sends probe team to Kabul'
p55
sS'org_unorg'
p56
S'Organized'
p57
sS'terror_group'
p58
(lp59
S'Lashkar-e-Taiba / Pasban-E-Ahle Hadis (LeT)'
p60
asS'content'
p61
S'New Delhi : In the wake of Fridays bomb blasts in Kabul , India has sent a team of investigators to the Afghan capital . National Security Advisor Shiv Shankar Menon will pay a visit there on March 5 to discuss the security of Indians in Afghanistan . The team , including officials of Home and Defence Ministries , has joined its Afghan counterpart in probing the attack in which Indians engaged in developmental and reconstruction works in that country were targeted . Afghanistan has set up a five-member team to investigate the incident . The investigators suspect the involvement of the Taliban , particularly the Haqqani group , in league with elements of the Lashkar-e-Taiba in the assault . Mr. Menon is expected to meet President Hamid Karzai and other top Afghan leaders . PTI OPEN'
p62
sS'injured'
p63
g48
sS'det_loc'
p64
(lp65
S'Afghanistan'
p66
ag48
ag48
aS'Kabul'
p67
ag48
asS'O'
p68
(lp69
S'bomb blasts:9'
p70
aS'afghan capital:23'
p71
aS'national security advisor:26'
p72
aS'indians:45'
p73
aS'defence ministries:57'
p74
aS'afghan counterpart:63'
p75
aS'indians:71'
p76
aS'suspect:98'
p77
aS'involvement:100'
p78
aS'taliban:103'
p79
aS'haqqani group:107'
p80
aS'league:111'
p81
asS'unexpl'
p82
(lp83
g48
asS'ocassion'
p84
g48
sS'link'
p85
S'http://www.thehindu.com/todays-paper/india-sends-probe-team-to-kabul/article721162.ece'
p86
sS'date'
p87
S'02-03-2010'
p88
sS'target'
p89
S'Public Organization'
p90
sS'hot_spot'
p91
S'bomb blasts in Kabul'
p92
sS'delivery_mod'
p93
g48
sS'delivery_met'
p94
g48
sS'expl'
p95
(lp96
g48
asS'ORG'
p97
(lp98
(lp99
S'Lashkar-e-Taiba'
p100
aS'116'
p101
aS'Accused'
p102
aas.