(dp0
S'LOC'
p1
(lp2
(lp3
S'Rajasthan'
p4
aS'32'
p5
aS'Neutral'
p6
aa(lp7
S'Hyderabad'
p8
aS'79'
p9
aS'Event'
p10
aS'Neutral'
p11
aa(lp12
S'Ahat-e-Noor'
p13
aS'107'
p14
aS'Event'
p15
aa(lp16
S'Ajmer'
p17
aS'117'
p18
aS'Event'
p19
aS'Neutral'
p20
aa(lp21
S'Rajasthan'
p22
aS'136'
p23
aS'Neutral'
p24
aa(lp25
S'Madhya Pradesh'
p26
aS'178'
p27
aS'Neutral'
p28
aa(lp29
S'Madhya Pradesh'
p30
aS'228'
p31
aS'Neutral'
p32
aa(lp33
S'Indore'
p34
aS'256'
p35
aS'Event'
p36
aS'Neutral'
p37
aa(lp38
S'Dewas'
p39
aS'261'
p40
aS'Event'
p41
aS'Neutral'
p42
aa(lp43
S'Mhow'
p44
aS'290'
p45
aS'Neutral'
p46
aa(lp47
S'Mhow'
p48
aS'300'
p49
aS'Neutral'
p50
aa(lp51
S'Jamtada'
p52
aS'390'
p53
aS'Event'
p54
aS'Neutral'
p55
aa(lp56
S'Asansol'
p57
aS'392'
p58
aS'Event'
p59
aS'Neutral'
p60
aa(lp61
S'Chittaranjan'
p62
aS'394'
p63
aS'Neutral'
p64
aa(lp65
S'New Delhi'
p66
aS'423'
p67
aS'Neutral'
p68
aa(lp69
S'Ajmer'
p70
aS'433'
p71
aS'Neutral'
p72
aasS'PER'
p73
(lp74
(lp75
S'Shanti Dhariwal'
p76
aS'139'
p77
aS'Comment'
p78
aa(lp79
S'Dhariwal'
p80
aS'204'
p81
aS'Comment'
p82
aa(lp83
S'Sunil Joshi'
p84
aS'219'
p85
aS'Comment'
p86
aa(lp87
S'Devendra Gupta'
p88
aS'235'
p89
aS'Comment'
p90
aa(lp91
S'Ajmer Dargah'
p92
aS'244'
p93
aS'Comment'
p94
aa(lp95
S'Gupta'
p96
aS'270'
p97
aS'Comment'
p98
aa(lp99
S'Joshi'
p100
aS'278'
p101
aS'Accused'
p102
aa(lp103
S'Purohit'
p104
aS'327'
p105
aS'Accused'
p106
aa(lp107
S'Sunil Joshi'
p108
aS'337'
p109
aS'Accused'
p110
aa(lp111
S'Devendra Gupta'
p112
aS'348'
p113
aS'Accused'
p114
aa(lp115
S'Dhariwal'
p116
aS'352'
p117
aS'Accused'
p118
aa(lp119
S'Purohit'
p120
aS'356'
p121
aS'Accused'
p122
aa(lp123
S'Sunil Joshi'
p124
aS'364'
p125
aS'Accused'
p126
aa(lp127
S'Asimanand'
p128
aS'367'
p129
aS'Accused'
p130
aa(lp131
S'Gupta'
p132
aS'369'
p133
aS'Accused'
p134
aa(lp135
S'Ramesh Kumar'
p136
aS'377'
p137
aS'Accused'
p138
aa(lp139
S'Babulal Yadav'
p140
aS'415'
p141
aS'Victim'
p142
aa(lp143
S'Mr.Dhariwal'
p144
aS'436'
p145
aS'Others'
p146
aasS'TIM'
p147
(lp148
sS'hot_setting'
p149
S''
p150
sS'DAT'
p151
(lp152
S'October:56'
p153
aS'October 2007:56'
p154
aS'Saturday:147'
p155
aS'December:263'
p156
aS'December 2007:263'
p157
asS'death'
p158
g150
sS'title'
p159
S'Brain behind Ajmer blast identified'
p160
sS'det_loc'
p161
(lp162
S'India'
p163
aS'Rajasthan'
p164
aS'Ajmer'
p165
aS'Ajmer'
p166
ag150
asS'terror_group'
p167
(lp168
g150
asS'content'
p169
S"Special Correspondent Rajasthan ATS suspects Ajmer-Malegaon-Hyderabad link He is yet to be arrested , says Rajasthan Home Minister Centre of activity seemingly was Madhya Pradesh JAIPUR : The Anti-Terrorism Squad of Rajasthan is working on the theory that there is a link between the group which carried out the bomb blast at Ajmer Dargah in October 2007 and the forces behind the Malegaon blast almost a year later as well as the explosions at the Makkah Masjid in Hyderabad . It has identified the contacts and after their recent arrests is in hot pursuit of the person who manufactured the bomb used in the blast at Ahat-e-Noor on the Dargah premises . The mastermind behind the Ajmer blast , the bomb maker , has been identified . He is yet to be arrested , said Rajasthan Home Minister Shanti Dhariwal talking to The Hindu here on Saturday . The people involved in this case have had involvement in the other bomb blast cases too , he said , adding , The centre of their activity was seemingly Madhya Pradesh . Rajasthan ATS has reached up to them . They have identified the persons involved . ATS has collected some important clues , Mr. Dhariwal said . However , one lost link in the whole case appears to be Sunil Joshi , who was an RSS pracharak in Madhya Pradesh 's Mhow area with whom Devendra Gupta , the first suspect arrested in the Ajmer Dargah case , was associated . Joshi , a resident of Indore , was killed in Dewas in December 2007 . The call details of Gupta indicate that both were in touch . Joshi , reportedly the zila pracharak ( worker ) of RSS in Mhow , had some confrontation with the Congress president of Mhow who later got killed . The murders of the Congress leader 's nephew and that of an eyewitness followed . They are all connected . Col. Purohit , arrested for Malgaon blast , has confessed that Sunil Joshi had organised the Dargah operation with the help of Devendra Gupta , Mr. Dhariwal observed . Col. Purohit was reportedly informed about the role of Sunil Joshi by Asimanand . Gupta , who operated in the name of Ramesh Kumar at some places , procured SIM cards under false identities from Jamtada , Asansol and Chittaranjan . The SIM used in the bomb which went off at Ajmer Dargah was procured by him in name of Babulal Yadav . Though the RSS leadership in New Delhi vehemently denied involvement of RSS functionaries in the Ajmer blast , Mr.Dhariwal was equally emphatic . OPEN"
p170
sS'injured'
p171
g150
sS'org_unorg'
p172
S'Organized'
p173
sS'O'
p174
(lp175
S'ajmer-malegaon-hyderabad link:6'
p176
aS'anti-terrorism squad:29'
p177
aS'makkah masjid:76'
p178
aS'dargah premises:110'
p179
aS'ajmer dargah case:244'
p180
aS'zila pracharak:282'
p181
aS'ajmer dargah:406'
p182
aS'ajmer blast:433'
p183
asS'unexpl'
p184
(lp185
g150
asS'ocassion'
p186
g150
sS'link'
p187
S'http://www.thehindu.com/todays-paper/tp-national/tp-otherstates/brain-behind-ajmer-blast-identified/article759816.ece'
p188
sS'date'
p189
S'11-10-2007'
p190
sS'target'
p191
g150
sS'hot_spot'
p192
S'Ajmer dargah'
p193
sS'delivery_mod'
p194
g150
sS'delivery_met'
p195
g150
sS'expl'
p196
(lp197
g150
asS'ORG'
p198
(lp199
(lp200
S'ATS'
p201
aS'4'
p202
aS'Others'
p203
aa(lp204
S'Makkah Masjid'
p205
aS'76'
p206
aS'Others'
p207
aa(lp208
S'The Hindu'
p209
aS'143'
p210
aS'Others'
p211
aa(lp212
S'RSS'
p213
aS'288'
p214
aS'Others'
p215
aa(lp216
S'Congress'
p217
aS'297'
p218
aS'Others'
p219
aa(lp220
S'Congress'
p221
aS'310'
p222
aS'Others'
p223
aa(lp224
S'RSS'
p225
aS'420'
p226
aS'Others'
p227
aas.