(dp0
S'LOC'
p1
(lp2
(lp3
S'Bangalore'
p4
aS'26'
p5
aS'Neutral'
p6
aa(lp7
S'Kerala'
p8
aS'43'
p9
aS'Accused Location'
p10
aa(lp11
S'Malappuram'
p12
aS'47'
p13
aS'Accused Location'
p14
aa(lp15
S'Wayanad'
p16
aS'52'
p17
aS'Accused Location'
p18
aa(lp19
S'Kerala'
p20
aS'90'
p21
aS'Neutral'
p22
aa(lp23
S'Bangalore'
p24
aS'153'
p25
aS'Neutral'
p26
aa(lp27
S'Jammu and Kashmir'
p28
aS'297'
p29
aS'Assoc Event Location'
p30
aasS'PER'
p31
(lp32
(lp33
S'Umar Farooq'
p34
aS'44'
p35
aS'Accused'
p36
aa(lp37
S'Ibrahim Moulavi'
p38
aS'49'
p39
aS'Accused'
p40
aa(lp41
S'Farooq'
p42
aS'95'
p43
aS'Accused'
p44
aa(lp45
S'Moulavi'
p46
aS'97'
p47
aS'Accused'
p48
aa(lp49
S'Maudany'
p50
aS'116'
p51
aS'Accused'
p52
aa(lp53
S'Farooq'
p54
aS'119'
p55
aS'Accused'
p56
aa(lp57
S'Moulavi'
p58
aS'121'
p59
aS'Accused'
p60
aa(lp61
S'Abdul Maudany'
p62
aS'134'
p63
aS'Accused'
p64
aa(lp65
S'Maudany'
p66
aS'145'
p67
aS'Accused'
p68
aa(lp69
S'Farooq'
p70
aS'232'
p71
aS'Accused'
p72
aa(lp73
S'Moulavi'
p74
aS'234'
p75
aS'Accused'
p76
aa(lp77
S'Thadiyandavide Naseer'
p78
aS'252'
p79
aS'Assoc Accused'
p80
aa(lp81
S'Maudany'
p82
aS'283'
p83
aS'Accused'
p84
aasS'TIM'
p85
(lp86
sS'hot_setting'
p87
S''
p88
sS'DAT'
p89
(lp90
S'July 25:28'
p91
aS'2008:31'
p92
aS'Friday:54'
p93
asS'death'
p94
g88
sS'title'
p95
S'Bangalore blasts: city police looking at Interpol help'
p96
sS'org_unorg'
p97
S'Organized'
p98
sS'terror_group'
p99
(lp100
S'Lashkar-e-Taiba / Pasban-E-Ahle Hadis (LeT)'
p101
asS'content'
p102
S"The Bangalore city police are contemplating seeking Interpol 's help to arrest at least six more persons allegedly involved in the serial blasts that rocked Bangalore on July 25 , 2008 , killing a woman . The police arrested two suspects from Kerala Umar Farooq of Malappuram and Ibrahim Moulavi of Wayanad last Friday . They are being interrogated at an undisclosed place . Police sources said that even more were probably involved in the blasts , eight of whom have fled the country , while another is in Kerala . We have interrogated Farooq and Moulavi . They have given us useful information about the blasts , a Central Crime Branch officer said . Maudany 's associates Farooq and Moulavi are close associates of People 's Democratic Party ( PDP ) leader Abdul Maudany , prime accused in the blasts . They knew Maudany for the past 15 years and visited Bangalore several times before the blasts , the officer told The Hindu . The police are collecting evidence against the accused and will shortly submit an additional charge sheet in court . If possible , the city police will submit the documents pertaining to the serials blasts to the Interpol Wing of the Central Bureau of Investigation ( CBI ) to issue a red corner notice , said the officer , who wished to remain anonymous . He described Farooq and Moulavi as experts in making crude bombs using ammonium nitrate . They are also associates of Lashkar-e-Toiba operative Thadiyandavide Naseer , he said . Thirty-two persons were charged by the city police in the first charge-sheet filed in court . As many as 19 persons , including PDP leader Maudany , have been arrested , while four were killed in an encounter in Jammu and Kashmir . OPEN"
p103
sS'injured'
p104
g88
sS'det_loc'
p105
(lp106
S'India'
p107
aS'Tamil Nadu'
p108
aS'Chennai'
p109
ag88
ag88
asS'O'
p110
(lp111
S'arrest:12'
p112
aS'serial:22'
p113
aS'killing:33'
p114
aS'country:84'
p115
aS'information:104'
p116
aS'central crime branch:110'
p117
aS'democratic party:128'
p118
aS'pdp:131'
p119
aS'leader:133'
p120
aS'accused:138'
p121
aS'officer:161'
p122
aS'evidence:170'
p123
aS'charge sheet:180'
p124
aS'court:183'
p125
aS'city:189'
p126
aS'serials blasts:198'
p127
aS'interpol wing:202'
p128
aS'red corner notice:216'
p129
aS'crude bombs:239'
p130
aS'ammonium nitrate:242'
p131
aS'operative:251'
p132
aS'charge-sheet:269'
p133
aS'court:272'
p134
aS'pdp leader:281'
p135
aS'arrested:287'
p136
aS'killed:292'
p137
aS'encounter:295'
p138
asS'unexpl'
p139
(lp140
g88
asS'ocassion'
p141
g88
sS'link'
p142
S'http://www.thehindu.com/todays-paper/tp-national/tp-karnataka/bangalore-blasts-city-police-looking-at-interpol-help/article836971.ece'
p143
sS'date'
p144
S'25-07-2008'
p145
sS'target'
p146
g88
sS'hot_spot'
p147
S'Bangalore'
p148
sS'delivery_mod'
p149
g88
sS'delivery_met'
p150
S'Planted'
p151
sS'expl'
p152
(lp153
S'Ammonium Nitrate'
p154
asS'ORG'
p155
(lp156
(lp157
S'Bangalore city police'
p158
aS'2'
p159
aS'Others'
p160
aa(lp161
S"People 's Democratic Party"
p162
aS'126'
p163
aS'Accused'
p164
aa(lp165
S'The Hindu'
p166
aS'163'
p167
aS'Others'
p168
aa(lp169
S'Interpol'
p170
aS'202'
p171
aS'Others'
p172
aa(lp173
S'Central Bureau of Investigation'
p174
aS'206'
p175
aS'Others'
p176
aa(lp177
S'CBI'
p178
aS'211'
p179
aS'Others'
p180
aa(lp181
S'Lashkar-e-Toiba'
p182
aS'250'
p183
aS'Accused'
p184
aa(lp185
S'PDP'
p186
aS'281'
p187
aS'Accused'
p188
aas.