(dp0
S'LOC'
p1
(lp2
(lp3
S'Hyderabad'
p4
aS'2'
p5
aS'Neutral'
p6
aa(lp7
S'Andhra Pradesh'
p8
aS'15'
p9
aS'Event'
p10
aa(lp11
S'Dangs'
p12
aS'26'
p13
aS'Event'
p14
aa(lp15
S'south Gujarat'
p16
aS'29'
p17
aS'Event'
p18
aa(lp19
S'Subir'
p20
aS'58'
p21
aS'Neutral'
p22
aa(lp23
S'Dangs district'
p24
aS'61'
p25
aS'Neutral'
p26
aa(lp27
S'Subir'
p28
aS'130'
p29
aS'Neutral'
p30
aa(lp31
S'Gujarat'
p32
aS'147'
p33
aS'Neutral'
p34
aa(lp35
S'Madhya Pradesh'
p36
aS'149'
p37
aS'Neutral'
p38
aa(lp39
S'Maharashtra'
p40
aS'152'
p41
aS'Neutral'
p42
aa(lp43
S'Dangs'
p44
aS'183'
p45
aS'Neutral'
p46
aa(lp47
S'Gujarat'
p48
aS'218'
p49
aS'Neutral'
p50
aa(lp51
S'Dangs'
p52
aS'238'
p53
aS'Neutral'
p54
aasS'PER'
p55
(lp56
(lp57
S'Swami Asimanand'
p58
aS'7'
p59
aS'Accused'
p60
aa(lp61
S'Swami'
p62
aS'92'
p63
aS'Accused'
p64
aa(lp65
S'Swami'
p66
aS'116'
p67
aS'Accused'
p68
aa(lp69
S'Swami'
p70
aS'181'
p71
aS'Accused'
p72
aasS'TIM'
p73
(lp74
sS'hot_setting'
p75
S''
p76
sS'DAT'
p77
(lp78
S'2006:133'
p79
asS'death'
p80
g76
sS'title'
p81
S'Asimanand may be brought to Gujarat for probe'
p82
sS'org_unorg'
p83
S'Organized'
p84
sS'terror_group'
p85
(lp86
g76
asS'content'
p87
S"The Hyderabad bomb blast accused , Swami Asimanand , currently in CBI custody in Andhra Pradesh on remand , is likely to be brought to Dangs district in south Gujarat in the next couple of days for investigation into his past activities in the region . The Swami , who was in-charge of the Shabari Dham in Subir village in Dangs district , spent nearly two decades in this tribal-dominated area . An activist of the Hindu Jagaran Manch , a voluntary organisation working for the revival of Hinduism , the Swami also launched a campaign in the district to re-convert the tribals to the Hindu fold . Shabari Kumbh Under the convenership of the Swami , the Vishwa Hindu Parishad had organised a massive Shabari Kumbh in the Subir village in 2006 . More than one lakh tribals from Dangs and other neighbouring districts in Gujarat , Madhya Pradesh and Maharashtra had participated in the three-day extravaganza , also attended by top leaders of the BJP . CBI team A team of CBI officials is expected to accompany the Swami to Dangs to investigate his past activities in the region and look for his sympathisers who might have helped him with manpower and funds for carrying out the bomb blasts , the CBI sources said . Gujarat police sources , however , claimed that there was still no information about the CBI team 's visit to Dangs with the blast accused . OPEN"
p88
sS'injured'
p89
g76
sS'det_loc'
p90
(lp91
S'India'
p92
aS'Gujarat'
p93
aS'Ahmedabad'
p94
ag76
ag76
asS'O'
p95
(lp96
S'hyderabad bomb blast:2'
p97
aS'bomb blast:3'
p98
aS'investigation:38'
p99
aS'hindu jagaran manch:77'
p100
aS'blast:241'
p101
asS'unexpl'
p102
(lp103
g76
asS'ocassion'
p104
g76
sS'link'
p105
S'http://www.thehindu.com/todays-paper/tp-national/asimanand-may-be-brought-to-gujarat-for-probe/article920463.ece'
p106
sS'date'
p107
S'18-05-2007'
p108
sS'target'
p109
g76
sS'hot_spot'
p110
S'Hyderabad bomb blast'
p111
sS'delivery_mod'
p112
g76
sS'delivery_met'
p113
g76
sS'expl'
p114
(lp115
g76
asS'ORG'
p116
(lp117
(lp118
S'CBI'
p119
aS'12'
p120
aS'Others'
p121
aa(lp122
S'Hindu Jagaran Manch'
p123
aS'77'
p124
aS'Others'
p125
aa(lp126
S'Vishwa Hindu Parishad'
p127
aS'119'
p128
aS'Others'
p129
aa(lp130
S'BJP'
p131
aS'167'
p132
aS'Others'
p133
aa(lp134
S'CBI'
p135
aS'169'
p136
aS'Others'
p137
aa(lp138
S'CBI'
p139
aS'174'
p140
aS'Others'
p141
aa(lp142
S'CBI'
p143
aS'214'
p144
aS'Others'
p145
aa(lp146
S'CBI'
p147
aS'233'
p148
aS'Others'
p149
aas.