(dp0
S'LOC'
p1
(lp2
(lp3
S'Mecca Masjid'
p4
aS'28'
p5
aS'Event'
p6
aa(lp7
S'Hyderabad'
p8
aS'31'
p9
aS'Neutral'
p10
aa(lp11
S'Ajmer'
p12
aS'146'
p13
aS'Neutral'
p14
aa(lp15
S'Ajmer'
p16
aS'158'
p17
aS'Neutral'
p18
aasS'PER'
p19
(lp20
(lp21
S'Devender Gupta'
p22
aS'10'
p23
aS'Accused'
p24
aa(lp25
S'Lokesh Sarma'
p26
aS'82'
p27
aS'Accused'
p28
aa(lp29
S'Gupta'
p30
aS'97'
p31
aS'Accused'
p32
aa(lp33
S'Sarma'
p34
aS'103'
p35
aS'Accused'
p36
aa(lp37
S'Gupta'
p38
aS'196'
p39
aS'Others'
p40
aa(lp41
S'T. Venkata Ramana'
p42
aS'206'
p43
aS'Others'
p44
aa(lp45
S'Sarma'
p46
aS'213'
p47
aS'Others'
p48
aasS'TIM'
p49
(lp50
sS'hot_setting'
p51
S''
p52
sS'DAT'
p53
(lp54
S'Monday:5'
p55
aS'June:43'
p56
aS'June 30:43'
p57
aS'Friday:61'
p58
aS'Thursday:114'
p59
aS'Tuesday:193'
p60
aS'June:221'
p61
aS'June 26:221'
p62
asS'death'
p63
g52
sS'title'
p64
S'Masjid blast accused in CBI custody'
p65
sS'org_unorg'
p66
S'Organized'
p67
sS'terror_group'
p68
(lp69
S'Miscreants,Dacoits & Smuggler Gang'
p70
asS'content'
p71
S"A city court on Monday granted police custody of Devender Gupta , one of the accused persons , who had allegedly conspired to carry out explosions in Mecca Masjid in Hyderabad three years ago . He will be in CBI custody till June 30 . The magistrate issued the orders after the CBI filed a petition in the court on Friday seeking custody of Gupta to elicit more information about the blast . Another petition to conduct test identification parade of Lokesh Sarma , the other person arrested in the case , was also filed . Gupta , along with his associate Sarma , were produced before the court by the CBI on Thursday . The court sent them to two weeks judicial remand following which they were lodged in Chanchalguda jail . They were earlier arrested for alleged involvement in the bomb blast at Ajmer and lodged in Ajmer Central Prison . They were brought from Ajmer prison on a prisoner 's transit warrant . The accused are members of the Abhinav Bharat , a Hindu fundamentalist organisation . CBI officials will submit court documents to authorities of Chanchalguda prison on Tuesday and take Gupta into their custody , said CBI Senior Public Prosecutor T. Venkata Ramana . The identification of Sarma will be conducted in the prison on June 26 to establish his link in the blast . The agency has lined up a few persons who claim they had seen the two accused . OPEN"
p72
sS'injured'
p73
g52
sS'det_loc'
p74
(lp75
S'India'
p76
aS'Andhra Pradesh'
p77
ag52
aS'Hyderabad'
p78
aS'Mecca Masjid Bomb Blast'
p79
asS'O'
p80
(lp81
S'custody:41'
p82
aS'court:59'
p83
aS'blast:72'
p84
aS'remand:124'
p85
aS'jail:132'
p86
aS'involvement:140'
p87
aS'bomb blast:143'
p88
aS'prison:159'
p89
aS"prisoner 's transit warrant:162"
p90
aS'hindu:177'
p91
aS'court:185'
p92
aS'prison:191'
p93
aS'custody:199'
p94
aS'public prosecutor:204'
p95
aS'identification:211'
p96
aS'blast:229'
p97
aS'agency:232'
p98
asS'unexpl'
p99
(lp100
g52
asS'ocassion'
p101
g52
sS'link'
p102
S'http://www.thehindu.com/todays-paper/tp-national/tp-andhrapradesh/masjid-blast-accused-in-cbi-custody/article478337.ece'
p103
sS'date'
p104
S'18-05-2007'
p105
sS'target'
p106
S'Religious Places'
p107
sS'hot_spot'
p108
g52
sS'delivery_mod'
p109
g52
sS'delivery_met'
p110
S'Planted'
p111
sS'expl'
p112
(lp113
g52
asS'ORG'
p114
(lp115
(lp116
S'CBI'
p117
aS'40'
p118
aS'Others'
p119
aa(lp120
S'CBI'
p121
aS'53'
p122
aS'Others'
p123
aa(lp124
S'CBI'
p125
aS'112'
p126
aS'Others'
p127
aa(lp128
S'Chanchalguda jail'
p129
aS'131'
p130
aS'Others'
p131
aa(lp132
S'Ajmer Central Prison'
p133
aS'150'
p134
aS'Others'
p135
aa(lp136
S'Abhinav Bharat'
p137
aS'173'
p138
aS'Others'
p139
aa(lp140
S'CBI'
p141
aS'181'
p142
aS'Others'
p143
aa(lp144
S'Chanchalguda prison'
p145
aS'190'
p146
aS'Others'
p147
aa(lp148
S'CBI'
p149
aS'202'
p150
aS'Others'
p151
aas.