(dp0
S'LOC'
p1
(lp2
(lp3
S'Nashik'
p4
aS'22'
p5
aS'Assoc Event Location'
p6
aa(lp7
S'Deolali'
p8
aS'59'
p9
aS'Neutral'
p10
aa(lp11
S'Nashik'
p12
aS'61'
p13
aS'Assoc Event Location'
p14
aa(lp15
S'Maharashtra'
p16
aS'144'
p17
aS'Neutral'
p18
aa(lp19
S'Maharashtra'
p20
aS'164'
p21
aS'Neutral'
p22
aa(lp23
S'India'
p24
aS'224'
p25
aS'Neutral'
p26
aa(lp27
S'Pune'
p28
aS'279'
p29
aS'Assoc Event Location'
p30
aa(lp31
S'Udgir'
p32
aS'304'
p33
aS'Neutral'
p34
aa(lp35
S'Latur'
p36
aS'306'
p37
aS'Neutral'
p38
aa(lp39
S'Pune'
p40
aS'349'
p41
aS'Assoc Event Location'
p42
aa(lp43
S'Nashik'
p44
aS'364'
p45
aS'Neutral'
p46
aa(lp47
S'Pune'
p48
aS'378'
p49
aS'Assoc Event Location'
p50
aasS'PER'
p51
(lp52
(lp53
S'Sheikh Lalbaba Mohammed Hussain Farid'
p54
aS'32'
p55
aS'Accused'
p56
aa(lp57
S'Bilal'
p58
aS'38'
p59
aS'Accused'
p60
aa(lp61
S'Himayat Baig'
p62
aS'66'
p63
aS'Others'
p64
aa(lp65
S'Bilal'
p66
aS'137'
p67
aS'Accused'
p68
aa(lp69
S'Bilal'
p70
aS'173'
p71
aS'Accused'
p72
aa(lp73
S'Baig'
p74
aS'185'
p75
aS'Accused'
p76
aa(lp77
S'Baig'
p78
aS'210'
p79
aS'Accused'
p80
aa(lp81
S'Bilal'
p82
aS'221'
p83
aS'Accused'
p84
aa(lp85
S'Baig'
p86
aS'250'
p87
aS'Accused'
p88
aa(lp89
S'Mohsin Chaudhary and Mohammad Ahmed Zarar Siddibappa'
p90
aS'256'
p91
aS'Accused'
p92
aa(lp93
S'Yasin'
p94
aS'264'
p95
aS'Accused'
p96
aa(lp97
S'Shah Rukh'
p98
aS'266'
p99
aS'Accused'
p100
aa(lp101
S'Baig'
p102
aS'285'
p103
aS'Accused'
p104
aa(lp105
S'Yasin'
p106
aS'335'
p107
aS'Accused'
p108
aa(lp109
S'Bilal'
p110
aS'351'
p111
aS'Accused'
p112
aa(lp113
S'Yasin'
p114
aS'365'
p115
aS'Accused'
p116
aasS'TIM'
p117
(lp118
sS'hot_setting'
p119
S''
p120
sS'DAT'
p121
(lp122
S'Monday:30'
p123
aS'May:182'
p124
aS'May 2010:182'
p125
aS'May 2010:226'
p126
aS'May:226'
p127
asS'death'
p128
g120
sS'title'
p129
S"Arrested duo's next target was Nashik, says ATS"
p130
sS'org_unorg'
p131
S'Organized'
p132
sS'terror_group'
p133
(lp134
S'Lashkar-e-Taiba / Pasban-E-Ahle Hadis (LeT)'
p135
asS'content'
p136
S"The duo arrested by the Maharashtra Anti-Terrorism Squad in the German Bakery blast case had plans to target sensitive places in Nashik , a senior ATS officer said on Monday . Sheikh Lalbaba Mohammed Hussain Farid alias Bilal had already conducted a recce of the Maharashtra Police Academy , the Police Commissioner Office and the Army camp at Deolali in Nashik on the instructions of Himayat Baig . We have charged them with preparing to commit a terrorist act . We nabbed them as they were preparing to commit the crime , he said . The ATS had seized 2 kg of RDX , Lashkar-e-Taiba literature , soldering wires , cutters , booklets on bomb-making , SIM cards , fake documents , mobile phones , pen drives and $ 1,300 and Rs .10,500 in cash from Bilal . Asked whether small towns in Maharashtra were the targets of terrorists , the ATS officer said the State was on the radar of terrorists . Maharashtra is the target . In touch with handlers Bilal had started conducting the recce of Nashik since May 2010 . Baig , mastermind behind the German Bakery blast , had been getting the work done from Bilal even as he remained out of sight . Baig was also in touch with his Pakistani handlers . When Bilal clandestinely entered India in May 2010 , he was given $ 1,400 and Rs . 10,500 in cash . Within a week of the German Bakery blast , Baig received Rs . 50,000 from Mohsin Chaudhary and Mohammad Ahmed Zarar Siddibappa alias Yasin alias Shah Rukh , both wanted LeT operatives . They had met somewhere outside Pune , the officer said . Baig had anyway been regularly receiving funds for his terror activities . He had opened a bank account in Udgir ( Latur district ) in some other person 's name , and operated it with the consent of that person . But the officer refused to divulge more details . Yasin was roped in to carry out the blast as he was from outside Pune . Bilal had already conducted recce of Maharashtra Police Academy , Commissioner Office in Nashik Yasin was roped in to carry out blast as he was from outside Pune OPEN"
p137
sS'injured'
p138
g120
sS'det_loc'
p139
(lp140
S'India'
p141
aS'Maharashtra'
p142
aS'Mumbai-City'
p143
aS'Mumbai'
p144
ag120
asS'O'
p145
(lp146
S'blast case:13'
p147
aS'target:18'
p148
aS'officer:27'
p149
aS'recce:43'
p150
aS'police commissioner office:51'
p151
aS'army camp:56'
p152
aS'terrorist act:78'
p153
aS'crime:91'
p154
aS'rdx:103'
p155
aS'lashkar-e-taiba:105'
p156
aS'bomb-making:115'
p157
aS'officer:153'
p158
aS'radar:160'
p159
aS'target:167'
p160
aS'touch:170'
p161
aS'recce:178'
p162
aS'mastermind:187'
p163
aS'german bakery blast:190'
p164
aS'work:198'
p165
aS'sight:208'
p166
aS'touch:214'
p167
aS'week:243'
p168
aS'german bakery blast:246'
p169
aS'let:271'
p170
aS'officer:282'
p171
aS'bank account:301'
p172
aS'district:307'
p173
aS'blast:343'
p174
aS'recce:355'
p175
aS'commissioner office:361'
p176
aS'blast:372'
p177
asS'unexpl'
p178
(lp179
g120
asS'ocassion'
p180
g120
sS'link'
p181
S'http://www.thehindu.com/todays-paper/tp-national/arrested-duos-next-target-was-nashik-says-ats/article634493.ece'
p182
sS'date'
p183
S'13-02-2010'
p184
sS'target'
p185
g120
sS'hot_spot'
p186
S'German Bakery'
p187
sS'delivery_mod'
p188
g120
sS'delivery_met'
p189
S'Planted'
p190
sS'expl'
p191
(lp192
S'RDX'
p193
asS'ORG'
p194
(lp195
(lp196
S'Maharashtra Anti-Terrorism Squad'
p197
aS'6'
p198
aS'Others'
p199
aa(lp200
S'Maharashtra Police Academy'
p201
aS'46'
p202
aS'Others'
p203
aa(lp204
S'ATS'
p205
aS'97'
p206
aS'Others'
p207
aa(lp208
S'Lashkar-e-Taiba'
p209
aS'105'
p210
aS'Accused'
p211
aa(lp212
S'ATS'
p213
aS'152'
p214
aS'Others'
p215
aa(lp216
S'LeT'
p217
aS'271'
p218
aS'Others'
p219
aa(lp220
S'Maharashtra Police Academy'
p221
aS'357'
p222
aS'Others'
p223
aas.