(dp0
S'LOC'
p1
(lp2
(lp3
S'Mumbai'
p4
aS'3'
p5
aS'Neutral'
p6
aa(lp7
S'Mulund'
p8
aS'84'
p9
aS'Neutral'
p10
aa(lp11
S'Mumbai Central junction'
p12
aS'104'
p13
aS'Neutral'
p14
aa(lp15
S'Ville Parle station'
p16
aS'117'
p17
aS'Neutral'
p18
aa(lp19
S'Mulund'
p20
aS'135'
p21
aS'Neutral'
p22
aa(lp23
S'Padgha'
p24
aS'171'
p25
aS'Neutral'
p26
aa(lp27
S'LBS Marg'
p28
aS'278'
p29
aS'Neutral'
p30
aa(lp31
S'Kurla'
p32
aS'281'
p33
aS'Neutral'
p34
aasS'PER'
p35
(lp36
(lp37
S'Vazhul Kamar Khan'
p38
aS'15'
p39
aS'Accused'
p40
aa(lp41
S'Babu Bhai'
p42
aS'19'
p43
aS'Accused'
p44
aa(lp45
S'Murtaza Chowdhary'
p46
aS'22'
p47
aS'Accused'
p48
aa(lp49
S'Rakesh Maria'
p50
aS'39'
p51
aS'Others'
p52
aa(lp53
S'Khan'
p54
aS'145'
p55
aS'Others'
p56
aa(lp57
S'Maria'
p58
aS'148'
p59
aS'Others'
p60
aa(lp61
S'Khan'
p62
aS'150'
p63
aS'Accused'
p64
aa(lp65
S'Tahir Ansari'
p66
aS'224'
p67
aS'Accused'
p68
aa(lp69
S'Tahir'
p70
aS'237'
p71
aS'Accused'
p72
aa(lp73
S'Saquib Nachan'
p74
aS'254'
p75
aS'Accused'
p76
aa(lp77
S'Iqbal Bhatkal'
p78
aS'261'
p79
aS'Accused'
p80
aa(lp81
S'Maria'
p82
aS'269'
p83
aS'Others'
p84
aa(lp85
S'Khan'
p86
aS'275'
p87
aS'Accused'
p88
aasS'TIM'
p89
(lp90
S'10 a.m.:283'
p91
asS'hot_setting'
p92
S''
p93
sS'DAT'
p94
(lp95
S'Monday:13'
p96
aS'2003:30'
p97
aS'March 13:63'
p98
aS'2003:66'
p99
aS'December 6:108'
p100
aS'2002:111'
p101
aS'January 27:121'
p102
aS'2003:124'
p103
asS'death'
p104
g93
sS'title'
p105
S'Mulund station blast case accused arrested'
p106
sS'det_loc'
p107
(lp108
S'India'
p109
aS'Maharashtra'
p110
aS'Mumbai-City'
p111
aS'Mulund'
p112
ag93
asS'terror_group'
p113
(lp114
S'Indian Mujahideen'
p115
asS'content'
p116
S"Staff Reporter Mumbai : The Maharashtra Anti-Terrorism Squad ( ATS ) on Monday arrested Vazhul Kamar Khan alias Babu Bhai alias Murtaza Chowdhary , 44 , wanted in the 2003 Mulund railway station blast case , ATS chief Rakesh Maria told journalists here . This is the 17 -LCB- + t -RCB- -LCB- + h -RCB- arrest in the case . On March 13 , 2003 , a powerful blast ripped through the first class bogie of a Karjat-bound fast local at the Mulund station . The incident was preceded by two more blasts , one at a McDonald 's outlet at the Mumbai Central junction on December 6 , 2002 and the other outside the Ville Parle station on January 27 , 2003 . Sixteen persons were arrested and charge sheeted in the Mulund case . There were seven wanted accused , including Khan . Mr. Maria said Khan was part of the criminal conspiracy ; he was present at the training which took place in the forest of Padgha village in Thane ( rural ) , he had helped in the making of the IEDs ( Improvised Explosive Devices ) for all the three blasts and was present when the explosives were being placed in containers . The charge sheet clearly mentions his role . He was a close associate of Tahir Ansari , who made the bombs and is absconding . He knew Tahir and assisted him . He is also a very close associate of -LSB- prime accused -RSB- Saquib Nachan -LSB- already arrested -RSB- and Iqbal Bhatkal of the Indian Mujahideen , Mr. Maria said . The ATS arrested Khan at the LBS Marg in Kurla around 10 a.m. . He was carrying a 7.65 mm pistol having three live rounds . OPEN"
p117
sS'injured'
p118
g93
sS'org_unorg'
p119
S'Organized'
p120
sS'O'
p121
(lp122
S'mulund railway station blast case:31'
p123
aS'station:85'
p124
aS'incident:88'
p125
aS"mcdonald 's outlet:99"
p126
aS'charge:131'
p127
aS'training:163'
p128
aS'forest:169'
p129
aS'thane:174'
p130
aS'charge sheet:211'
p131
aS'associate:222'
p132
aS'7.65 mm pistol:290'
p133
asS'unexpl'
p134
(lp135
g93
asS'ocassion'
p136
g93
sS'link'
p137
S'http://www.thehindu.com/todays-paper/tp-national/mulund-station-blast-case-accused-arrested/article765174.ece'
p138
sS'date'
p139
S'27-01-2003'
p140
sS'target'
p141
S'Railway Station'
p142
sS'hot_spot'
p143
S"Mulund railway station blast case and McDonald 's outlet at the Mumbai Central junction"
p144
sS'delivery_mod'
p145
g93
sS'delivery_met'
p146
S'Planted'
p147
sS'expl'
p148
(lp149
S'IED'
p150
asS'ORG'
p151
(lp152
(lp153
S'Maharashtra Anti-Terrorism Squad'
p154
aS'6'
p155
aS'Others'
p156
aa(lp157
S'McDonald'
p158
aS'99'
p159
aS'Others'
p160
aa(lp161
S'Indian Mujahideen'
p162
aS'265'
p163
aS'Others'
p164
aas.