(dp0
S'LOC'
p1
(lp2
(lp3
S'M. Chinnaswamy Stadium'
p4
aS'26'
p5
aS'Neutral'
p6
aa(lp7
S'Mumbai'
p8
aS'127'
p9
aS'Neutral'
p10
aa(lp11
S'Kerala'
p12
aS'182'
p13
aS'Neutral'
p14
aa(lp15
S'Kodagu'
p16
aS'226'
p17
aS'Neutral'
p18
aasS'PER'
p19
(lp20
(lp21
S'Abdul Nasir Maudany'
p22
aS'9'
p23
aS'Others'
p24
aa(lp25
S'V.S. Acharya'
p26
aS'42'
p27
aS'Others'
p28
aa(lp29
S'Dr. Acharya'
p30
aS'60'
p31
aS'Others'
p32
aa(lp33
S'Maudany'
p34
aS'64'
p35
aS'Accused'
p36
aa(lp37
S'Dr. Acharya'
p38
aS'137'
p39
aS'Others'
p40
aa(lp41
S'Maudany'
p42
aS'168'
p43
aS'Accused'
p44
aa(lp45
S'Maudany'
p46
aS'222'
p47
aS'Accused'
p48
aa(lp49
S'Acharya'
p50
aS'246'
p51
aS'Others'
p52
aasS'TIM'
p53
(lp54
sS'hot_setting'
p55
S''
p56
sS'DAT'
p57
(lp58
S'April:18'
p59
aS'April 17:18'
p60
aS'2010:21'
p61
aS'Tuesday:46'
p62
aS'2008:74'
p63
aS'2008:134'
p64
aS'August:184'
p65
aS'August 17:184'
p66
aS'August 26:198'
p67
aS'August:198'
p68
asS'death'
p69
g56
sS'title'
p70
S'Maudany had role in stadium blasts too, says Minister'
p71
sS'org_unorg'
p72
S'Organized'
p73
sS'terror_group'
p74
(lp75
g56
asS'content'
p76
S"Police interrogation of People 's Democratic Party leader Abdul Nasir Maudany has revealed his role in the April 17 , 2010 twin explosions near the M. Chinnaswamy Stadium in the city ahead of an IPL cricket match , Karnataka Home Minister V.S. Acharya said on Tuesday . He was replying to a query at a press conference here . Dr. Acharya said Mr. Maudany 's links with the other main accused in the 2008 Bangalore serial bomb blasts case were also established during interrogation . Seventeen persons , including nine police personnel , were injured when two low-intensity IEDs went off outside the stadium ahead of a match between Royal Challengers Bangalore and Mumbai Indians . Following the blasts , two semi-final matches were shifted to Mumbai . On the investigation into the 2008 blasts , Dr. Acharya said , We are confident that we will get the full information on the conspiracy . He indicated that the police would seek extension of police custody for Mr. Maudany , who was arrested in this case by a Karnataka police team in Kerala on August 17 . He was remanded to police custody by a Bangalore magistrate till August 26 . Ten days are not sufficient to collect all information from the accused , the Minister said . Last week , Mr. Maudany was taken to Kodagu , to explore his alleged links there . Hinting that the probe was yet to be completed , Dr. Acharya said , The PDP chairman is on fast during day on account of Ramzan and interrogation is -LSB- held -RSB- in between . OPEN"
p77
sS'injured'
p78
g56
sS'det_loc'
p79
(lp80
S'India'
p81
aS'Karnataka'
p82
aS'Bangalore Urban'
p83
aS'Bangalore'
p84
ag56
asS'O'
p85
(lp86
S'interrogation:2'
p87
aS'ipl cricket match:35'
p88
aS'bangalore serial bomb blasts case:75'
p89
aS'bangalore serial bomb blasts:75'
p90
aS'ieds:99'
p91
aS'blasts:119'
p92
aS'investigation:131'
p93
aS'custody:192'
p94
aS'magistrate:196'
p95
aS'information:209'
p96
aS'minister:215'
p97
aS'ramzan:260'
p98
aS'interrogation:262'
p99
asS'unexpl'
p100
(lp101
g56
asS'ocassion'
p102
g56
sS'link'
p103
S'http://www.thehindu.com/todays-paper/tp-national/maudany-had-role-in-stadium-blasts-too-says-minister/article592646.ece'
p104
sS'date'
p105
S'17-04-2010'
p106
sS'target'
p107
g56
sS'hot_spot'
p108
S'Bangalore serial bomb blasts'
p109
sS'delivery_mod'
p110
g56
sS'delivery_met'
p111
g56
sS'expl'
p112
(lp113
g56
asS'ORG'
p114
(lp115
(lp116
S"People 's Democratic Party"
p117
aS'4'
p118
aS'Others'
p119
aa(lp120
S'IPL'
p121
aS'35'
p122
aS'Others'
p123
aa(lp124
S'Royal Challengers Bangalore'
p125
aS'110'
p126
aS'Others'
p127
aa(lp128
S'Mumbai Indians'
p129
aS'114'
p130
aS'Others'
p131
aa(lp132
S'Karnataka police team'
p133
aS'178'
p134
aS'Others'
p135
aa(lp136
S'PDP'
p137
aS'250'
p138
aS'Others'
p139
aas.