(dp0
S'LOC'
p1
(lp2
(lp3
S'Kama Sasan'
p4
aS'20'
p5
aS'Event'
p6
aa(lp7
S'Dharakote'
p8
aS'24'
p9
aS'Accused Location'
p10
aa(lp11
S'Ganjam'
p12
aS'27'
p13
aS'Accused Location'
p14
aasS'PER'
p15
(lp16
(lp17
S'Nilu Reddy'
p18
aS'1'
p19
aS'Accused'
p20
aa(lp21
S'Nilu'
p22
aS'32'
p23
aS'Accused'
p24
aasS'TIM'
p25
(lp26
sS'hot_setting'
p27
S''
p28
sS'DAT'
p29
(lp30
S'Sunday:30'
p31
asS'death'
p32
g28
sS'title'
p33
S'Man injured as bomb goes off in hands'
p34
sS'det_loc'
p35
(lp36
S'India'
p37
aS'Orissa'
p38
aS'Ganjam'
p39
aS'Berhampur'
p40
aS'Kama Sasan village of Dharakote'
p41
asS'terror_group'
p42
(lp43
S'Miscreants,Dacoits & Smuggler Gang'
p44
asS'content'
p45
S'Nilu Reddy , an alleged criminal , was seriously injured when a crude bomb blasted in his hands at Kama Sasan village of Dharakote area in Ganjam district on Sunday . Nilu was released from jail a few days ago . For some reasons he was throwing crude bombs at the house of one of his relatives when the mishap occurred . OPEN'
p46
sS'injured'
p47
g19
sS'org_unorg'
p48
S'Unorganized'
p49
sS'O'
p50
(lp51
S'crude bomb:13'
p52
aS'crude bomb blasted:13'
p53
asS'unexpl'
p54
(lp55
g28
asS'ocassion'
p56
g28
sS'link'
p57
S'http://www.thehindu.com/todays-paper/tp-national/tp-otherstates/man-injured-as-bomb-goes-off-in-hands/article700273.ece'
p58
sS'date'
p59
S'19-09-2010'
p60
sS'target'
p61
g28
sS'hot_spot'
p62
g28
sS'delivery_mod'
p63
g28
sS'delivery_met'
p64
g28
sS'expl'
p65
(lp66
S'Crude bomb'
p67
asS'ORG'
p68
(lp69
s.