(dp0
S'LOC'
p1
(lp2
(lp3
S'Kozhikode'
p4
aS'18'
p5
aS'Event'
p6
aa(lp7
S'Bangalore'
p8
aS'61'
p9
aS'Assoc Event Location'
p10
aa(lp11
S'Bangalore'
p12
aS'71'
p13
aS'Assoc Event Location'
p14
aa(lp15
S'Bangalore jail'
p16
aS'122'
p17
aS'Neutral'
p18
aa(lp19
S'Bangalore'
p20
aS'155'
p21
aS'Neutral'
p22
aa(lp23
S'Kerala'
p24
aS'176'
p25
aS'Neutral'
p26
aa(lp27
S'Karnataka'
p28
aS'178'
p29
aS'Neutral'
p30
aasS'PER'
p31
(lp32
(lp33
S'T. Nazir'
p34
aS'39'
p35
aS'Accused'
p36
aa(lp37
S'Shafaz'
p38
aS'44'
p39
aS'Accused'
p40
aa(lp41
S'Yousef'
p42
aS'76'
p43
aS'Accused'
p44
aa(lp45
S'Abdul Haleem'
p46
aS'78'
p47
aS'Accused'
p48
aa(lp49
S'S. Vijayakumar'
p50
aS'93'
p51
aS'Comment'
p52
aa(lp53
S'Nazir'
p54
aS'100'
p55
aS'Accused'
p56
aa(lp57
S'Shafaz'
p58
aS'102'
p59
aS'Accused'
p60
aa(lp61
S'Nazir'
p62
aS'146'
p63
aS'Accused'
p64
aasS'TIM'
p65
(lp66
sS'hot_setting'
p67
S''
p68
sS'DAT'
p69
(lp70
S'December:24'
p71
aS'December 2:24'
p72
aS'Tuesday:30'
p73
asS'death'
p74
g68
sS'title'
p75
S'Blast case: charges to be framed on December 2'
p76
sS'org_unorg'
p77
S'Organized'
p78
sS'terror_group'
p79
(lp80
S'Lashkar-e-Taiba / Pasban-E-Ahle Hadis (LeT)'
p81
asS'content'
p82
S'The National Investigation Agency ( NIA ) Special Court will frame charges against the accused in the Kozhikode twin bomb blast case on December 2 . The NIA on Tuesday produced the prime accused and suspected terror operative T. Nazir and his accomplice Shafaz , before the court amid tight security . They were brought to the court from a Bangalore jail where they were lodged in connection with the Bangalore bomb blast case . Yousef and Abdul Haleem , the other accused on bail , were present before Special Court Judge S. Vijayakumar . The court directed that Nazir and Shafaz be lodged in the Viyyur central prison . The Judge ordered that they should not be sent back to Bangalore jail without the permission of the court . The Judge also directed jail authorities to provide necessary protection to both the accused . Nazir had pleaded that he be sent back to Bangalore as he was not safe in the State . The court had last time directed the Director-Generals of Police of Kerala and Karnataka to provide sufficient protection for bringing the accused to the court . The NIA has filed charge sheet against eight persons in the case . Two other accused , who are in the hiding , have been declared proclaimed offenders . OPEN'
p83
sS'injured'
p84
g68
sS'det_loc'
p85
(lp86
S'India'
p87
aS'Kerala'
p88
aS'Kozhikode'
p89
ag68
ag68
asS'O'
p90
(lp91
S'kozhikode twin bomb blast case:18'
p92
aS'twin bomb blast case:19'
p93
aS'judge:132'
p94
aS'protection:182'
p95
aS'accused:206'
p96
asS'unexpl'
p97
(lp98
g68
asS'ocassion'
p99
g68
sS'link'
p100
S'http://www.thehindu.com/todays-paper/tp-national/tp-kerala/blast-case-charges-to-be-framed-on-december-2/article908752.ece'
p101
sS'date'
p102
S'03-03-2006'
p103
sS'target'
p104
S'Public Transport'
p105
sS'hot_spot'
p106
g68
sS'delivery_mod'
p107
g68
sS'delivery_met'
p108
S'Planted'
p109
sS'expl'
p110
(lp111
g68
asS'ORG'
p112
(lp113
(lp114
S'National Investigation Agency'
p115
aS'2'
p116
aS'Others'
p117
aa(lp118
S'NIA'
p119
aS'6'
p120
aS'Others'
p121
aa(lp122
S'NIA'
p123
aS'28'
p124
aS'Others'
p125
aa(lp126
S'Viyyur central prison'
p127
aS'107'
p128
aS'Others'
p129
aa(lp130
S'NIA'
p131
aS'192'
p132
aS'Others'
p133
aas.