(dp0
S'LOC'
p1
(lp2
(lp3
S'Bangladesh'
p4
aS'33'
p5
aS'Neutral'
p6
aa(lp7
S'Assam'
p8
aS'58'
p9
aS'Neutral'
p10
aa(lp11
S'Bangladesh'
p12
aS'110'
p13
aS'Neutral'
p14
aa(lp15
S'Dawki sector'
p16
aS'120'
p17
aS'Neutral'
p18
aa(lp19
S'Assam'
p20
aS'126'
p21
aS'Neutral'
p22
aa(lp23
S'Assam'
p24
aS'148'
p25
aS'Neutral'
p26
aa(lp27
S'Guwahati'
p28
aS'223'
p29
aS'Neutral'
p30
aa(lp31
S'Bongaigaon'
p32
aS'228'
p33
aS'Neutral'
p34
aa(lp35
S'Kokrajhar'
p36
aS'230'
p37
aS'Neutral'
p38
aa(lp39
S'India'
p40
aS'377'
p41
aS'Neutral'
p42
aa(lp43
S'Bangladesh'
p44
aS'427'
p45
aS'Neutral'
p46
aasS'PER'
p47
(lp48
(lp49
S'Ransaigra Nabla Daimary'
p50
aS'18'
p51
aS'Accused'
p52
aa(lp53
S'D.R. Nabla'
p54
aS'23'
p55
aS'Accused'
p56
aa(lp57
S'Ranjan Daimary'
p58
aS'26'
p59
aS'Accused'
p60
aa(lp61
S'Subhash Ch . Das'
p62
aS'85'
p63
aS'Comment'
p64
aa(lp65
S'Daimary'
p66
aS'103'
p67
aS'Accused'
p68
aa(lp69
S'Daimary'
p70
aS'209'
p71
aS'Accused'
p72
aa(lp73
S'Daimary'
p74
aS'237'
p75
aS'Accused'
p76
aa(lp77
S'B. Sungthagra'
p78
aS'284'
p79
aS'Accused'
p80
aa(lp81
S'Dhiren Boro'
p82
aS'288'
p83
aS'Accused'
p84
aa(lp85
S'Daimary'
p86
aS'300'
p87
aS'Accused'
p88
aa(lp89
S'Daimary'
p90
aS'316'
p91
aS'Accused'
p92
aa(lp93
S'Sungthagra'
p94
aS'341'
p95
aS'Accused'
p96
aa(lp97
S'Ranjan Daimary'
p98
aS'356'
p99
aS'Accused'
p100
aa(lp101
S'Daimary'
p102
aS'360'
p103
aS'Accused'
p104
aasS'TIM'
p105
(lp106
sS'hot_setting'
p107
S'Capture of NDFB chief'
p108
sS'DAT'
p109
(lp110
S'Friday night:44'
p111
aS'Saturday:68'
p112
aS'Sunday:80'
p113
aS'October 30:141'
p114
aS'2008:144'
p115
aS'May 25:193'
p116
aS'2009:196'
p117
aS'October 3:248'
p118
aS'1986:251'
p119
aS'1993:268'
p120
aS'December 15:277'
p121
aS'2008:280'
p122
aS'January 1:309'
p123
aS'October 30:323'
p124
aS'2008:326'
p125
aS'October 8:379'
p126
aS'2004:382'
p127
aS'May 25:409'
p128
aS'2005:412'
p129
asS'death'
p130
S''
p131
sS'title'
p132
S'Daimary held, handed over to BSF'
p133
sS'org_unorg'
p134
S'Organized'
p135
sS'terror_group'
p136
(lp137
S'National Democratic Front of Bodoland (NDFB)'
p138
asS'content'
p139
S"Sushanta Talukdar Guwahati : The founder-chief of the militant outfit , National Democratic Front of Boroland , Ransaigra Nabla Daimary ( alias D.R. Nabla or Ranjan Daimary ) , was held in Bangladesh and handed over to the Border Security Force late on Friday night . BSF authorities , in turn , handed him over to the Assam police and he was brought to the city on Saturday . He is likely to be produced in court here on Sunday . When contacted , Subhash Ch . Das , Principal Secretary , Home , did not divulge where and under what circumstances Daimary was arrested and details of the Bangladesh Rifles handing him over to the BSF in the Dawki sector of the border . Assam blasts The 51-year-old insurgent leader was wanted in a number of cases including the October 30 , 2008 serial blasts in Assam in which 88 persons were killed , at least 540 were injured and public property worth Rs .2.99 crore was damaged . Interpol also issued a Red Corner notice against him . The Central Bureau of Investigation , in its charge sheet filed on May 25 , 2009 in connection with the serial blasts , named 19 persons , including Daimary , accused . Its investigation revealed that the nine serial bomb blasts in Guwahati , Barpeta Road , Bongaigaon and Kokrajhar were triggered by the NDFB . Daimary had been president of the NDFB since its inception on October 3 , 1986 . The outfit was originally known as the Boro Security Force and re-christened the NDFB in 1993 . However , the NDFB general assembly on December 15 , 2008 replaced him by B. Sungthagra ( alias Dhiren Boro ) . But , 12 days after his removal , Daimary claimed that he was still president . On January 1 , 2009 the NDFB expelled Daimary for his alleged involvement in the October 30 , 2008 blasts . This split the outfit into two , with one faction led by Sungthagra known as the NDFB ( ceasefire ) and the other as the NDFB ( Ranjan Daimary ) . Daimary earlier initiated the NDFB 's peace process , declaring a unilateral ceasefire with the government of India on October 8 , 2004 , for six months and it was extended for another 3 months . He signed a bilateral agreement on Suspension of Operation with the Centre on May 25 , 2005 . However , he later went underground and operated out of his bases in Bangladesh along with armed cadres of the third battalion of the outfit . OPEN"
p140
sS'injured'
p141
g131
sS'det_loc'
p142
(lp143
S'Bangladesh'
p144
ag131
ag131
ag131
ag131
asS'O'
p145
(lp146
S'founder-chief:6'
p147
aS'outfit:10'
p148
aS'national:12'
p149
aS'front:14'
p150
aS'handed:35'
p151
aS'border security force:39'
p152
aS'border security:39'
p153
aS'force:41'
p154
aS'night:45'
p155
aS'turn:51'
p156
aS'handed:53'
p157
aS'city:66'
p158
aS'court:77'
p159
aS'principal secretary:90'
p160
aS'sector:121'
p161
aS'border:124'
p162
aS'insurgent leader:130'
p163
aS'number:136'
p164
aS'serial:145'
p165
aS'public property:162'
p166
aS'red corner notice:175'
p167
aS'charge sheet:189'
p168
aS'connection:198'
p169
aS'serial:201'
p170
aS'investigation:214'
p171
aS'serial bomb blasts:219'
p172
aS'president:240'
p173
aS'inception:246'
p174
aS'outfit:254'
p175
aS'assembly:275'
p176
aS'removal:298'
p177
aS'president:306'
p178
aS'involvement:320'
p179
aS'split:330'
p180
aS'outfit:332'
p181
aS'faction:338'
p182
aS'ceasefire:347'
p183
aS'peace process:366'
p184
aS'ceasefire:372'
p185
aS'government:375'
p186
aS'agreement:400'
p187
aS'suspension:402'
p188
aS'operation:404'
p189
aS'centre:407'
p190
aS'battalion:435'
p191
aS'outfit:438'
p192
asS'unexpl'
p193
(lp194
g131
asS'ocassion'
p195
g131
sS'link'
p196
S'http://www.thehindu.com/todays-paper/daimary-held-handed-over-to-bsf/article760088.ece'
p197
sS'date'
p198
S'02-05-2010'
p199
sS'target'
p200
g131
sS'hot_spot'
p201
g131
sS'delivery_mod'
p202
g131
sS'delivery_met'
p203
g131
sS'expl'
p204
(lp205
g131
asS'ORG'
p206
(lp207
(lp208
S'National Democratic Front of Boroland'
p209
aS'12'
p210
aS'Accused'
p211
aa(lp212
S'Border Security Force'
p213
aS'39'
p214
aS'Others'
p215
aa(lp216
S'BSF'
p217
aS'47'
p218
aS'Others'
p219
aa(lp220
S'BSF'
p221
aS'117'
p222
aS'Others'
p223
aa(lp224
S'Interpol'
p225
aS'171'
p226
aS'Others'
p227
aa(lp228
S'Central Bureau of Investigation'
p229
aS'182'
p230
aS'Others'
p231
aa(lp232
S'NDFB'
p233
aS'235'
p234
aS'Accused'
p235
aa(lp236
S'NDFB'
p237
aS'243'
p238
aS'Accused'
p239
aa(lp240
S'Boro Security Force'
p241
aS'260'
p242
aS'Accused'
p243
aa(lp244
S'NDFB'
p245
aS'266'
p246
aS'Accused'
p247
aa(lp248
S'NDFB'
p249
aS'273'
p250
aS'Accused'
p251
aa(lp252
S'NDFB'
p253
aS'314'
p254
aS'Accused'
p255
aa(lp256
S'NDFB'
p257
aS'345'
p258
aS'Accused'
p259
aa(lp260
S'NDFB'
p261
aS'354'
p262
aS'Accused'
p263
aa(lp264
S'NDFB'
p265
aS'364'
p266
aS'Accused'
p267
aas.