(dp0
S'LOC'
p1
(lp2
(lp3
S'Gujarat'
p4
aS'1'
p5
aS'Neutral'
p6
aa(lp7
S'Mumbai'
p8
aS'17'
p9
aS'Assoc Event Location'
p10
aasS'PER'
p11
(lp12
(lp13
S'Narendra Modi'
p14
aS'4'
p15
aS'Comment'
p16
aa(lp17
S'Modi'
p18
aS'73'
p19
aS'Comment'
p20
aa(lp21
S'Modi'
p22
aS'122'
p23
aS'Comment'
p24
aasS'TIM'
p25
(lp26
sS'hot_setting'
p27
S''
p28
sS'DAT'
p29
(lp30
S'Wednesday:11'
p31
asS'death'
p32
g28
sS'title'
p33
S'It may be a rehearsal for a bigger attack: Modi'
p34
sS'det_loc'
p35
(lp36
S'India'
p37
aS'Gujarat'
p38
aS'Gandhinagar'
p39
ag28
ag28
asS'terror_group'
p40
(lp41
g28
asS'content'
p42
S"Gujarat Chief Minister Narendra Modi has expressed the apprehension that Wednesday 's serial bomb blasts in Mumbai could be a dress rehearsal for a bigger terror attack in the country . Expressing sympathy with the deceased and injured in the blasts , he said the initial information indicated that it was only a limited operation which could portend a more organised terror attack in the country in the near future . Mr. Modi hit out at the Congress-led United Progressive Alliance government at the Centre and said the terrorists were perhaps trying to prove that the present Indian government can do no harm to them and that they are still capable of causing immense damage to the country . But Mr. Modi reminded the terror groups that in case of any terror attack , the entire country would stand up as one person to uproot terrorism . OPEN"
p43
sS'injured'
p44
g28
sS'org_unorg'
p45
S'Organized'
p46
sS'O'
p47
(lp48
S'Gujarat Chief Minister:1'
p49
aS'serial bomb blasts:13'
p50
aS'dress rehearsal:21'
p51
aS'terror attack:26'
p52
aS'blasts:41'
p53
aS'limited operation:54'
p54
aS'terror attack:62'
p55
aS'terrorists:89'
p56
aS'Indian government:98'
p57
aS'damage:115'
p58
aS'terror groups:125'
p59
aS'terror attack:132'
p60
aS'terrorism:146'
p61
asS'unexpl'
p62
(lp63
g28
asS'ocassion'
p64
g28
sS'link'
p65
S'http://www.thehindu.com/todays-paper/tp-national/it-may-be-a-rehearsal-for-a-bigger-attack-modi/article2225358.ece'
p66
sS'date'
p67
S'14-07-2011'
p68
sS'target'
p69
g28
sS'hot_spot'
p70
g28
sS'delivery_mod'
p71
g28
sS'delivery_met'
p72
g28
sS'expl'
p73
(lp74
g28
asS'ORG'
p75
(lp76
(lp77
S'Congress-led United Progressive Alliance government'
p78
aS'78'
p79
aS'Others'
p80
aas.