(dp0
S'LOC'
p1
(lp2
(lp3
S'Delhi'
p4
aS'1'
p5
aS'Neutral'
p6
aa(lp7
S'Jama Masjid'
p8
aS'27'
p9
aS'Event'
p10
aa(lp11
S'Jama Masjid'
p12
aS'40'
p13
aS'Event'
p14
aasS'PER'
p15
(lp16
sS'TIM'
p17
(lp18
S'last year : 24'
p19
aS'few hours : 52'
p20
asS'hot_setting'
p21
S''
p22
sS'DAT'
p23
(lp24
S'Thursday : 5'
p25
aS'September 19:47'
p26
asS'death'
p27
g22
sS'title'
p28
S'25-lakh reward announced'
p29
sS'org_unorg'
p30
g22
sS'terror_group'
p31
(lp32
g22
asS'content'
p33
S"Delhi Police Commissioner on Thursday announced a reward of Rs .25 lakh for any information leading to the arrest of the culprits of last year 's Jama Masjid bomb blast case . A Maruti car had caught fire near Jama Masjid following a mild blast on September 19 last . A few hours earlier , two young men on a motorcycle had opened fire at a group of foreigners . Also , the reward money for any information on the attack on the foreigners has been increased from Rs .10 lakh to Rs .30 lakh . OPEN"
p34
sS'injured'
p35
g22
sS'det_loc'
p36
(lp37
S'India'
p38
aS'Delhi'
p39
ag22
aS'Delhi'
p40
aS'Jama Masjid'
p41
asS'O'
p42
(lp43
S'delhi police:1'
p44
aS'announced:6'
p45
aS'reward:8'
p46
aS'Rs .25 lakh:10'
p47
aS'information:15'
p48
aS'arrest:19'
p49
aS'culprits:22'
p50
aS'jama masjid bomb blast:27'
p51
aS'Maruti car:34'
p52
aS'mild blast:44'
p53
aS'two young men:56'
p54
aS'motorcycle:61'
p55
aS'opened fire:63'
p56
aS'foreigners:69'
p57
aS'reward money:74'
p58
aS'information:78'
p59
aS'attack:81'
p60
aS'foreigners:84'
p61
aS'Rs .10 lakh:89'
p62
aS'Rs .30 lakh:93'
p63
asS'unexpl'
p64
(lp65
g22
asS'ocassion'
p66
g22
sS'link'
p67
S'http://www.thehindu.com/todays-paper/tp-national/tp-newdelhi/25lakh-reward-announced/article1467193.ece'
p68
sS'date'
p69
S'19-09-2010'
p70
sS'target'
p71
S'RELIGIOUS PLACES'
p72
sS'hot_spot'
p73
g22
sS'delivery_mod'
p74
S'CAR'
p75
sS'delivery_met'
p76
S'PLANTED'
p77
sS'expl'
p78
(lp79
g22
asS'ORG'
p80
(lp81
(lp82
S'Delhi Police'
p83
ag5
aS'Others'
p84
aas.