(dp0
S'LOC'
p1
(lp2
(lp3
S'Abuja'
p4
aS'13'
p5
aS'Event'
p6
aasS'PER'
p7
(lp8
(lp9
S'Ban Ki-moon'
p10
aS'109'
p11
aS'Comment'
p12
aa(lp13
S'Ban'
p14
aS'123'
p15
aS'Comment'
p16
aasS'TIM'
p17
(lp18
sS'hot_setting'
p19
S''
p20
sS'DAT'
p21
(lp22
S'Friday:15'
p23
asS'death'
p24
S'18'
p25
sS'title'
p26
S'Suicide bomb rocks Nigerian capital'
p27
sS'org_unorg'
p28
S'Organized'
p29
sS'terror_group'
p30
(lp31
g20
asS'content'
p32
S'A suicide bomb blast rocked the U.N. compound in the Nigerian capital Abuja on Friday , killing at least 18 people , leaving others trapped and blowing out large areas of the building , officials said . Witnesses reported that the bomb went off after a suspect forced his way through security and rammed the car into the building . Parts of the first two floors were blown out and rescue workers scrambled to rescue those left inside . There was no immediate claim of responsibility , but an Islamist sect known as Boko Haram has been blamed for scores of bombings in recent months . U.N. chief Ban Ki-moon strongly condemned the attack and said considerable casualties were expected . Mr. Ban said staff for 26 U.N. agencies and departments were in the building . AFP OPEN'
p33
sS'injured'
p34
g20
sS'det_loc'
p35
(lp36
S'Nigeria'
p37
ag20
ag20
aS'Abuja'
p38
ag20
asS'O'
p39
(lp40
S'suicide bomb blast:2'
p41
aS'u.n. compound:7'
p42
aS'nigerian capital:11'
p43
aS'building:33'
p44
aS'bomb:42'
p45
aS'suspect:47'
p46
aS'security:52'
p47
aS'car:56'
p48
aS'building:59'
p49
aS'responsibility:86'
p50
aS'islamist sect:90'
p51
aS'bombings:102'
p52
aS'u.n. chief:107'
p53
aS'attack:114'
p54
aS'staff:125'
p55
aS'u.n. agencies:128'
p56
aS'building:135'
p57
asS'unexpl'
p58
(lp59
g20
asS'ocassion'
p60
g20
sS'link'
p61
S'http://www.thehindu.com/todays-paper/tp-international/suicide-bomb-rocks-nigerian-capital/article2401661.ece'
p62
sS'date'
p63
S'27-08-2011'
p64
sS'target'
p65
g20
sS'hot_spot'
p66
g20
sS'delivery_mod'
p67
g20
sS'delivery_met'
p68
g20
sS'expl'
p69
(lp70
g20
asS'ORG'
p71
(lp72
(lp73
S'U.N.'
p74
aS'7'
p75
aS'Victim'
p76
aa(lp77
S'Boko Haram'
p78
aS'94'
p79
aS'Accused'
p80
aa(lp81
S'U.N'
p82
aS'107'
p83
aS'Victim'
p84
aa(lp85
S'U.N'
p86
aS'128'
p87
aS'Victim'
p88
aas.