(dp0
S'LOC'
p1
(lp2
(lp3
S'Nowshera'
p4
aS'21'
p5
aS'Event'
p6
aa(lp7
S'Khyber-Pukhtoonkhwa'
p8
aS'25'
p9
aS'Event'
p10
aasS'PER'
p11
(lp12
sS'TIM'
p13
(lp14
sS'hot_setting'
p15
S''
p16
sS'DAT'
p17
(lp18
S'Sunday:28'
p19
aS'Sunday:75'
p20
asS'death'
p21
S'10'
p22
sS'title'
p23
S'Blast in bakery kills 10 in Pakistan'
p24
sS'det_loc'
p25
(lp26
S'Pakistan'
p27
ag16
ag16
aS'Islamabad'
p28
aS'Nowshera area of the Khyber-Pukhtoonkhwa province'
p29
asS'terror_group'
p30
(lp31
g16
asS'content'
p32
S'At least 10 people were killed and double the number injured in a bomb blast at a bakery in the Nowshera area of the Khyber-Pukhtoonkhwa province on Sunday night . The Tehreek-e-Taliban Pakistan claimed responsibility for planting the remote-controlled device in a dustbin at the entrance of the bakery . Since the bakery was located in a crowded market place , more casualties were feared , particularly since the bomb was activated during the Sunday rush-hour . The explosion also triggered a fire . OPEN'
p33
sS'injured'
p34
S'20'
p35
sS'org_unorg'
p36
S'Organized'
p37
sS'O'
p38
(lp39
S'killed:6'
p40
aS'injured:11'
p41
aS'bomb blast:14'
p42
aS'bakery:18'
p43
aS'nowshera area:21'
p44
aS'khyber-pukhtoonkhwa province:25'
p45
aS'sunday night:28'
p46
aS'responsibility:35'
p47
aS'remote-controlled device:39'
p48
aS'dustbin:43'
p49
aS'entrance:46'
p50
aS'bakery:49'
p51
aS'bakery:53'
p52
aS'market place:59'
p53
aS'bomb:70'
p54
aS'sunday rush-hour:75'
p55
aS'explosion:79'
p56
aS'fire:83'
p57
asS'unexpl'
p58
(lp59
g16
asS'ocassion'
p60
g16
sS'link'
p61
S'http://www.thehindu.com/todays-paper/blast-in-bakery-kills-10-in-pakistan/article2080330.ece'
p62
sS'date'
p63
S'26-06-2011'
p64
sS'target'
p65
S'Market Place'
p66
sS'hot_spot'
p67
S'bakery'
p68
sS'delivery_mod'
p69
g16
sS'delivery_met'
p70
g16
sS'expl'
p71
(lp72
g16
asS'ORG'
p73
(lp74
(lp75
S'Tehreek-e-Taliban Pakistan'
p76
aS'32'
p77
aS'Accused'
p78
aas.