(dp0
S'LOC'
p1
(lp2
(lp3
S'Nowshera'
p4
aS'21'
p5
aS'Event'
p6
aa(lp7
S'Khyber-Pukhtoonkhwa'
p8
aS'25'
p9
aS'Event'
p10
aasS'PER'
p11
(lp12
sS'TIM'
p13
(lp14
sS'hot_setting'
p15
S''
p16
sS'DAT'
p17
(lp18
S'Sunday:28'
p19
asS'death'
p20
S'10'
p21
sS'title'
p22
S'Blast in bakery kills 10 in Pakistan'
p23
sS'det_loc'
p24
(lp25
S'Pakistan'
p26
ag16
ag16
aS'Islamabad'
p27
aS'Nowshera area of the Khyber-Pukhtoonkhwa'
p28
asS'terror_group'
p29
(lp30
g16
asS'content'
p31
S'At least 10 people were killed and double the number injured in a bomb blast at a bakery in the Nowshera area of the Khyber-Pukhtoonkhwa province on Sunday night.Anita Joshua OPEN'
p32
sS'injured'
p33
S'20'
p34
sS'org_unorg'
p35
S'Organized'
p36
sS'O'
p37
(lp38
S'killed:6'
p39
aS'injured:11'
p40
aS'bomb blast:14'
p41
aS'bakery:18'
p42
aS'nowshera area:21'
p43
aS'khyber-pukhtoonkhwa province:25'
p44
aS'sunday night:28'
p45
asS'unexpl'
p46
(lp47
g16
asS'ocassion'
p48
g16
sS'link'
p49
S'http://www.thehindu.com/todays-paper/blast-in-bakery-kills-10-in-pakistan/article2080406.ece'
p50
sS'date'
p51
S'06-06-2011'
p52
sS'target'
p53
g16
sS'hot_spot'
p54
g16
sS'delivery_mod'
p55
g16
sS'delivery_met'
p56
g16
sS'expl'
p57
(lp58
g16
asS'ORG'
p59
(lp60
s.