(dp0
S'LOC'
p1
(lp2
(lp3
S'Kishtwar'
p4
aS'16'
p5
aS'Accused Location'
p6
aa(lp7
S'Kishtwar'
p8
aS'178'
p9
aS'Accused Location'
p10
aasS'PER'
p11
(lp12
(lp13
S'Amir Abbas Dev'
p14
aS'18'
p15
aS'Accused'
p16
aa(lp17
S'Dev'
p18
aS'32'
p19
aS'Accused'
p20
aa(lp21
S'H. S. Sharma'
p22
aS'55'
p23
aS'Others'
p24
aa(lp25
S'Ravi Kazi'
p26
aS'73'
p27
aS'Others'
p28
aa(lp29
S'Dev'
p30
aS'81'
p31
aS'Accused'
p32
aa(lp33
S'Kazi'
p34
aS'112'
p35
aS'Others'
p36
aa(lp37
S'Abid Hussain'
p38
aS'131'
p39
aS'Accused'
p40
aa(lp41
S'Kazi'
p42
aS'150'
p43
aS'Others'
p44
aa(lp45
S'Dev'
p46
aS'154'
p47
aS'Accused'
p48
aa(lp49
S'Hussain'
p50
aS'158'
p51
aS'Accused'
p52
aa(lp53
S'Hussain'
p54
aS'164'
p55
aS'Accused'
p56
aa(lp57
S'Shaukat'
p58
aS'171'
p59
aS'Others'
p60
aa(lp61
S'Dev'
p62
aS'216'
p63
aS'Accused'
p64
aasS'TIM'
p65
(lp66
sS'hot_setting'
p67
S''
p68
sS'DAT'
p69
(lp70
S'October 7:22'
p71
aS'Friday:30'
p72
aS'Thursday:46'
p73
aS'Friday:76'
p74
aS'Thursday:79'
p75
aS'Thursday:124'
p76
aS'October 5:137'
p77
asS'death'
p78
g68
sS'title'
p79
S'NIA gets custody of blast accused'
p80
sS'det_loc'
p81
(lp82
S'India'
p83
aS'Delhi'
p84
aS'New Delhi'
p85
ag68
ag68
asS'terror_group'
p86
(lp87
g68
asS'content'
p88
S"The National Investigation Agency ( NIA ) got custody of Delhi High Court blast accused Kishtwar resident Amir Abbas Dev until October 7 from a Special Court here on Friday . Dev was sent to a day 's judicial custody at Tihar Central Jail on Thursday after he requested Special Judge ( NIA ) H. S. Sharma for the services of a lawyer to represent him . He was represented by advocate Ravi Kazi on Friday . Like Thursday , Dev was produced under heavy security and with a towel wrapped around his face . The judge allowed only the NIA investigation team , the prosecutor , the accused and Mr. Kazi to be present in court during the remand hearing . On Thursday , the court remanded another accused Abid Hussain in NIA custody until October 5 . Stepping out of the courtroom after the hearing , Mr. Kazi told journalists that Dev was named by Hussain in the conspiracy and that Hussain was named by a person named Shaukat after the NIA tracked them to Kishtwar by tracing an e-mail sent allegedly by them to media houses claiming responsibility for the blast on behalf of banned terror outfit Harkat-ul-Jihad al-Islami ( HuJI ) . In the remand application , the NIA alleged that Dev was one of the terrorists who had conducted the bomb blast between gate number 4 and 5 of the Delhi High Court . The application also stated that he was one of the conspirators and needed to be interrogated thoroughly to trace his complicity in the terror crime and that of other associates who are also involved in this terrorist crime and conspiracy . OPEN"
p89
sS'injured'
p90
g68
sS'org_unorg'
p91
S'Organized'
p92
sS'O'
p93
(lp94
S'custody:9'
p95
aS'blast:14'
p96
aS'accused:15'
p97
aS'judicial custody:39'
p98
aS'towel wrapped:90'
p99
aS'court:117'
p100
aS'remand hearing:120'
p101
aS'court:127'
p102
aS'hearing:147'
p103
aS'conspiracy:161'
p104
aS'e-mail:182'
p105
aS'responsibility:191'
p106
aS'blast:194'
p107
aS'terror outfit:199'
p108
aS'remand application:209'
p109
aS'terrorists:221'
p110
aS'bomb blast:226'
p111
aS'gate number:229'
p112
aS'conspirators:250'
p113
aS'terror crime:263'
p114
aS'terrorist crime:276'
p115
aS'conspiracy:279'
p116
asS'unexpl'
p117
(lp118
g68
asS'ocassion'
p119
g68
sS'link'
p120
S'http://www.thehindu.com/todays-paper/tp-national/tp-newdelhi/nia-gets-custody-of-blast-accused/article2481157.ece'
p121
sS'date'
p122
S'24-09-2011'
p123
sS'target'
p124
g68
sS'hot_spot'
p125
g68
sS'delivery_mod'
p126
g68
sS'delivery_met'
p127
g68
sS'expl'
p128
(lp129
g68
asS'ORG'
p130
(lp131
(lp132
S'National Investigation Agency'
p133
aS'2'
p134
aS'Others'
p135
aa(lp136
S'NIA'
p137
aS'6'
p138
aS'Others'
p139
aa(lp140
S'Delhi High Court'
p141
aS'11'
p142
aS'Victim'
p143
aa(lp144
S'Special Court'
p145
aS'26'
p146
aS'Others'
p147
aa(lp148
S'Tihar Central Jail'
p149
aS'42'
p150
aS'Others'
p151
aa(lp152
S'NIA'
p153
aS'53'
p154
aS'Others'
p155
aa(lp156
S'NIA'
p157
aS'101'
p158
aS'Others'
p159
aa(lp160
S'NIA'
p161
aS'134'
p162
aS'Others'
p163
aa(lp164
S'NIA'
p165
aS'174'
p166
aS'Others'
p167
aa(lp168
S'Harkat-ul-Jihad al-Islami'
p169
aS'201'
p170
aS'Accused'
p171
aa(lp172
S'HuJI'
p173
aS'204'
p174
aS'Accused'
p175
aa(lp176
S'NIA'
p177
aS'213'
p178
aS'Others'
p179
aa(lp180
S'Delhi High Court'
p181
aS'236'
p182
aS'Victim'
p183
aas.