(dp0
S'LOC'
p1
(lp2
(lp3
S'Kazirganj Bazar'
p4
aS'20'
p5
aS'Event'
p6
aa(lp7
S'Bihar'
p8
aS'23'
p9
aS'Event'
p10
aa(lp11
S'Nawada'
p12
aS'25'
p13
aS'Event'
p14
aasS'PER'
p15
(lp16
(lp17
S'S Z Hasan'
p18
aS'55'
p19
aS'Comment'
p20
aasS'TIM'
p21
(lp22
sS'hot_setting'
p23
S''
p24
sS'DAT'
p25
(lp26
S'Tuesday:28'
p27
asS'death'
p28
S'1'
p29
sS'title'
p30
S'Girl killed in bomb blast'
p31
sS'det_loc'
p32
(lp33
S'India'
p34
aS'Bihar'
p35
aS'Nawada'
p36
ag24
aS'Kazirganj Bazar'
p37
asS'terror_group'
p38
(lp39
g24
asS'content'
p40
S"An eight-year-old girl was killed and 12 people were injured , five seriously , in a bomb blast at Kazirganj Bazar in Bihar 's Nawada district on Tuesday . An unidentified cycle-borne person threw the bomb at a fish shop in the market which exploded killing the girl on the spot , SubDivisional Officer S Z Hasan said . The injured were admitted to Sadar hospital where the condition of five was stated to be critical , he said . OPEN"
p41
sS'injured'
p42
S'12'
p43
sS'org_unorg'
p44
S'Organized'
p45
sS'O'
p46
(lp47
S'girl:3'
p48
aS'killed:5'
p49
aS'injured:10'
p50
aS'bomb blast:17'
p51
aS'cycle-borne person:32'
p52
aS'bomb:36'
p53
aS'fish shop:39'
p54
aS'market:43'
p55
aS'exploded:45'
p56
aS'girl:48'
p57
aS'subdivisional officer:53'
p58
aS'condition:69'
p59
aS'critical:76'
p60
asS'unexpl'
p61
(lp62
g24
asS'ocassion'
p63
g24
sS'link'
p64
S'http://www.thehindu.com/todays-paper/tp-national/tp-otherstates/girl-killed-in-bomb-blast/article1101726.ece'
p65
sS'date'
p66
S'18-01-2011'
p67
sS'target'
p68
S'Market Place'
p69
sS'hot_spot'
p70
g24
sS'delivery_mod'
p71
S'Bicycle'
p72
sS'delivery_met'
p73
S'Thrown'
p74
sS'expl'
p75
(lp76
g24
asS'ORG'
p77
(lp78
(lp79
S'Sadar hospital'
p80
aS'65'
p81
aS'Others'
p82
aas.