(dp0
S'LOC'
p1
(lp2
(lp3
S'Bangalore prison'
p4
aS'89'
p5
aS'Neutral'
p6
aa(lp7
S'Bangalore prison'
p8
aS'99'
p9
aS'Neutral'
p10
aa(lp11
S'Bangalore'
p12
aS'105'
p13
aS'Assoc Event Location'
p14
aasS'PER'
p15
(lp16
(lp17
S'Arunachalam'
p18
aS'7'
p19
aS'Others'
p20
aa(lp21
S'Abdul Nasser Maudhany'
p22
aS'34'
p23
aS'Accused'
p24
aa(lp25
S'Maudhany'
p26
aS'81'
p27
aS'Accused'
p28
aa(lp29
S'Maudhany'
p30
aS'94'
p31
aS'Accused'
p32
aa(lp33
S'Maudhany'
p34
aS'116'
p35
aS'Accused'
p36
aa(lp37
S'Maudhany'
p38
aS'128'
p39
aS'Accused'
p40
aasS'TIM'
p41
(lp42
sS'hot_setting'
p43
S''
p44
sS'DAT'
p45
(lp46
S'Saturday:9'
p47
aS'November 12:38'
p48
aS'December 30 , 2002 : 60'
p49
aS'November 12:133'
p50
asS'death'
p51
g44
sS'title'
p52
S'Maudhany to be produced on November 12'
p53
sS'det_loc'
p54
(lp55
S'India'
p56
aS'Tamil Nadu'
p57
aS'Coimbatore'
p58
aS'Coimbatore'
p59
ag44
asS'terror_group'
p60
(lp61
g44
asS'content'
p62
S"Judicial Magistrate III ( in-charge ) Arunachalam on Saturday granted permission to a Special Investigation Team of the State Crime Branch CID to produce Kerala-based People 's Democratic Party ( PDP ) leader Abdul Nasser Maudhany on November 12 . The case relates to the planting of a bomb inside the telephone booth at the Coimbatore Press Club on December 30 , 2002 . Warrant The Special Investigation Team had obtained a production warrant from the Coimbatore Court against Mr. Maudhany and formally recorded his arrest in the Bangalore prison earlier . Mr. Maudhany is lodged in the Bangalore prison in connection with a Bangalore bomb blast case . Citing his health condition , Mr. Maudhany expressed his inability to travel . Hence the court ordered Mr. Maudhany to be produced on November 12 . OPEN"
p63
sS'injured'
p64
g44
sS'org_unorg'
p65
S'Organized'
p66
sS'O'
p67
(lp68
S'judicial magistrate:1'
p69
aS'bomb:49'
p70
aS'telephone booth:52'
p71
aS'production warrant:73'
p72
aS'arrest:86'
p73
aS'Bangalore bomb blast case:105'
p74
aS'health condition:112'
p75
aS'inability:119'
p76
aS'travel:121'
p77
aS'court:125'
p78
asS'unexpl'
p79
(lp80
g44
asS'ocassion'
p81
g44
sS'link'
p82
S'http://www.thehindu.com/todays-paper/tp-national/tp-tamilnadu/maudhany-to-be-produced-on-november-12/article2581715.ece'
p83
sS'date'
p84
S'30-10-2011'
p85
sS'target'
p86
g44
sS'hot_spot'
p87
S'Telephone Booth'
p88
sS'delivery_mod'
p89
g44
sS'delivery_met'
p90
S'Planted'
p91
sS'expl'
p92
(lp93
g44
asS'ORG'
p94
(lp95
(lp96
S'Special Investigation Team'
p97
aS'14'
p98
aS'Others'
p99
aa(lp100
S'State Crime Branch CID'
p101
aS'19'
p102
aS'Others'
p103
aa(lp104
S"Kerala-based People 's Democratic Party"
p105
aS'25'
p106
aS'Others'
p107
aa(lp108
S'PDP'
p109
aS'31'
p110
aS'Others'
p111
aa(lp112
S'Coimbatore Press Club'
p113
aS'56'
p114
aS'Others'
p115
aa(lp116
S'Special Investigation Team'
p117
aS'67'
p118
aS'Others'
p119
aa(lp120
S'Coimbatore Court'
p121
aS'77'
p122
aS'Others'
p123
aas.