(dp0
S'LOC'
p1
(lp2
(lp3
S'Belaguntha'
p4
aS'1'
p5
aS'Neutral'
p6
aa(lp7
S'Ganjam'
p8
aS'4'
p9
aS'Neutral'
p10
aa(lp11
S'Belaguntha'
p12
aS'42'
p13
aS'Neutral'
p14
aasS'PER'
p15
(lp16
(lp17
S'Krushna Chandra Sahu'
p18
aS'7'
p19
aS'Accused'
p20
aasS'TIM'
p21
(lp22
sS'hot_setting'
p23
S''
p24
sS'DAT'
p25
(lp26
S'March 17:15'
p27
asS'death'
p28
g24
sS'title'
p29
S'Police arrest accused'
p30
sS'org_unorg'
p31
S'Organized'
p32
sS'terror_group'
p33
(lp34
g24
asS'content'
p35
S'Belaguntha police in Ganjam district arrested Krushna Chandra Sahu , the main accused in March 17 bomb blast case . On that day a group of miscreants hurled crude bombs at crowded market place and ransacked a licensed liquor shop at Belaguntha . OPEN'
p36
sS'injured'
p37
g24
sS'det_loc'
p38
(lp39
S'India'
p40
aS'Orissa'
p41
aS'Ganjam'
p42
aS'Berhampur'
p43
ag24
asS'O'
p44
(lp45
S'market place:33'
p46
aS'liquor shop:39'
p47
aS'Belaguntha police:1'
p48
aS'main accused:12'
p49
aS'group of miscreants:25'
p50
aS'crowded market place:32'
p51
aS'licensed liquor shop:38'
p52
aS'March 17 bomb blast case:15'
p53
asS'unexpl'
p54
(lp55
g24
asS'ocassion'
p56
g24
sS'link'
p57
S'http://www.thehindu.com/todays-paper/tp-national/tp-otherstates/police-arrest-accused/article2041539.ece'
p58
sS'date'
p59
S'23-05-2011'
p60
sS'target'
p61
S'Market Place'
p62
sS'hot_spot'
p63
S'crowded market place and licensed liquor shop'
p64
sS'delivery_mod'
p65
S'Human'
p66
sS'delivery_met'
p67
S'Thrown'
p68
sS'expl'
p69
(lp70
S'Crude bomb'
p71
asS'ORG'
p72
(lp73
s.