(dp0
S'LOC'
p1
(lp2
(lp3
S'Shita Ghat'
p4
aS'19'
p5
aS'Event'
p6
aa(lp7
S'Varanasi'
p8
aS'22'
p9
aS'Event'
p10
aa(lp11
S'Gujarat'
p12
aS'155'
p13
aS'Neutral'
p14
aa(lp15
S'Mumbai'
p16
aS'177'
p17
aS'Neutral'
p18
aa(lp19
S'India'
p20
aS'323'
p21
aS'Neutral'
p22
aa(lp23
S'India'
p24
aS'388'
p25
aS'Neutral'
p26
aa(lp27
S'Lucknow'
p28
aS'412'
p29
aS'Assoc Event Location'
p30
aa(lp31
S'Varanasi'
p32
aS'414'
p33
aS'Assoc Event Location'
p34
aa(lp35
S'Faizabad'
p36
aS'416'
p37
aS'Assoc Event Location'
p38
aa(lp39
S'Mumbai'
p40
aS'477'
p41
aS'Assoc Event Location'
p42
aa(lp43
S'India'
p44
aS'532'
p45
aS'Neutral'
p46
aa(lp47
S'Delhi'
p48
aS'560'
p49
aS'Assoc Event Location'
p50
aa(lp51
S'Varanasi'
p52
aS'626'
p53
aS'Assoc Event Location'
p54
aa(lp55
S'Ratlam'
p56
aS'668'
p57
aS'Neutral'
p58
aa(lp59
S'Madhya Pradesh'
p60
aS'670'
p61
aS'Neutral'
p62
aa(lp63
S'Ayodhya'
p64
aS'688'
p65
aS'Neutral'
p66
aa(lp67
S'Pakistan'
p68
aS'711'
p69
aS'Neutral'
p70
aasS'PER'
p71
(lp72
(lp73
S'Narendra Modi'
p74
aS'143'
p75
aS'Others'
p76
aa(lp77
S'Mahmud Ghazni'
p78
aS'279'
p79
aS'Others'
p80
aa(lp81
S'Muhammad Ghori'
p82
aS'282'
p83
aS'Others'
p84
aa(lp85
S'Qutb-ud-Din Aibak'
p86
aS'285'
p87
aS'Others'
p88
aa(lp89
S'Firuz Shah Tughlaq'
p90
aS'288'
p91
aS'Others'
p92
aa(lp93
S'Aurangzeb'
p94
aS'292'
p95
aS'Others'
p96
aa(lp97
S'Abul Bashir'
p98
aS'590'
p99
aS'Assoc Accused'
p100
aa(lp101
S'Abdul Bashir Islahi'
p102
aS'601'
p103
aS'Assoc Accused'
p104
aa(lp105
S'Abdul Subhan Qureshi'
p106
aS'697'
p107
aS'Assoc Accused'
p108
aasS'TIM'
p109
(lp110
sS'hot_setting'
p111
S''
p112
sS'DAT'
p113
(lp114
S'December 7 , 2010 : 24'
p115
aS'Wednesday:96'
p116
aS'2002:150'
p117
aS"'92 : 176"
p118
aS'2005:390'
p119
aS'November 23 , 2007 : 398'
p120
aS'1992:473'
p121
aS'September 2008:555'
p122
aS'2007:623'
p123
aS'Wednesday:639'
p124
aS'May:724'
p125
asS'death'
p126
g112
sS'title'
p127
S'Indian Mujahideen manifestos attacked judiciary'
p128
sS'org_unorg'
p129
S'Organized'
p130
sS'terror_group'
p131
(lp132
S'Indian Mujahideen'
p133
asS'content'
p134
S"In the minutes after a bomb concealed inside a milk tin went off during sunset prayers at the Shita Ghat in Varanasi on December 7 , 2010 , an e-mail emblazoned with a yellow , blue and red Qur ` an-and-Kalashnikov logo arrived at newsrooms nationwide . Let 's feel the pain together , it began . The bomb killed a two-year-old child ; her mother was among 38 people injured . National Investigation Agency detectives believe that e-mail could provide insights into the motives of the terrorists who bombed the Delhi High Court on Wednesday likely members , investigators suspect , of the Lashkar-e-Taiba-linked Indian Mujahideen . The Supreme Court , the high courts , the lower courts and all the Commission -LSB- s -RSB- , it read , have utterly failed to play an impartial role regarding Muslim issues . Narendra Modi , who presided over the 2002 massacres of Muslims in Gujarat is given a clean chit , whereas the victims still run from pillar to post for justice . Even the '92 Mumbai culprits roam freely and enjoy government security . All the anti-Muslim pre-planned riots , arson , rapes , loss of lives and property are still awaiting justice . It pointed , in particular , to the Allahabad High Court 's decision , last year , to partition the land on which the Babri Masjid stood between rival Hindu and Muslim claimants a decision it said had for all practical purposes turned the site of a mosque into a Hindu temple . The e-mail said the attack was being carried out to remind Hindus that the Indian Mujahideen , the sons of Mahmud Ghazni , Muhammad Ghori , Qutb-ud-Din Aibak , Firuz Shah Tughlaq and Aurangzeb -LSB- may Allah bestow His mercy upon them -RSB- have resolved that none of your mandirs -LSB- temples -RSB- will remain safe until and unless all our occupied Masjids throughout India are returned back to the Muslims . O Muslims ! , it went on , for the sake of Allah STOP -LSB- sic . -RSB- trusting the taghut -LSB- hypocritical -RSB- judiciary and the taghut Parliament and mend -LSB- your -RSB- ways to please Allah alone . Jihadis on the judiciary The Indian Mujahideen , responsible for a string of urban terrorist attacks across India since 2005 , sent out its first manifesto on November 23 , 2007 . The e-mail claimed responsibility for bombing court complexes in Lucknow , Varanasi and Faizabad . Thirteen people were killed in the attacks , which the Indian Mujahideen said was carried out to punish local lawyers who had attacked suspects held for an abortive Jaish-e-Muhammad kidnap plot . In the manifesto , the Indian Mujahideen said police officers indicted by the Justice B.N. Srikrishna Commission for their role in the large-scale 1992 anti-Muslim violence in Mumbai were given promotions and felicitated by the Indian government for their graveyard -LSB- sic . -RSB- sin . But the bombers who then killed -LSB- revenge -RSB- only 257 people are awarded with capital and life imprisonment punishment . Such type of partiality shows that if you want to be a successful person in India then you should be idol worshipper and kill Muslims . Eye for an eye , an Indian Mujahideen manifesto released after the September 2008 serial bombings in Delhi , also railed against a miserably communalised judiciary which orders an FIR to be registered on those who raise their voice against the arrest of the innocent blast accused Abul Bashir against whom there is no evidence at all . Abdul Bashir Islahi , a cleric linked to the Indian Mujahideen , has since been convicted for his alleged role in the 2007 bombing at Varanasi . Little hard evidence has emerged to link the Indian Mujahideen with Wednesday 's blast , or a string of recent attacks . However , intelligence sources told The Hindu that four alleged Indian Mujahideen operatives arrested earlier this year from Ratlam in Madhya Pradesh had been asked to explore the possibility of targeting the Allahabad High Court to protest the Ayodhya judgment . Investigators are exploring the possibility that Abdul Subhan Qureshi , a fugitive Indian Mujahideen commander thought to be based in Pakistan , organised the abortive bomb attack at the Delhi High Court in May , after the Ratlam cell failed to register progress in its mission . OPEN"
p135
sS'injured'
p136
S'38'
p137
sS'det_loc'
p138
(lp139
S'India'
p140
aS'Uttar Pradesh'
p141
aS'Varanasi'
p142
ag112
aS'Shita Ghat in Varanasi'
p143
asS'O'
p144
(lp145
S'bomb:6'
p146
aS'milk tin:10'
p147
aS'e-mail:30'
p148
aS'qur ` an-and-kalashnikov logo:39'
p149
aS'bomb:59'
p150
aS'killed:60'
p151
aS'child:63'
p152
aS'mother:66'
p153
aS'injured:71'
p154
aS'e-mail:79'
p155
aS'terrorists:88'
p156
aS'bombed:90'
p157
aS'lashkar-e-taiba-linked:105'
p158
aS'high courts:114'
p159
aS'lower courts:118'
p160
aS'muslim issues:140'
p161
aS'massacres:151'
p162
aS'muslims:153'
p163
aS'mumbai culprits:177'
p164
aS'babri masjid:230'
p165
aS'hindu and muslim:235'
p166
aS'mosque:253'
p167
aS'hindu temple:256'
p168
aS'e-mail:260'
p169
aS'attack:263'
p170
aS'hindus:270'
p171
aS'mandirs:308'
p172
aS'masjids:321'
p173
aS'muslims:329'
p174
aS'terrorist attacks:385'
p175
aS'e-mail:404'
p176
aS'responsibility:406'
p177
aS'bombing:408'
p178
aS'justice b.n. srikrishna commission:463'
p179
aS'anti-muslim violence:474'
p180
aS'bombers:498'
p181
aS'life imprisonment:513'
p182
aS'muslims:541'
p183
aS'eye for an eye:543'
p184
aS'serial bombings:557'
p185
aS'fir:572'
p186
aS'arrest:584'
p187
aS'blast:588'
p188
aS'bombing:624'
p189
aS'blast:641'
p190
aS'attacks:648'
p191
aS'operatives:662'
p192
aS'protest:686'
p193
aS'ayodhya judgment:688'
p194
aS'indian mujahideen commander:703'
p195
aS'bomb attack:716'
p196
aS'ratlam cell:728'
p197
asS'unexpl'
p198
(lp199
g112
asS'ocassion'
p200
g112
sS'link'
p201
S'http://www.thehindu.com/todays-paper/tp-national/indian-mujahideen-manifestos-attacked-judiciary/article2437753.ece'
p202
sS'date'
p203
S'09-09-2011'
p204
sS'target'
p205
S'Religious Places'
p206
sS'hot_spot'
p207
S'Shita Ghat in Varanasi'
p208
sS'delivery_mod'
p209
g112
sS'delivery_met'
p210
S'Planted'
p211
sS'expl'
p212
(lp213
g112
asS'ORG'
p214
(lp215
(lp216
S'National Investigation Agency'
p217
aS'73'
p218
aS'Others'
p219
aa(lp220
S'Delhi High Court'
p221
aS'92'
p222
aS'Victim'
p223
aa(lp224
S'Indian Mujahideen'
p225
aS'106'
p226
aS'Accused'
p227
aa(lp228
S'Supreme Court'
p229
aS'110'
p230
aS'Others'
p231
aa(lp232
S'Allahabad High Court'
p233
aS'214'
p234
aS'Others'
p235
aa(lp236
S'Indian Mujahideen'
p237
aS'273'
p238
aS'Accused'
p239
aa(lp240
S'Indian Mujahideen'
p241
aS'376'
p242
aS'Accused'
p243
aa(lp244
S'Indian Mujahideen'
p245
aS'428'
p246
aS'Accused'
p247
aa(lp248
S'Jaish-e-Muhammad'
p249
aS'446'
p250
aS'Assoc Accused'
p251
aa(lp252
S'Indian Mujahideen'
p253
aS'455'
p254
aS'Accused'
p255
aa(lp256
S'Indian Mujahideen'
p257
aS'549'
p258
aS'Accused'
p259
aa(lp260
S'Indian Mujahideen'
p261
aS'610'
p262
aS'Accused'
p263
aa(lp264
S'Indian Mujahideen'
p265
aS'636'
p266
aS'Accused'
p267
aa(lp268
S'The Hindu'
p269
aS'655'
p270
aS'Others'
p271
aa(lp272
S'Indian Mujahideen'
p273
aS'660'
p274
aS'Accused'
p275
aa(lp276
S'Allahabad High Court'
p277
aS'682'
p278
aS'Others'
p279
aa(lp280
S'Indian Mujahideen'
p281
aS'703'
p282
aS'Accused'
p283
aa(lp284
S'Delhi High Court'
p285
aS'720'
p286
aS'Victim'
p287
aas.