(dp0
S'LOC'
p1
(lp2
(lp3
S'Mumbai'
p4
aS'2'
p5
aS'Event'
p6
aa(lp7
S'Gujarat'
p8
aS'10'
p9
aS'Neutral'
p10
aa(lp11
S'Ahmedabad'
p12
aS'52'
p13
aS'Assoc Event Location'
p14
aa(lp15
S'Ahmedabad'
p16
aS'65'
p17
aS'Assoc Event Location'
p18
aa(lp19
S'Vadodara railway station'
p20
aS'73'
p21
aS'Neutral'
p22
aa(lp23
S'Bariatu'
p24
aS'82'
p25
aS'Accused Location'
p26
aa(lp27
S'Ranchi'
p28
aS'84'
p29
aS'Accused Location'
p30
aa(lp31
S'Jharkhand'
p32
aS'86'
p33
aS'Accused Location'
p34
aa(lp35
S'Ahmedabad'
p36
aS'139'
p37
aS'Assoc Event Location'
p38
aa(lp39
S'Mumbai'
p40
aS'146'
p41
aS'Event'
p42
aa(lp43
S'Khadia'
p44
aS'184'
p45
aS'Assoc Event Location'
p46
aa(lp47
S'Ahmedabad'
p48
aS'214'
p49
aS'Assoc Event Location'
p50
aa(lp51
S'Mumbai'
p52
aS'275'
p53
aS'Event'
p54
aa(lp55
S'Ahmedabad'
p56
aS'309'
p57
aS'Assoc Event Location'
p58
aa(lp59
S'Mumbai'
p60
aS'326'
p61
aS'Event'
p62
aa(lp63
S'Zaveri Bazaar'
p64
aS'354'
p65
aS'Event'
p66
aa(lp67
S'Ahmedabad'
p68
aS'360'
p69
aS'Neutral'
p70
aa(lp71
S'Ahmedabad'
p72
aS'379'
p73
aS'Neutral'
p74
aa(lp75
S'Mumbai'
p76
aS'385'
p77
aS'Neutral'
p78
aa(lp79
S'Gujarat'
p80
aS'391'
p81
aS'Neutral'
p82
aa(lp83
S'Gujarat'
p84
aS'410'
p85
aS'Neutral'
p86
aa(lp87
S'Vallabh Vidyanagar'
p88
aS'446'
p89
aS'Neutral'
p90
aa(lp91
S'Anand'
p92
aS'449'
p93
aS'Neutral'
p94
aasS'PER'
p95
(lp96
(lp97
S'Danish Riaz'
p98
aS'27'
p99
aS'Accused'
p100
aa(lp101
S'Danish Riaz'
p102
aS'54'
p103
aS'Accused'
p104
aa(lp105
S'Safi'
p106
aS'57'
p107
aS'Accused'
p108
aa(lp109
S'Riaz'
p110
aS'88'
p111
aS'Accused'
p112
aa(lp113
S'Riaz'
p114
aS'120'
p115
aS'Accused'
p116
aa(lp117
S'Abdul Subhan'
p118
aS'127'
p119
aS'Accused'
p120
aa(lp121
S'Tauqir'
p122
aS'130'
p123
aS'Accused'
p124
aa(lp125
S'Mujib Sheikh'
p126
aS'158'
p127
aS'Accused'
p128
aa(lp129
S'Mohammad Ismail'
p130
aS'161'
p131
aS'Accused'
p132
aa(lp133
S'Abdul Rajjak'
p134
aS'164'
p135
aS'Accused'
p136
aa(lp137
S'Riaz'
p138
aS'173'
p139
aS'Accused'
p140
aa(lp141
S'Riaz'
p142
aS'220'
p143
aS'Accused'
p144
aa(lp145
S'Tauqir'
p146
aS'230'
p147
aS'Accused'
p148
aa(lp149
S'Mujib Sheikh'
p150
aS'284'
p151
aS'Accused'
p152
aa(lp153
S'Abu Faisal'
p154
aS'287'
p155
aS'Accused'
p156
aa(lp157
S'Modi'
p158
aS'405'
p159
aS'Others'
p160
aa(lp161
S'Narendra Modi'
p162
aS'413'
p163
aS'Others'
p164
aa(lp165
S'Modi'
p166
aS'453'
p167
aS'Others'
p168
aa(lp169
S'Sardar Patel'
p170
aS'457'
p171
aS'Others'
p172
aasS'TIM'
p173
(lp174
sS'hot_setting'
p175
S''
p176
sS'DAT'
p177
(lp178
S'2008:64'
p179
aS'Saturday:190'
p180
asS'death'
p181
g176
sS'title'
p182
S'Mumbai ATS in Ahmedabad'
p183
sS'org_unorg'
p184
S'Organized'
p185
sS'terror_group'
p186
(lp187
g176
asS'content'
p188
S'The Mumbai bomb blasts may have some links with Gujarat . The officials of the Mumbai Anti-Terrorist Squad ( ATS ) have landed here to question Danish Riaz , an Indian Mujahideen ( IM ) operative , who was arrested last month in connection with the earlier serial bomb blasts in Ahmedabad . Danish Riaz alias Safi , a key accused in the 2008 Ahmedabad serial blast case , was arrested from Vadodara railway station last month . A resident of Bariatu in Ranchi , Jharkhand , Riaz was working with a software company and is believed to be an active member of Students Islamic Movement of India ( SIMI ) and IM . Alleged confession Police sources alleged Riaz confessed that he provided shelter to Abdul Subhan alias Tauqir , who was also a suspect in the Ahmedabad serial bomb blasts and the recent Mumbai blasts , as well as some other IM operatives , including Mujib Sheikh and Mohammad Ismail alias Abdul Rajjak , apart from financially helping them . Riaz , who was on police remand in connection with the Khadia bomb blast and was on Saturday re-arrested in connection with the civil hospital blast case , was believed to be involved in planning and executing the serial blasts in Ahmedabad . The police sources said Riaz was in touch with the terror masterminds such as Tauqir and maintained links with his peers through the Internet chat . He used to avoid mobile phones to keep his locations secret , the sources said . The Gujarat ATS is also believed to have some important information , which it shared with its Mumbai counterpart , on two other IM operatives , Mujib Sheikh and Abu Faisal , who were arrested by the Madhya Pradesh ATS recently and were believed to have played key roles in the Ahmedabad serial bomb blasts . The police believe the duo also played a key role in the Mumbai blasts . The Mumbai ATS officials are also believed to have enquired with the Ahmedabad Regional Transport Office the registration details of the scooter found at the Zaveri Bazaar blast site having an Ahmedabad registration number . Though the police said nothing suspicious was found about the scooter , owned by an Ahmedabad resident who recently moved to Mumbai but was still holding the Gujarat number plate , the Mumbai police was not leaving anything to chance . Modi ups ante Meanwhile , Gujarat Chief Minister Narendra Modi again upped his ante against the Congress-led United Progressive Alliance government strongly criticising it for its soft attitude to terrorism . Speaking at a function at the Sardar Patel University in Vallabh Vidyanagar in Anand district , Mr. Modi said : Had Sardar Patel still been alive , scores of innocent people would not have lost their lives and the terrorists who are enjoying themselves in jail , would have been hanged by now . OPEN'
p189
sS'injured'
p190
g176
sS'det_loc'
p191
(lp192
S'India'
p193
aS'Gujarat'
p194
aS'Ahmedabad'
p195
aS'Ahmedabad'
p196
ag176
asS'O'
p197
(lp198
S'bomb:3'
p199
aS'question:26'
p200
aS'operative:36'
p201
aS'serial bomb blasts:48'
p202
aS'ahmedabad serial blast case:65'
p203
aS'software company:93'
p204
aS'member:102'
p205
aS'shelter:125'
p206
aS'suspect:136'
p207
aS'Ahmedabad serial bomb blasts:139'
p208
aS'Mumbai blasts:146'
p209
aS'remand:179'
p210
aS'khadia bomb blast:184'
p211
aS'bomb blast:185'
p212
aS'civil hospital blast case:196'
p213
aS'serial blasts:211'
p214
aS'terror masterminds:226'
p215
aS'internet chat:239'
p216
aS'secret:252'
p217
aS'Ahmedabad serial bomb blasts:309'
p218
aS'Mumbai blasts:326'
p219
aS'registration:346'
p220
aS'scooter:350'
p221
aS'blast site:356'
p222
aS'registration number:361'
p223
aS'nothing:368'
p224
aS'scooter:374'
p225
aS'number plate:392'
p226
aS'Gujarat Chief Minister:410'
p227
aS'ante:418'
p228
aS'terrorism:434'
p229
asS'unexpl'
p230
(lp231
g176
asS'ocassion'
p232
g176
sS'link'
p233
S'http://www.thehindu.com/todays-paper/tp-national/mumbai-ats-in-ahmedabad/article2234777.ece'
p234
sS'date'
p235
S'17-07-2011'
p236
sS'target'
p237
g176
sS'hot_spot'
p238
g176
sS'delivery_mod'
p239
g176
sS'delivery_met'
p240
g176
sS'expl'
p241
(lp242
g176
asS'ORG'
p243
(lp244
(lp245
S'Mumbai Anti-Terrorist Squad'
p246
aS'16'
p247
aS'Others'
p248
aa(lp249
S'ATS'
p250
aS'20'
p251
aS'Others'
p252
aa(lp253
S'Indian Mujahideen'
p254
aS'31'
p255
aS'Accused'
p256
aa(lp257
S'IM'
p258
aS'34'
p259
aS'Accused'
p260
aa(lp261
S'Students Islamic Movement of India'
p262
aS'104'
p263
aS'Accused'
p264
aa(lp265
S'SIMI'
p266
aS'110'
p267
aS'Accused'
p268
aa(lp269
S'IM'
p270
aS'113'
p271
aS'Accused'
p272
aa(lp273
S'IM'
p274
aS'154'
p275
aS'Accused'
p276
aa(lp277
S'Gujarat ATS'
p278
aS'259'
p279
aS'Others'
p280
aa(lp281
S'IM'
p282
aS'281'
p283
aS'Accused'
p284
aa(lp285
S'Madhya Pradesh ATS'
p286
aS'295'
p287
aS'Others'
p288
aa(lp289
S'Mumbai ATS'
p290
aS'330'
p291
aS'Others'
p292
aa(lp293
S'Ahmedabad Regional Transport Office'
p294
aS'341'
p295
aS'Others'
p296
aa(lp297
S'Mumbai police'
p298
aS'396'
p299
aS'Others'
p300
aa(lp301
S'Congress-led United Progressive Alliance'
p302
aS'421'
p303
aS'Others'
p304
aa(lp305
S'Sardar Patel University'
p306
aS'442'
p307
aS'Others'
p308
aas.