(dp0
S'LOC'
p1
(lp2
(lp3
S'Palar'
p4
aS'36'
p5
aS'Event'
p6
aa(lp7
S'Ramapura'
p8
aS'108'
p9
aS'Neutral'
p10
aasS'PER'
p11
(lp12
(lp13
S'Muthulakshmi'
p14
aS'9'
p15
aS'Accused'
p16
aa(lp17
S'Veerappan'
p18
aS'16'
p19
aS'Accused'
p20
aa(lp21
S'Kolathur Mani'
p22
aS'20'
p23
aS'Accused'
p24
aa(lp25
S'S. Sivasubramaniam'
p26
aS'25'
p27
aS'Accused'
p28
aa(lp29
S'Veerappan'
p30
aS'30'
p31
aS'Accused'
p32
aa(lp33
S'Veerappan'
p34
aS'64'
p35
aS'Accused'
p36
aa(lp37
S'Muthulakshmi'
p38
aS'66'
p39
aS'Accused'
p40
aa(lp41
S'Mani'
p42
aS'68'
p43
aS'Accused'
p44
aa(lp45
S'Sivasubramaniam'
p46
aS'70'
p47
aS'Accused'
p48
aa(lp49
S'Savariayappan'
p50
aS'72'
p51
aS'Accused'
p52
aa(lp53
S'Papathi'
p54
aS'74'
p55
aS'Accused'
p56
aa(lp57
S'Bonda Basava'
p58
aS'76'
p59
aS'Accused'
p60
aa(lp61
S'Eranna'
p62
aS'79'
p63
aS'Accused'
p64
aa(lp65
S'Muthulakshmi'
p66
aS'96'
p67
aS'Accused'
p68
aa(lp69
S'Srinivas'
p70
aS'103'
p71
aS'Victim'
p72
aa(lp73
S'Siman'
p74
aS'163'
p75
aS'Accused'
p76
aa(lp77
S'Gynanendra'
p78
aS'165'
p79
aS'Accused'
p80
aa(lp81
S'Bilavendra'
p82
aS'167'
p83
aS'Accused'
p84
aa(lp85
S'Meesekar Madaiah'
p86
aS'169'
p87
aS'Accused'
p88
aasS'TIM'
p89
(lp90
sS'hot_setting'
p91
S''
p92
sS'DAT'
p93
(lp94
S'Wednesday:7'
p95
aS'1993:35'
p96
asS'death'
p97
S'22'
p98
sS'title'
p99
S'Muthulakshmi acquitted in Palar bomb blast case'
p100
sS'det_loc'
p101
(lp102
S'India'
p103
aS'Karnataka'
p104
aS'Chamrajnagar'
p105
aS'CHAMARAJANAGAR'
p106
ag92
asS'terror_group'
p107
(lp108
S'Miscreants,Dacoits & Smuggler Gang'
p109
asS'content'
p110
S"The District and Sessions Court on Wednesday acquitted Muthulakshmi , wife of slain forest brigand Veerappan , social worker Kolathur Mani , Nakkeeran reporter S. Sivasubramaniam and four of Veerappan 's associates in the 1993 Palar bomb blast case owing to lack of evidence . The Special Task Force had booked cases under the Terrorist and Disruptive Activities ( Prevention ) Act against Veerappan , Muthulakshmi , Mani , Sivasubramaniam , Savariayappan , Papathi , Bonda Basava and Eranna . Twenty-two police personnel and two forest watchers were killed in the bomb blast . Although Muthulakshmi has been acquitted in the DCF Srinivas murder case , the Ramapura police station attack case , the Ramapura-Meenyam attack case and the Palar bomb blast case , she will continue to be in jail till all the cases against her are disposed of , STF sources said . In the Palar bomb blast case , the Supreme Court awarded death sentence to the prime accused Siman , Gynanendra , Bilavendra and Meesekar Madaiah . Their clemency petition is pending with the President . OPEN"
p111
sS'injured'
p112
S'13'
p113
sS'org_unorg'
p114
S'Organized'
p115
sS'O'
p116
(lp117
S'forest brigand veerappan:14'
p118
aS'palar bomb blast case:36'
p119
aS'special task force:47'
p120
aS'terrorist and disruptive activities ( prevention ) act:55'
p121
aS'dcf srinivas murder case:102'
p122
aS'ramapura police station attack case:108'
p123
aS'ramapura-meenyam attack case:115'
p124
aS'Palar bomb blast case:120'
p125
aS'stf:142'
p126
asS'unexpl'
p127
(lp128
g92
asS'ocassion'
p129
g92
sS'link'
p130
S'http://www.thehindu.com/todays-paper/tp-national/tp-karnataka/muthulakshmi-acquitted-in-palar-bomb-blast-case/article1545395.ece'
p131
sS'date'
p132
S'17-03-2011'
p133
sS'target'
p134
S'Police and Defence Forces'
p135
sS'hot_spot'
p136
S'Police Vehicle'
p137
sS'delivery_mod'
p138
S'Human'
p139
sS'delivery_met'
p140
S'Planted'
p141
sS'expl'
p142
(lp143
S'LandMine'
p144
asS'ORG'
p145
(lp146
(lp147
S'District and Sessions Court'
p148
aS'2'
p149
aS'Others'
p150
aa(lp151
S'Nakkeeran'
p152
aS'23'
p153
aS'Others'
p154
aa(lp155
S'Special Task Force'
p156
aS'47'
p157
aS'Victim'
p158
aa(lp159
S'STF'
p160
aS'142'
p161
aS'Victim'
p162
aa(lp163
S'Supreme Court'
p164
aS'154'
p165
aS'Others'
p166
aas.