(dp0
S'LOC'
p1
(lp2
(lp3
S'Delhi'
p4
aS'5'
p5
aS'Neutral'
p6
aa(lp7
S'Jama Masjid'
p8
aS'28'
p9
aS'Assoc Event Location'
p10
aa(lp11
S'Jama Masjid'
p12
aS'42'
p13
aS'Assoc Event Location'
p14
aasS'PER'
p15
(lp16
sS'TIM'
p17
(lp18
sS'hot_setting'
p19
S''
p20
sS'DAT'
p21
(lp22
S'September 19:49'
p23
asS'death'
p24
g20
sS'title'
p25
S'25-lakh reward announced'
p26
sS'org_unorg'
p27
S'Organized'
p28
sS'terror_group'
p29
(lp30
g20
asS'content'
p31
S"The Police Commissioner of Delhi has announced a reward of Rs .25 lakh for any information leading to the arrest of the culprits of last year 's Jama Masjid bomb blast case here . A Maruti car had caught fire near Jama Masjid following a mild blast on September 19 . A few hours earlier , two young men on a motorcycle had opened fire at a group of foreigners . Also , the reward money for any information on the attack on the foreigners has been increased from Rs .10 lakh to Rs .30 lakh . OPEN"
p32
sS'injured'
p33
g20
sS'det_loc'
p34
(lp35
S'India'
p36
aS'Delhi'
p37
aS'New Delhi'
p38
ag20
ag20
asS'O'
p39
(lp40
S'police commissioner:2'
p41
aS'reward:9'
p42
aS'information:16'
p43
aS'arrest:20'
p44
aS'culprits:23'
p45
aS'jama masjid bomb blast case:28'
p46
aS'maruti car:36'
p47
aS'fire:40'
p48
aS'blast:47'
p49
aS'motorcycle:62'
p50
aS'opened fire:64'
p51
aS'foreigners:70'
p52
aS'reward money:75'
p53
aS'information:79'
p54
aS'attack:82'
p55
aS'foreigners:85'
p56
asS'unexpl'
p57
(lp58
g20
asS'ocassion'
p59
g20
sS'link'
p60
S'http://www.thehindu.com/todays-paper/tp-national/tp-newdelhi/25lakh-reward-announced/article1470918.ece'
p61
sS'date'
p62
S'19-02-2011'
p63
sS'target'
p64
S'Religious Places'
p65
sS'hot_spot'
p66
S'Jama Masjid'
p67
sS'delivery_mod'
p68
g20
sS'delivery_met'
p69
g20
sS'expl'
p70
(lp71
g20
asS'ORG'
p72
(lp73
s.