(dp0
S'LOC'
p1
(lp2
(lp3
S'Nadapuram'
p4
aS'20'
p5
aS'Neutral'
p6
aa(lp7
S'Kadimeri'
p8
aS'50'
p9
aS'Neutral'
p10
aa(lp11
S'Thanakottoor'
p12
aS'99'
p13
aS'Neutral'
p14
aa(lp15
S'Chekkiyad'
p16
aS'101'
p17
aS'Neutral'
p18
aa(lp19
S'Kadimeri'
p20
aS'199'
p21
aS'Neutral'
p22
aa(lp23
S'Ayancherry'
p24
aS'280'
p25
aS'Neutral'
p26
aa(lp27
S'Karimbinpalakandi'
p28
aS'348'
p29
aS'Neutral'
p30
aa(lp31
S'Kayakkodi'
p32
aS'350'
p33
aS'Neutral'
p34
aa(lp35
S'Ayancherry panchayat'
p36
aS'432'
p37
aS'Neutral'
p38
aasS'PER'
p39
(lp40
(lp41
S'Kuttiyil Aziz'
p42
aS'47'
p43
aS'Others'
p44
aa(lp45
S'Mulleri Nazeer'
p46
aS'113'
p47
aS'Victim'
p48
aa(lp49
S'Kulungara Shamsu'
p50
aS'124'
p51
aS'Victim'
p52
aa(lp53
S'Mavilakunnumal Akilesh'
p54
aS'134'
p55
aS'Victim'
p56
aa(lp57
S'Illathu Balan'
p58
aS'224'
p59
aS'Others'
p60
aa(lp61
S'Pulikkal Rajan'
p62
aS'227'
p63
aS'Others'
p64
aasS'TIM'
p65
(lp66
S'4 a.m.:145'
p67
asS'hot_setting'
p68
S''
p69
sS'DAT'
p70
(lp71
S'Saturday:37'
p72
aS'Tuesday:201'
p73
aS'Friday night:235'
p74
aS'Friday:354'
p75
asS'death'
p76
g69
sS'title'
p77
S'Rural areas witness blasts, clashes'
p78
sS'org_unorg'
p79
S'Organized'
p80
sS'terror_group'
p81
(lp82
g69
asS'content'
p83
S'After a lull , political violence has surfaced again in the rural areas , particularly in the politically sensitive Nadapuram police station limits , of the district . At least two incidents were reported early on Saturday . A bomb was thrown at the house of Kuttiyil Aziz at Kadimeri . There was no casualty . However , the blast damaged a portion of the house . The bomb disposal squad also recovered an unexploded bomb from the terrace of the building , the police said . Vehicles torched In another incident , several vehicles were torched at Thanakottoor near Chekkiyad . Two motorcycles parked in the porch of the house of Mulleri Nazeer were set ablaze . A motorbike of his friend Kulungara Shamsu was also torched . An autorickshaw owned by Mavilakunnumal Akilesh was destroyed . These incidents occurred between 3 and 4 a.m. Local people and the police doused the flames . Senior police officers said a team of police personnel had been deployed in these areas . Isolated clashes between the Communist Party of India ( Marxist ) ( CPI-M ) and the Indian Union Muslim League ( IUML ) had been reported at Kadimeri from Tuesday . However , the violence soon spread to nearby regions such as Ayancherry . Injured Two CPI ( M ) activists , Illathu Balan and Pulikkal Rajan , were injured in clashes on Friday night . They have been admitted to the Vadakara Cooperative Hospital . Soon afterwards there was an attack on a provision store . The house of an IUML activist was pelted with stones . The CPI ( M ) observed a dawn-to-dusk hartal at Ayancherry grama panchayat in protest against the attack on its workers . Party leaders said that IUML had masterminded the attack . A few persons had been taken into custody in connection with the incident , the police said . In another incident , six persons were injured in clashes between the workers of the CPI ( M ) and the Bharatiya Janata Party ( BJP ) at Karimbinpalakandi in Kayakkodi grama panchayat on Friday . The injured have been admitted to the Perambra government hospital . Bombs were hurled at an automobile workshop owned by a BJP activist . An autorickshaw was partially damaged in the explosion . The windscreen of a stationary private bus was shattered . The police have recovered an unexploded pipe bomb from the site . A posse of personnel were camping in the area , the police said . CPI ( M ) observes hartal in Ayancherry panchayat Police personnel deployed in violence-hit areas OPEN'
p84
sS'injured'
p85
g69
sS'det_loc'
p86
(lp87
g69
ag69
ag69
ag69
ag69
asS'O'
p88
(lp89
S'lull:3'
p90
aS'violence:6'
p91
aS'station:22'
p92
aS'district:27'
p93
aS'bomb:40'
p94
aS'house:45'
p95
aS'casualty:55'
p96
aS'blast:60'
p97
aS'portion:63'
p98
aS'house:66'
p99
aS'bomb disposal squad:69'
p100
aS'bomb:76'
p101
aS'terrace:79'
p102
aS'building:82'
p103
aS'incident:92'
p104
aS'porch:108'
p105
aS'house:111'
p106
aS'set:116'
p107
aS'motorbike:120'
p108
aS'autorickshaw:131'
p109
aS'team:161'
p110
aS'cpi-m:184'
p111
aS'indian union:188'
p112
aS'league:191'
p113
aS'violence:206'
p114
aS'spread:208'
p115
aS'ayancherry:214'
p116
aS'cpi:218'
p117
aS'm:220'
p118
aS'night:236'
p119
aS'attack:253'
p120
aS'provision store:256'
p121
aS'house:260'
p122
aS'cpi:271'
p123
aS'm:273'
p124
aS'grama panchayat:281'
p125
aS'protest:284'
p126
aS'attack:287'
p127
aS'party:292'
p128
aS'party leaders:292'
p129
aS'attack:300'
p130
aS'custody:309'
p131
aS'connection:311'
p132
aS'incident:314'
p133
aS'incident:322'
p134
aS'cpi:335'
p135
aS'm:337'
p136
aS'grama panchayat:351'
p137
aS'automobile workshop:372'
p138
aS'autorickshaw:381'
p139
aS'explosion:387'
p140
aS'windscreen:390'
p141
aS'bus:395'
p142
aS'pipe bomb:405'
p143
aS'site:409'
p144
aS'posse:412'
p145
aS'camping:416'
p146
aS'area:419'
p147
aS'm:427'
p148
aS'panchayat:433'
p149
asS'unexpl'
p150
(lp151
g69
asS'ocassion'
p152
g69
sS'link'
p153
S'http://www.thehindu.com/todays-paper/tp-national/tp-kerala/rural-areas-witness-blasts-clashes/article2505645.ece'
p154
sS'date'
p155
S'01-10-2011'
p156
sS'target'
p157
g69
sS'hot_spot'
p158
g69
sS'delivery_mod'
p159
g69
sS'delivery_met'
p160
g69
sS'expl'
p161
(lp162
g69
asS'ORG'
p163
(lp164
(lp165
S'Communist Party of India'
p166
aS'176'
p167
aS'Accused'
p168
aa(lp169
S'Marxist'
p170
aS'181'
p171
aS'Accused'
p172
aa(lp173
S'CPI-M'
p174
aS'184'
p175
aS'Accused'
p176
aa(lp177
S'Indian Union Muslim League'
p178
aS'188'
p179
aS'Accused'
p180
aa(lp181
S'IUML'
p182
aS'193'
p183
aS'Accused'
p184
aa(lp185
S'Vadakara Cooperative Hospital'
p186
aS'244'
p187
aS'Others'
p188
aa(lp189
S'IUML'
p190
aS'263'
p191
aS'Others'
p192
aa(lp193
S'IUML'
p194
aS'296'
p195
aS'Others'
p196
aa(lp197
S'Bharatiya Janata Party'
p198
aS'341'
p199
aS'Others'
p200
aa(lp201
S'BJP'
p202
aS'345'
p203
aS'Others'
p204
aa(lp205
S'Perambra government hospital'
p206
aS'363'
p207
aS'Others'
p208
aa(lp209
S'BJP'
p210
aS'377'
p211
aS'Others'
p212
aa(lp213
S'CPI'
p214
aS'425'
p215
aS'Others'
p216
aas.