(dp0
S'LOC'
p1
(lp2
(lp3
S'Bihar'
p4
aS'10'
p5
aS'Event'
p6
aa(lp7
S'Aurangabad'
p8
aS'12'
p9
aS'Event'
p10
aa(lp11
S'Tetrain'
p12
aS'27'
p13
aS'Event'
p14
aa(lp15
S'Yadupur'
p16
aS'76'
p17
aS'Event'
p18
aasS'PER'
p19
(lp20
sS'TIM'
p21
(lp22
sS'hot_setting'
p23
S''
p24
sS'DAT'
p25
(lp26
S'Thursday:45'
p27
asS'death'
p28
g24
sS'title'
p29
S'Maoists blast school in Aurangabad'
p30
sS'org_unorg'
p31
S'Organized'
p32
sS'terror_group'
p33
(lp34
S'Maoist Communist Centre (MCC)'
p35
asS'content'
p36
S"Maoists blasted a state-run school at a village in Bihar 's Aurangabad district , the police said . Over 50 ultras surrounded the school building in Tetrain village in the Deo police station area and triggered a dynamite blast to blow it up on Thursday night , they said . Three rooms of the building were destroyed in the blast , they said . Bomb recovered A powerful bomb was also recovered from the adjoining Yadupur village , where the Naxalites blew up a school building last year . Raids are on in the area to nab the ultras . PTI OPEN"
p37
sS'injured'
p38
g24
sS'det_loc'
p39
(lp40
S'India'
p41
aS'Bihar'
p42
aS'Aurangabad'
p43
ag24
aS'Tetrain village in the Deo police station area'
p44
asS'O'
p45
(lp46
S'maoists:1'
p47
aS'school:5'
p48
aS'village:8'
p49
aS"bihar 's aurangabad district:10"
p50
aS'50 ultras surrounded:20'
p51
aS'school building:24'
p52
aS'tetrain village:27'
p53
aS'deo police station area:31'
p54
aS'dynamite blast:38'
p55
aS'bomb recovered:65'
p56
aS'yadupur village:76'
p57
aS'naxalites:81'
p58
aS'school building:85'
p59
aS'raids:90'
p60
aS'nab the ultras:97'
p61
asS'unexpl'
p62
(lp63
g24
asS'ocassion'
p64
g24
sS'link'
p65
S'http://www.thehindu.com/todays-paper/tp-national/maoists-blast-school-in-aurangabad/article1572895.ece'
p66
sS'date'
p67
S'24-03-2011'
p68
sS'target'
p69
S'Educational Institution'
p70
sS'hot_spot'
p71
S'School building'
p72
sS'delivery_mod'
p73
S'Human'
p74
sS'delivery_met'
p75
S'Planted'
p76
sS'expl'
p77
(lp78
S'Dynamite'
p79
asS'ORG'
p80
(lp81
s.