(dp0
S'LOC'
p1
(lp2
(lp3
S'Narikatteri'
p4
aS'29'
p5
aS'Assoc Event Location'
p6
aa(lp7
S'Nadapuram'
p8
aS'31'
p9
aS'Assoc Event Location'
p10
aa(lp11
S'Chelakkad'
p12
aS'44'
p13
aS'Accused Location'
p14
aa(lp15
S'Nadapuram'
p16
aS'57'
p17
aS'Neutral'
p18
aa(lp19
S'Narikatteri'
p20
aS'134'
p21
aS'Assoc Event Location'
p22
aa(lp23
S'Nadapuram'
p24
aS'280'
p25
aS'Neutral'
p26
aasS'PER'
p27
(lp28
(lp29
S'E. Kunhammed'
p30
aS'41'
p31
aS'Accused'
p32
aa(lp33
S'K. Ismail'
p34
aS'102'
p35
aS'Accused'
p36
aa(lp37
S'P.K. Dhanjayababu'
p38
aS'163'
p39
aS'Others'
p40
aa(lp41
S'C.M. Pradeepkumar'
p42
aS'173'
p43
aS'Others'
p44
aasS'TIM'
p45
(lp46
sS'hot_setting'
p47
S''
p48
sS'DAT'
p49
(lp50
S'Monday:11'
p51
aS'February:33'
p52
asS'death'
p53
S'5'
p54
sS'title'
p55
S'Nadapuram bomb blast case: IUML activist held'
p56
sS'org_unorg'
p57
S'Organized'
p58
sS'terror_group'
p59
(lp60
S'Miscreants,Dacoits & Smuggler Gang'
p61
asS'content'
p62
S'The Kozhikode Crime Branch - Crime Investigation Department , on Monday , arrested an Indian Union Muslim League ( IUML ) activist in connection with bomb blast at Narikatteri at Nadapuram in February . The police identified the person as E. Kunhammed of Chelakkad . He was produced in the Judicial First Class Magistrate Court at Nadapuram and remanded in judicial custody for 14 days . He had been charged under Section 3 ( Punishment for causing explosion likely to endanger life or property ) of the Explosive Substance Act , the police said . Earlier , the team had arrested K. Ismail , an IUML sympathiser . Five IUML activists were killed and three seriously injured when powerful steel bombs went off at a secret bomb-making facility at an uninhabited house at Narikatteri . The police suspected that the activists had planned to instigate violence during the forthcoming Assembly elections . A 15-member Crime Branch team , headed by Circle Inspector P.K. Dhanjayababu and supervised by Crime Branch Superintendent of Police C.M. Pradeepkumar , is investigating the case . More than 60 persons had been interrogated . The team had not been able to gather any details from the injured persons . They were recuperating from their injuries , the police said . The investigators are also awaiting a report from the Forensic Science Laboratory . The politically and communally sensitive regions in the limits of the Nadapuram police station started witnessing large-scale violence after the elections to the local bodies . The Nadapuram police station alone recorded 100 rioting cases and 30 arms and explosives cases last year . Police awaiting forensic report 100 rioting cases in Nadapuram last year OPEN'
p63
sS'injured'
p64
S'3'
p65
sS'det_loc'
p66
(lp67
S'India'
p68
aS'Kerala'
p69
aS'Kozhikode'
p70
aS'Kozhikode'
p71
ag48
asS'O'
p72
(lp73
S'activist:22'
p74
aS'bomb blast:26'
p75
aS'custody:62'
p76
aS'section:72'
p77
aS'explosion:78'
p78
aS'explosive substance act:88'
p79
aS'arrested:101'
p80
aS'activists:111'
p81
aS'killed:113'
p82
aS'injured:117'
p83
aS'bombs:121'
p84
aS'bomb-making:127'
p85
aS'activists:141'
p86
aS'violence:146'
p87
aS'assembly elections:150'
p88
aS'crime branch team:155'
p89
aS'circle inspector:161'
p90
aS'crime branch:168'
p91
aS'superintendent of police:170'
p92
aS'interrogated:187'
p93
aS'injured:201'
p94
aS'injuries:209'
p95
aS'report:221'
p96
aS'violence:245'
p97
aS'elections:248'
p98
aS'rioting:261'
p99
aS'arms and explosives:265'
p100
asS'unexpl'
p101
(lp102
g48
asS'ocassion'
p103
g48
sS'link'
p104
S'http://www.thehindu.com/todays-paper/tp-national/tp-kerala/nadapuram-bomb-blast-case-iuml-activist-held/article1601059.ece'
p105
sS'date'
p106
S'05-04-2011'
p107
sS'target'
p108
g48
sS'hot_spot'
p109
g48
sS'delivery_mod'
p110
g48
sS'delivery_met'
p111
g48
sS'expl'
p112
(lp113
g48
asS'ORG'
p114
(lp115
(lp116
S'Kozhikode Crime Branch'
p117
aS'2'
p118
aS'Others'
p119
aa(lp120
S'Crime Investigation Department'
p121
aS'6'
p122
aS'Others'
p123
aa(lp124
S'Indian Union Muslim League'
p125
aS'15'
p126
aS'Accused'
p127
aa(lp128
S'IUML'
p129
aS'20'
p130
aS'Accused'
p131
aa(lp132
S'Judicial First Class Magistrate Court'
p133
aS'51'
p134
aS'Others'
p135
aa(lp136
S'IUML'
p137
aS'106'
p138
aS'Accused'
p139
aa(lp140
S'IUML'
p141
aS'110'
p142
aS'Accused'
p143
aa(lp144
S'Forensic Science Laboratory'
p145
aS'224'
p146
aS'Others'
p147
aa(lp148
S'Nadapuram police station'
p149
aS'239'
p150
aS'Others'
p151
aa(lp152
S'Nadapuram police station'
p153
aS'255'
p154
aS'Others'
p155
aas.