(dp0
S'LOC'
p1
(lp2
sS'PER'
p3
(lp4
sS'TIM'
p5
(lp6
sS'hot_setting'
p7
S''
p8
sS'DAT'
p9
(lp10
S'Friday:15'
p11
aS'Friday:82'
p12
asS'death'
p13
S'13'
p14
sS'title'
p15
S'High Court blast toll 13; three critical'
p16
sS'det_loc'
p17
(lp18
S'India'
p19
aS'Delhi'
p20
aS'New Delhi'
p21
ag8
ag8
asS'terror_group'
p22
(lp23
g8
asS'content'
p24
S"Although the toll in the Delhi High Court bomb blast stood at 13 on Friday , three persons continue to be critical at Ram Manohar Lohia Hospital here . Fourteen people have been discharged from the Lohia Hospital after they were found fit to return home , while 31 are still undergoing treatment there . Three patients have been transferred to AIIMS ' JPN Trauma Centre . According to a release issued by the Union Health and Family Welfare Ministry on Friday , Safdarjung Hospital has four patients under treatment , AIIMS has two , JPN Trauma Centre has three , Moolchand Hospital had three patients with them of which two were discharged , Max Hospital has two patients and Lok Nayak Hospital has one patient . A total of 69 patients were brought to various hospitals , of which 44 are presently admitted and 16 people have been discharged . Nine persons were brought dead to the hospital and four persons died later taking the total death toll to 13 . The release added that the Delhi High Court dispensary attended to about 21 cases and most of them were patients with minor injuries . OPEN"
p25
sS'injured'
p26
g8
sS'org_unorg'
p27
S'Organized'
p28
sS'O'
p29
(lp30
S'bomb blast:9'
p31
aS'treatment:53'
p32
aS'patients:57'
p33
aS'union health and family welfare ministry:75'
p34
aS'patients:88'
p35
aS'treatment:90'
p36
aS'trauma centre:97'
p37
aS'patients:106'
p38
aS'patients:119'
p39
aS'patient:126'
p40
aS'patients:132'
p41
aS'hospital:159'
p42
aS'death toll:168'
p43
aS'dispensary:181'
p44
aS'patients:192'
p45
aS'injuries:195'
p46
asS'unexpl'
p47
(lp48
g8
asS'ocassion'
p49
g8
sS'link'
p50
S'http://www.thehindu.com/todays-paper/tp-national/tp-newdelhi/high-court-blast-toll-13-three-critical/article2440986.ece'
p51
sS'date'
p52
S'10-09-2011'
p53
sS'target'
p54
S'Government Building'
p55
sS'hot_spot'
p56
S'Delhi High Court bomb blast'
p57
sS'delivery_mod'
p58
g8
sS'delivery_met'
p59
g8
sS'expl'
p60
(lp61
g8
asS'ORG'
p62
(lp63
(lp64
S'Delhi High Court'
p65
aS'6'
p66
aS'Others'
p67
aa(lp68
S'Ram Manohar Lohia Hospital'
p69
aS'24'
p70
aS'Others'
p71
aa(lp72
S'Lohia Hospital'
p73
aS'37'
p74
aS'Others'
p75
aa(lp76
S'AIIMS'
p77
aS'62'
p78
aS'Others'
p79
aa(lp80
S'JPN Trauma Centre'
p81
aS'64'
p82
aS'Others'
p83
aa(lp84
S'Safdarjung Hospital'
p85
aS'84'
p86
aS'Others'
p87
aa(lp88
S'AIIMS'
p89
aS'92'
p90
aS'Others'
p91
aa(lp92
S'JPN Trauma Centre'
p93
aS'96'
p94
aS'Others'
p95
aa(lp96
S'Moolchand Hospital'
p97
aS'102'
p98
aS'Others'
p99
aa(lp100
S'Max Hospital'
p101
aS'115'
p102
aS'Others'
p103
aa(lp104
S'Lok Nayak Hospital'
p105
aS'121'
p106
aS'Others'
p107
aa(lp108
S'Delhi High Court'
p109
aS'178'
p110
aS'Others'
p111
aas.