(dp0
S'LOC'
p1
(lp2
(lp3
S'Duggalli'
p4
aS'14'
p5
aS'Event'
p6
aasS'PER'
p7
(lp8
(lp9
S'H.S. Venkatesh'
p10
aS'21'
p11
aS'Comment'
p12
aa(lp13
S'Jagadish'
p14
aS'36'
p15
aS'Victim'
p16
aa(lp17
S'Jagadish'
p18
aS'49'
p19
aS'Victim'
p20
aasS'TIM'
p21
(lp22
sS'hot_setting'
p23
S''
p24
sS'DAT'
p25
(lp26
S'Wednesday:18'
p27
asS'death'
p28
g24
sS'title'
p29
S'Detonator goes off'
p30
sS'det_loc'
p31
(lp32
S'India'
p33
aS'Karnataka'
p34
aS'Davanagare'
p35
aS'Devangere'
p36
aS'Duggalli area'
p37
asS'terror_group'
p38
(lp39
g24
asS'content'
p40
S'A person was injured when a detonator went off at a shop near Duggalli area here on Wednesday evening . H.S. Venkatesh , Superintendent of Police , said that the blast took place when shop-owner Jagadish tried to remove copper wires from a damaged electronic gadget . Mr. Jagadish , who was seriously injured in the incident , has been shifted to the General Hospital . Sniffer dogs and bomb disposal squad , which were pressed into service , detected another live detonator inside the gadget that exploded , and was immediately defused , he said . Staff Correspondent OPEN'
p41
sS'injured'
p42
g24
sS'org_unorg'
p43
S'Organized'
p44
sS'O'
p45
(lp46
S'detonator:7'
p47
aS'shop:12'
p48
aS'duggalli area:14'
p49
aS'evening:19'
p50
aS'superintendent of police:24'
p51
aS'blast:31'
p52
aS'shop-owner:35'
p53
aS'copper wires:40'
p54
aS'electronic gadget:45'
p55
aS'seriously injured:53'
p56
aS'general hospital:64'
p57
aS'sniffer dogs:67'
p58
aS'bomb disposal squad:70'
p59
aS'detonator:83'
p60
aS'gadget:86'
p61
aS'exploded:88'
p62
aS'defused:93'
p63
asS'unexpl'
p64
(lp65
g24
asS'ocassion'
p66
g24
sS'link'
p67
S'http://www.thehindu.com/todays-paper/tp-national/tp-karnataka/detonator-goes-off/article2478186.ece'
p68
sS'date'
p69
S'21-09-2011'
p70
sS'target'
p71
S'Market Place'
p72
sS'hot_spot'
p73
S'Shop'
p74
sS'delivery_mod'
p75
g24
sS'delivery_met'
p76
g24
sS'expl'
p77
(lp78
g24
asS'ORG'
p79
(lp80
s.