(dp0
S'LOC'
p1
(lp2
sS'PER'
p3
(lp4
(lp5
S'Abdishakur Sheikh Hassan Farah'
p6
aS'25'
p7
aS'Victim'
p8
aa(lp9
S'Sheikh Abdikarim Abdullahi Yusuf'
p10
aS'100'
p11
aS'Comment'
p12
aasS'TIM'
p13
(lp14
sS'hot_setting'
p15
S''
p16
sS'DAT'
p17
(lp18
S'Saturday:21'
p19
aS'Friday:49'
p20
asS'death'
p21
g16
sS'title'
p22
S'Somali Minister killed by niece in suicide bomb attack'
p23
sS'org_unorg'
p24
S'Organized'
p25
sS'terror_group'
p26
(lp27
g16
asS'content'
p28
S'A Somali Minister has been killed in a suicide bomb attack by his own niece , government officials confirmed on Saturday . Interior Minister Abdishakur Sheikh Hassan Farah was killed by the blast set off by his niece when she came to visit him at his home late Friday to discuss her university course . The Minister survived the initial explosion , was rushed to the Banadir hospitl , but died later of his injuries , officials said . The niece was also killed in the blast . The group al-Shabab claimed responsibility for the attack . Al-Shabab commander Sheikh Abdikarim Abdullahi Yusuf told DPA , We will continue to kill Christians and apostate officials . DPA OPEN'
p29
sS'injured'
p30
g16
sS'det_loc'
p31
(lp32
S'Somalia'
p33
ag16
ag16
aS'Mogadishu'
p34
ag16
asS'O'
p35
(lp36
S'somali minister:2'
p37
aS'killed:6'
p38
aS'suicide bomb attack:9'
p39
aS'niece:15'
p40
aS'interior minister:23'
p41
aS'killed:30'
p42
aS'blast:33'
p43
aS'niece:38'
p44
aS'visit:43'
p45
aS'university course:53'
p46
aS'minister:57'
p47
aS'explosion:61'
p48
aS'injuries:75'
p49
aS'niece:81'
p50
aS'killed:84'
p51
aS'blast:87'
p52
aS'group al-shabab:90'
p53
aS'responsibility:93'
p54
aS'attack:96'
p55
aS'al-shabab commander:98'
p56
aS'kill:111'
p57
aS'christians:112'
p58
aS'apostate:114'
p59
asS'unexpl'
p60
(lp61
g16
asS'ocassion'
p62
g16
sS'link'
p63
S'http://www.thehindu.com/todays-paper/tp-international/somali-minister-killed-by-niece-in-suicide-bomb-attack/article2097760.ece'
p64
sS'date'
p65
S'12-06-2011'
p66
sS'target'
p67
g16
sS'hot_spot'
p68
g16
sS'delivery_mod'
p69
S'Human'
p70
sS'delivery_met'
p71
S'Planted'
p72
sS'expl'
p73
(lp74
g16
asS'ORG'
p75
(lp76
(lp77
S'Banadir hospitl'
p78
aS'67'
p79
aS'Others'
p80
aa(lp81
S'al-Shabab'
p82
aS'91'
p83
aS'Accused'
p84
aa(lp85
S'Al-Shabab'
p86
aS'98'
p87
aS'Accused'
p88
aa(lp89
S'DPA'
p90
aS'105'
p91
aS'Others'
p92
aas.