(dp0
S'LOC'
p1
(lp2
(lp3
S'Malegaon'
p4
aS'11'
p5
aS'Assoc Event Location'
p6
aa(lp7
S'Devas'
p8
aS'24'
p9
aS'Neutral'
p10
aa(lp11
S'Madhya Pradesh'
p12
aS'26'
p13
aS'Neutral'
p14
aa(lp15
S'Devas'
p16
aS'76'
p17
aS'Neutral'
p18
aa(lp19
S'Devas'
p20
aS'211'
p21
aS'Neutral'
p22
aasS'PER'
p23
(lp24
(lp25
S'Sadhvi Pragya Singh Thakur'
p26
aS'1'
p27
aS'Accused'
p28
aa(lp29
S'Thakur'
p30
aS'51'
p31
aS'Accused'
p32
aa(lp33
S'Sunil Joshi'
p34
aS'59'
p35
aS'Others'
p36
aa(lp37
S'Joshi'
p38
aS'71'
p39
aS'Others'
p40
aa(lp41
S'Thakur'
p42
aS'119'
p43
aS'Accused'
p44
aa(lp45
S'Rameshwar Gite'
p46
aS'122'
p47
aS'Others'
p48
aa(lp49
S'Thakur'
p50
aS'140'
p51
aS'Accused'
p52
aa(lp53
S'Sadhvi'
p54
aS'150'
p55
aS'Accused'
p56
aa(lp57
S'Gite'
p58
aS'166'
p59
aS'Others'
p60
aa(lp61
S'Thakur'
p62
aS'206'
p63
aS'Accused'
p64
aasS'TIM'
p65
(lp66
sS'hot_setting'
p67
S''
p68
sS'DAT'
p69
(lp70
S'2008:10'
p71
aS'Wednesday:30'
p72
aS'Tuesday:45'
p73
aS'December 29 , 2007 : 78'
p74
asS'death'
p75
g68
sS'title'
p76
S'Sadhvi Pragya to be produced in Madhya Pradesh court on Wednesday'
p77
sS'det_loc'
p78
(lp79
S'India'
p80
aS'Maharashtra'
p81
aS'Mumbai-City'
p82
ag68
ag68
asS'terror_group'
p83
(lp84
g68
asS'content'
p85
S"Sadhvi Pragya Singh Thakur , prime accused in the 2008 Malegaon bomb blast case , will be presented before the judicial magistrate in Devas , Madhya Pradesh , on Wednesday . The special Maharashtra Control of Organised Crime Act ( MCOCA ) court on Tuesday passed an order allowing Ms. Thakur to be present for investigation in the Sunil Joshi murder case . Rashtriya Swayamsevak Sangh ( RSS ) activist Joshi was shot dead at Devas on December 29 , 2007 . He was a suspect in the Samjhauta Express blast case . In the order , the court has directed the J.J. Hospital Superintendent to discharge her and hand her over to the Byculla jail , Ms. Thakur 's counsel Rameshwar Gite told The Hindu . The jail authorities have been entrusted with the responsibility of producing Ms. Thakur before the magistrate . The court has instructed that Sadhvi be taken either by plane or by rail , and not by road , Mr. Gite said , adding that the decision was taken following a medical report submitted by experts at the J.J. Hospital on her health . She is known to suffer from back problems . It was not clear till when Ms. Thakur will be kept in Devas . The court has requested the magistrate to send her back after she had fulfilled her purpose before the court . OPEN"
p86
sS'injured'
p87
g68
sS'org_unorg'
p88
S'Organized'
p89
sS'O'
p90
(lp91
S'Malegaon bomb blast:11'
p92
aS'magistrate:22'
p93
aS'investigation:56'
p94
aS'murder case:61'
p95
aS'shot dead:73'
p96
aS'suspect:86'
p97
aS'Samjhauta Express blast:89'
p98
aS'court:99'
p99
aS'discharge:107'
p100
aS'jail authorities:129'
p101
aS'magistrate:143'
p102
aS'court:146'
p103
aS'medical report:177'
p104
aS'health:188'
p105
aS'court:214'
p106
aS'magistrate:218'
p107
aS'court:231'
p108
asS'unexpl'
p109
(lp110
g68
asS'ocassion'
p111
g68
sS'link'
p112
S'http://www.thehindu.com/todays-paper/sadhvi-pragya-to-be-produced-in-madhya-pradesh-court-on-wednesday/article1583374.ece'
p113
sS'date'
p114
S'30-03-2011'
p115
sS'target'
p116
g68
sS'hot_spot'
p117
g68
sS'delivery_mod'
p118
g68
sS'delivery_met'
p119
g68
sS'expl'
p120
(lp121
g68
asS'ORG'
p122
(lp123
(lp124
S'Maharashtra Control of Organised Crime Act'
p125
aS'34'
p126
aS'Others'
p127
aa(lp128
S'MCOCA'
p129
aS'41'
p130
aS'Others'
p131
aa(lp132
S'Rashtriya Swayamsevak Sangh'
p133
aS'64'
p134
aS'Others'
p135
aa(lp136
S'RSS'
p137
aS'68'
p138
aS'Others'
p139
aa(lp140
S'J.J. Hospital'
p141
aS'103'
p142
aS'Others'
p143
aa(lp144
S'Byculla jail'
p145
aS'115'
p146
aS'Others'
p147
aa(lp148
S'The Hindu'
p149
aS'125'
p150
aS'Others'
p151
aa(lp152
S'J.J. Hospital'
p153
aS'184'
p154
aS'Others'
p155
aas.