(dp0
S'LOC'
p1
(lp2
(lp3
S'Zaveri Bazar'
p4
aS'23'
p5
aS'Event'
p6
aa(lp7
S'Mumbai'
p8
aS'26'
p9
aS'Event'
p10
aasS'PER'
p11
(lp12
sS'TIM'
p13
(lp14
sS'hot_setting'
p15
S''
p16
sS'DAT'
p17
(lp18
S'July 13:28'
p19
asS'death'
p20
S'27'
p21
sS'title'
p22
S'13/7 blasts: man who stole vehicle held'
p23
sS'org_unorg'
p24
S'Organized'
p25
sS'terror_group'
p26
(lp27
g16
asS'content'
p28
S'The Maharashtra Anti-Terrorism Squad has arrested a person , who allegedly stole a two-wheeler used by terrorists to plant a bomb at Zaveri Bazar in Mumbai on July 13 , when blasts left 27 people dead . PTI OPEN'
p29
sS'injured'
p30
g16
sS'det_loc'
p31
(lp32
S'India'
p33
aS'Maharashtra'
p34
aS'Mumbai-City'
p35
ag16
ag16
asS'O'
p36
(lp37
S'two-wheeler:14'
p38
aS'terrorists:17'
p39
aS'bomb:21'
p40
aS'blasts:32'
p41
aS'dead:36'
p42
asS'unexpl'
p43
(lp44
g16
asS'ocassion'
p45
g16
sS'link'
p46
S'http://www.thehindu.com/todays-paper/137-blasts-man-who-stole-vehicle-held/article2341322.ece'
p47
sS'date'
p48
S'10-08-2011'
p49
sS'target'
p50
g16
sS'hot_spot'
p51
g16
sS'delivery_mod'
p52
g16
sS'delivery_met'
p53
g16
sS'expl'
p54
(lp55
g16
asS'ORG'
p56
(lp57
(lp58
S'Maharashtra Anti-Terrorism Squad'
p59
aS'2'
p60
aS'Others'
p61
aas.