(dp0
S'LOC'
p1
(lp2
(lp3
S'Panchkula'
p4
aS'34'
p5
aS'Neutral'
p6
aa(lp7
S'Haryana'
p8
aS'36'
p9
aS'Neutral'
p10
aa(lp11
S'Panipat'
p12
aS'86'
p13
aS'Event'
p14
aa(lp15
S'Delhi'
p16
aS'140'
p17
aS'Neutral'
p18
aa(lp19
S'Attari'
p20
aS'142'
p21
aS'Neutral'
p22
aa(lp23
S'India'
p24
aS'144'
p25
aS'Neutral'
p26
aa(lp27
S'Lahore'
p28
aS'146'
p29
aS'Neutral'
p30
aa(lp31
S'Pakistan'
p32
aS'148'
p33
aS'Neutral'
p34
aa(lp35
S'Gujarat'
p36
aS'275'
p37
aS'Neutral'
p38
aa(lp39
S'Madhya Pradesh'
p40
aS'277'
p41
aS'Neutral'
p42
aa(lp43
S'Akshardham'
p44
aS'299'
p45
aS'Neutral'
p46
aa(lp47
S'Gujarat'
p48
aS'301'
p49
aS'Neutral'
p50
aa(lp51
S'Raghunath Mandir'
p52
aS'304'
p53
aS'Neutral'
p54
aa(lp55
S'Jammu'
p56
aS'307'
p57
aS'Neutral'
p58
aa(lp59
S'Sankat Mochan Mandir'
p60
aS'310'
p61
aS'Neutral'
p62
aa(lp63
S'Varanasi'
p64
aS'314'
p65
aS'Neutral'
p66
aasS'PER'
p67
(lp68
(lp69
S'Naba Kumar Sarkar'
p70
aS'46'
p71
aS'Accused'
p72
aa(lp73
S'Swami Asimanand'
p74
aS'50'
p75
aS'Accused'
p76
aa(lp77
S'Sunil Joshi'
p78
aS'53'
p79
aS'Accused'
p80
aa(lp81
S'Lokesh Sharma'
p82
aS'60'
p83
aS'Accused'
p84
aa(lp85
S'Sandeep Dange'
p86
aS'63'
p87
aS'Accused'
p88
aa(lp89
S'Ramchandra Kalasangra'
p90
aS'66'
p91
aS'Accused'
p92
aa(lp93
S'Ramji'
p94
aS'69'
p95
aS'Accused'
p96
aa(lp97
S'Swami Asimanand'
p98
aS'252'
p99
aS'Accused'
p100
aa(lp101
S'Sunil Joshi'
p102
aS'255'
p103
aS'Accused'
p104
aa(lp105
S'Ramji'
p106
aS'262'
p107
aS'Accused'
p108
aa(lp109
S'Sandeep Dange'
p110
aS'264'
p111
aS'Accused'
p112
aa(lp113
S'Lokesh Sharma'
p114
aS'267'
p115
aS'Accused'
p116
aa(lp117
S'Swami Asimanand'
p118
aS'288'
p119
aS'Accused'
p120
aa(lp121
S'Sunil Joshi'
p122
aS'332'
p123
aS'Accused'
p124
aa(lp125
S'Swami Asimanand'
p126
aS'383'
p127
aS'Accused'
p128
aa(lp129
S'Sandeep Dange'
p130
aS'451'
p131
aS'Accused'
p132
aa(lp133
S'Ramji'
p134
aS'454'
p135
aS'Accused'
p136
aa(lp137
S'Lokesh Sharma'
p138
aS'456'
p139
aS'Accused'
p140
aa(lp141
S'Sunil Joshi'
p142
aS'466'
p143
aS'Accused'
p144
aasS'TIM'
p145
(lp146
sS'hot_setting'
p147
S''
p148
sS'DAT'
p149
(lp150
S'Monday : 21'
p151
aS'February 18 , 2007:89'
p152
aS'July 26:179'
p153
aS'July 29:201'
p154
aS'2005:248'
p155
aS'2007:250'
p156
asS'death'
p157
S'68'
p158
sS'title'
p159
S'NIA files charge sheet in Samjhauta case'
p160
sS'det_loc'
p161
(lp162
S'India'
p163
aS'Haryana'
p164
aS'Panchkula'
p165
aS'Panchkula'
p166
ag148
asS'terror_group'
p167
(lp168
g148
asS'content'
p169
S"Nearly a year after taking up the probe into the Samjhauta Express blasts case , the National Investigation Agency on Monday filed a charge sheet in the Special Court , NIA , at Panchkula , Haryana , against five accused persons . The accused are Naba Kumar Sarkar alias Swami Asimanand , Sunil Joshi ( now dead ) , Lokesh Sharma , Sandeep Dange and Ramchandra Kalasangra alias Ramji . The blasts on the Attari Express , also known as the Samjhauta Express , near Panipat , on February 18 , 2007 , and the consequent fire in the coaches killed 68 passengers and injured 12 others . Not only Indian civilians and government officials , but also a large number of Pakistani nationals were killed and injured . A bi-weekly train that runs on Wednesdays and Sundays between Delhi and Attari in India and Lahore in Pakistan , the Samjhauta Express has played a key role in improving people-to-people contacts . The initial investigation was carried out by the Railway Police and the Haryana Police ; on July 26 last year , the Union Home Ministry handed over the probe to the NIA , which registered the case on July 29 . NIA sleuths fanned out to several parts of the country to unravel the conspiracy . Numerous witnesses and suspects were examined and material evidence was collected . The investigation , conducted over almost one year , established that the entire conspiracy was hatched between 2005 and 2007 by Swami Asimanand , Sunil Joshi and his associates such as Ramji , Sandeep Dange , Lokesh Sharma and others at different places in Gujarat , Madhya Pradesh and other States . Investigation further brought out that Swami Asimanand was quite upset with the Jehadi/terrorist attacks on temples Akshardham ( Gujarat ) , Raghunath Mandir ( Jammu ) and Sankat Mochan Mandir ( Varanasi ) . He used to give vent ' to his feelings while -LSB- holding -RSB- discussions with Sunil Joshi and his associates . Over a period of time , they developed a deep -LSB- sense -RSB- of vengeance for not only the Jehadi terrorists , but unfortunately against an entire minority community as such , the charge sheet said . Bomb for bomb theory As a result , Swami Asimanand propounded abomb ka badla bomb -LSB- bomb for bomb -RSB- theory . The Samjhauta Express was particularly chosen , as most of its passengers are Pakistani citizens . He not only provided financial and logistical support to the terror group which executed this dastardly act but also played a vital role in instigating and motivating his associates to undertake this terrorist act , it said . Sandeep Dange , Ramji , Lokesh Sharma and others , acting under the leadership of Sunil Joshi , were instrumental in procuring the raw materials for building Improvised Explosive Devices and getting them fabricated and planted . OPEN"
p170
sS'injured'
p171
S'12'
p172
sS'org_unorg'
p173
S'Organized'
p174
sS'O'
p175
(lp176
S'probe:8'
p177
aS'Samjhauta Express blasts case:11'
p178
aS'charge sheet:24'
p179
aS'special court:28'
p180
aS'Attari Express:75'
p181
aS'Samjhauta Express:82'
p182
aS'fire:97'
p183
aS'coaches:100'
p184
aS'Indian civilians:111'
p185
aS'government officials:114'
p186
aS'Pakistani nationals:123'
p187
aS'bi-weekly train:131'
p188
aS'Samjhauta Express:151'
p189
aS'probe:191'
p190
aS'material evidence:226'
p191
aS'investigation:232'
p192
aS'conspiracy:244'
p193
aS'investigation:283'
p194
aS'jehadi/terrorist:295'
p195
aS'attacks on temples:296'
p196
aS'vengeance:352'
p197
aS'jehadi terrorists:357'
p198
aS'minority community:365'
p199
aS'charge sheet:371'
p200
aS'Bomb for bomb theory:375'
p201
aS'bomb for bomb:391'
p202
aS'Samjhauta Express:398'
p203
aS'Pakistani citizens:410'
p204
aS'financial and logistical support:417'
p205
aS'terror group:423'
p206
aS'terrorist act:445'
p207
aS'Improvised Explosive Devices:478'
p208
aS'fabricated and planted:484'
p209
asS'unexpl'
p210
(lp211
g148
asS'ocassion'
p212
g148
sS'link'
p213
S'http://www.thehindu.com/todays-paper/tp-national/nia-files-charge-sheet-in-samjhauta-case/article2121832.ece'
p214
sS'date'
p215
S'21-06-2011'
p216
sS'target'
p217
S'Public Transport'
p218
sS'hot_spot'
p219
S'Samjhauta Express'
p220
sS'delivery_mod'
p221
g148
sS'delivery_met'
p222
S'Planted'
p223
sS'expl'
p224
(lp225
S'IED'
p226
asS'ORG'
p227
(lp228
(lp229
S'National Investigation Agency'
p230
aS'17'
p231
aS'Others'
p232
aa(lp233
S'NIA'
p234
aS'31'
p235
aS'Others'
p236
aa(lp237
S'Railway Police'
p238
aS'171'
p239
aS'Others'
p240
aa(lp241
S'Haryana Police'
p242
aS'175'
p243
aS'Others'
p244
aa(lp245
S'Union Home Ministry'
p246
aS'185'
p247
aS'Others'
p248
aa(lp249
S'NIA'
p250
aS'194'
p251
aS'Others'
p252
aa(lp253
S'NIA'
p254
aS'204'
p255
aS'Others'
p256
aas.