(dp0
S'LOC'
p1
(lp2
(lp3
S'Thurayoor'
p4
aS'19'
p5
aS'Neutral'
p6
aasS'PER'
p7
(lp8
(lp9
S'P. Balagopalan'
p10
aS'23'
p11
aS'Victim'
p12
aasS'TIM'
p13
(lp14
S'2 a.m.:26'
p15
asS'hot_setting'
p16
S''
p17
sS'DAT'
p18
(lp19
S'Saturday:29'
p20
asS'death'
p21
g17
sS'title'
p22
S'Crude bomb attack'
p23
sS'det_loc'
p24
(lp25
S'India'
p26
aS'Kerala'
p27
aS'Kozhikode'
p28
ag17
ag17
asS'terror_group'
p29
(lp30
g17
asS'content'
p31
S'Miscreants hurled crude bombs at the house of Communist Party of India ( Marxist ) ( CPI-M ) Thurayoor area committee member P. Balagopalan at 2 a.m. on Saturday . The window panes of the house were destroyed in the blast . An unexploded bomb and the key of a motorbike had been recovered from the place . The bomb disposal squad later defused the unexploded crude device , the Payyoli police said . Tension had gripped the region following the recent union elections at the A.V. Abdurahiman Haji Arts and Science College . The Kerala Students Union ( KSU ) - Muslim Students Federation ( MSF ) combine , affiliated to the Congress and the Indian Union Muslim League ( IUML ) respectively , had bagged all the seats in the elections . OPEN'
p32
sS'injured'
p33
g17
sS'org_unorg'
p34
S'Organized'
p35
sS'O'
p36
(lp37
S'crude bombs:3'
p38
aS'thurayoor area committee member:19'
p39
aS'destroyed:38'
p40
aS'blast:41'
p41
aS'unexploded bomb:44'
p42
aS'motorbike:51'
p43
aS'bomb disposal squad:60'
p44
aS'defused:64'
p45
aS'unexploded crude device:66'
p46
aS'tension:75'
p47
aS'union elections:83'
p48
aS'elections:133'
p49
asS'unexpl'
p50
(lp51
g17
asS'ocassion'
p52
g17
sS'link'
p53
S'http://www.thehindu.com/todays-paper/tp-national/tp-kerala/crude-bomb-attack/article2522617.ece'
p54
sS'date'
p55
S'08-10-2011'
p56
sS'target'
p57
g17
sS'hot_spot'
p58
S'house of CPI-M member P. Balagopalan'
p59
sS'delivery_mod'
p60
g17
sS'delivery_met'
p61
S'Thrown'
p62
sS'expl'
p63
(lp64
S'Crude bomb'
p65
asS'ORG'
p66
(lp67
(lp68
S'Communist Party of India ( Marxist )'
p69
aS'9'
p70
aS'Others'
p71
aa(lp72
S'CPI-M'
p73
aS'17'
p74
aS'Others'
p75
aa(lp76
S'Payyoli police'
p77
aS'71'
p78
aS'Others'
p79
aa(lp80
S'A.V. Abdurahiman Haji Arts and Science College'
p81
aS'87'
p82
aS'Others'
p83
aa(lp84
S'Kerala Students Union'
p85
aS'96'
p86
aS'Others'
p87
aa(lp88
S'KSU'
p89
aS'100'
p90
aS'Others'
p91
aa(lp92
S'Muslim Students Federation'
p93
aS'103'
p94
aS'Others'
p95
aa(lp96
S'MSF'
p97
aS'107'
p98
aS'Others'
p99
aa(lp100
S'Congress'
p101
aS'114'
p102
aS'Others'
p103
aa(lp104
S'Indian Union Muslim League'
p105
aS'117'
p106
aS'Others'
p107
aa(lp108
S'IUML'
p109
aS'122'
p110
aS'Others'
p111
aas.