(dp0
S'LOC'
p1
(lp2
(lp3
S'Purnea'
p4
aS'15'
p5
aS'Neutral'
p6
aa(lp7
S'Bihar'
p8
aS'17'
p9
aS'Neutral'
p10
aa(lp11
S'Chinnaswamy Stadium'
p12
aS'60'
p13
aS'Neutral'
p14
aa(lp15
S'Bangalore'
p16
aS'63'
p17
aS'Neutral'
p18
aa(lp19
S'Delhi'
p20
aS'70'
p21
aS'Neutral'
p22
aa(lp23
S'Delhi'
p24
aS'113'
p25
aS'Neutral'
p26
aa(lp27
S'Jama Masjid'
p28
aS'115'
p29
aS'Neutral'
p30
aa(lp31
S'Pune'
p32
aS'119'
p33
aS'Neutral'
p34
aa(lp35
S'Chinnaswamy Stadium'
p36
aS'124'
p37
aS'Neutral'
p38
aa(lp39
S'Jama Masjid'
p40
aS'265'
p41
aS'Neutral'
p42
aa(lp43
S'German Bakery'
p44
aS'268'
p45
aS'Neutral'
p46
aa(lp47
S'Purnea'
p48
aS'343'
p49
aS'Neutral'
p50
aa(lp51
S'Nepal'
p52
aS'357'
p53
aS'Neutral'
p54
aa(lp55
S'Bihar'
p56
aS'359'
p57
aS'Neutral'
p58
aa(lp59
S'Araria'
p60
aS'361'
p61
aS'Neutral'
p62
aasS'PER'
p63
(lp64
(lp65
S'Aftab'
p66
aS'47'
p67
aS'Accused'
p68
aa(lp69
S'Shahrukh'
p70
aS'170'
p71
aS'Accused'
p72
aa(lp73
S'Shahrukh'
p74
aS'185'
p75
aS'Accused'
p76
aa(lp77
S'Qateel Siddiqi'
p78
aS'249'
p79
aS'Accused'
p80
aa(lp81
S'Shahrukh'
p82
aS'254'
p83
aS'Accused'
p84
aa(lp85
S'Qateel'
p86
aS'259'
p87
aS'Accused'
p88
aa(lp89
S'Aftab'
p90
aS'279'
p91
aS'Accused'
p92
aa(lp93
S'Aftab'
p94
aS'298'
p95
aS'Accused'
p96
aa(lp97
S'Farooq'
p98
aS'304'
p99
aS'Accused'
p100
aa(lp101
S'Roshan'
p102
aS'306'
p103
aS'Accused'
p104
aa(lp105
S'Amit Lodha'
p106
aS'347'
p107
aS'Others'
p108
aasS'TIM'
p109
(lp110
sS'hot_setting'
p111
S''
p112
sS'DAT'
p113
(lp114
S'Tuesday:83'
p115
aS'2008:224'
p116
aS'2009:230'
p117
asS'death'
p118
g112
sS'title'
p119
S'Another IM operative arrested'
p120
sS'org_unorg'
p121
S'Organized'
p122
sS'terror_group'
p123
(lp124
S'Indian Mujahideen'
p125
asS'content'
p126
S"Another Indian Mujahideen suspect has been arrested by Delhi Police Special Cell officers in Purnea ( Bihar ) . With this , seven arrests have been made so far and the police are on the lookout for half-a-dozen more . The accused has been identified as Aftab . The police suspect his involvement in the twin blasts outside the Chinnaswamy Stadium in Bangalore . He will be brought to Delhi on transit remand for further investigations , said a police officer on Tuesday . The arrest follows purported revelations by the six alleged Indian Mujahideen terrorists , including a Pakistani national , who were arrested a few days ago in connection with Delhi 's Jama Masjid shooting-cum-blast , Pune 's German Bakery and Chinnaswamy Stadium blasts last year . According to the police , some of the accused were directly involved in these cases and the others in the conspiracy and terror activities . They were part of a module set up by a suspected Indian Mujahideen operative , Shahrukh , on whom the police have declared a reward of Rs .15 lakh . Shahrukh , said to be an expert at assembling improvised explosive devices , is suspected to have configured the bombs used in the three cases . His job was also to procure explosives , which he supplied in the 2008 Delhi serial blasts . Since 2009 he has been overseeing the outfit 's activities across the country . Of those arrested so far , Qateel Siddiqi was close to Shahrukh . We suspect that Qateel was directly involved in the Jama Masjid and German Bakery cases , said a police officer , adding that Aftab would be confronted with the other accused once he is brought to the Capital . Sources said that Aftab , who operated under aliases Farooq and Roshan , was nabbed from a village under the Jalalgarh police station by a Special Branch team aided by the Purnea district police following a tip-off from the Intelligence Bureau . Declining to give specific details , Purnea Superintendent of Police Amit Lodha said the operative had sneaked in from neighbouring Nepal into Bihar 's Araria district a few months ago . OPEN"
p127
sS'injured'
p128
g112
sS'det_loc'
p129
(lp130
S'India'
p131
aS'Bihar'
p132
aS'Purnia'
p133
ag112
ag112
asS'O'
p134
(lp135
S'suspect:4'
p136
aS'suspect:51'
p137
aS'involvement:53'
p138
aS'twin blasts:56'
p139
aS'transit remand:72'
p140
aS'pakistani national:100'
p141
aS'accused:138'
p142
aS'expert:191'
p143
aS'explosive:195'
p144
aS'job:212'
p145
aS'delhi serial blasts:225'
p146
aS'outfit:236'
p147
aS'country:241'
p148
aS'officer:275'
p149
aS'capital:293'
p150
aS'village:312'
p151
aS'station:317'
p152
aS'team:322'
p153
aS'superintendent of police:344'
p154
aS'operative:351'
p155
aS'district:362'
p156
asS'unexpl'
p157
(lp158
g112
asS'ocassion'
p159
g112
sS'link'
p160
S'http://www.thehindu.com/todays-paper/another-im-operative-arrested/article2693229.ece'
p161
sS'date'
p162
S'07-12-2011'
p163
sS'target'
p164
S'Government Building'
p165
sS'hot_spot'
p166
S'Chinnaswamy Stadium blast'
p167
sS'delivery_mod'
p168
g112
sS'delivery_met'
p169
S'Planted'
p170
sS'expl'
p171
(lp172
g112
asS'ORG'
p173
(lp174
(lp175
S'Indian Mujahideen'
p176
aS'2'
p177
aS'Accused'
p178
aa(lp179
S'Delhi Police'
p180
aS'9'
p181
aS'Others'
p182
aa(lp183
S'Indian Mujahideen'
p184
aS'94'
p185
aS'Accused'
p186
aa(lp187
S'Indian Mujahideen'
p188
aS'166'
p189
aS'Accused'
p190
aa(lp191
S'Jalalgarh police station'
p192
aS'315'
p193
aS'Others'
p194
aa(lp195
S'Purnea district police'
p196
aS'326'
p197
aS'Others'
p198
aa(lp199
S'Intelligence Bureau'
p200
aS'334'
p201
aS'Others'
p202
aas.