(dp0
S'LOC'
p1
(lp2
(lp3
S'Meensurutti'
p4
aS'20'
p5
aS'Event'
p6
aasS'PER'
p7
(lp8
sS'TIM'
p9
(lp10
sS'hot_setting'
p11
S''
p12
sS'DAT'
p13
(lp14
S'Wednesday:22'
p15
asS'death'
p16
g12
sS'title'
p17
S'Explosive found'
p18
sS'org_unorg'
p19
S'Organized'
p20
sS'terror_group'
p21
(lp22
g12
asS'content'
p23
S'A ball-like plastic pack containing explosive chemicals was reportedly found on the premises of the Government Higher Secondary School Meensurutti on Wednesday . Police sources said the substance meant for blasting in quarries could have mistakenly landed on the school premises . It was seized and taken for defusing by the Bomb Detection and Disposal Squad , police sources said . OPEN'
p24
sS'injured'
p25
g12
sS'det_loc'
p26
(lp27
S'India'
p28
aS'Tamil Nadu'
p29
aS'Ariyalur'
p30
aS'Ariyalur'
p31
aS'Meensurutti'
p32
asS'O'
p33
(lp34
S'plastic pack:3'
p35
aS'explosive chemicals:6'
p36
aS'premises:13'
p37
aS'blasting:31'
p38
aS'school:40'
p39
aS'school premises:40'
p40
aS'defusing:49'
p41
aS'Bomb Detection and Disposal Squad:52'
p42
asS'unexpl'
p43
(lp44
g12
asS'ocassion'
p45
g12
sS'link'
p46
S'http://www.thehindu.com/todays-paper/tp-national/tp-tamilnadu/explosive-found/article1524784.ece'
p47
sS'date'
p48
S'10-03-2011'
p49
sS'target'
p50
g12
sS'hot_spot'
p51
g12
sS'delivery_mod'
p52
g12
sS'delivery_met'
p53
g12
sS'expl'
p54
(lp55
g12
asS'ORG'
p56
(lp57
(lp58
S'Government Higher Secondary School'
p59
aS'16'
p60
aS'Victim'
p61
aas.