(dp0
S'LOC'
p1
(lp2
(lp3
S'Bangalore'
p4
aS'5'
p5
aS'Neutral'
p6
aa(lp7
S'New Delhi'
p8
aS'8'
p9
aS'Neutral'
p10
aa(lp11
S'M. Chinnaswamy Stadium'
p12
aS'39'
p13
aS'Event'
p14
aa(lp15
S'Bihar'
p16
aS'84'
p17
aS'Neutral'
p18
aa(lp19
S'Barah Samela'
p20
aS'119'
p21
aS'Accused Location'
p22
aa(lp23
S'Darbhanga'
p24
aS'123'
p25
aS'Accused Location'
p26
aa(lp27
S'Gayur'
p28
aS'126'
p29
aS'Accused Location'
p30
aa(lp31
S'Sakri Post'
p32
aS'131'
p33
aS'Accused Location'
p34
aa(lp35
S'Madhubani'
p36
aS'134'
p37
aS'Accused Location'
p38
aa(lp39
S'Bihar'
p40
aS'139'
p41
aS'Accused Location'
p42
aa(lp43
S'Tumkur'
p44
aS'158'
p45
aS'Neutral'
p46
aa(lp47
S'Bangalore'
p48
aS'177'
p49
aS'Neutral'
p50
aa(lp51
S'Tumkur'
p52
aS'179'
p53
aS'Neutral'
p54
aa(lp55
S'Benson Town'
p56
aS'198'
p57
aS'Neutral'
p58
aa(lp59
S'Fraser Town'
p60
aS'201'
p61
aS'Neutral'
p62
aa(lp63
S'Shettihalli Gate'
p64
aS'212'
p65
aS'Neutral'
p66
aa(lp67
S'Tumkur'
p68
aS'215'
p69
aS'Neutral'
p70
aasS'PER'
p71
(lp72
(lp73
S'B.G. Jyothi Prakash Mirji'
p74
aS'74'
p75
aS'Comment'
p76
aa(lp77
S'Mirji'
p78
aS'86'
p79
aS'Others'
p80
aa(lp81
S'Mohammed Qateel Siddique'
p82
aS'91'
p83
aS'Accused'
p84
aa(lp85
S'Sajana'
p86
aS'95'
p87
aS'Accused'
p88
aa(lp89
S'Shejad Saleem'
p90
aS'97'
p91
aS'Accused'
p92
aa(lp93
S'Javed'
p94
aS'100'
p95
aS'Accused'
p96
aa(lp97
S'Vivek Sharma'
p98
aS'102'
p99
aS'Accused'
p100
aa(lp101
S'Gayur Ahmad Jamali'
p102
aS'108'
p103
aS'Accused'
p104
aa(lp105
S'Siddique'
p106
aS'116'
p107
aS'Accused'
p108
aasS'TIM'
p109
(lp110
sS'hot_setting'
p111
S''
p112
sS'DAT'
p113
(lp114
S'April:44'
p115
aS'Wednesday:81'
p116
asS'death'
p117
g112
sS'title'
p118
S"Police to grill politicians for help' to IM suspects"
p119
sS'det_loc'
p120
(lp121
S'India'
p122
aS'Karnataka'
p123
aS'Bangalore Urban'
p124
aS'Bangalore'
p125
ag112
asS'terror_group'
p126
(lp127
S'Indian Mujahideen'
p128
asS'content'
p129
S'Senior police officers from Bangalore will visit New Delhi to question two activists of the Indian Mujahideen ( IM ) in connection with the twin blasts , which injured 15 , just before a cricket match at the M. Chinnaswamy Stadium here in April last year . The two are among seven arrested recently by the New Delhi police for alleged links to various terrorist actions across the country , City Police Commissioner B.G. Jyothi Prakash Mirji told presspersons here Wednesday . From Bihar Mr. Mirji identified the duo as Mohammed Qateel Siddique alias Sajana alias Shejad Saleem alias Javed alias Vivek Sharma ( 27 ) and Gayur Ahmad Jamali ( 21 ) . While Siddique is from Barah Samela village in Darbhanga district , Gayur is a native of Sakri Post in Madhubani district , both from Bihar . They and their associates arrived at least a month before the blasts and rented a house in Tumkur where they were suspected to have made the bombs . Political support Police officials suspect some politicians in Bangalore and Tumkur may have provided financial , housing and logistical support to them . They stayed in posh apartments in Benson Town and Fraser Town here . They also stayed in a house near Shettihalli Gate in Tumkur , said a police official , requesting anonymity . OPEN'
p130
sS'injured'
p131
g112
sS'org_unorg'
p132
S'Organized'
p133
sS'O'
p134
(lp135
S'question:11'
p136
aS'activists:13'
p137
aS'twin blasts:25'
p138
aS'injured:29'
p139
aS'cricket match:35'
p140
aS'arrested:53'
p141
aS'terrorist:65'
p142
aS'City Police Commissioner:71'
p143
aS'blasts:152'
p144
aS'house:156'
p145
aS'bombs:167'
p146
aS'politicians:175'
p147
aS'logistical support:187'
p148
aS'house:210'
p149
asS'unexpl'
p150
(lp151
g112
asS'ocassion'
p152
g112
sS'link'
p153
S'http://www.thehindu.com/todays-paper/tp-national/tp-karnataka/police-to-grill-politicians-for-help-to-im-suspects/article2696761.ece'
p154
sS'date'
p155
S'08-12-2011'
p156
sS'target'
p157
S'Public Organization'
p158
sS'hot_spot'
p159
S'M. Chinnaswamy Stadium'
p160
sS'delivery_mod'
p161
g112
sS'delivery_met'
p162
g112
sS'expl'
p163
(lp164
g112
asS'ORG'
p165
(lp166
(lp167
S'Indian Mujahideen'
p168
aS'16'
p169
aS'Accused'
p170
aa(lp171
S'IM'
p172
aS'19'
p173
aS'Accused'
p174
aa(lp175
S'New Delhi police'
p176
aS'57'
p177
aS'Others'
p178
aas.