(dp0
S'LOC'
p1
(lp2
(lp3
S'Jammu & Kashmir'
p4
aS'14'
p5
aS'Neutral'
p6
aa(lp7
S'Kishtwar'
p8
aS'93'
p9
aS'Neutral'
p10
aa(lp11
S'Bangladesh'
p12
aS'98'
p13
aS'Neutral'
p14
aa(lp15
S'Dhaka'
p16
aS'108'
p17
aS'Neutral'
p18
aa(lp19
S'Jammu'
p20
aS'123'
p21
aS'Neutral'
p22
aa(lp23
S'India'
p24
aS'164'
p25
aS'Neutral'
p26
aa(lp27
S'Delhi'
p28
aS'173'
p29
aS'Source'
p30
aa(lp31
S'Jammu'
p32
aS'257'
p33
aS'Neutral'
p34
aa(lp35
S'Kashmir Valley'
p36
aS'310'
p37
aS'Neutral'
p38
aa(lp39
S'Kishtwar'
p40
aS'353'
p41
aS'Neutral'
p42
aasS'PER'
p43
(lp44
(lp45
S'Wasim Akram Malik'
p46
aS'35'
p47
aS'Accused'
p48
aa(lp49
S'Amir Abbas Dev'
p50
aS'66'
p51
aS'Assoc Accused'
p52
aa(lp53
S'Wasim'
p54
aS'95'
p55
aS'Accused'
p56
aa(lp57
S'Wasim'
p58
aS'120'
p59
aS'Accused'
p60
aa(lp61
S'Wasim'
p62
aS'161'
p63
aS'Accused'
p64
aa(lp65
S'Wasim'
p66
aS'186'
p67
aS'Accused'
p68
aa(lp69
S'Wasim'
p70
aS'225'
p71
aS'Accused'
p72
aa(lp73
S'Azhar Ali'
p74
aS'247'
p75
aS'Assoc Accused'
p76
aa(lp77
S'Azhar'
p78
aS'271'
p79
aS'Assoc Accused'
p80
aa(lp81
S'Wasim'
p82
aS'275'
p83
aS'Accused'
p84
aa(lp85
S'Junaid'
p86
aS'278'
p87
aS'Assoc Accused'
p88
aa(lp89
S'Junaid'
p90
aS'285'
p91
aS'Assoc Accused'
p92
aa(lp93
S'Junaid'
p94
aS'304'
p95
aS'Assoc Accused'
p96
aa(lp97
S'Amir Abbas Dev'
p98
aS'322'
p99
aS'Assoc Accused'
p100
aasS'TIM'
p101
(lp102
sS'hot_setting'
p103
S''
p104
sS'DAT'
p105
(lp106
S'Friday:40'
p107
aS'September 7:78'
p108
aS'September 7:125'
p109
asS'death'
p110
g104
sS'title'
p111
S'NIA custody for Delhi blast suspect'
p112
sS'org_unorg'
p113
g104
sS'terror_group'
p114
(lp115
S'HARKAT-UL-MUJAHIDEEN OR HARKAT-UL-ANSAR OR HARKAT-UL-JEHAD-E-ISLAMI'
p116
asS'content'
p117
S"The National Investigation Agency ( NIA ) has arrested a young man from Jammu & Kashmir for his suspected involvement in the conspiracy behind the recent bomb blast at the Delhi High Court . Wasim Akram Malik was on Friday produced in a special court here , which remanded him in NIA custody for 14 days during which he would also be confronted with co-accused Amir Abbas Dev . The arrest comes exactly a month after the September 7 blast . The elder son of a worker at a hydel project in Kishtwar , Wasim went to Bangladesh about five years ago for medical studies at a Dhaka institute . Yet to establish exact role Preliminary enquiries suggest that Wasim was in Jammu on September 7 when the blast took place . Suspecting his involvement , the NIA contacted his father seeking his cooperation in the probe and sought his presence for questioning . At his father 's instance , Wasim returned to India and was handed over to the NIA at Delhi airport . According to sources , the NIA is yet to establish Wasim 's exact role in the conspiracy . He would be probed for any links with the Bangladesh-based Harkat-ul-Jihad-e-Islami ( HuJI ) or any other outfit . Even as the NIA remained tight-lipped about the timing and place of Wasim 's arrest , besides his affiliation to any terror outfit , sources said the agency received information about him from one Azhar Ali , an alleged HM recruiter presently lodged in Jammu 's Kotbalwal Jail . According to sources , NIA officials had recently questioned Azhar and found that Wasim 's brother Junaid had been initiated into terrorism . Junaid allegedly disappeared a year ago and his family has lodged a missing report . Intelligence agencies suspect that Junaid has been operating from the Kashmir Valley . In a related development , the special court sent Amir Abbas Dev to seven days ' NIA custody and ordered that the third accused in the case be produced before a Juvenile Justice Board . The two were arrested in Kishtwar for alleged complicity in sending an e-mail on behalf of HuJI claiming responsibility for the blast . OPEN"
p118
sS'injured'
p119
g104
sS'det_loc'
p120
(lp121
S'India'
p122
aS'Delhi'
p123
ag104
ag104
ag104
asS'O'
p124
(lp125
S'arrested:9'
p126
aS'suspected:19'
p127
aS'conspiracy:23'
p128
aS'bomb blast:27'
p129
aS'14 days:55'
p130
aS'confronted:63'
p131
aS'hydel project:90'
p132
aS'preliminary enquiries:116'
p133
aS'conspiracy:192'
p134
aS'bangladesh-based harkat-ul-jihad-e-islami:203'
p135
aS'outfit:211'
p136
aS'affiliation:231'
p137
aS'terror outfit:234'
p138
aS'hm recruiter:252'
p139
aS'lodged:255'
p140
aS'kotbalwal jail:259'
p141
aS'terrorism:283'
p142
aS'disappeared:287'
p143
aS'missing report:297'
p144
aS'intelligence agencies:300'
p145
aS'arrested:351'
p146
aS'alleged complicity:355'
p147
aS'e-mail:360'
p148
aS'blast:369'
p149
asS'unexpl'
p150
(lp151
g104
asS'ocassion'
p152
g104
sS'link'
p153
S'http://www.thehindu.com/todays-paper/nia-custody-for-delhi-blast-suspect/article2519623.ece'
p154
sS'date'
p155
S'07-09-2011'
p156
sS'target'
p157
S'HIGH COURT'
p158
sS'hot_spot'
p159
S'Delhi High Court'
p160
sS'delivery_mod'
p161
g104
sS'delivery_met'
p162
S'PLANTED'
p163
sS'expl'
p164
(lp165
g104
asS'ORG'
p166
(lp167
(lp168
S'HuJI'
p169
aS'206'
p170
aS'Accused'
p171
aS'Others'
p172
aa(lp173
S'National Investigation Agency'
p174
aS'2'
p175
aS'Others'
p176
aa(lp177
S'NIA'
p178
aS'6'
p179
aS'Others'
p180
aa(lp181
S'Delhi High Court'
p182
aS'31'
p183
aS'Others'
p184
aa(lp185
S'NIA'
p186
aS'52'
p187
aS'Others'
p188
aa(lp189
S'Dhaka institute'
p190
aS'108'
p191
aS'Others'
p192
aa(lp193
S'NIA'
p194
aS'138'
p195
aS'Others'
p196
aa(lp197
S'NIA'
p198
aS'171'
p199
aS'Others'
p200
aa(lp201
S'NIA'
p202
aS'181'
p203
aS'Others'
p204
aa(lp205
S'Harkat-ul-Jihad-e-Islami'
p206
aS'204'
p207
aS'Accused'
p208
aa(lp209
S'NIA'
p210
aS'216'
p211
aS'Others'
p212
aa(lp213
S'NIA'
p214
aS'266'
p215
aS'Others'
p216
aa(lp217
S'NIA'
p218
aS'329'
p219
aS'Others'
p220
aa(lp221
S'Juvenile Justice Board'
p222
aS'344'
p223
aS'Others'
p224
aa(lp225
S'HuJI'
p226
aS'364'
p227
aS'Accused'
p228
aas.