(dp0
S'LOC'
p1
(lp2
(lp3
S'Haridwar'
p4
aS'26'
p5
aS'Neutral'
p6
aa(lp7
S'Uttarakhand'
p8
aS'28'
p9
aS'Neutral'
p10
aa(lp11
S'Ajmer Sharif dargah'
p12
aS'50'
p13
aS'Event'
p14
aa(lp15
S'Delhi'
p16
aS'71'
p17
aS'Neutral'
p18
aa(lp19
S'Malegaons'
p20
aS'106'
p21
aS'Assoc Event Location'
p22
aa(lp23
S'Malegaon'
p24
aS'116'
p25
aS'Assoc Event Location'
p26
aa(lp27
S'Ajmer Sharif dargah'
p28
aS'122'
p29
aS'Event'
p30
aa(lp31
S'Ajmer'
p32
aS'132'
p33
aS'Event'
p34
aa(lp35
S'Mecca Masjid'
p36
aS'141'
p37
aS'Assoc Event Location'
p38
aa(lp39
S'Hyderabad'
p40
aS'144'
p41
aS'Assoc Event Location'
p42
aa(lp43
S'Hyderabad'
p44
aS'151'
p45
aS'Neutral'
p46
aa(lp47
S'Pakistan'
p48
aS'156'
p49
aS'Neutral'
p50
aa(lp51
S'Malegaon'
p52
aS'230'
p53
aS'Assoc Event Location'
p54
aa(lp55
S'Mecca Masjid'
p56
aS'234'
p57
aS'Assoc Event Location'
p58
aa(lp59
S'Sankatmochan temple'
p60
aS'437'
p61
aS'Assoc Event Location'
p62
aa(lp63
S'Varanasi'
p64
aS'440'
p65
aS'Assoc Event Location'
p66
aa(lp67
S'Akshardham temple'
p68
aS'442'
p69
aS'Assoc Event Location'
p70
aa(lp71
S'Gandhinagar'
p72
aS'445'
p73
aS'Assoc Event Location'
p74
aa(lp75
S'Gujarat'
p76
aS'462'
p77
aS'Neutral'
p78
aa(lp79
S'Dang'
p80
aS'464'
p81
aS'Neutral'
p82
aa(lp83
S'Ajmer dargah'
p84
aS'515'
p85
aS'Assoc Event Location'
p86
aa(lp87
S'Madhya Pradesh'
p88
aS'523'
p89
aS'Neutral'
p90
aa(lp91
S'Hooghly'
p92
aS'564'
p93
aS'Neutral'
p94
aa(lp95
S'West Bengal'
p96
aS'567'
p97
aS'Neutral'
p98
aa(lp99
S'Bankura'
p100
aS'591'
p101
aS'Neutral'
p102
aa(lp103
S'Purulia'
p104
aS'593'
p105
aS'Neutral'
p106
aa(lp107
S'Birbhum'
p108
aS'595'
p109
aS'Neutral'
p110
aa(lp111
S'West Bengal'
p112
aS'598'
p113
aS'Neutral'
p114
aa(lp115
S'Andaman and Nicobar Islands'
p116
aS'617'
p117
aS'Neutral'
p118
aa(lp119
S'Chhattisgarh'
p120
aS'624'
p121
aS'Neutral'
p122
aa(lp123
S'Dangs'
p124
aS'638'
p125
aS'Neutral'
p126
aa(lp127
S'Malegaon'
p128
aS'688'
p129
aS'Assoc Event Location'
p130
aa(lp131
S'Mecca Masjid'
p132
aS'706'
p133
aS'Assoc Event Location'
p134
aa(lp135
S'Ajmer'
p136
aS'709'
p137
aS'Assoc Event Location'
p138
aa(lp139
S'Sankatmochan temple'
p140
aS'775'
p141
aS'Assoc Event Location'
p142
aa(lp143
S'Sankatmochan temple'
p144
aS'874'
p145
aS'Assoc Event Location'
p146
aasS'PER'
p147
(lp148
(lp149
S'Swami Aseemanand'
p150
aS'1'
p151
aS'Accused'
p152
aa(lp153
S'Deepak Dabas'
p154
aS'257'
p155
aS'Comment'
p156
aa(lp157
S'Indresh Kumar'
p158
aS'338'
p159
aS'Accused'
p160
aa(lp161
S'Sunil Joshi'
p162
aS'345'
p163
aS'Accused'
p164
aa(lp165
S'Sadhvi Pragya Singh Thakur'
p166
aS'348'
p167
aS'Accused'
p168
aa(lp169
S'Sandeep Dange'
p170
aS'356'
p171
aS'Accused'
p172
aa(lp173
S'Ramji Kalsangra'
p174
aS'359'
p175
aS'Accused'
p176
aa(lp177
S'Swami Aseemanand'
p178
aS'375'
p179
aS'Accused'
p180
aa(lp181
S'Kumar'
p182
aS'379'
p183
aS'Accused'
p184
aa(lp185
S'Joshi'
p186
aS'397'
p187
aS'Accused'
p188
aa(lp189
S'Swami'
p190
aS'430'
p191
aS'Others'
p192
aa(lp193
S'Aseemanand'
p194
aS'454'
p195
aS'Accused'
p196
aa(lp197
S'Sunil Joshi'
p198
aS'485'
p199
aS'Accused'
p200
aa(lp201
S'Pragya Singh Thakur'
p202
aS'488'
p203
aS'Accused'
p204
aa(lp205
S'Joshi'
p206
aS'505'
p207
aS'Accused'
p208
aa(lp209
S'Swami'
p210
aS'553'
p211
aS'Accused'
p212
aa(lp213
S'Jatin Chatterjee'
p214
aS'559'
p215
aS'Accused'
p216
aa(lp217
S'Aseemanand'
p218
aS'647'
p219
aS'Accused'
p220
aa(lp221
S'Aseemanand'
p222
aS'712'
p223
aS'Accused'
p224
aa(lp225
S'Joshi'
p226
aS'762'
p227
aS'Accused'
p228
aa(lp229
S'Thakur'
p230
aS'764'
p231
aS'Accused'
p232
aa(lp233
S'Pragya Thakur'
p234
aS'792'
p235
aS'Accused'
p236
aa(lp237
S'Sunil Joshi'
p238
aS'795'
p239
aS'Accused'
p240
aa(lp241
S'Bharat Riteshwar'
p242
aS'798'
p243
aS'Accused'
p244
aa(lp245
S'Aseemanand'
p246
aS'813'
p247
aS'Accused'
p248
aa(lp249
S'Aseemanand'
p250
aS'818'
p251
aS'Accused'
p252
aa(lp253
S'Aseemanand'
p254
aS'856'
p255
aS'Accused'
p256
aasS'TIM'
p257
(lp258
sS'hot_setting'
p259
S''
p260
sS'DAT'
p261
(lp262
S'November:31'
p263
aS'December 18:265'
p264
aS'2006:474'
p265
aS'2007:526'
p266
aS'1977:582'
p267
aS'1981:601'
p268
aS'1988:607'
p269
aS'1993:609'
p270
aS'1995:629'
p271
aS'2006:687'
p272
aS'2002:729'
p273
aS'2003:766'
p274
aS'March 2006:778'
p275
aS'March 2006:789'
p276
aS'March 2006:877'
p277
asS'death'
p278
g260
sS'title'
p279
S'Ajmer blast carried out to deter Hindus from visiting dargah'
p280
sS'det_loc'
p281
(lp282
S'India'
p283
aS'Delhi'
p284
aS'New Delhi'
p285
aS'New Delhi'
p286
ag260
asS'terror_group'
p287
(lp288
g260
asS'content'
p289
S"Swami Aseemanand , a key figure in the Hindutva terror network , who was arrested by the Central Bureau of Investigation ( CBI ) from Haridwar , Uttarakhand , in November last , has confessed to having strongly favoured tit-for-tat in cases of bomb blasts . He chose the Ajmer Sharif dargah as a target to deter Hindus from going there . In his statement recorded before a magistrate in Delhi , he said : I told everybody , bomb ka jawab bomb se dena chahiye ' -LSB- bombs should be answered with bombs -RSB- . I told everyone , since 80 per cent of Malegaons are Muslims , we should explode the bomb in Malegaon . Since Hindus throng the Ajmer Sharif dargah , we thought a bomb blast in Ajmer would deter Hindus from going there . The Mecca Masjid in Hyderabad was chosen because the Nizam of Hyderabad wanted to opt for Pakistan during the Partition . And Samjhauta Express was chosen because it was mostly used by Pakistanis , according to Tehelka news magazine , which has also uploaded the statement on its website . The Rashtriya Swayamsevak Sangh ( RSS ) leader 's statement is legally admissible evidence , crucial for the investigators probing the terror bombings targeting Muslims at religious and other places . He also admitted to having planned terror attacks in Malegaon , on the Mecca Masjid and the Samjhauta Express . In his confession , recorded under Section 164 of the Criminal Procedure Code before Metropolitan Magistrate Deepak Dabas at the Tis Hazari Courts on December 18 last , the arrested RSS leader confessed that he and other Hindu activists were involved in bombings at Muslim religious places because they wanted to answer every Islamist terror act with a bomb for bomb policy . Names key conspirators His 42-page confession , recorded in Hindi , has been reported in Tehelka 's latest cover story , In the Words of a Zealot . He has named senior RSS leader Indresh Kumar , the murdered RSS pracharak Sunil Joshi , Sadhvi Pragya Singh Thakur and senior RSS pracharaks Sandeep Dange and Ramji Kalsangra , among others , as key conspirators in the terror blasts . According to Swami Aseemanand , Mr. Kumar , who was recently questioned by the CBI , had financed several of the blasts , while Joshi and his team executed many of them . He said the terror conspiracy was hatched over several meetings at which he was present , with the Hindutva leaders . According to the Swami , the Islamist terror strikes on Sankatmochan temple in Varanasi and Akshardham temple in Gandhinagar triggered their conspiracy . The magazine says that Aseemanand , of the Vanvasi Kalyan Ashram in Gujarat 's Dang district , told the Metropolitan Magistrate that in a 2006 meeting with other Hindu radicals , including murdered RSS leader Sunil Joshi and Pragya Singh Thakur , it was he who propagated the policy of bomb for bomb . ' Joshi , alleged to be the key conspirator in the Ajmer dargah blast , was shot dead in Madhya Pradesh in 2007 . He is suspected to have been killed by his own men to cover up the terror act , the Rajasthan Police has claimed . The Swami , whose real name is Jatin Chatterjee , hails from Hooghly district in West Bengal and is a post-graduate in Botany . He started working full time from 1977 for Adivasi Kalyan Ashram of the RSS in Bankura , Purulia and Birbhum districts of West Bengal till 1981 . He also worked from 1988 to 1993 at the Vanvasi Kalyan Ashram in the Andaman and Nicobar Islands before shifting to Chhattisgarh that year . In 1995 , he was asked to go to the Dangs , which later became his permanent base . Aseemanand also confessed to having motivated a bunch of RSS pracharaks and other Hindu radicals to carry out the terror strikes to target Muslims . His confession is the first direct evidence of the involvement of Hindutva extremists in the 2006 Malegaon blasts and the Samjhauta Express blasts even though there have been accusations of their involvement in the Mecca Masjid and Ajmer blasts . Aseemanand admitted that they organised the terror acts as the Muslim terrorists started attacking Hindu temples in 2002 . This caused great concern and anger in me . I used to share my concerns about the growing menace of Islamic terrorism . He said he first got in touch with Joshi and Thakur in 2003 . It was the terror attack on the Sankatmochan temple in March 2006 that became the real flashpoint for them . In March 2006 , Pragya Thakur , Sunil Joshi , Bharat Riteshwar and I decided to give a befitting reply to the Sankatmochan blasts , Aseemanand told the Magistrate . Aseemanand is known for having worked to reconvert people in tribal areas . He also ran the Shabari Dham Ashram and has a long list of followers , many of whom have been questioned by the CBI . Aseemanand admits to organising terror acts as part of a bomb for bomb ' policy Attack on the Sankatmochan temple in March 2006 was the flashpoint OPEN"
p290
sS'injured'
p291
g260
sS'org_unorg'
p292
S'Organized'
p293
sS'O'
p294
(lp295
S'hindutva terror network:9'
p296
aS'bomb blasts:44'
p297
aS'target:55'
p298
aS'hindus:58'
p299
aS'bomb ka jawab bomb:80'
p300
aS'bomb:114'
p301
aS'bomb blast:129'
p302
aS'hindus:135'
p303
aS'nizam:149'
p304
aS'samjhauta express:162'
p305
aS'terror bombings:211'
p306
aS'terror attacks:227'
p307
aS'samjhauta express:238'
p308
aS'criminal procedure code:251'
p309
aS'metropolitan magistrate:255'
p310
aS'hindu activists:278'
p311
aS'terror act:295'
p312
aS'bomb for bomb:299'
p313
aS'terror blasts:370'
p314
aS'terror conspiracy:409'
p315
aS'hindutva leaders:424'
p316
aS'terror strikes:434'
p317
aS'conspiracy:448'
p318
aS'magazine:451'
p319
aS'metropolitan magistrate:469'
p320
aS'hindu radicals:478'
p321
aS'bomb for bomb:500'
p322
aS'key conspirator:511'
p323
aS'ajmer dargah blast:515'
p324
aS'terror act:543'
p325
aS'nicobar:619'
p326
aS'year:626'
p327
aS'hindu radicals:660'
p328
aS'terror strikes:666'
p329
aS'hindutva extremists:683'
p330
aS'malegaon blasts:688'
p331
aS'samjhauta express blasts:692'
p332
aS'mecca masjid:706'
p333
aS'ajmer blasts:709'
p334
aS'terror acts:718'
p335
aS'hindu temples:726'
p336
aS'islamic terrorism:751'
p337
aS'terror attack:771'
p338
aS'sankatmochan blasts:810'
p339
aS'magistrate:816'
p340
aS'terror acts:860'
p341
aS'bomb for bomb:866'
p342
asS'unexpl'
p343
(lp344
g260
asS'ocassion'
p345
g260
sS'link'
p346
S'http://www.thehindu.com/todays-paper/tp-national/ajmer-blast-carried-out-to-deter-hindus-from-visiting-dargah/article1079255.ece'
p347
sS'date'
p348
S'11-10-2007'
p349
sS'target'
p350
g260
sS'hot_spot'
p351
S'Ajmer dargah'
p352
sS'delivery_mod'
p353
g260
sS'delivery_met'
p354
g260
sS'expl'
p355
(lp356
g260
asS'ORG'
p357
(lp358
(lp359
S'Central Bureau of Investigation'
p360
aS'18'
p361
aS'Others'
p362
aa(lp363
S'CBI'
p364
aS'23'
p365
aS'Others'
p366
aa(lp367
S'Tehelka news magazine'
p368
aS'176'
p369
aS'Others'
p370
aa(lp371
S'Rashtriya Swayamsevak Sangh'
p372
aS'191'
p373
aS'Accused'
p374
aa(lp375
S'RSS'
p376
aS'195'
p377
aS'Accused'
p378
aa(lp379
S'Tis Hazari Courts'
p380
aS'261'
p381
aS'Others'
p382
aa(lp383
S'RSS'
p384
aS'271'
p385
aS'Accused'
p386
aa(lp387
S'Tehelka'
p388
aS'319'
p389
aS'Others'
p390
aa(lp391
S'RSS'
p392
aS'336'
p393
aS'Accused'
p394
aa(lp395
S'RSS'
p396
aS'343'
p397
aS'Accused'
p398
aa(lp399
S'RSS'
p400
aS'354'
p401
aS'Accused'
p402
aa(lp403
S'CBI'
p404
aS'387'
p405
aS'Others'
p406
aa(lp407
S'Vanvasi Kalyan Ashram'
p408
aS'458'
p409
aS'Others'
p410
aa(lp411
S'RSS'
p412
aS'483'
p413
aS'Accused'
p414
aa(lp415
S'Rajasthan Police'
p416
aS'547'
p417
aS'Others'
p418
aa(lp419
S'Adivasi Kalyan Ashram'
p420
aS'584'
p421
aS'Others'
p422
aa(lp423
S'RSS'
p424
aS'589'
p425
aS'Accused'
p426
aa(lp427
S'Vanvasi Kalyan Ashram'
p428
aS'612'
p429
aS'Others'
p430
aa(lp431
S'RSS'
p432
aS'656'
p433
aS'Others'
p434
aa(lp435
S'Shabari Dham Ashram'
p436
aS'835'
p437
aS'Others'
p438
aa(lp439
S'CBI'
p440
aS'854'
p441
aS'Others'
p442
aas.