(dp0
S'LOC'
p1
(lp2
(lp3
S'Sai Baba temple'
p4
aS'26'
p5
aS'Event'
p6
aa(lp7
S'Dilsukhnagar'
p8
aS'30'
p9
aS'Event'
p10
aa(lp11
S'Rahmanbagh'
p12
aS'66'
p13
aS'Accused Location'
p14
aa(lp15
S'Nalgonda'
p16
aS'68'
p17
aS'Accused Location'
p18
aa(lp19
S'Saudi Arabia'
p20
aS'74'
p21
aS'Neutral'
p22
aa(lp23
S'Sai Baba temple'
p24
aS'107'
p25
aS'Event'
p26
aa(lp27
S'Kochi International Airport'
p28
aS'120'
p29
aS'Neutral'
p30
aa(lp31
S'Saudi Arabia'
p32
aS'132'
p33
aS'Neutral'
p34
aa(lp35
S'Malakpet'
p36
aS'164'
p37
aS'Accused Location'
p38
aa(lp39
S'Sai Baba temple'
p40
aS'183'
p41
aS'Event'
p42
aa(lp43
S'Rekurthy'
p44
aS'200'
p45
aS'Neutral'
p46
aa(lp47
S'Karimnagar'
p48
aS'206'
p49
aS'Neutral'
p50
aa(lp51
S'Medipally'
p52
aS'220'
p53
aS'Neutral'
p54
aa(lp55
S'Cyberabad'
p56
aS'222'
p57
aS'Neutral'
p58
aasS'PER'
p59
(lp60
(lp61
S'Syed Salauddin Salar'
p62
aS'9'
p63
aS'Accused'
p64
aa(lp65
S'Salar'
p66
aS'41'
p67
aS'Accused'
p68
aa(lp69
S'Salar'
p70
aS'71'
p71
aS'Accused'
p72
aa(lp73
S'Syed Aziz'
p74
aS'161'
p75
aS'Accused'
p76
aa(lp77
S'Aziz'
p78
aS'162'
p79
aS'Accused'
p80
aa(lp81
S'Mohd . Azam'
p82
aS'166'
p83
aS'Accused'
p84
aa(lp85
S'Aziz'
p86
aS'196'
p87
aS'Accused'
p88
aa(lp89
S'Azam'
p90
aS'208'
p91
aS'Accused'
p92
aasS'TIM'
p93
(lp94
sS'hot_setting'
p95
S''
p96
sS'DAT'
p97
(lp98
S'Tuesday:7'
p99
aS'Tuesday:39'
p100
aS'2000:80'
p101
aS'November 21:111'
p102
aS'November:111'
p103
aS'2002:114'
p104
asS'death'
p105
g96
sS'title'
p106
S'Sai Baba temple blast accused brought to city'
p107
sS'det_loc'
p108
(lp109
S'India'
p110
aS'Andhra Pradesh'
p111
ag96
aS'Hyderabad'
p112
ag96
asS'terror_group'
p113
(lp114
S'Lashkar-e-Taiba / Pasban-E-Ahle Hadis (LeT)'
p115
asS'content'
p116
S'The Crime Investigation Department officials on Tuesday brought Syed Salauddin Salar , 40 , accused of involvement in the bomb blast in front of the Sai Baba temple in Dilsukhnagar nine years ago , to the city on Tuesday . Salar had been absconding since the explosion was carried out at the temple , killing two persons and injuring 22 others . A resident of Rahmanbagh in Nalgonda district , Salar flew to Saudi Arabia for a job in 2000 . He allegedly worked as president of Students Islamic Movement of India for sometime and was part of the module that detonated an IED at the Sai Baba temple on November 21 , 2002 . He was arrested at Kochi International Airport by Madhya Pradesh Anti-Terrorism Squad when he returned from Saudi Arabia a month ago . The CID officials brought him here on a prisoner transit warrant in connection with the blast case . Two alleged Lashkar-e-Taiba operatives , Syed Aziz of Malakpet and Mohd . Azam of old city , who were instrumental in carrying out the explosion at the Sai Baba temple were killed in separate encounters with police later . While Aziz was killed at Rekurthy village on the outskirts of Karimnagar , Azam was shot dead while fleeing from police after being caught at Medipally in Cyberabad . OPEN'
p117
sS'injured'
p118
g96
sS'org_unorg'
p119
S'Organized'
p120
sS'O'
p121
(lp122
S'bomb blast:20'
p123
aS'explosion:47'
p124
aS'temple:53'
p125
aS'killing:55'
p126
aS'injuring:59'
p127
aS'job:78'
p128
aS'president:86'
p129
aS'detonated:102'
p130
aS'ied:104'
p131
aS'blast:153'
p132
aS'operatives:159'
p133
aS'explosion:180'
p134
aS'killed:187'
p135
aS'encounters:190'
p136
aS'shot dead:210'
p137
asS'unexpl'
p138
(lp139
g96
asS'ocassion'
p140
g96
sS'link'
p141
S'http://www.thehindu.com/todays-paper/tp-national/tp-andhrapradesh/sai-baba-temple-blast-accused-brought-to-city/article2261341.ece'
p142
sS'date'
p143
S'20-07-2011'
p144
sS'target'
p145
S'Religious Places'
p146
sS'hot_spot'
p147
S'Sai Baba Temple'
p148
sS'delivery_mod'
p149
g96
sS'delivery_met'
p150
S'Planted'
p151
sS'expl'
p152
(lp153
g96
asS'ORG'
p154
(lp155
(lp156
S'Crime Investigation Department'
p157
aS'2'
p158
aS'Others'
p159
aa(lp160
S'Students Islamic Movement of India'
p161
aS'88'
p162
aS'Accused'
p163
aa(lp164
S'Madhya Pradesh Anti-Terrorism Squad'
p165
aS'124'
p166
aS'Others'
p167
aa(lp168
S'CID'
p169
aS'139'
p170
aS'Others'
p171
aa(lp172
S'Lashkar-e-Taiba'
p173
aS'158'
p174
aS'Accused'
p175
aas.