(dp0
S'LOC'
p1
(lp2
(lp3
S'Narikkatteri'
p4
aS'13'
p5
aS'Event'
p6
aa(lp7
S'Kozhikode'
p8
aS'15'
p9
aS'Event'
p10
aa(lp11
S'Nadapuram'
p12
aS'114'
p13
aS'Neutral'
p14
aa(lp15
S'Narikkatteri'
p16
aS'206'
p17
aS'Event'
p18
aa(lp19
S'Narikkatteri'
p20
aS'409'
p21
aS'Event'
p22
aa(lp23
S'Nadapuram'
p24
aS'451'
p25
aS'Neutral'
p26
aasS'PER'
p27
(lp28
(lp29
S'V.S. Achuthanandan'
p30
aS'3'
p31
aS'Comment'
p32
aa(lp33
S'Oommen Chandy'
p34
aS'198'
p35
aS'Others'
p36
aa(lp37
S'Pinarayi Vijayan'
p38
aS'283'
p39
aS'Comment'
p40
aa(lp41
S'Vijayan'
p42
aS'295'
p43
aS'Comment'
p44
aa(lp45
S'Nayanar'
p46
aS'359'
p47
aS'Others'
p48
aa(lp49
S'Vijayan'
p50
aS'425'
p51
aS'Others'
p52
aa(lp53
S'Pinarayi Vijayan'
p54
aS'453'
p55
aS'Comment'
p56
aasS'TIM'
p57
(lp58
sS'hot_setting'
p59
S''
p60
sS'DAT'
p61
(lp62
S'Saturday:18'
p63
aS'Sunday:46'
p64
aS'2001:120'
p65
aS'Sunday:292'
p66
asS'death'
p67
g60
sS'title'
p68
S'Blast exposes conspiracy, says VS'
p69
sS'org_unorg'
p70
S'Organized'
p71
sS'terror_group'
p72
(lp73
g60
asS'content'
p74
S'Chief Minister V.S. Achuthanandan has alleged that the bomb blast incident at Narikkatteri in Kozhikode district on Saturday exposed the preparations the United Democratic Front ( UDF ) was making to instigate violence during the upcoming Assembly elections . At a press conference here on Sunday , the Chief Minister said five UDF workers were killed and three others severely injured when a bomb accidently went off at a secret bomb-making facility of the front . It shows to what extent the UDF leaders , who are in the dock for indulging in corruption and mafia operations , will go , he said . He noted that the UDF had unleashed violence at Nadapuram during the run-up to the 2001 Assembly elections and followed it up with false propaganda to influence the polls . The UDF had started large-scale bomb production as the State prepared to go for elections , he said . They are doing things to divert the attention of people from the case in which their leader is involved . The UDF is doing this on the initiative of the Indian Union Muslim League , he said . He asked Leader of the Opposition Oommen Chandy to own up responsibility for the Narikkatteri incident ( on behalf of the UDF ) and tender his apologies to the people of the State . He said the police would be strict in dealing the mischief mongers and asked people to be vigilant against the ongoing conspiracy . UDF flayed The bomb explosion clearly shows that the UDF is getting ready to sabotage free and fair verdict in the upcoming Assembly elections , Communist Party of India ( Marxist ) State secretary Pinarayi Vijayan has said . In a statement on Sunday , Mr. Vijayan demanded a police investigation into the explosion and stern action against the forces behind it . The death of five IUML workers in the explosion was a serious political issue . The CPI ( M ) leader said the IUML and UDF were indulging in violence to pin down the Left Democratic Front ( LDF ) . During the last days of the Nayanar government , they had not only launched bomb attacks , but had also spread rumours that an LDF activist had molested a housewife . They were attempting a re-enactment of the same political culture . At least in the light of the bomb explosion in the League stronghold of Narikkatteri , the UDF leadership should give up politics of violence , he added . Mr. Vijayan said the kinship between certain extremist organisations that function under the label of minorities and the Muslim League was evident in the bomb manufacturing at Nadapuram . Pinarayi Vijayan seeks strong action Terms the incident a serious political issue OPEN'
p75
sS'injured'
p76
g60
sS'det_loc'
p77
(lp78
S'India'
p79
aS'Kerala'
p80
aS'Trivandrum'
p81
aS'Kozhikode'
p82
aS'Narikkatteri in Kozhikode district'
p83
asS'O'
p84
(lp85
S'bomb blast incident:9'
p86
aS'district:16'
p87
aS'violence:33'
p88
aS'assembly:37'
p89
aS'press conference:42'
p90
aS'chief minister:49'
p91
aS'bomb:64'
p92
aS'secret bomb-making facility:70'
p93
aS'front:75'
p94
aS'extent:81'
p95
aS'dock:90'
p96
aS'corruption:94'
p97
aS'mafia:96'
p98
aS'violence:112'
p99
aS'run-up:117'
p100
aS'assembly:121'
p101
aS'propaganda:129'
p102
aS'influence:131'
p103
aS'bomb production:140'
p104
aS'state:144'
p105
aS'attention:161'
p106
aS'case:166'
p107
aS'leader:170'
p108
aS'initiative:181'
p109
aS'leader:194'
p110
aS'opposition:197'
p111
aS'responsibility:203'
p112
aS'incident:207'
p113
aS'behalf:210'
p114
aS'tender:216'
p115
aS'state:224'
p116
aS'mischief:236'
p117
aS'conspiracy:247'
p118
aS'bomb explosion:252'
p119
aS'sabotage:263'
p120
aS'verdict:267'
p121
aS'assembly:271'
p122
aS'state secretary:281'
p123
aS'statement:290'
p124
aS'investigation:299'
p125
aS'explosion:302'
p126
aS'action:305'
p127
aS'death:313'
p128
aS'explosion:320'
p129
aS'issue:325'
p130
aS'm:330'
p131
aS'leader:332'
p132
aS'violence:341'
p133
aS'pin:343'
p134
aS'nayanar government:359'
p135
aS'bomb:367'
p136
aS'spread:373'
p137
aS'ldf activist:377'
p138
aS'housewife:382'
p139
aS're-enactment:388'
p140
aS'culture:393'
p141
aS'light:399'
p142
aS'bomb explosion:402'
p143
aS'league:406'
p144
aS'league stronghold:406'
p145
aS'stronghold:407'
p146
aS'violence:419'
p147
aS'kinship:428'
p148
aS'extremist:431'
p149
aS'function:434'
p150
aS'label:437'
p151
aS'Muslim League:442'
p152
aS'bomb:448'
p153
aS'pinarayi vijayan:453'
p154
aS'action:457'
p155
aS'incident:460'
p156
asS'unexpl'
p157
(lp158
g60
asS'ocassion'
p159
g60
sS'link'
p160
S'http://www.thehindu.com/todays-paper/tp-national/tp-kerala/blast-exposes-conspiracy-says-vs/article1496810.ece'
p161
sS'date'
p162
S'28-02-2011'
p163
sS'target'
p164
g60
sS'hot_spot'
p165
g60
sS'delivery_mod'
p166
g60
sS'delivery_met'
p167
g60
sS'expl'
p168
(lp169
g60
asS'ORG'
p170
(lp171
(lp172
S'United Democratic Front'
p173
aS'23'
p174
aS'Accused'
p175
aa(lp176
S'UDF'
p177
aS'27'
p178
aS'Accused'
p179
aa(lp180
S'UDF'
p181
aS'53'
p182
aS'Accused'
p183
aS'Victim'
p184
aa(lp185
S'UDF'
p186
aS'83'
p187
aS'Accused'
p188
aa(lp189
S'UDF'
p190
aS'109'
p191
aS'Accused'
p192
aa(lp193
S'UDF'
p194
aS'136'
p195
aS'Accused'
p196
aa(lp197
S'UDF'
p198
aS'175'
p199
aS'Accused'
p200
aa(lp201
S'Indian Union Muslim League'
p202
aS'184'
p203
aS'Accused'
p204
aa(lp205
S'UDF'
p206
aS'213'
p207
aS'Accused'
p208
aa(lp209
S'UDF'
p210
aS'249'
p211
aS'Accused'
p212
aa(lp213
S'UDF'
p214
aS'258'
p215
aS'Accused'
p216
aa(lp217
S'Communist Party of India ( Marxist )'
p218
aS'274'
p219
aS'Others'
p220
aa(lp221
S'IUML'
p222
aS'316'
p223
aS'Accused'
p224
aS'Victim'
p225
aa(lp226
S'CPI ( M )'
p227
aS'328'
p228
aS'Others'
p229
aa(lp230
S'IUML'
p231
aS'335'
p232
aS'Accused'
p233
aS'Others'
p234
aa(lp235
S'UDF'
p236
aS'337'
p237
aS'Accused'
p238
aS'Others'
p239
aa(lp240
S'Left Democratic Front'
p241
aS'346'
p242
aS'Others'
p243
aa(lp244
S'LDF'
p245
aS'350'
p246
aS'Others'
p247
aa(lp248
S'LDF'
p249
aS'377'
p250
aS'Others'
p251
aa(lp252
S'UDF'
p253
aS'412'
p254
aS'Accused'
p255
aas.