(dp0
S'LOC'
p1
(lp2
(lp3
S'Karachi'
p4
aS'22'
p5
aS'Event'
p6
aa(lp7
S'Baldia Town'
p8
aS'72'
p9
aS'Event'
p10
aa(lp11
S'Defence Housing Area'
p12
aS'64'
p13
aS'Event'
p14
aasS'PER'
p15
(lp16
sS'TIM'
p17
(lp18
sS'hot_setting'
p19
S''
p20
sS'DAT'
p21
(lp22
S'Tuesday:24'
p23
asS'death'
p24
S'4'
p25
sS'title'
p26
S'Karachi blasts target Navy staff'
p27
sS'org_unorg'
p28
S'Organized'
p29
sS'terror_group'
p30
(lp31
g20
asS'content'
p32
S'Four people were killed and nearly 57 injured in two separate bomb attacks on buses ferrying naval personnel to work in Karachi on Tuesday . All four killed , including a lady doctor , were naval employees and 50 of the injured also worked for the Pakistan Navy . The two blasts took place in quick succession ; the first in the upmarket Defence Housing Area and the second in the Baldia Town neighbourhood . The bombs were planted along the regular routes of the buses and detonated by remote control . While the first bomb was packed into a motorcycle , the second was thrown into a garbage dump . No terrorist organisation had claimed responsibility for the two blasts till evening . OPEN'
p33
sS'injured'
p34
S'57'
p35
sS'det_loc'
p36
(lp37
S'Pakistan'
p38
ag20
ag20
aS'Karachi'
p39
aS'Defence Housing Area and Baldia Town neighbourhood'
p40
asS'O'
p41
(lp42
S'lady doctor:32'
p43
aS'succession:57'
p44
aS'upmarket:63'
p45
aS'neighbourhood:74'
p46
aS'control:91'
p47
aS'motorcycle:101'
p48
aS'garbage dump:109'
p49
aS'terrorist organisation:113'
p50
aS'responsibility:117'
p51
aS'separate bomb attacks:11'
p52
aS'naval personnel:17'
p53
aS'naval employees:36'
p54
aS'Baldia Town neighbourhood:72'
p55
aS'detonated:88'
p56
aS'remote control:90'
p57
aS'upmarket Defence Housing Area:63'
p58
asS'unexpl'
p59
(lp60
g20
asS'ocassion'
p61
g20
sS'link'
p62
S'http://www.thehindu.com/todays-paper/tp-international/karachi-blasts-target-navy-staff/article1771661.ece'
p63
sS'date'
p64
S'27-04-2011'
p65
sS'target'
p66
S'Police and Defence Forces'
p67
sS'hot_spot'
p68
S'Buses carrying Naval personnel'
p69
sS'delivery_mod'
p70
S'Two wheeler'
p71
sS'delivery_met'
p72
S'Planted'
p73
sS'expl'
p74
(lp75
S'IED'
p76
asS'ORG'
p77
(lp78
(lp79
S'Pakistan Navy'
p80
aS'47'
p81
aS'Victim'
p82
aas.