(dp0
S'LOC'
p1
(lp2
(lp3
S'Rangiya'
p4
aS'25'
p5
aS'Event'
p6
aa(lp7
S'Assam'
p8
aS'28'
p9
aS'Event'
p10
aa(lp11
S'Kamrup'
p12
aS'30'
p13
aS'Event'
p14
aa(lp15
S'Puri'
p16
aS'45'
p17
aS'Neutral'
p18
aa(lp19
S'Guwahati station'
p20
aS'49'
p21
aS'Neutral'
p22
aa(lp23
S'Rangiya station'
p24
aS'58'
p25
aS'Neutral'
p26
aa(lp27
S'Bhatkuchi'
p28
aS'72'
p29
aS'Event'
p30
aa(lp31
S'Jagannath temple'
p32
aS'96'
p33
aS'Neutral'
p34
aa(lp35
S'Puri'
p36
aS'99'
p37
aS'Neutral'
p38
aa(lp39
S'Bhatkuchi'
p40
aS'130'
p41
aS'Event'
p42
aa(lp43
S'Rangiya'
p44
aS'133'
p45
aS'Event'
p46
aa(lp47
S'Ghagrapar stations'
p48
aS'135'
p49
aS'Event'
p50
aasS'PER'
p51
(lp52
(lp53
S'S. Hajong'
p54
aS'101'
p55
aS'Comment'
p56
aasS'TIM'
p57
(lp58
S'8.20 p.m.:33'
p59
aS'6.45 p.m.:52'
p60
aS'8.05 p.m.:61'
p61
asS'hot_setting'
p62
S''
p63
sS'DAT'
p64
(lp65
S'Sunday:36'
p66
asS'death'
p67
g63
sS'title'
p68
S'100 injured as Puri Express derails after blast in Assam'
p69
sS'det_loc'
p70
(lp71
S'India'
p72
aS'Assam'
p73
aS'Kamrup'
p74
ag63
aS'Bhatkuchi between the Rangiya and Ghagrapar stations'
p75
asS'terror_group'
p76
(lp77
g63
asS'content'
p78
S"At least 100 passengers of 15640 Dn Puri Express were injured when four bogies derailed and four more overturned after a powerful blast near Rangiya in Lower Assam 's Kamrup district around 8.20 p.m. on Sunday . Earlier , the train , bound for Puri , departed the Guwahati station at 6.45 p.m. . It left the Rangiya station at 8.05 p.m. and the blast occurred 7 km away , at Bhatkuchi . Passengers and local residents said they heard a deafening sound just before the derailment . The injured included pilgrims bound for the Jagannath temple at Puri . S. Hajong , Chief Public Relations Officer , Northeast Frontier Railway , toldThe Hinduthat the derailment was caused due to a powerful bomb blast . The derailment occurred at Bhatkuchi between the Rangiya and Ghagrapar stations . The condition of several passengers was stated to be serious . A large crater was created on the track due to the impact of the remote-controlled blast . Train movement along the route was disrupted . No outfit has so far claimed responsibility for the blast . The four derailed bogies were just behind the engine . Shocked and traumatised injured passengers who included a number of children and women had to wait on the tracks for more than one-and-half-hour for rescue teams to reach the site and evacuate them to hospitals . Senior railway officials , accompanied by rescue teams , rushed to the spot . But before they could arrive , the local residents gave the injured first aid . Condition of several passengers said to be seriousNo outfit hasso far claimed responsibility Condition of several passengers said to be serious No outfit has so far claimed responsibility OPEN"
p79
sS'injured'
p80
g63
sS'org_unorg'
p81
S'Organized'
p82
sS'O'
p83
(lp84
S'dn puri express:7'
p85
aS'dn:7'
p86
aS'bogies derailed:14'
p87
aS'powerful blast:22'
p88
aS"lower assam 's kamrup district:27"
p89
aS'train:41'
p90
aS'blast:65'
p91
aS'derailment:87'
p92
aS'pilgrims:92'
p93
aS'chief public relations officer:104'
p94
aS'railway:111'
p95
aS'derailment:116'
p96
aS'bomb blast:123'
p97
aS'derailment:127'
p98
aS'crater:151'
p99
aS'track:156'
p100
aS'remote-controlled blast:163'
p101
aS'train movement:166'
p102
aS'outfit:175'
p103
aS'responsibility:180'
p104
aS'blast:183'
p105
aS'derailed bogies:187'
p106
aS'injured passengers:198'
p107
aS'rescue teams:219'
p108
aS'hospitals:229'
p109
aS'railway officials:232'
p110
aS'rescue teams:237'
p111
aS'first aid:257'
p112
asS'unexpl'
p113
(lp114
g63
asS'ocassion'
p115
g63
sS'link'
p116
S'http://www.thehindu.com/todays-paper/100-injured-as-puri-express-derails-after-blast-in-assam/article2217389.ece'
p117
sS'date'
p118
S'10-07-2011'
p119
sS'target'
p120
S'Public Transport'
p121
sS'hot_spot'
p122
S'Dn Puri Expre'
p123
sS'delivery_mod'
p124
g63
sS'delivery_met'
p125
g63
sS'expl'
p126
(lp127
g63
asS'ORG'
p128
(lp129
(lp130
S'Northeast Frontier Railway'
p131
aS'109'
p132
aS'Victim'
p133
aas.