(dp0
S'LOC'
p1
(lp2
(lp3
S'Bangalore'
p4
aS'76'
p5
aS'Assoc Event Location'
p6
aa(lp7
S'Bangalore'
p8
aS'88'
p9
aS'Assoc Event Location'
p10
aasS'PER'
p11
(lp12
(lp13
S'Abdul Nasir Maudany'
p14
aS'23'
p15
aS'Accused'
p16
aa(lp17
S'V. Jagannathan'
p18
aS'32'
p19
aS'Others'
p20
aa(lp21
S'Ashok Harnahalli'
p22
aS'42'
p23
aS'Others'
p24
aa(lp25
S'Maudany'
p26
aS'53'
p27
aS'Accused'
p28
aa(lp29
S'Harnahalli'
p30
aS'56'
p31
aS'Others'
p32
aa(lp33
S'Maudany'
p34
aS'59'
p35
aS'Accused'
p36
aa(lp37
S'Maudany'
p38
aS'84'
p39
aS'Accused'
p40
aa(lp41
S'Harnahalli'
p42
aS'106'
p43
aS'Accused'
p44
aa(lp45
S'Maudany'
p46
aS'120'
p47
aS'Accused'
p48
aa(lp49
S'Jagannathan'
p50
aS'123'
p51
aS'Others'
p52
aa(lp53
S'Maudany'
p54
aS'136'
p55
aS'Accused'
p56
aasS'TIM'
p57
(lp58
sS'hot_setting'
p59
S''
p60
sS'DAT'
p61
(lp62
S'Thursday:6'
p63
aS'July 2008:78'
p64
aS'Friday:146'
p65
asS'death'
p66
g60
sS'title'
p67
S"Produce phone records of Maudany's conversations with terrorists'"
p68
sS'org_unorg'
p69
S'Organized'
p70
sS'terror_group'
p71
(lp72
g60
asS'content'
p73
S'The Karnataka High Court on Thursday asked the State to furnish details of mobile phone and telephonic conversations that Kerala PDP leader Abdul Nasir Maudany allegedly had with terrorists . Justice V. Jagannathan passed the order after Advocate-General ( AG ) Ashok Harnahalli , appearing for the State , opposed bail to Maudany . Mr. Harnahalli said that Maudany had mobile phone and telephonic conversations with several accused in the serial bomb blasts that rocked Bangalore in July 2008 . He said that Maudany knew about the Bangalore blasts and that he has been arraigned as one of the accused in the case . Mr. Harnahalli said that the State had filed a 160-page objection to the petition by Maudany . Justice Jagannathan asked the State to produce the mobile phone records of conversations that Maudany supposedly had with terrorists and adjourned the case to Friday . OPEN'
p74
sS'injured'
p75
g60
sS'det_loc'
p76
(lp77
S'India'
p78
aS'Karnataka'
p79
aS'Bangalore Urban'
p80
aS'Bangalore'
p81
ag60
asS'O'
p82
(lp83
S'mobile phone:14'
p84
aS'telephonic conversations:17'
p85
aS'Kerala PDP leader:20'
p86
aS'terrorists:29'
p87
aS'Advocate-General:38'
p88
aS'opposed bail:50'
p89
aS'mobile phone:61'
p90
aS'telephonic conversations:64'
p91
aS'serial bomb blasts:71'
p92
aS'Bangalore blasts:88'
p93
aS'filed:112'
p94
aS'objection:115'
p95
aS'petition:118'
p96
aS'mobile phone records:130'
p97
aS'conversations:134'
p98
aS'terrorists:140'
p99
asS'unexpl'
p100
(lp101
g60
asS'ocassion'
p102
g60
sS'link'
p103
S'http://www.thehindu.com/todays-paper/tp-national/produce-phone-records-of-maudanys-conversations-with-terrorists/article1329006.ece'
p104
sS'date'
p105
S'11-02-2011'
p106
sS'target'
p107
g60
sS'hot_spot'
p108
g60
sS'delivery_mod'
p109
g60
sS'delivery_met'
p110
g60
sS'expl'
p111
(lp112
g60
asS'ORG'
p113
(lp114
(lp115
S'Karnataka High Court'
p116
aS'2'
p117
aS'Others'
p118
aa(lp119
S'Kerala PDP'
p120
aS'20'
p121
aS'Others'
p122
aas.