(dp0
S'LOC'
p1
(lp2
(lp3
S'Israel'
p4
aS'7'
p5
aS'Neutral'
p6
aa(lp7
S'Iran'
p8
aS'21'
p9
aS'Event'
p10
aa(lp11
S'Bid Ganeh base'
p12
aS'54'
p13
aS'Event'
p14
aa(lp15
S'U.S.'
p16
aS'97'
p17
aS'Neutral'
p18
aa(lp19
S'Israel'
p20
aS'131'
p21
aS'Neutral'
p22
aa(lp23
S'Iran'
p24
aS'202'
p25
aS'Neutral'
p26
aa(lp27
S'Tehran'
p28
aS'262'
p29
aS'Event'
p30
aa(lp31
S'Israel'
p32
aS'298'
p33
aS'Neutral'
p34
aa(lp35
S'Iran'
p36
aS'407'
p37
aS'Neutral'
p38
aa(lp39
S'Iran'
p40
aS'441'
p41
aS'Neutral'
p42
aa(lp43
S'U.S.'
p44
aS'451'
p45
aS'Neutral'
p46
aa(lp47
S'France'
p48
aS'453'
p49
aS'Neutral'
p50
aa(lp51
S'Israel'
p52
aS'459'
p53
aS'Neutral'
p54
aa(lp55
S'Iran'
p56
aS'465'
p57
aS'Neutral'
p58
aa(lp59
S'Israel'
p60
aS'513'
p61
aS'Neutral'
p62
aa(lp63
S'Iran'
p64
aS'560'
p65
aS'Neutral'
p66
aa(lp67
S'Israel'
p68
aS'568'
p69
aS'Neutral'
p70
aa(lp71
S'U.S.'
p72
aS'599'
p73
aS'Neutral'
p74
aa(lp75
S'Israel'
p76
aS'602'
p77
aS'Neutral'
p78
aa(lp79
S'Iran'
p80
aS'611'
p81
aS'Event'
p82
aa(lp83
S'south-western Iran'
p84
aS'626'
p85
aS'Assoc Event Location'
p86
aa(lp87
S'Tehran'
p88
aS'638'
p89
aS'Assoc Event Location'
p90
aa(lp91
S'Bid Ganeh base'
p92
aS'668'
p93
aS'Event'
p94
aasS'PER'
p95
(lp96
(lp97
S'Richard Silverstein'
p98
aS'99'
p99
aS'Others'
p100
aa(lp101
S'Silverstein'
p102
aS'126'
p103
aS'Others'
p104
aa(lp105
S'Hassan Moghaddam'
p106
aS'270'
p107
aS'Victim'
p108
aa(lp109
S'Ehud Barak'
p110
aS'303'
p111
aS'Comment'
p112
aa(lp113
S'Moghaddam'
p114
aS'310'
p115
aS'Victim'
p116
aa(lp117
S'Binyamin Netanyahu'
p118
aS'325'
p119
aS'Others'
p120
aa(lp121
S'Ilan Mizrahi'
p122
aS'341'
p123
aS'Comment'
p124
aa(lp125
S'Netanyahu'
p126
aS'494'
p127
aS'Others'
p128
aa(lp129
S'Barak'
p130
aS'497'
p131
aS'Others'
p132
aa(lp133
S'Mizrahi'
p134
aS'551'
p135
aS'Comment'
p136
aa(lp137
S'Masoud Ali Mohammadi'
p138
aS'644'
p139
aS'Assoc Victim'
p140
aasS'TIM'
p141
(lp142
sS'hot_setting'
p143
S''
p144
sS'DAT'
p145
(lp146
S'Monday:44'
p147
aS'Saturday:75'
p148
aS'May:316'
p149
aS'Saturday:614'
p150
aS'2010:629'
p151
aS'2011:654'
p152
asS'death'
p153
S'17'
p154
sS'title'
p155
S'Mossad linked to Iran military blast'
p156
sS'det_loc'
p157
(lp158
S'Iran'
p159
ag144
ag144
ag144
aS'Bid Ganeh base'
p160
asS'terror_group'
p161
(lp162
g144
asS'content'
p163
S"A series of news reports linking Israel 's intelligence agency the Mossad to a blast at a military facility in Iran , in which 17 people were killed and a further 15 wounded , has gained widespread coverage in the Israeli media on Monday . While Iranian officials insist the explosion at the Bid Ganeh base was accidental , caused by the movement of ammunition , claims from anonymous western and Israeli officials that Saturday 's blast was a covert Israeli operation have gained momentum . Leading Israeli daily Yediot Ahronot picked up a post by U.S. blogger Richard Silverstein claiming the Mossad had teamed up with Iranian militant group Mujahideen e-Khalq ( MEK ) to execute the alleged attack . The article quotes Mr. Silverstein 's unsubstantiated assertion that Israel 's use of the MEK for acts of espionage and terror is common knowledge among intelligence circles , ranging from fraudulent Iranian memos alleging work on nuclear trigger devices to assassinations of nuclear scientists and bombings of sensitive military installations . Leftwing broadsheet Ha'aretz also led with reports that a western intelligence source quoted in Time magazine had claimed the Mossad carried out the attack in an attempt to stall Iran 's development of a nuclear weapon . The official is said to have warned : There are more bullets in the magazine . The blast at the base , which is reported to have been a storage facility for long-range missiles , was so powerful that it was said to have been felt 50km away in the capital , Tehran . Among those killed was Major General Hassan Moghaddam , the Revolutionary Guard Commander charged with ensuring self-sufficiency in armaments , and described by Iranian media as a pioneer in Iranian missile development . Reaction Israel 's Defence Minister , Ehud Barak , responded to news of Moghaddam 's death by saying : May there be more like it . Prime Minister Binyamin Netanyahu 's office refused to comment on growing speculation of the Mossad 's involvement . Ilan Mizrahi , former head of the National Security Council and former deputy head of the Mossad , also would not be drawn into substantiating the claims : I have no idea whether this blast was accidental or whether it was sabotage . But I will say God bless those who were behind it , because the free world should be doing its best to prevent Iran from achieving nuclear military capability . A recent International Atomic Energy Agency ( IAEA ) report , based on the intelligence of 10 governments , presented images , letters and diagrams that suggested Iran was secretly working on nuclear weaponry . Both the U.S. and France have offered close co-operation with Israel , threatening increased sanctions unless Iran responds with transparency to the nuclear watchdog report . Earlier this month , the Knesset debated the bombing of Iran to prevent further nuclear development , with Mr. Netanyahu and Mr. Barak said to supporting military strikes . There is nothing in this latest IAEA report that Israel has n't known for a long time . Their arsenal of long-range missiles is also too often overlooked . I believe a military strike is an option that should be put clearly on the table , Mr. Mizrahi said . Something should be done to stop Iran . I think in the end -LSB- Israel -RSB- will stand alone . Iran 's envoy to the IAEA says any nuclear development is for peaceful means and that the material evidence against has been fabricated by the U.S. Previous incidents Israel has been linked to several previous incidents in Iran similar to Saturday 's explosion , including an explosion at a Shahab facility in south-western Iran in 2010 and a bomb attack earlier that year in Tehran , in which Iranian physicist Masoud Ali Mohammadi was killed . Guardian Newspapers Limited , 2011 Israeli media report claims the intelligence agency was behind huge blast ' at Bid Ganeh base that killed a leading Iranian missile researcher . OPEN"
p164
sS'injured'
p165
S'15'
p166
sS'org_unorg'
p167
S'Organized'
p168
sS'O'
p169
(lp170
S'series:2'
p171
aS'news:4'
p172
aS'blast:15'
p173
aS'facility:19'
p174
aS'coverage:38'
p175
aS'explosion:51'
p176
aS'movement:63'
p177
aS'ammunition:65'
p178
aS'blast:77'
p179
aS'operation:82'
p180
aS'momentum:85'
p181
aS'post:95'
p182
aS'blogger:98'
p183
aS'attack:120'
p184
aS'article:123'
p185
aS'assertion:129'
p186
aS'use:133'
p187
aS'espionage:140'
p188
aS'terror:142'
p189
aS'knowledge:145'
p190
aS'intelligence:147'
p191
aS'work:156'
p192
aS'trigger:159'
p193
aS'intelligence source:183'
p194
aS'attack:196'
p195
aS'attempt:199'
p196
aS'development:204'
p197
aS'weapon:208'
p198
aS'official:211'
p199
aS'magazine:224'
p200
aS'blast:227'
p201
aS'base:230'
p202
aS'storage facility:239'
p203
aS'capital:260'
p204
aS'revolutionary guard:274'
p205
aS'revolutionary:274'
p206
aS'guard commander:275'
p207
aS'guard:275'
p208
aS'commander:276'
p209
aS'self-sufficiency:280'
p210
aS'pioneer:291'
p211
aS'missile development:294'
p212
aS'defence minister:300'
p213
aS'news:308'
p214
aS'death:312'
p215
aS'office:328'
p216
aS'comment:331'
p217
aS'speculation:334'
p218
aS'involvement:339'
p219
aS'head:345'
p220
aS'deputy head:353'
p221
aS'idea:372'
p222
aS'blast:375'
p223
aS'sabotage:382'
p224
aS'god:388'
p225
aS'world:399'
p226
aS'capability:412'
p227
aS'report:423'
p228
aS'intelligence:428'
p229
aS'weaponry:447'
p230
aS'co-operation:457'
p231
aS'transparency:468'
p232
aS'watchdog report:472'
p233
aS'month:477'
p234
aS'knesset:480'
p235
aS'bombing:483'
p236
aS'development:490'
p237
aS'nothing:506'
p238
aS'time:520'
p239
aS'arsenal:523'
p240
aS'strike:537'
p241
aS'option:540'
p242
aS'table:548'
p243
aS'something:554'
p244
aS'end:566'
p245
aS'envoy:576'
p246
aS'iaea:579'
p247
aS'development:583'
p248
aS'material evidence:591'
p249
aS'explosion:616'
p250
aS'explosion:620'
p251
aS'facility:624'
p252
aS'bomb attack:632'
p253
aS'year:636'
p254
aS'physicist:643'
p255
aS'guardian newspapers:650'
p256
aS'guardian:650'
p257
aS'report:657'
p258
aS'intelligence agency:660'
p259
aS'blast:665'
p260
aS'missile researcher:676'
p261
asS'unexpl'
p262
(lp263
g144
asS'ocassion'
p264
g144
sS'link'
p265
S'http://www.thehindu.com/todays-paper/tp-opinion/mossad-linked-to-iran-military-blast/article2628228.ece'
p266
sS'date'
p267
S'15-11-2011'
p268
sS'target'
p269
S'Police and Defence Forces'
p270
sS'hot_spot'
p271
S'Military Facility'
p272
sS'delivery_mod'
p273
g144
sS'delivery_met'
p274
g144
sS'expl'
p275
(lp276
g144
asS'ORG'
p277
(lp278
(lp279
S'Mossad'
p280
aS'12'
p281
aS'Accused'
p282
aa(lp283
S'Yediot Ahronot'
p284
aS'90'
p285
aS'Others'
p286
aa(lp287
S'Mossad'
p288
aS'103'
p289
aS'Others'
p290
aa(lp291
S'Mujahideen e-Khalq'
p292
aS'111'
p293
aS'Accused'
p294
aa(lp295
S'MEK'
p296
aS'114'
p297
aS'Accused'
p298
aa(lp299
S'MEK'
p300
aS'136'
p301
aS'Accused'
p302
aa(lp303
S"Ha'aretz"
p304
aS'175'
p305
aS'Others'
p306
aa(lp307
S'Time magazine'
p308
aS'187'
p309
aS'Others'
p310
aa(lp311
S'Mossad'
p312
aS'192'
p313
aS'Accused'
p314
aa(lp315
S'Mossad'
p316
aS'337'
p317
aS'Accused'
p318
aa(lp319
S'National Security Council'
p320
aS'348'
p321
aS'Others'
p322
aa(lp323
S'Mossad'
p324
aS'357'
p325
aS'Others'
p326
aa(lp327
S'International Atomic Energy Agency'
p328
aS'416'
p329
aS'Others'
p330
aa(lp331
S'IAEA'
p332
aS'421'
p333
aS'Others'
p334
aa(lp335
S'IAEA'
p336
aS'510'
p337
aS'Others'
p338
aas.