(dp0
S'LOC'
p1
(lp2
(lp3
S'Nowshera'
p4
aS'21'
p5
aS'Event'
p6
aa(lp7
S'Khyber-Pukhtoonkhwa province'
p8
aS'25'
p9
aS'Event'
p10
aa(lp11
S'Pakistan'
p12
aS'33'
p13
aS'Event'
p14
aasS'PER'
p15
(lp16
(lp17
S'Anita Joshua'
p18
aS'45'
p19
aS'Others'
p20
aasS'TIM'
p21
(lp22
sS'hot_setting'
p23
S''
p24
sS'DAT'
p25
(lp26
S'Sunday night : 28'
p27
asS'death'
p28
S'10'
p29
sS'title'
p30
S'10 killed in blastin Pakistan'
p31
sS'org_unorg'
p32
S'ORGANISED'
p33
sS'terror_group'
p34
(lp35
S'TEHREEK-E-TALIBAN PAKISTAN'
p36
asS'content'
p37
S'At least 10 people were killed and double the number injured in a bomb blast at a bakery in the Nowshera area of the Khyber-Pukhtoonkhwa province on Sunday night . The Tehreek-e-Taliban Pakistan claimed responsibility for the blast . More casualties are feared . Anita Joshua OPEN'
p38
sS'injured'
p39
S'20'
p40
sS'det_loc'
p41
(lp42
S'Pakistan'
p43
ag24
ag24
aS'Khyber-Pukhtoonkhwa'
p44
ag24
asS'O'
p45
(lp46
S'injured:11'
p47
aS'bomb blast:14'
p48
aS'bakery:18'
p49
aS'tehreek-e-taliban pakistan:32'
p50
aS'blast:38'
p51
aS'casualties:41'
p52
aS'feared:43'
p53
asS'unexpl'
p54
(lp55
g24
asS'ocassion'
p56
g24
sS'link'
p57
S'http://www.thehindu.com/todays-paper/10-killed-in-blastin-pakistan/article2080679.ece'
p58
sS'date'
p59
S'05-06-2011'
p60
sS'target'
p61
g24
sS'hot_spot'
p62
g24
sS'delivery_mod'
p63
g24
sS'delivery_met'
p64
S'PLANTED'
p65
sS'expl'
p66
(lp67
g24
asS'ORG'
p68
(lp69
(lp70
S'Tehreek-e-Taliban Pakistan'
p71
aS'32'
p72
aS'Accused'
p73
aS'Others'
p74
aas.