(dp0
S'LOC'
p1
(lp2
(lp3
S'Ajmer'
p4
aS'28'
p5
aS'Event'
p6
aa(lp7
S'Malegaon'
p8
aS'213'
p9
aS'Assoc Event Location'
p10
aa(lp11
S'Hyderabad'
p12
aS'216'
p13
aS'Assoc Event Location'
p14
aa(lp15
S'Rajasthan'
p16
aS'364'
p17
aS'Neutral'
p18
aa(lp19
S'Jaipur'
p20
aS'386'
p21
aS'Neutral'
p22
aa(lp23
S'Haridwar'
p24
aS'468'
p25
aS'Accused Location'
p26
aa(lp27
S'Uttarakhand'
p28
aS'470'
p29
aS'Accused Location'
p30
aa(lp31
S'Ajmer'
p32
aS'481'
p33
aS'Neutral'
p34
aasS'PER'
p35
(lp36
(lp37
S'Chandra Narain Mathur'
p38
aS'61'
p39
aa(lp40
S'Swami Aseemanand'
p41
aS'13'
p42
aS'Accused'
p43
aa(lp44
S'Nabh Kumar Sarkar'
p45
aS'16'
p46
aS'Accused'
p47
aa(lp48
S'Aseemanand'
p49
aS'65'
p50
aS'Accused'
p51
aa(lp52
S'Bharat Riteshwar'
p53
aS'82'
p54
aS'Assoc Accused'
p55
aa(lp56
S'Aseemanand'
p57
aS'115'
p58
aS'Accused'
p59
aa(lp60
S'J. S. Rana'
p61
aS'118'
p62
aS'Others'
p63
aa(lp64
S'Arjun Ambala'
p65
aS'161'
p66
aS'Others'
p67
aa(lp68
S'Aseemanand'
p69
aS'199'
p70
aS'Accused'
p71
aa(lp72
S'Ajmer'
p73
aS'253'
p74
aS'Others'
p75
aa(lp76
S'Harshad Solanki'
p77
aS'376'
p78
aS'Assoc Accused'
p79
aa(lp80
S'Mukesh Wasani'
p81
aS'379'
p82
aS'Assoc Accused'
p83
aa(lp84
S'Aseemanand'
p85
aS'412'
p86
aS'Accused'
p87
aa(lp88
S'Bharat Riteshwar'
p89
aS'452'
p90
aS'Assoc Accused'
p91
aa(lp92
S'Aseemanand'
p93
aS'466'
p94
aS'Accused'
p95
aa(lp96
S'Khwaja Moinuddin Chishti'
p97
aS'507'
p98
aS'Others'
p99
aasS'TIM'
p100
(lp101
sS'hot_setting'
p102
S''
p103
sS'DAT'
p104
(lp105
S'Saturday:9'
p106
aS'2007:27'
p107
aS'May 14:70'
p108
aS'April:324'
p109
aS'April 6:367'
p110
aS'November 2010:473'
p111
aS'January:487'
p112
aS'October 11:498'
p113
aS'2007:501'
p114
asS'death'
p115
S'3'
p116
sS'title'
p117
S'Aseemanand refused bail by court'
p118
sS'org_unorg'
p119
g103
sS'terror_group'
p120
(lp121
g103
asS'content'
p122
S"The National Investigation Agency Special Court here on Saturday denied bail to Swami Aseemanand alias Nabh Kumar Sarkar , one of the prime accused in the 2007 Ajmer dargah blast case , observing that the charges against him were serious in nature and that he was arraigned in at least three other cases of bomb explosions . NIA Special Judge Chandra Narain Mathur extended Aseemanand 's judicial custody till May 14 , when the case against him and his alleged accomplice Bharat Riteshwar comes up for further hearing . However , the judge , in his eight-page order , did not express any opinion on the merits of the case . Seeking bail , Aseemanand 's counsel J. S. Rana cited Section 167 ( 2 ) of the Criminal Procedure Code , which says a person can not be kept in custody for more than 90 days without a charge sheet being filed . No hasty probe ' NIA counsel Arjun Ambala , opposing the bail application , said that since the matter involved national security , investigation into the crime as well as the conspiracy behind it could not be done hastily . The judge said since Aseemanand was allegedly involved also in the conspiracy for carrying out blasts in the Malegaon mosque , Hyderabad 's Mecca Masjid and on the Samjhauta Express train , he could not be given the advantage of bail at this stage . This is a case of very serious nature . The court said the Ajmer Chief Judicial Magistrate , before whom the case had been pending before it was transferred to the designated NIA Judge here , could not indefinitely extend the judicial custody of an accused facing this kind of charge . Under the NIA Act , an order in a case assigned to the Special Court can be passed by that court alone . The case was transferred in the last week of April following a notification issued for designating the CBI Special Court to hear the cases under the NIA Act as well . The NIA , which took over the probe into the dargah blast from the Anti-Terrorism Squad of the Rajasthan Police on April 6 , has already chargesheeted two other accused Harshad Solanki and Mukesh Wasani , now lodged in the Jaipur Central Jail . The court is yet to pass an order on an NIA application seeking extension of time for filing the charge sheet against Aseemanand to a maximum of 180 days from the day of arrest on the ground that a case under the Unlawful Activities Prevention Act , 1967 , has also been registered against him . The deadline for charge sheet against Bharat Riteshwar was extended earlier this week . Though the CBI arrested the 59-year-old Aseemanand from Haridwar , Uttarakhand , in November 2010 , he was arrested in the Ajmer dargah blast case only in January this year after his confession about the conspiracy . The October 11 , 2007 explosion at the dargah of Khwaja Moinuddin Chishti left three persons dead and 17 injured . OPEN"
p123
sS'injured'
p124
S'17'
p125
sS'det_loc'
p126
(lp127
S'India'
p128
aS'Rajasthan'
p129
ag103
ag103
ag103
asS'O'
p130
(lp131
S'denied bail:10'
p132
aS'prime accused:23'
p133
aS'ajmer dargah blast case:28'
p134
aS'charges:36'
p135
aS'serious:40'
p136
aS'arraigned:47'
p137
aS'bomb explosions:55'
p138
aS"aseemanand 's judicial custody:65"
p139
aS'hearing:88'
p140
aS'eight-page order:97'
p141
aS'bail:113'
p142
aS'section 167 ( 2 ):122'
p143
aS'criminal procedure code:129'
p144
aS'custody:142'
p145
aS'90 days:146'
p146
aS'bail:166'
p147
aS'investigation:178'
p148
aS'conspiracy:186'
p149
aS'blasts:210'
p150
aS'malegaon mosque:213'
p151
aS'mecca masjid:218'
p152
aS'samjhauta express train:223'
p153
aS'bail:235'
p154
aS'ajmer chief judicial magistrate:253'
p155
aS'transferred:268'
p156
aS'judicial custody:281'
p157
aS'accused:285'
p158
aS'special court:305'
p159
aS'transferred:318'
p160
aS'notification:327'
p161
aS'cbi special court:332'
p162
aS'dargah blast:356'
p163
aS'jaipur central jail:386'
p164
aS'extension:403'
p165
aS'180 days:417'
p166
aS'unlawful activities prevention act , 1967:432'
p167
aS'registered:442'
p168
aS'deadline:447'
p169
aS'charge sheet:449'
p170
aS'ajmer dargah blast case:481'
p171
aS'confession:492'
p172
aS'conspiracy:495'
p173
aS'dargah of khwaja moinuddin chishti:505'
p174
asS'unexpl'
p175
(lp176
g103
asS'ocassion'
p177
g103
sS'link'
p178
S'http://www.thehindu.com/todays-paper/tp-national/tp-newdelhi/aseemanand-refused-bail-by-court/article2000784.ece'
p179
sS'date'
p180
S'11-10-2007'
p181
sS'target'
p182
g103
sS'hot_spot'
p183
g103
sS'delivery_mod'
p184
g103
sS'delivery_met'
p185
g103
sS'expl'
p186
(lp187
g103
asS'ORG'
p188
(lp189
(lp190
S'National Investigation Agency Special Court'
p191
aS'2'
p192
aS'Others'
p193
aa(lp194
S'NIA'
p195
aS'58'
p196
aS'Others'
p197
aa(lp198
S'NIA'
p199
aS'159'
p200
aS'Others'
p201
aa(lp202
S'NIA'
p203
aS'272'
p204
aS'Others'
p205
aa(lp206
S'NIA'
p207
aS'294'
p208
aS'Others'
p209
aa(lp210
S'CBI'
p211
aS'332'
p212
aS'Others'
p213
aa(lp214
S'NIA'
p215
aS'341'
p216
aS'Others'
p217
aa(lp218
S'NIA'
p219
aS'347'
p220
aS'Others'
p221
aa(lp222
S'Anti-Terrorism Squad'
p223
aS'360'
p224
aS'Others'
p225
aa(lp226
S'NIA'
p227
aS'400'
p228
aS'Others'
p229
aa(lp230
S'CBI'
p231
aS'462'
p232
aS'Others'
p233
aas.