(dp0
S'LOC'
p1
(lp2
(lp3
S'Kodagu'
p4
aS'37'
p5
aS'Neutral'
p6
aa(lp7
S'Kodagu'
p8
aS'63'
p9
aS'Neutral'
p10
aa(lp11
S'Bangalore'
p12
aS'88'
p13
aS'Assoc Event Location'
p14
aasS'PER'
p15
(lp16
(lp17
S'Shahina K.K'
p18
aS'11'
p19
aS'Accused'
p20
aa(lp21
S'Abdul Nasir Maudani'
p22
aS'76'
p23
aS'Assoc Accused'
p24
aasS'TIM'
p25
(lp26
sS'hot_setting'
p27
S''
p28
sS'DAT'
p29
(lp30
S'Thursday:6'
p31
aS'July 25 , 2008 : 84'
p32
asS'death'
p33
g28
sS'title'
p34
S'Journalist gets anticipatory bail'
p35
sS'det_loc'
p36
(lp37
S'India'
p38
aS'Karnataka'
p39
aS'Kodagu'
p40
ag28
ag28
asS'terror_group'
p41
(lp42
g28
asS'content'
p43
S'The Karnataka High Court on Thursday granted anticipatory bail to Shahina K.K , a journalist who was with the magazine Tehelka , in connection with two separate complaints registered against her by the Siddapura police in Kodagu district . The police had booked two separate cases against her based on complaints that she along with four men had visited some places in Kodagu district and had allegedly threatened two persons not to give evidence against Abdul Nasir Maudani , an accused in the July 25 , 2008 Bangalore serial bomb blasts case . She had approached the High Court after the Madikeri district court refused to grant her anticipatory bail . Staff Reporter OPEN'
p44
sS'injured'
p45
g28
sS'org_unorg'
p46
S'Organized'
p47
sS'O'
p48
(lp49
S'bail:9'
p50
aS'journalist:15'
p51
aS'magazine tehelka:20'
p52
aS'complaints:28'
p53
aS'complaints:51'
p54
aS'threatened:68'
p55
aS'evidence:74'
p56
aS'bangalore serial bomb blasts case:88'
p57
aS'anticipatory bail:109'
p58
asS'unexpl'
p59
(lp60
g28
asS'ocassion'
p61
g28
sS'link'
p62
S'http://www.thehindu.com/todays-paper/tp-national/tp-karnataka/journalist-gets-anticipatory-bail/article2283487.ece'
p63
sS'date'
p64
S'22-07-2011'
p65
sS'target'
p66
g28
sS'hot_spot'
p67
g28
sS'delivery_mod'
p68
g28
sS'delivery_met'
p69
g28
sS'expl'
p70
(lp71
g28
asS'ORG'
p72
(lp73
(lp74
S'Karnataka High Court'
p75
aS'2'
p76
aS'Others'
p77
aa(lp78
S'Tehelka'
p79
aS'21'
p80
aS'Others'
p81
aa(lp82
S'Siddapura police'
p83
aS'34'
p84
aS'Others'
p85
aa(lp86
S'High Court'
p87
aS'98'
p88
aS'Others'
p89
aa(lp90
S'Madikeri district court'
p91
aS'102'
p92
aS'Others'
p93
aas.