(dp0
S'LOC'
p1
(lp2
(lp3
S'Mumbai'
p4
aS'7'
p5
aS'Event'
p6
aa(lp7
S'Zaveri Bazar'
p8
aS'148'
p9
aS'Victim Location'
p10
aa(lp11
S'Zaveri Bazaar'
p12
aS'169'
p13
aS'Victim Location'
p14
aa(lp15
S'Khau Gali'
p16
aS'181'
p17
aS'Event'
p18
aasS'PER'
p19
(lp20
(lp21
S'Sripal Mujpura'
p22
aS'40'
p23
aS'Victim'
p24
aa(lp25
S'Sundar Singh Bisht'
p26
aS'55'
p27
aS'Victim'
p28
aa(lp29
S'Ajay Sovram Verma'
p30
aS'73'
p31
aS'Victim'
p32
aa(lp33
S'Ajay'
p34
aS'89'
p35
aS'Victim'
p36
aa(lp37
S'Sundar'
p38
aS'91'
p39
aS'Victim'
p40
aa(lp41
S'Sundar'
p42
aS'137'
p43
aS'Victim'
p44
aasS'TIM'
p45
(lp46
S'5.45 p.m.:86'
p47
aS'10.20 a.m.:154'
p48
asS'hot_setting'
p49
S''
p50
sS'DAT'
p51
(lp52
S'Friday:31'
p53
aS'Saturday:38'
p54
aS'Friday:52'
p55
aS'Friday night:52'
p56
aS'Saturday:70'
p57
aS'1993:165'
p58
aS'2003:167'
p59
asS'death'
p60
S'23'
p61
sS'title'
p62
S'Mumbai blasts death toll goes up to 23'
p63
sS'org_unorg'
p64
S'Organized'
p65
sS'terror_group'
p66
(lp67
g50
asS'content'
p68
S"The death toll in the 13/7 Mumbai triple blasts has gone up to 23 with three more injured dying in a span of 24 hours . While one died on Friday night , two passed away on Saturday While Sripal Mujpura ( 35 ) died due to extensive brain injury on Friday night , Sundar Singh Bisht ( 30 ) passed away after he suffered a cardio-respiratory arrest on Saturday morning . Ajay Sovram Verma ( 30 ) died due to multiple organ failure around 5.45 p.m. Both Ajay and Sundar passed away at J.J. Hospital here . Six more critical Six more victims , critically injured , still lie in the hospital 's Critical Care Unit ( CCU ) on a thin string of hope as the doctors try their best to save them . Sundar , who was an attendant at a jewellery shop in Zaveri Bazar , passed away at 10.20 a.m. . He had escaped two previous bomb blasts in 1993 and 2003 in Zaveri Bazaar . This time he had gone to eat snacks in Khau Gali with three friends when the bomb exploded . OPEN"
p69
sS'injured'
p70
g50
sS'det_loc'
p71
(lp72
S'India'
p73
aS'Maharashtra'
p74
aS'Mumbai-City'
p75
aS'Mumbai'
p76
ag50
asS'O'
p77
(lp78
S'death toll:2'
p79
aS'13/7 mumbai triple blasts:6'
p80
aS'injured:18'
p81
aS'died:29'
p82
aS'died:45'
p83
aS'brain injury:49'
p84
aS'cardio-respiratory arrest:67'
p85
aS'organ failure:83'
p86
aS'injured:107'
p87
aS'hospital:113'
p88
aS'critical care unit:115'
p89
aS'ccu:119'
p90
aS'attendant:142'
p91
aS'jewellery shop:145'
p92
aS'bomb blasts:162'
p93
aS'bomb:188'
p94
asS'unexpl'
p95
(lp96
g50
asS'ocassion'
p97
g50
sS'link'
p98
S'http://www.thehindu.com/todays-paper/mumbai-blasts-death-toll-goes-up-to-23/article2289666.ece'
p99
sS'date'
p100
S'24-07-2011'
p101
sS'target'
p102
g50
sS'hot_spot'
p103
g50
sS'delivery_mod'
p104
g50
sS'delivery_met'
p105
g50
sS'expl'
p106
(lp107
g50
asS'ORG'
p108
(lp109
(lp110
S'J.J. Hospital'
p111
aS'95'
p112
aS'Others'
p113
aas.