(dp0
S'LOC'
p1
(lp2
(lp3
S'Bihar'
p4
aS'10'
p5
aS'Event'
p6
aa(lp7
S'Aurangabad'
p8
aS'12'
p9
aS'Event'
p10
aa(lp11
S'Tetrain'
p12
aS'27'
p13
aS'Event'
p14
aa(lp15
S'Deo'
p16
aS'31'
p17
aS'Event'
p18
aa(lp19
S'Yadupur'
p20
aS'74'
p21
aS'Assoc Event Location'
p22
aasS'PER'
p23
(lp24
sS'TIM'
p25
(lp26
sS'hot_setting'
p27
S''
p28
sS'DAT'
p29
(lp30
S'Thursday:45'
p31
asS'death'
p32
g28
sS'title'
p33
S'Maoists blast school in Aurangabad'
p34
sS'det_loc'
p35
(lp36
S'India'
p37
aS'Bihar'
p38
aS'Aurangabad'
p39
ag28
aS'Tetrain village'
p40
asS'terror_group'
p41
(lp42
S'Maoist Communist Centre (MCC)'
p43
asS'content'
p44
S"Maoists blasted a state-run school at a village in Bihar 's Aurangabad district , the police said . Over 50 ultras surrounded the school building in Tetrain village in the Deo police station area and triggered a dynamite blast to blow it up on Thursday night , they said . Three rooms of the building were destroyed in the blast , they said . A powerful bomb was also recovered from the adjoining Yadupur village , where the Naxalites blew up a school building last year . Raids are on in the area to nab the ultras . PTI OPEN"
p45
sS'injured'
p46
g28
sS'org_unorg'
p47
S'Organized'
p48
sS'O'
p49
(lp50
S'school:5'
p51
aS'village:8'
p52
aS'ultras:21'
p53
aS'school building:24'
p54
aS'tetrain village:27'
p55
aS'deo police station area:31'
p56
aS'dynamite blast:38'
p57
aS'blow:41'
p58
aS'blast:60'
p59
aS'powerful bomb:66'
p60
aS'yadupur village:74'
p61
aS'school building:83'
p62
aS'raids:88'
p63
asS'unexpl'
p64
(lp65
g28
asS'ocassion'
p66
g28
sS'link'
p67
S'http://www.thehindu.com/todays-paper/maoists-blast-school-in-aurangabad/article1572863.ece'
p68
sS'date'
p69
S'26-03-2011'
p70
sS'target'
p71
S'Educational Institution'
p72
sS'hot_spot'
p73
S'School'
p74
sS'delivery_mod'
p75
S'Human'
p76
sS'delivery_met'
p77
S'Planted'
p78
sS'expl'
p79
(lp80
S'Dynamite'
p81
asS'ORG'
p82
(lp83
(lp84
S'Maoists'
p85
aS'1'
p86
aS'Accused'
p87
aa(lp88
S'Naxalites'
p89
aS'79'
p90
aS'Assoc Accused'
p91
aas.