(dp0
S'LOC'
p1
(lp2
(lp3
S'Bangalore'
p4
aS'101'
p5
aS'Assoc Event Location'
p6
aa(lp7
S'Coimbatore'
p8
aS'118'
p9
aS'Event'
p10
aa(lp11
S'Bangalore'
p12
aS'149'
p13
aS'Assoc Event Location'
p14
aa(lp15
S'Coimbatore'
p16
aS'186'
p17
aS'Event'
p18
aa(lp19
S'Coimbatore'
p20
aS'215'
p21
aS'Event'
p22
aa(lp23
S'Coimbatore'
p24
aS'256'
p25
aS'Event'
p26
aa(lp27
S'Bangalore'
p28
aS'306'
p29
aS'Assoc Event Location'
p30
aa(lp31
S'Coimbatore'
p32
aS'320'
p33
aS'Event'
p34
aasS'PER'
p35
(lp36
(lp37
S'Arunachalam'
p38
aS'7'
p39
aS'Others'
p40
aa(lp41
S'Abdul Nasser Maudhany'
p42
aS'42'
p43
aS'Accused'
p44
aa(lp45
S'Maudhany'
p46
aS'83'
p47
aS'Accused'
p48
aa(lp49
S'Maudhany'
p50
aS'143'
p51
aS'Accused'
p52
aa(lp53
S'Maudhany'
p54
aS'251'
p55
aS'Accused'
p56
aa(lp57
S'Maudhany'
p58
aS'300'
p59
aS'Accused'
p60
aasS'TIM'
p61
(lp62
S'4 p.m.:26'
p63
asS'hot_setting'
p64
S''
p65
sS'DAT'
p66
(lp67
S'Monday:9'
p68
aS'October 29:29'
p69
aS'December 30 , 2002 : 65'
p70
aS'October 29:188'
p71
asS'death'
p72
g65
sS'title'
p73
S'SIT gets time to produce Maudhany'
p74
sS'det_loc'
p75
(lp76
S'India'
p77
aS'Tamil Nadu'
p78
aS'Coimbatore'
p79
aS'Coimbatore'
p80
ag65
asS'terror_group'
p81
(lp82
g65
asS'content'
p83
S"Judicial Magistrate III ( in-charge ) Arunachalam on Monday granted the Special Investigation Team ( SIT ) of the State Crime Branch CID time till 4 p.m. on October 29 to produce Kerala-based People 's Democratic Party ( PDP ) leader Abdul Nasser Maudhany . The case relates to the planting of a bomb inside a telephone booth at the Coimbatore Press Club on December 30 , 2002 . The SIT had obtained a production warrant from the Coimbatore court against Mr. Maudhany and formally recorded his arrest in the Bangalore prison where he is lodged in connection with the Bangalore bomb blasts case . It had also obtained a Prisoner Transit Warrant to bring him to Coimbatore . Subsequently , it encountered problems in bringing the PDP leader here . SIT sources said that initially , the issue was that Mr. Maudhany 's presence was needed in Bangalore for the blasts case trial . Then arose the question of who should provide escort Karnataka police or Tamil Nadu police . It stood resolved now with the Tamil Nadu Police tasked with bringing him to Coimbatore on October 29 after their election bandobust duty is completed . Citing his health condition , the PDP leader is said to have expressed inability to travel to Coimbatore either by train or road . The issue of bringing him by flight with police escort has to be decided by the Tamil Nadu government , the sources said . The idea of producing Mr. Maudhany before the magistrate in Coimbatore through videoconferencing was not found to be legally permissible . The sources pointed out that the law mandated that the accused be produced in person for the first time in the case . Videoconferencing could be resorted to only for remand extension . Maudhany lodged in Bangalore prison in Bangalore bomb blast case Tamil Nadu Police entrusted with task of bringing him to Coimbatore OPEN"
p84
sS'injured'
p85
g65
sS'org_unorg'
p86
S'Organized'
p87
sS'O'
p88
(lp89
S'judicial magistrate:1'
p90
aS'state crime branch:20'
p91
aS"kerala-based people 's democratic party:33"
p92
aS'bomb:54'
p93
aS'telephone booth:57'
p94
aS'production warrant:75'
p95
aS'arrest:88'
p96
aS'bangalore bomb blasts case:101'
p97
aS'bomb blasts:102'
p98
aS'prisoner transit warrant:111'
p99
aS'pdp leader:128'
p100
aS'maudhany :143'
p101
aS'case trial:153'
p102
aS'escort:164'
p103
aS'pdp leader:204'
p104
aS'travel:213'
p105
aS'train:218'
p106
aS'road:220'
p107
aS'flight:228'
p108
aS'escort:231'
p109
aS'idea:247'
p110
aS'magistrate:254'
p111
aS'videoconferencing:258'
p112
aS'videoconferencing:290'
p113
aS'remand extension:297'
p114
aS'bangalore bomb blast case:306'
p115
aS'bomb blast:307'
p116
aS'task:315'
p117
asS'unexpl'
p118
(lp119
g65
asS'ocassion'
p120
g65
sS'link'
p121
S'http://www.thehindu.com/todays-paper/tp-national/tp-tamilnadu/sit-gets-time-to-produce-maudhany/article2510744.ece'
p122
sS'date'
p123
S'04-10-2011'
p124
sS'target'
p125
S'Public Organization'
p126
sS'hot_spot'
p127
S'Coimbatore Press Club'
p128
sS'delivery_mod'
p129
g65
sS'delivery_met'
p130
g65
sS'expl'
p131
(lp132
g65
asS'ORG'
p133
(lp134
(lp135
S'Special Investigation Team'
p136
aS'12'
p137
aS'Others'
p138
aa(lp139
S'SIT'
p140
aS'16'
p141
aS'Others'
p142
aa(lp143
S'CID'
p144
aS'23'
p145
aS'Others'
p146
aa(lp147
S"People 's Democratic Party"
p148
aS'34'
p149
aS'Others'
p150
aa(lp151
S'PDP'
p152
aS'39'
p153
aS'Others'
p154
aa(lp155
S'Coimbatore Press Club'
p156
aS'61'
p157
aS'Victim'
p158
aa(lp159
S'SIT'
p160
aS'71'
p161
aS'Others'
p162
aa(lp163
S'Coimbatore court'
p164
aS'79'
p165
aS'Others'
p166
aa(lp167
S'Bangalore prison'
p168
aS'91'
p169
aS'Others'
p170
aa(lp171
S'PDP'
p172
aS'128'
p173
aS'Others'
p174
aa(lp175
S'SIT'
p176
aS'132'
p177
aS'Others'
p178
aa(lp179
S'Karnataka police'
p180
aS'165'
p181
aS'Others'
p182
aa(lp183
S'Tamil Nadu police'
p184
aS'168'
p185
aS'Others'
p186
aa(lp187
S'Tamil Nadu Police'
p188
aS'178'
p189
aS'Others'
p190
aa(lp191
S'PDP'
p192
aS'204'
p193
aS'Others'
p194
aa(lp195
S'Tamil Nadu government'
p196
aS'238'
p197
aS'Others'
p198
aa(lp199
S'Bangalore prison'
p200
aS'303'
p201
aS'Others'
p202
aa(lp203
S'Tamil Nadu Police'
p204
aS'310'
p205
aS'Others'
p206
aas.