(dp0
S'LOC'
p1
(lp2
(lp3
S'Latehar'
p4
aS'20'
p5
aS'Event'
p6
aa(lp7
S'Cone'
p8
aS'23'
p9
aS'Event'
p10
aa(lp11
S'Ranchi'
p12
aS'144'
p13
aS'Neutral'
p14
aa(lp15
S'Latehar'
p16
aS'182'
p17
aS'Assoc Event Location'
p18
aa(lp19
S'Singhbhum'
p20
aS'202'
p21
aS'Assoc Event Location'
p22
aasS'PER'
p23
(lp24
(lp25
S'B. K. Sharma'
p26
aS'78'
p27
aS'Comment'
p28
aa(lp29
S'Sharma'
p30
aS'165'
p31
aS'Comment'
p32
aasS'TIM'
p33
(lp34
sS'hot_setting'
p35
S''
p36
sS'DAT'
p37
(lp38
S'Tuesday:30'
p39
aS'July/August:205'
p40
asS'death'
p41
g36
sS'title'
p42
S'Seven cops injured in Maoist attack'
p43
sS'org_unorg'
p44
S'Organized'
p45
sS'terror_group'
p46
(lp47
S'Maoist Communist Centre (MCC)'
p48
asS'content'
p49
S"Seven policemen were injured as Maoists tried to blow up a make-shift camp housing about a hundred personnel in Latehar district 's Cone village in the wee hours of Tuesday . After midnight , the rebels attacked the camp by triggering a landmine blast , damaging a portion of wall of a primary school building where the CRPF , Jaguar ' and district police personnel had taken shelter overnight , Deputy Inspector-General of Police ( CRPF ) B. K. Sharma told reporters here . The landmine was planted by the Maoists before the police reached the school . Jolted by the blast , the security personnel took position swiftly to retaliate the Maoist challenge with about thousand bullets exchanged till 4 am . Seven security personnel were injured in the wall collapse with four shifted to the Rajendra Institute of Medical Sciences in Ranchi . In all , 13 grenades/landmines and three petrol bombs were recovered from the spot after the encounter , Mr. Sharma said . The Maoist attack came days after the security forces launched Operation Prahar ' in Latehar district to take on the red challenge after successful operation against the ultras in the West and the East Singhbhum districts in July/August . - PTI OPEN"
p50
sS'injured'
p51
S'7'
p52
sS'det_loc'
p53
(lp54
S'India'
p55
aS'Jharkhand'
p56
aS'Latehar'
p57
ag36
aS'Cone village'
p58
asS'O'
p59
(lp60
S'injured:4'
p61
aS'make-shift camp:12'
p62
aS'rebels attacked:36'
p63
aS'camp:39'
p64
aS'landmine blast:43'
p65
aS'school building:54'
p66
aS'jaguar:60'
p67
aS'deputy inspector-general of police:71'
p68
aS'landmine:86'
p69
aS'school:97'
p70
aS'blast:102'
p71
aS'maoist challenge:113'
p72
aS'bullets exchanged:118'
p73
aS'injured:128'
p74
aS'wall collapse:131'
p75
aS'grenades/landmines:150'
p76
aS'petrol bombs:153'
p77
aS'encounter:162'
p78
aS'attack:170'
p79
aS'operation prahar:178'
p80
aS'ultras:195'
p81
aS'west and the east singhbhum districts:198'
p82
asS'unexpl'
p83
(lp84
g36
asS'ocassion'
p85
g36
sS'link'
p86
S'http://www.thehindu.com/todays-paper/tp-national/tp-newdelhi/seven-cops-injured-in-maoist-attack/article2610510.ece'
p87
sS'date'
p88
S'08-11-2011'
p89
sS'target'
p90
S'Police and Defence Forces'
p91
sS'hot_spot'
p92
S'make-shift camp'
p93
sS'delivery_mod'
p94
g36
sS'delivery_met'
p95
S'Planted'
p96
sS'expl'
p97
(lp98
S'LandMine'
p99
asS'ORG'
p100
(lp101
(lp102
S'Maoists'
p103
aS'6'
p104
aS'Accused'
p105
aa(lp106
S'CRPF'
p107
aS'58'
p108
aS'Victim'
p109
aa(lp110
S'CRPF'
p111
aS'76'
p112
aS'Victim'
p113
aa(lp114
S'Maoists'
p115
aS'91'
p116
aS'Accused'
p117
aa(lp118
S'Maoist'
p119
aS'113'
p120
aS'Accused'
p121
aa(lp122
S'Rajendra Institute of Medical Sciences'
p123
aS'138'
p124
aS'Others'
p125
aa(lp126
S'Maoist'
p127
aS'169'
p128
aS'Accused'
p129
aas.