(dp0
S'LOC'
p1
(lp2
(lp3
S'Padmanabhpur'
p4
aS'3'
p5
aS'Event'
p6
aa(lp7
S'Berhampur'
p8
aS'15'
p9
aS'Event'
p10
aa(lp11
S'Padmanabhpur market'
p12
aS'110'
p13
aS'Event'
p14
aa(lp15
S'Chikiti-Digapahandi road'
p16
aS'189'
p17
aS'Neutral'
p18
aa(lp19
S'Padmanabhpur'
p20
aS'212'
p21
aS'Event'
p22
aasS'PER'
p23
(lp24
(lp25
S'Shefeen Ahmed K.'
p26
aS'22'
p27
aS'Others'
p28
aa(lp29
S'K.Venkat Narayana'
p30
aS'65'
p31
aS'Others'
p32
aa(lp33
S'Narayana'
p34
aS'127'
p35
aS'Comment'
p36
aa(lp37
S'Narayana'
p38
aS'154'
p39
aS'Comment'
p40
aasS'TIM'
p41
(lp42
S'3 p.m.:192'
p43
asS'hot_setting'
p44
S''
p45
sS'DAT'
p46
(lp47
S'Monday:26'
p48
aS'Sunday:98'
p49
aS'Monday:139'
p50
aS'Sunday:163'
p51
aS'Sunday:183'
p52
asS'death'
p53
g45
sS'title'
p54
S"Traders' plea to police official"
p55
sS'org_unorg'
p56
S'Organized'
p57
sS'terror_group'
p58
(lp59
S'Miscreants,Dacoits & Smuggler Gang'
p60
asS'content'
p61
S"Traders of Padmanabhpur village under Digapahandi police station under Berhampur police district met the Berhampur Superintendent of Police ( SP ) Shefeen Ahmed K. on Monday demanding strict action against armed miscreants of their area . These traders united under the Nilakantheswar Banik Sangh ' reached the SP office in the city in the morning . A delegation of traders led by their president K.Venkat Narayana apprised the SP about the alleged deteriorating law and order situation in the area and demanded arrest of miscreants roaming in the area with fire arms and crude bombs . On Sunday a group of miscreants had hurled bombs at a trader of Padmanabhpur market . Three persons were injured by the blast of their bombs . According to Mr Narayana all traders of the locality had closed down their shops on Monday to demand for a permanent solution to the menace of these miscreants . Mr. Narayana said the miscreants who had hurled bombs on Sunday were involved in several criminal activities and were using revolvers to threaten the local traders for extortion . On Sunday these traders had blocked the Chikiti-Digapahandi road till 3 p.m. demanding arrest of culprits behind the bombing and regular extortion of traders of the area . Inhabitants of Padmanabhpur also demanded regular interaction between police and citizens of the area and deployment of armed police personnel in the market area . OPEN"
p62
sS'injured'
p63
g5
sS'det_loc'
p64
(lp65
S'India'
p66
aS'Orissa'
p67
aS'Ganjam'
p68
ag45
aS'Padmanabhpur village, Berhampur '
p69
asS'O'
p70
(lp71
S'traders:1'
p72
aS'berhampur superintendent of police:15'
p73
aS'superintendent:16'
p74
aS'( sp ) shefeen ahmed k:19'
p75
aS'armed miscreants:31'
p76
aS'traders:38'
p77
aS'sp office:48'
p78
aS'delegation:58'
p79
aS'traders:60'
p80
aS'sp:69'
p81
aS'deteriorating law and order:73'
p82
aS'arrest:83'
p83
aS'miscreants:85'
p84
aS'fire arms:91'
p85
aS'crude bombs:94'
p86
aS'miscreants:102'
p87
aS'hurled bombs:104'
p88
aS'injured:116'
p89
aS'blast:119'
p90
aS'bombs:122'
p91
aS'traders:129'
p92
aS'demand:141'
p93
aS'permanent solution:144'
p94
aS'miscreants:151'
p95
aS'miscreants:157'
p96
aS'hurled bombs:160'
p97
aS'criminal:168'
p98
aS'revolvers:173'
p99
aS'traders:178'
p100
aS'extortion:180'
p101
aS'traders:185'
p102
aS'arrest:195'
p103
aS'culprits:197'
p104
aS'bombing:200'
p105
aS'extortion:203'
p106
aS'traders:205'
p107
aS'interaction:216'
p108
aS'deployment:225'
p109
aS'police personnel:228'
p110
aS'market area:232'
p111
asS'unexpl'
p112
(lp113
g45
asS'ocassion'
p114
g45
sS'link'
p115
S'http://www.thehindu.com/todays-paper/tp-national/tp-otherstates/traders-plea-to-police-official/article2628899.ece'
p116
sS'date'
p117
S'15-11-2011'
p118
sS'target'
p119
S'Market Place'
p120
sS'hot_spot'
p121
S'Padmanabhpur market'
p122
sS'delivery_mod'
p123
g45
sS'delivery_met'
p124
S'Thrown'
p125
sS'expl'
p126
(lp127
S'Crude bomb'
p128
asS'ORG'
p129
(lp130
(lp131
S'Digapahandi police station'
p132
aS'6'
p133
aS'Others'
p134
aa(lp135
S'Berhampur police district'
p136
aS'10'
p137
aS'Others'
p138
aa(lp139
S'Nilakantheswar Banik Sangh'
p140
aS'42'
p141
aS'Victim'
p142
aas.