(dp0
S'LOC'
p1
(lp2
(lp3
S'Wagamon'
p4
aS'40'
p5
aS'Neutral'
p6
aa(lp7
S'Idukki'
p8
aS'42'
p9
aS'Neutral'
p10
aa(lp11
S'Gujarat'
p12
aS'51'
p13
aS'Neutral'
p14
aa(lp15
S'Madhya Pradesh'
p16
aS'106'
p17
aS'Neutral'
p18
aa(lp19
S'Karnataka'
p20
aS'124'
p21
aS'Neutral'
p22
aa(lp23
S'Madhya Pradesh'
p24
aS'126'
p25
aS'Neutral'
p26
aa(lp27
S'Gujarat'
p28
aS'129'
p29
aS'Neutral'
p30
aa(lp31
S'Wagamon'
p32
aS'145'
p33
aS'Neutral'
p34
aasS'PER'
p35
(lp36
(lp37
S'Danish Riyaz'
p38
aS'12'
p39
aS'Others'
p40
aasS'TIM'
p41
(lp42
sS'hot_setting'
p43
S''
p44
sS'DAT'
p45
(lp46
S'Wednesday:7'
p47
aS'2007:45'
p48
aS'November:90'
p49
aS'November 2007:90'
p50
aS'December:131'
p51
aS'December 10:131'
p52
aS'2007:134'
p53
aS'December 12:136'
p54
aS'December:136'
p55
aS'December:147'
p56
asS'death'
p57
g44
sS'title'
p58
S'Wagamon camp: accused remanded'
p59
sS'det_loc'
p60
(lp61
S'India'
p62
aS'Kerala'
p63
aS'Idukki'
p64
ag44
ag44
asS'terror_group'
p65
(lp66
S'Students Islamic Movement of India'
p67
asS'content'
p68
S": The NIA Special Court on Wednesday remanded in judicial custody Danish Riyaz , 34th accused in a case relating to organising a secret training camp for activists of the Students Islamic Movement of India ( SIMI ) at Wagamon in Idukki district in 2007 . He was brought from Gujarat where he was lodged in jail in connection with a bomb blast case . A charge sheet against 30 activists of the SIMI had already been filed before the court . The NIA 's case was that in November 2007 , the activists of the proscribed organisation had entered into a criminal conspiracy in Madhya Pradesh and other places to conduct training camps for their cadres . They had organised camps in Karnataka , Madhya Pradesh and Gujarat from December 10 , 2007 to December 12 besides arranging a secret training camp at Wagamon in December . OPEN"
p69
sS'injured'
p70
g44
sS'org_unorg'
p71
S'Organized'
p72
sS'O'
p73
(lp74
S'custody:11'
p75
aS'case:19'
p76
aS'district:43'
p77
aS'jail:57'
p78
aS'bomb blast case:62'
p79
aS'charge sheet:67'
p80
aS'court:81'
p81
aS'case:86'
p82
aS'organisation:98'
p83
aS'conspiracy:104'
p84
aS'conduct training:112'
p85
aS'secret training camp:141'
p86
asS'unexpl'
p87
(lp88
g44
asS'ocassion'
p89
g44
sS'link'
p90
S'http://www.thehindu.com/todays-paper/tp-national/tp-kerala/wagamon-camp-accused-remanded/article2655140.ece'
p91
sS'date'
p92
S'15-07-2011'
p93
sS'target'
p94
g44
sS'hot_spot'
p95
g44
sS'delivery_mod'
p96
g44
sS'delivery_met'
p97
g44
sS'expl'
p98
(lp99
g44
asS'ORG'
p100
(lp101
(lp102
S'NIA'
p103
aS'3'
p104
aS'Others'
p105
aa(lp106
S'Special Court'
p107
aS'4'
p108
aS'Others'
p109
aa(lp110
S'Students Islamic Movement of India'
p111
aS'31'
p112
aS'Accused'
p113
aa(lp114
S'SIMI'
p115
aS'37'
p116
aS'Accused'
p117
aa(lp118
S'SIMI'
p119
aS'74'
p120
aS'Accused'
p121
aa(lp122
S'NIA'
p123
aS'84'
p124
aS'Others'
p125
aas.