(dp0
S'LOC'
p1
(lp2
(lp3
S'Abuja'
p4
aS'14'
p5
aS'Event'
p6
aa(lp7
S'Nigeria'
p8
aS'23'
p9
aS'Event'
p10
aa(lp11
S'Africa'
p12
aS'55'
p13
aS'Event'
p14
aa(lp15
S'Jos'
p16
aS'133'
p17
aS'Event'
p18
aa(lp19
S'Gadaka'
p20
aS'157'
p21
aS'Event'
p22
aa(lp23
S'Damaturu'
p24
aS'178'
p25
aS'Event'
p26
aasS'PER'
p27
(lp28
sS'TIM'
p29
(lp30
sS'hot_setting'
p31
S'Christmas Services during Christmas celebrations'
p32
sS'DAT'
p33
(lp34
sS'death'
p35
S'27'
p36
sS'title'
p37
S'28 killed in Nigeria church attacks'
p38
sS'det_loc'
p39
(lp40
S'Nigeria'
p41
aS''
p42
ag42
aS'Madalla'
p43
aS'Churches in and out of Capital Abuja, City Jos, Gadaka, Damaturu '
p44
asS'terror_group'
p45
(lp46
g42
asS'content'
p47
S"Bomb attacks on churches during Christmas services , including one outside the capital Abuja , have killed at least 28 people in Nigeria amid spiralling violence claimed by an Islamist group . The Islamist group Boko Haram claimed responsibility for theAbuja blast and violence in recent days that has stoked fear and anger in Africa 's most populous nation . Authorities have been seemingly unable to stop the attacks despite heavy-handed military crackdowns and claims of arrests of Boko Haram members . The area around the scene of the blast outside Abuja , which killed at least 27 , degenerated into chaos , with angry youths starting fires and threatening to attack a n A bomb blast later hit outside an evangelical church hundreds of km away in the central city of Jos , killing a policeman , according to a spokesman for the governor . Another explosion targeted a church in the northeastern area of Gadaka on Christmas Eve , but no one was reported killed , while two other blasts hit the northeastern city of Damaturu on Christmas Day , including a suspected suicide bombing . AFP OPEN"
p48
sS'injured'
p49
g42
sS'org_unorg'
p50
S'Organized'
p51
sS'O'
p52
(lp53
S'christmas services:6'
p54
aS'capital abuja:13'
p55
aS'nigeria:23'
p56
aS'abuja blast:41'
p57
aS'military crackdowns:72'
p58
aS'boko haram:79'
p59
aS'jos:133'
p60
aS'church:151'
p61
aS'christmas eve:159'
p62
aS'christmas day:180'
p63
aS'christmas:180'
p64
aS'suicide bombing:186'
p65
asS'unexpl'
p66
(lp67
g42
asS'ocassion'
p68
S'Religious festivals'
p69
sS'link'
p70
S'http://www.thehindu.com/todays-paper/tp-international/28-killed-in-nigeria-church-attacks/article2748315.ece'
p71
sS'date'
p72
S'26-12-2011'
p73
sS'target'
p74
S'Religious Places'
p75
sS'hot_spot'
p76
S'Churches'
p77
sS'delivery_mod'
p78
S'Human'
p79
sS'delivery_met'
p80
S'Planted'
p81
sS'expl'
p82
(lp83
g42
asS'ORG'
p84
(lp85
(lp86
S'Boko Haram'
p87
aS'36'
p88
aS'Accused'
p89
aas.