(dp0
S'LOC'
p1
(lp2
(lp3
S'Malegaon'
p4
aS'10'
p5
aS'Event'
p6
aa(lp7
S'Karnataka'
p8
aS'21'
p9
aS'Neutral'
p10
aasS'PER'
p11
(lp12
(lp13
S'Praveen Mutalik'
p14
aS'1'
p15
aS'Accused'
p16
aasS'TIM'
p17
(lp18
sS'hot_setting'
p19
S''
p20
sS'DAT'
p21
(lp22
S'2008:9'
p23
aS'Monday:18'
p24
aS'February 14:42'
p25
asS'death'
p26
g20
sS'title'
p27
S'Mutalik remanded in police custody'
p28
sS'org_unorg'
p29
S'Organized'
p30
sS'terror_group'
p31
(lp32
g20
asS'content'
p33
S'Praveen Mutalik , an absconding accused in the 2008 Malegaon bomb blast case , was arrested on Monday night from Karnataka by Maharashtra Anti-Terrorism Squad . He was produced before a special MCOCA court which remanded him in police custody till February 14 , sources said . PTI OPEN'
p34
sS'injured'
p35
g20
sS'det_loc'
p36
(lp37
S'India'
p38
aS'Maharashtra'
p39
aS'Mumbai-City'
p40
ag20
ag20
asS'O'
p41
(lp42
S'absconding accused:5'
p43
aS'malegaon bomb blast case:10'
p44
aS'arrested:16'
p45
aS'anti-terrorism squad:24'
p46
aS'police custody:39'
p47
asS'unexpl'
p48
(lp49
g20
asS'ocassion'
p50
g20
sS'link'
p51
S'http://www.thehindu.com/todays-paper/mutalik-remanded-in-police-custody/article1147800.ece'
p52
sS'date'
p53
S'02-02-2011'
p54
sS'target'
p55
g20
sS'hot_spot'
p56
g20
sS'delivery_mod'
p57
g20
sS'delivery_met'
p58
g20
sS'expl'
p59
(lp60
g20
asS'ORG'
p61
(lp62
(lp63
S'Maharashtra Anti-Terrorism Squad'
p64
aS'23'
p65
aS'Others'
p66
aa(lp67
S'MCOCA court'
p68
aS'33'
p69
aS'Others'
p70
aas.