(dp0
S'LOC'
p1
(lp2
(lp3
S'Pakistan'
p4
aS'19'
p5
aS'Neutral'
p6
aa(lp7
S'Jandol'
p8
aS'37'
p9
aS'Event'
p10
aa(lp11
S'Dir'
p12
aS'45'
p13
aS'Event'
p14
aa(lp15
S'Swat Valley'
p16
aS'53'
p17
aS'Neutral'
p18
aa(lp19
S'Swat'
p20
aS'175'
p21
aS'Assoc Event Location'
p22
aa(lp23
S'Dir'
p24
aS'179'
p25
aS'Event'
p26
aa(lp27
S'Dir'
p28
aS'181'
p29
aS'Event'
p30
aa(lp31
S'Afghan'
p32
aS'184'
p33
aS'Neutral'
p34
aa(lp35
S'Kunar'
p36
aS'187'
p37
aS'Neutral'
p38
aasS'PER'
p39
(lp40
(lp41
S'Farman Khan'
p42
aS'79'
p43
aS'Others'
p44
aa(lp45
S'Khan'
p46
aS'84'
p47
aS'Others'
p48
aa(lp49
S'Khan'
p50
aS'118'
p51
aS'Others'
p52
aa(lp53
S'Javaid Khan'
p54
aS'127'
p55
aS'Others'
p56
aa(lp57
S'Maulana Fazlullah'
p58
aS'151'
p59
aS'Others'
p60
aasS'TIM'
p61
(lp62
sS'hot_setting'
p63
S''
p64
sS'DAT'
p65
(lp66
S'Sunday:21'
p67
aS'2009:137'
p68
asS'death'
p69
S'14'
p70
sS'title'
p71
S'Bomb blast kills 14 in northwest Pakistan'
p72
sS'det_loc'
p73
(lp74
S'Pakistan'
p75
ag64
ag64
ag64
ag64
asS'terror_group'
p76
(lp77
g64
asS'content'
p78
S"A remote-controlled bomb targeting a passenger van killed at least 14 people and wounded 10 others in northwestern Pakistan on Sunday , police said , blaming militants for the attack . The blast took place in Jandol town , in the district of Lower Dir , 100 kilometres from the once Taliban-infested Swat Valley . `` It was a remote-controlled bomb blast which killed 14 people including three women and wounded 10 others , '' local police official Farman Khan told AFP . Khan , who was supervising the aftermath at the site , said the vehicle was targeted because it was carrying people known to be pro-government . There was no immediate claim of responsibility but Khan said militants were responsible.Another local police official , Javaid Khan , confirmed the incident and casualties . In 2009 , about 30,000 Pakistani troops went into battle against Taliban fighters controlled by Maulana Fazlullah , who for two years had terrorised people with a campaign of beheadings , violence and attacks on girls ' schools in Swat and parts of Dir . Dir borders the Afghan provinces of Kunar and Nuristan.AFP OPEN"
p79
sS'injured'
p80
S'10'
p81
sS'org_unorg'
p82
S'Organized'
p83
sS'O'
p84
(lp85
S'bomb:3'
p86
aS'passenger van:6'
p87
aS'militants:27'
p88
aS'attack:30'
p89
aS'blast:33'
p90
aS'place:35'
p91
aS'district:42'
p92
aS'bomb blast:61'
p93
aS'official:78'
p94
aS'aftermath:90'
p95
aS'site:93'
p96
aS'vehicle:97'
p97
aS'pro-government:108'
p98
aS'claim:114'
p99
aS'responsibility:116'
p100
aS'responsible.another:122'
p101
aS'official:125'
p102
aS'incident:132'
p103
aS'battle:145'
p104
aS'taliban fighters:147'
p105
aS'taliban:147'
p106
aS'campaign:163'
p107
aS'violence:167'
p108
asS'unexpl'
p109
(lp110
g64
asS'ocassion'
p111
g64
sS'link'
p112
S'http://www.thehindu.com/todays-paper/tp-in-school/bomb-blast-kills-14-in-northwest-pakistan/article3905386.ece'
p113
sS'date'
p114
S'16-09-2012'
p115
sS'target'
p116
g64
sS'hot_spot'
p117
g64
sS'delivery_mod'
p118
g64
sS'delivery_met'
p119
g64
sS'expl'
p120
(lp121
g64
asS'ORG'
p122
(lp123
s.