(dp0
S'LOC'
p1
(lp2
(lp3
S'Delhi : 74'
p4
aS'Event'
p5
aS'Neutral'
p6
aa(lp7
S'Jama Masjid : 75'
p8
aS'Event'
p9
aS'Neutral'
p10
aa(lp11
S'Pune'
p12
aS'23'
p13
aS'Event'
p14
aa(lp15
S'Pune'
p16
aS'61'
p17
aS'Event'
p18
aa(lp19
S'Bangalore Chinnaswamy stadium'
p20
aS'70'
p21
aS'Event'
p22
aa(lp23
S'Delhi'
p24
aS'74'
p25
aS'Event'
p26
aa(lp27
S'Jama Masjid'
p28
aS'75'
p29
aS'Event'
p30
aa(lp31
S'Mumbai'
p32
aS'82'
p33
aS'Neutral'
p34
aa(lp35
S'Pune'
p36
aS'105'
p37
aS'Accused Location'
p38
aa(lp39
S'Maharashtra'
p40
aS'132'
p41
aS'Neutral'
p42
aa(lp43
S'Pune'
p44
aS'156'
p45
aS'Event'
p46
aa(lp47
S'Delhi'
p48
aS'180'
p49
aS'Event'
p50
aa(lp51
S'Darbhanga'
p52
aS'282'
p53
aS'Accused Location'
p54
aa(lp55
S'Bihar'
p56
aS'284'
p57
aS'Accused Location'
p58
aa(lp59
S'Delhi'
p60
aS'295'
p61
aS'Neutral'
p62
aa(lp63
S'Maharashtra'
p64
aS'302'
p65
aS'Neutral'
p66
aa(lp67
S'Shrimant Dagdusheth Halwai Ganpati Temple'
p68
aS'320'
p69
aS'Event'
p70
aa(lp71
S'Pune'
p72
aS'326'
p73
aS'Assoc Event Location'
p74
aa(lp75
S'Mumbai'
p76
aS'376'
p77
aS'Accused Location'
p78
aa(lp79
S'Bihar'
p80
aS'406'
p81
aS'Accused Location'
p82
aa(lp83
S'Dagdusheth temple'
p84
aS'442'
p85
aS'Event'
p86
aa(lp87
S'Pune'
p88
aS'446'
p89
aS'Event'
p90
aa(lp91
S"Pune 's German Bakery"
p92
aS'446'
p93
aS'Event'
p94
aa(lp95
S'Delhi'
p96
aS'462'
p97
aS'Accused Location'
p98
aa(lp99
S'Delhi'
p100
aS'477'
p101
aS'Accused Location'
p102
aasS'PER'
p103
(lp104
(lp105
S'Siddiqui'
p106
aS'84'
p107
aS'Accused'
p108
aS'Others'
p109
aa(lp110
S'Mohammed Qateel Siddiqui'
p111
aS'8'
p112
aS'Accused'
p113
aa(lp114
S'Siddiqui'
p115
aS'32'
p116
aS'Accused'
p117
aa(lp118
S'Sharad Mohol'
p119
aS'88'
p120
aS'Accused'
p121
aa(lp122
S'Amol Bhalerao'
p123
aS'91'
p124
aS'Accused'
p125
aa(lp126
S'Mohol'
p127
aS'109'
p128
aS'Accused'
p129
aa(lp130
S'Bhalerao'
p131
aS'115'
p132
aS'Accused'
p133
aa(lp134
S'R.R. Patil'
p135
aS'135'
p136
aS'Comment'
p137
aa(lp138
S'S.V. Khatavkar'
p139
aS'145'
p140
aS'Others'
p141
aa(lp142
S'Siddiqui'
p143
aS'148'
p144
aS'Others'
p145
aa(lp146
S'Bhalerao'
p147
aS'205'
p148
aS'Others'
p149
aa(lp150
S'Siddiqui'
p151
aS'208'
p152
aS'Others'
p153
aa(lp154
S'Mohol'
p155
aS'215'
p156
aS'Others'
p157
aa(lp158
S'Bhalerao'
p159
aS'227'
p160
aS'Others'
p161
aa(lp162
S'Siddiqui'
p163
aS'253'
p164
aS'Others'
p165
aa(lp166
S'Mohol'
p167
aS'258'
p168
aS'Others'
p169
aa(lp170
S'Bhalerao'
p171
aS'260'
p172
aS'Others'
p173
aa(lp174
S'Siddiqui'
p175
aS'277'
p176
aS'Others'
p177
aa(lp178
S'Siddiqui'
p179
aS'349'
p180
aS'Others'
p181
aa(lp182
S'Siddiqui'
p183
aS'372'
p184
aS'Others'
p185
aa(lp186
S'Siddiqui'
p187
aS'398'
p188
aS'Others'
p189
aa(lp190
S'Yasin Bhatkal'
p191
aS'412'
p192
aS'Others'
p193
aa(lp194
S'Bhatkal'
p195
aS'423'
p196
aS'Others'
p197
aa(lp198
S'Siddiqui'
p199
aS'456'
p200
aS'Others'
p201
aa(lp202
S'Bhatkal'
p203
aS'460'
p204
aS'Others'
p205
aa(lp206
S'Gohar Aziz Khumani'
p207
aS'467'
p208
aS'Others'
p209
aa(lp210
S'Siddiqui'
p211
aS'499'
p212
aS'Others'
p213
aa(lp214
S'Bhatkal'
p215
aS'509'
p216
aS'Others'
p217
aasS'TIM'
p218
(lp219
S'morning : 26'
p220
aS'afternoon : 160'
p221
aS'9.45 : 195'
p222
aS'11.45 a.m.:197'
p223
asS'hot_setting'
p224
S'Shrimant Dagdusheth Halwai Ganpati Temple'
p225
sS'DAT'
p226
(lp227
S'Friday:25'
p228
aS'Friday:159'
p229
aS'November 2011:298'
p230
aS'May 3:335'
p231
aS'May:343'
p232
aS'May 28:343'
p233
asS'death'
p234
S''
p235
sS'title'
p236
S'Terror suspect killed by fellow inmates in Pune jail'
p237
sS'det_loc'
p238
(lp239
S'India'
p240
aS'Maharashtra'
p241
ag235
aS'Pune'
p242
aS'Shrimant Dagdusheth Halwai Ganpati Temple'
p243
asS'terror_group'
p244
(lp245
S'INDIAN MUJAHIDEEN'
p246
asS'content'
p247
S"Suspected Indian Mujahideen ( IM ) operative Mohammed Qateel Siddiqui was murdered in the high-security Anda Cell in the Yerwada jail in Pune on Friday morning by two fellow inmates . Siddiqui , in judicial custody , was being tried by the Maharashtra Anti-Terrorism Squad for his alleged role in a conspiracy to plant a bomb outside a temple in Pune . He was also allegedly involved in the Bangalore Chinnaswamy stadium and Delhi Jama Masjid blasts . Official sources in Mumbai said Siddiqui was strangulated by Sharad Mohol and Amol Bhalerao for being part of anti-national activities . Both are members of a Pune criminal gang . Mohol is facing nine cases and Bhalerao four cases of murder , attempt to murder and kidnapping . Hours after the incident , Maharashtra Home Minister R.R. Patil ordered a CID probe and suspended Jail Superintendent S.V. Khatavkar . Siddiqui was to have been produced in a Pune court on Friday afternoon . Informed sources said the ATS did not want to extend his custody further and proposed to allow the Delhi Police to take him back . Narrating the jail crime which took place between 9.45 and 11.45 a.m. , the police said that while Bhalerao allegedly pinned Siddiqui 's legs to the ground , Mohol strangled him with the cord of his trousers . Thereafter , Bhalerao himself was said to have told another inmate about the murder and the latter informed the jail authorities . There are conflicting reports on whether Siddiqui had a tiff with Mohol and Bhalerao the day before . The sources said they were playing chess some three days ago . Siddiqui , a resident of Darbhanga in Bihar , was first arrested by the Special Cell of the Delhi Police in November 2011 . The Maharashtra ATS sought his custody to probe his involvement in the conspiracy to plant a bomb outside the Shrimant Dagdusheth Halwai Ganpati Temple in Pune . He was brought to the city on May 3 and was in police custody till May 28 . The police said Siddiqui 's attempt to plant a bomb in the temple failed as a flower vendor refused to keep a bag of explosives . Siddiqui then travelled to Mumbai and disposed of the timer in the sea after removing the battery . While in custody , the ATS claimed , Siddiqui had given information about the whereabouts in Bihar of the absconding IM mastermind Yasin Bhatkal . He was seen as a close link to Bhatkal , wanted for several terror incidents in the country and named co-accused in the conspiracy to bomb the Dagdusheth temple and in Pune 's German Bakery blast case . The sources said Siddiqui was introduced to Bhatkal in Delhi by another IM operative Gohar Aziz Khumani , now in the custody of the Delhi Police . The jail murder will impact the case of conspiracy to bomb the temple . The agency planned to use Siddiqui 's evidence and put out a charge sheet against Bhatkal . CID probe ordered into the murder CID probe ordered into the murder Jail Superintendent suspended OPEN"
p248
sS'injured'
p249
g235
sS'org_unorg'
p250
S'ORGANISED'
p251
sS'O'
p252
(lp253
S'yerwada jail:20'
p254
aS'judicial custody:35'
p255
aS'official:79'
p256
aS'pune criminal gang:105'
p257
aS'murder:119'
p258
aS'kidnapping:125'
p259
aS'home minister:133'
p260
aS'Jail Superintendent:143'
p261
aS'jail:189'
p262
aS'murder:238'
p263
aS'jail authorities:244'
p264
aS'tiff:256'
p265
aS'chess:271'
p266
aS'special cell:291'
p267
aS'temple:358'
p268
aS'flower vendor:362'
p269
aS'bag:368'
p270
aS'explosives:370'
p271
aS'timer:381'
p272
aS'custody:392'
p273
aS'co-accused:435'
p274
aS'jail murder:481'
p275
aS'temple:492'
p276
aS'jail superintendent:523'
p277
asS'unexpl'
p278
(lp279
S'BATTERIES'
p280
asS'ocassion'
p281
S'RELIGIOUS GATHERING'
p282
sS'link'
p283
S'http://www.thehindu.com/todays-paper/terror-suspect-killed-by-fellow-inmates-in-pune-jail/article3507256.ece'
p284
sS'date'
p285
S'08-06-2012'
p286
sS'target'
p287
S'TEMPLE'
p288
sS'hot_spot'
p289
S'Shrimant Dagdusheth Halwai Ganpati Temple'
p290
sS'delivery_mod'
p291
S'PLASTIC BAG'
p292
sS'delivery_met'
p293
S'PLANTED'
p294
sS'expl'
p295
(lp296
g235
asS'ORG'
p297
(lp298
(lp299
S'Indian Mujahideen'
p300
aS'2'
p301
aS'Accused'
p302
aa(lp303
S'IM'
p304
aS'5'
p305
aS'Accused'
p306
aa(lp307
S'high-security Anda Cell'
p308
aS'15'
p309
aS'Others'
p310
aa(lp311
S'Maharashtra Anti-Terrorism Squad'
p312
aS'43'
p313
aS'Others'
p314
aa(lp315
S'anti-national activities'
p316
aS'97'
p317
aS'Others'
p318
aa(lp319
S'CID'
p320
aS'139'
p321
aS'Others'
p322
aa(lp323
S'ATS'
p324
aS'166'
p325
aS'Others'
p326
aa(lp327
S'Police'
p328
aS'181'
p329
aS'Others'
p330
aa(lp331
S'police'
p332
aS'201'
p333
aS'Others'
p334
aa(lp335
S'Police'
p336
aS'296'
p337
aS'Others'
p338
aa(lp339
S'ATS'
p340
aS'303'
p341
aS'Others'
p342
aa(lp343
S'police'
p344
aS'340'
p345
aS'Others'
p346
aa(lp347
S'police'
p348
aS'347'
p349
aS'Others'
p350
aa(lp351
S'ATS'
p352
aS'395'
p353
aS'Others'
p354
aa(lp355
S'IM'
p356
aS'410'
p357
aS'Accused'
p358
aa(lp359
S'IM'
p360
aS'465'
p361
aS'Others'
p362
aa(lp363
S'Police'
p364
aS'478'
p365
aS'Others'
p366
aa(lp367
S'CID'
p368
aS'511'
p369
aS'Others'
p370
aa(lp371
S'CID'
p372
aS'517'
p373
aS'Others'
p374
aas.