(dp0
S'LOC'
p1
(lp2
(lp3
S'Uthangarai'
p4
aS'11'
p5
aS'Neutral'
p6
aa(lp7
S'Uthangarai'
p8
aS'24'
p9
aS'Neutral'
p10
aa(lp11
S'Krishnagiri'
p12
aS'26'
p13
aS'Neutral'
p14
aa(lp15
S'Perampathy'
p16
aS'41'
p17
aS'Accused Location'
p18
aa(lp19
S'Vellore'
p20
aS'44'
p21
aS'Accused Location'
p22
aa(lp23
S'Karapattu'
p24
aS'52'
p25
aS'Accused Location'
p26
aa(lp27
S'Krishnagiri'
p28
aS'55'
p29
aS'Accused Location'
p30
aa(lp31
S'Uthangarai'
p32
aS'65'
p33
aS'Neutral'
p34
aa(lp35
S'Salem'
p36
aS'91'
p37
aS'Neutral'
p38
aasS'PER'
p39
(lp40
(lp41
S'V. Kasi Viswanathan'
p42
aS'15'
p43
aS'Comment'
p44
aa(lp45
S'Viswanathan'
p46
aS'36'
p47
aS'Accused'
p48
aa(lp49
S'Jeeva'
p50
aS'47'
p51
aS'Accused'
p52
aa(lp53
S'Viswanathan'
p54
aS'81'
p55
aS'Accused'
p56
aa(lp57
S'Viswanathan'
p58
aS'96'
p59
aS'Accused'
p60
aa(lp61
S'Jeeva'
p62
aS'104'
p63
aS'Accused'
p64
aa(lp65
S'Jeeva'
p66
aS'106'
p67
aS'Accused'
p68
aa(lp69
S'T. Srinivasan'
p70
aS'112'
p71
aS'Victim'
p72
aasS'TIM'
p73
(lp74
sS'hot_setting'
p75
S''
p76
sS'DAT'
p77
(lp78
S'Sunday:34'
p79
aS'Saturday:60'
p80
aS'Monday:121'
p81
asS'death'
p82
g76
sS'title'
p83
S'Uthangarai blast: two more held'
p84
sS'org_unorg'
p85
S'Organized'
p86
sS'terror_group'
p87
(lp88
g76
asS'content'
p89
S'Two more persons have been arrested in connection with the Uthangarai bomb blast . V. Kasi Viswanathan , Deputy Superintendent of Police ( Uthangarai , Krishnagiri District ) , told The Hindu on Sunday that Viswanathan ( 65 ) of Perampathy village in Vellore district and Jeeva ( 22 ) of Karapattu village in Krishnagiri district were arrested on Saturday and produced before the Uthangarai Judicial Magistrate . When the accused were being taken to the Salem Central Prison , Viswanathan took ill and was admitted to a hospital in Salem . The DSP said Viswanathan had supplied about 125 gelatine sticks to Jeeva . Jeeva had sold some sticks to T. Srinivasan , who died in a blast on Monday last . OPEN'
p90
sS'injured'
p91
g76
sS'det_loc'
p92
(lp93
S'India'
p94
aS'Tamil Nadu'
p95
ag76
aS'Krishnagiri'
p96
ag76
asS'O'
p97
(lp98
S'bomb blast:12'
p99
aS'judicial magistrate:66'
p100
aS'accused:71'
p101
aS'hospital:89'
p102
aS'dsp:94'
p103
aS'gelatine sticks:101'
p104
aS'blast:119'
p105
asS'unexpl'
p106
(lp107
g76
asS'ocassion'
p108
g76
sS'link'
p109
S'http://www.thehindu.com/todays-paper/tp-national/tp-tamilnadu/uthangarai-blast-two-more-held/article2986293.ece'
p110
sS'date'
p111
S'11-03-2012'
p112
sS'target'
p113
g76
sS'hot_spot'
p114
g76
sS'delivery_mod'
p115
g76
sS'delivery_met'
p116
g76
sS'expl'
p117
(lp118
g76
asS'ORG'
p119
(lp120
(lp121
S'The Hindu'
p122
aS'31'
p123
aS'Others'
p124
aa(lp125
S'Salem Central Prison'
p126
aS'77'
p127
aS'Others'
p128
aas.