(dp0
S'LOC'
p1
(lp2
(lp3
S'Indore'
p4
aS'10'
p5
aS'Neutral'
p6
aa(lp7
S'Mecca Masjid'
p8
aS'33'
p9
aS'Event'
p10
aa(lp11
S'Mecca Masjid'
p12
aS'130'
p13
aS'Event'
p14
aa(lp15
S'Depalpur'
p16
aS'172'
p17
aS'Neutral'
p18
aa(lp19
S'Indore'
p20
aS'174'
p21
aS'Neutral'
p22
aa(lp23
S'Hyderabad'
p24
aS'215'
p25
aS'Neutral'
p26
aa(lp27
S'Dewas'
p28
aS'283'
p29
aS'Neutral'
p30
aa(lp31
S'Madhya Pradesh'
p32
aS'285'
p33
aS'Neutral'
p34
aa(lp35
S'Nampally'
p36
aS'347'
p37
aS'Neutral'
p38
aa(lp39
S'Mecca Masjid'
p40
aS'419'
p41
aS'Event'
p42
aasS'PER'
p43
(lp44
(lp45
S'Tejaram'
p46
aS'1'
p47
aS'Accused'
p48
aa(lp49
S'Tejarams'
p50
aS'105'
p51
aS'Accused'
p52
aa(lp53
S'Rajender Choudary'
p54
aS'107'
p55
aS'Assoc Accused'
p56
aa(lp57
S'Samundar'
p58
aS'110'
p59
aS'Assoc Accused'
p60
aa(lp61
S'Tejarams'
p62
aS'126'
p63
aS'Accused'
p64
aa(lp65
S'Rajendar Choudary'
p66
aS'140'
p67
aS'Assoc Accused'
p68
aa(lp69
S'Rajendar'
p70
aS'140'
p71
aS'Assoc Accused'
p72
aa(lp73
S'Choudary'
p74
aS'150'
p75
aS'Assoc Accused'
p76
aa(lp77
S'Tejaram'
p78
aS'165'
p79
aS'Accused'
p80
aa(lp81
S'Tejaram Parmar'
p82
aS'167'
p83
aS'Accused'
p84
aa(lp85
S'Khalifa'
p86
aS'170'
p87
aS'Accused'
p88
aa(lp89
S'Devender Gupta'
p90
aS'228'
p91
aS'Accused'
p92
aa(lp93
S'Lokesh Sharma'
p94
aS'234'
p95
aS'Accused'
p96
aa(lp97
S'Nabakumar Sarkar'
p98
aS'240'
p99
aS'Accused'
p100
aa(lp101
S'Swami Asimanand'
p102
aS'243'
p103
aS'Accused'
p104
aa(lp105
S'Sandeep V. Dange'
p106
aS'251'
p107
aS'Accused'
p108
aa(lp109
S'Ramchandra Kalsangara'
p110
aS'258'
p111
aS'Accused'
p112
aa(lp113
S'Sunil Joshi'
p114
aS'272'
p115
aS'Accused'
p116
aa(lp117
S'Manoj'
p118
aS'278'
p119
aS'Accused'
p120
aa(lp121
S'Bharat Mohanlal Rateswar'
p122
aS'316'
p123
aS'Assoc Accused'
p124
aa(lp125
S'Bharat Bhai'
p126
aS'320'
p127
aS'Assoc Accused'
p128
aa(lp129
S'Tejaram'
p130
aS'352'
p131
aS'Others'
p132
aasS'TIM'
p133
(lp134
sS'hot_setting'
p135
S''
p136
sS'DAT'
p137
(lp138
S'Monday:12'
p139
aS'May 2007:36'
p140
aS'Thursday:56'
p141
aS'Monday:176'
p142
aS'Friday:378'
p143
aS'May 2007:398'
p144
aS'May 2007:425'
p145
asS'death'
p146
S'9'
p147
sS'title'
p148
S'Tejaram placed bomb that did not explode'
p149
sS'org_unorg'
p150
g136
sS'terror_group'
p151
(lp152
g136
asS'content'
p153
S'Tejaram , a mason arrested by the NIA near Indore on Monday , was the person who had placed the Improvised Explosive Device ( IED ) which did not explode in the Mecca Masjid in May 2007 , the NIA investigators maintained in his remand case diary that was submitted to a court here on Thursday . The IED , however , did not explode and was defused by the bomb disposal squad ( BDS ) after another IED placed under the marble platform ( takht ) went off killing nine persons . The IED which exploded under the marble platform was concealed by Tejarams associate Rajender Choudary alias Samundar , the National Investigation Agency ( NIA ) said in the remand case diary . Tejarams involvement in the Mecca Masjid blast came to light during the interrogation of Rajendar Choudary , who is presently in police custody . Choudary was arrested in connection with Samjhauta Express blast case . The agency then arrested Tejaram alias Tejaram Parmar alias Khalifa at Depalpur near Indore on Monday and recovered a driving licence , a voter identity card , a mobile phone and other documents along with Rs . 630 in cash from him . The NIA obtained a prisoners transit warrant and brought him to Hyderabad . Six persons named The CBI had named six persons among whom Devender Gupta ( A1 ) , Lokesh Sharma ( A2 ) and Nabakumar Sarkar alias Swami Asimanand ( A6 ) were arrested . Sandeep V. Dange ( A3 ) and Ramchandra Kalsangara ( A4 ) are still at large while one more accused , Sunil Joshi ( A5 ) alias Manoj , was murdered at Dewas in Madhya Pradesh while the investigation was on . The Central government later handed over all the blast cases to the NIA . During the course of investigation , the agency arrested Bharat Mohanlal Rateswar alias Bharat Bhai ( A7 ) for providing logistic support to carry out the blast . NIA files petition Meanwhile , the NIA filed a petition in the Nampally court seeking custody of Tejaram for 20 days to enable it to travel with him as part of the investigation . The court , however , posted the matter to Friday and directed the jail authorities to lodge him in a special cell . Mecca Masjid blast took place in May 2007 , killing nine personsCBI names six persons of whom 3 are arrested , two are absconding and one murdered Mecca Masjid blast took place in May 2007 , killing nine persons CBI names six persons of whom 3 are arrested , two are absconding and one murdered OPEN'
p154
sS'injured'
p155
g136
sS'det_loc'
p156
(lp157
S'India'
p158
aS'Andhra Pradesh'
p159
ag136
aS'Hydrabad'
p160
ag136
asS'O'
p161
(lp162
S'mason arrested:4'
p163
aS'improvised explosive device:21'
p164
aS'ied:25'
p165
aS'case diary:46'
p166
aS'ied:59'
p167
aS'defused:68'
p168
aS'ied:79'
p169
aS'marble platform ( takht:83'
p170
aS'ied:95'
p171
aS'marble platform:100'
p172
aS'concealed:103'
p173
aS'remand case diary:122'
p174
aS'mecca masjid blast:130'
p175
aS'interrogation:138'
p176
aS'police custody:147'
p177
aS'samjhauta express blast case:156'
p178
aS'driving licence:180'
p179
aS'voter identity card:184'
p180
aS'mobile phone:189'
p181
aS'documents:193'
p182
aS'rs . 630:196'
p183
aS'prisoners transit warrant:208'
p184
aS'murdered:281'
p185
aS'investigation:289'
p186
aS'central government:294'
p187
aS'blast cases:301'
p188
aS'investigation:311'
p189
aS'arrested:315'
p190
aS'logistic support:327'
p191
aS'petition:337'
p192
aS'petition:344'
p193
aS'custody:350'
p194
aS'20 days:354'
p195
aS'travel:360'
p196
aS'investigation:367'
p197
aS'jail authorities:382'
p198
aS'special cell:389'
p199
aS'mecca masjid blast:419'
p200
asS'unexpl'
p201
(lp202
g136
asS'ocassion'
p203
g136
sS'link'
p204
S'http://www.thehindu.com/todays-paper/tp-national/tp-andhrapradesh/tejaram-placed-bomb-that-did-not-explode/article4247452.ece'
p205
sS'date'
p206
S'18-05-2007'
p207
sS'target'
p208
S'RELIGIOUS PLACES'
p209
sS'hot_spot'
p210
S'Mecca Masjid, Hydrabad'
p211
sS'delivery_mod'
p212
g136
sS'delivery_met'
p213
S'PLANTED'
p214
sS'expl'
p215
(lp216
S'IED'
p217
asS'ORG'
p218
(lp219
(lp220
S'NIA'
p221
aS'8'
p222
aS'Others'
p223
aa(lp224
S'NIA'
p225
aS'40'
p226
aS'Others'
p227
aa(lp228
S'bomb disposal squad'
p229
aS'71'
p230
aS'Others'
p231
aa(lp232
S'BDS'
p233
aS'75'
p234
aS'Others'
p235
aa(lp236
S'National Investigation Agency'
p237
aS'113'
p238
aS'Others'
p239
aa(lp240
S'NIA'
p241
aS'117'
p242
aS'Others'
p243
aa(lp244
S'NIA'
p245
aS'205'
p246
aS'Others'
p247
aa(lp248
S'CBI'
p249
aS'221'
p250
aS'Others'
p251
aa(lp252
S'NIA'
p253
aS'305'
p254
aS'Others'
p255
aa(lp256
S'NIA'
p257
aS'335'
p258
aS'Others'
p259
aa(lp260
S'NIA'
p261
aS'341'
p262
aS'Others'
p263
aa(lp264
S'Nampally court'
p265
aS'347'
p266
aS'Others'
p267
aa(lp268
S'CBI'
p269
aS'431'
p270
aS'Others'
p271
aas.