(dp0
S'LOC'
p1
(lp2
(lp3
S'Basra'
p4
aS'15'
p5
aS'Event'
p6
aa(lp7
S'Basra'
p8
aS'38'
p9
aS'Event'
p10
aasS'PER'
p11
(lp12
(lp13
S'Riyadh Abdul-Amir'
p14
aS'52'
p15
aS'Comment'
p16
aasS'TIM'
p17
(lp18
sS'hot_setting'
p19
S'Shia religious commemorations'
p20
sS'DAT'
p21
(lp22
S'Saturday : 17'
p23
asS'death'
p24
S'53'
p25
sS'title'
p26
S'Basra bomb kills 53'
p27
sS'org_unorg'
p28
S'ORGANISED'
p29
sS'terror_group'
p30
(lp31
S''
p32
asS'content'
p33
S'A bomb killed at least 53 Shia pilgrims near the southern port city of Basra on Saturday , an Iraqi official said . It was the latest in a series of attacks during Shia religious commemorations . Basra hospital received 53 killed and 137 wounded after the blast , said Dr. Riyadh Abdul-Amir , the head of Basra Health Directorate . AP OPEN'
p34
sS'injured'
p35
S'137'
p36
sS'det_loc'
p37
(lp38
S'Iraq'
p39
ag32
ag32
aS'Basra'
p40
ag32
asS'O'
p41
(lp42
S'bomb:2'
p43
aS'shia pilgrims:7'
p44
aS'southern port city:11'
p45
aS'iraqi official:20'
p46
aS'series of attacks:30'
p47
aS'shia religious commemorations:34'
p48
aS'hospital:39'
p49
aS'blast:48'
p50
asS'unexpl'
p51
(lp52
g32
asS'ocassion'
p53
S'RELIGIOUS FESTIVAL'
p54
sS'link'
p55
S'http://www.thehindu.com/todays-paper/basra-bomb-kills-53/article2802664.ece'
p56
sS'date'
p57
S'14-01-2012'
p58
sS'target'
p59
S'SHIA ISLAM'
p60
sS'hot_spot'
p61
S'Southern port city of Basra'
p62
sS'delivery_mod'
p63
g32
sS'delivery_met'
p64
g32
sS'expl'
p65
(lp66
g32
asS'ORG'
p67
(lp68
(lp69
S'Basra Health Directorate'
p70
aS'58'
p71
aS'Others'
p72
aa(lp73
S'AP'
p74
aS'62'
p75
aS'Others'
p76
aas.