(dp0
S'LOC'
p1
(lp2
(lp3
S'Haryana'
p4
aS'34'
p5
aS'Event'
p6
aa(lp7
S'Madhya Pradesh'
p8
aS'36'
p9
aS'Event'
p10
aa(lp11
S'Noida'
p12
aS'57'
p13
aS'Accused Location'
p14
aasS'PER'
p15
(lp16
(lp17
S'Kamal Chauhan'
p18
aS'1'
p19
aS'Accused'
p20
aa(lp21
S'Panchkula'
p22
aS'49'
p23
aS'Accused'
p24
aa(lp25
S'Mhow-born Chauhan'
p26
aS'91'
p27
aS'Comment'
p28
aa(lp29
S'Kalsangra'
p30
aS'101'
p31
aS'Accused'
p32
aa(lp33
S'Sandeep Dange'
p34
aS'103'
p35
aS'Accused'
p36
aasS'TIM'
p37
(lp38
sS'hot_setting'
p39
S''
p40
sS'DAT'
p41
(lp42
S'2007:25'
p43
aS'Tuesday:43'
p44
aS'Tuesday:52'
p45
aS'Sunday:59'
p46
aS'February 24:71'
p47
asS'death'
p48
S'68'
p49
sS'title'
p50
S'Chauhan planted bombs on Samjhauta Express: NIA'
p51
sS'org_unorg'
p52
S'ORGANISED'
p53
sS'terror_group'
p54
(lp55
g40
asS'content'
p56
S"Kamal Chauhan , a disgruntled RSS worker arrested by the National Investigation Agency ( NIA ) , planted bombs onboard the Samjhauta Express in 2007 after undergoing training in arms and explosives in Haryana and Madhya Pradesh , the agency said on Tuesday . He was taken to Panchkula court on Tuesday after his arrest in Noida on Sunday . The court remanded him in the agency 's custody till February 24 for questioning on his alleged role in the blast that killed 68 people , mostly Pakistanis . The Mhow-born Chauhan is believed to be a close aide of Kalsangra and Sandeep Dange , the key accused the case . PTI OPEN"
p57
sS'injured'
p58
g40
sS'det_loc'
p59
(lp60
S'India'
p61
aS'Haryana'
p62
aS'Panchkula'
p63
aS'PANCHKULA'
p64
aS' onboard the Samjhauta Express '
p65
asS'O'
p66
(lp67
S'onboard:20'
p68
aS'samjhauta express:22'
p69
aS'explosives:32'
p70
aS'court:62'
p71
aS'agency:67'
p72
aS'custody:69'
p73
aS'blast:81'
p74
aS'pakistanis:88'
p75
asS'unexpl'
p76
(lp77
g40
asS'ocassion'
p78
g40
sS'link'
p79
S'http://www.thehindu.com/todays-paper/chauhan-planted-bombs-on-samjhauta-express-nia/article2894435.ece'
p80
sS'date'
p81
S'14-02-2012'
p82
sS'target'
p83
S'SAMJHAUTA EXPRESS'
p84
sS'hot_spot'
p85
S' onboard the Samjhauta Express '
p86
sS'delivery_mod'
p87
S'TRAIN'
p88
sS'delivery_met'
p89
S'PLANTED'
p90
sS'expl'
p91
(lp92
g40
asS'ORG'
p93
(lp94
(lp95
S'RSS worker'
p96
aS'6'
p97
aS'Others'
p98
aa(lp99
S'National Investigation Agency'
p100
aS'11'
p101
aS'Others'
p102
aa(lp103
S'NIA'
p104
aS'15'
p105
aS'Others'
p106
aas.