(dp0
S'LOC'
p1
(lp2
(lp3
S'Sindh'
p4
aS'19'
p5
aS'Event'
p6
aa(lp7
S'southern Pakistan'
p8
aS'22'
p9
aS'Assoc Event Location'
p10
aa(lp11
S'Sindh'
p12
aS'42'
p13
aS'Source'
p14
aa(lp15
S'Karachi'
p16
aS'49'
p17
aS'Assoc Event Location'
p18
aa(lp19
S'Hyderabad'
p20
aS'90'
p21
aS'Assoc Event Location'
p22
aasS'PER'
p23
(lp24
sS'TIM'
p25
(lp26
sS'hot_setting'
p27
S''
p28
sS'DAT'
p29
(lp30
sS'death'
p31
g28
sS'title'
p32
S'Low-intensity blasts in Sindh'
p33
sS'org_unorg'
p34
S'Organized'
p35
sS'terror_group'
p36
(lp37
g28
asS'content'
p38
S'A series of low-intensity bomb blasts today targeted ATM machines of a state-run bank and railway tracks in Sindh province of southern Pakistan , injuring at least six persons . There were at least 16 blasts in cities and towns across Sindh , including the capital city of Karachi , Geo News channel reported . A policeman was among the six people injured injured in the blasts . Four persons were injured when blasts targeted ATM machines outside branches of the National Bank of Pakistan at four places in Hyderabad city early this morning . OPEN'
p39
sS'injured'
p40
S'6'
p41
sS'det_loc'
p42
(lp43
S'Pakistan'
p44
ag28
ag28
aS'Islamabad'
p45
ag28
asS'O'
p46
(lp47
S'series:2'
p48
aS'bomb:5'
p49
aS'today:7'
p50
aS'atm machines:9'
p51
aS'bank:14'
p52
aS'railway:16'
p53
aS'capital city:46'
p54
aS'policeman:57'
p55
aS'atm machines:76'
p56
aS'city:91'
p57
aS'morning:94'
p58
asS'unexpl'
p59
(lp60
g28
asS'ocassion'
p61
g28
sS'link'
p62
S'http://www.thehindu.com/todays-paper/tp-in-school/lowintensity-blasts-in-sindh/article3378259.ece'
p63
sS'date'
p64
S'03-05-2012'
p65
sS'target'
p66
S'Public Organization'
p67
sS'hot_spot'
p68
S'ATM machines outside National Bank of Pakistan'
p69
sS'delivery_mod'
p70
g28
sS'delivery_met'
p71
S'Planted'
p72
sS'expl'
p73
(lp74
g28
asS'ORG'
p75
(lp76
(lp77
S'Geo News channel'
p78
aS'51'
p79
aS'Others'
p80
aa(lp81
S'National Bank of Pakistan'
p82
aS'82'
p83
aS'Victim'
p84
aas.