(dp0
S'LOC'
p1
(lp2
(lp3
S'Afghanistan'
p4
aS'19'
p5
aS'Neutral'
p6
aa(lp7
S'Khost'
p8
aS'55'
p9
aS'Event'
p10
aa(lp11
S'Pakistan'
p12
aS'59'
p13
aS'Neutral'
p14
aa(lp15
S'Kandahar'
p16
aS'81'
p17
aS'Neutral'
p18
aasS'PER'
p19
(lp20
sS'TIM'
p21
(lp22
sS'hot_setting'
p23
S''
p24
sS'DAT'
p25
(lp26
S'Sunday:27'
p27
aS'Sunday:83'
p28
asS'death'
p29
S'6'
p30
sS'title'
p31
S'Newborn killed in Afghan blast'
p32
sS'org_unorg'
p33
S'Organized'
p34
sS'terror_group'
p35
(lp36
g24
asS'content'
p37
S'A mother and her newborn baby were among six family members killed in a roadside bombing in eastern Afghanistan overnight , police and witnesses said on Sunday . The victims were heading home from the hospital after the mother had given birth when the bomb planted by Taliban insurgents tore through their vehicle in Khost province on the Pakistan border , police said . Five other civilians were killed in two separate roadside bomb blasts in the southern province of Kandahar on Sunday . AFP OPEN'
p38
sS'injured'
p39
g24
sS'det_loc'
p40
(lp41
S'Afghanistan'
p42
ag24
ag24
aS'Khost'
p43
ag24
asS'O'
p44
(lp45
S'roadside bombing:15'
p46
aS'hospital:36'
p47
aS'bomb:45'
p48
aS'taliban insurgents:48'
p49
aS'vehicle:53'
p50
aS'border:60'
p51
aS'roadside bomb:73'
p52
asS'unexpl'
p53
(lp54
g24
asS'ocassion'
p55
g24
sS'link'
p56
S'http://www.thehindu.com/todays-paper/tp-international/newborn-killed-in-afghan-blast/article4089059.ece'
p57
sS'date'
p58
S'11-11-2012'
p59
sS'target'
p60
g24
sS'hot_spot'
p61
g24
sS'delivery_mod'
p62
g24
sS'delivery_met'
p63
S'Planted'
p64
sS'expl'
p65
(lp66
g24
asS'ORG'
p67
(lp68
s.