(dp0
S'LOC'
p1
(lp2
(lp3
S'Koregaon'
p4
aS'14'
p5
aS'Event'
p6
aa(lp7
S'Kaij tehsil'
p8
aS'17'
p9
aS'Event'
p10
aa(lp11
S'Beed'
p12
aS'20'
p13
aS'Event'
p14
aa(lp15
S'Maharashtra'
p16
aS'23'
p17
aS'Event'
p18
aa(lp19
S'Beed'
p20
aS'29'
p21
aS'Event'
p22
aa(lp23
S'Koregaon'
p24
aS'77'
p25
aS'Event'
p26
aa(lp27
S'Ambejogai'
p28
aS'87'
p29
aS'Neutral'
p30
aa(lp31
S'Beed'
p32
aS'177'
p33
aS'Neutral'
p34
aa(lp35
S'Mumbai'
p36
aS'200'
p37
aS'Neutral'
p38
aa(lp39
S'Aurangabad'
p40
aS'295'
p41
aS'Neutral'
p42
aa(lp43
S'Maharashtra'
p44
aS'311'
p45
aS'Event'
p46
aa(lp47
S'Mumbai'
p48
aS'327'
p49
aS'Neutral'
p50
aa(lp51
S'Aurangabad'
p52
aS'359'
p53
aS'Neutral'
p54
aasS'PER'
p55
(lp56
(lp57
S'Om Ramesh Nimbalkar'
p58
aS'43'
p59
aS'Victim'
p60
aa(lp61
S'Usha Nimbalkar'
p62
aS'52'
p63
aS'Victim'
p64
aa(lp65
S'Kusum Ramesh Nimbalkar'
p66
aS'60'
p67
aS'Victim'
p68
aa(lp69
S'Kunal'
p70
aS'69'
p71
aS'Victim'
p72
aa(lp73
S'Nimbalkar'
p74
aS'72'
p75
aS'Victim'
p76
aa(lp77
S'Nimbalkar'
p78
aS'141'
p79
aS'Victim'
p80
aa(lp81
S'Rakesh Jadhav'
p82
aS'166'
p83
aS'Comment'
p84
aa(lp85
S'Nimbalkar'
p86
aS'207'
p87
aS'Victim'
p88
aa(lp89
S'Nimbalkar'
p90
aS'226'
p91
aS'Victim'
p92
aa(lp93
S'Kunal'
p94
aS'239'
p95
aS'Victim'
p96
aa(lp97
S'Jadhav'
p98
aS'249'
p99
aS'Comment'
p100
aa(lp101
S'Jadhav'
p102
aS'260'
p103
aS'Comment'
p104
aa(lp105
S'Riteish Kumar'
p106
aS'298'
p107
aS'Others'
p108
aa(lp109
S'Dattatray Mandlik'
p110
aS'304'
p111
aS'Others'
p112
aa(lp113
S'Mandlik'
p114
aS'372'
p115
aS'Comment'
p116
aasS'TIM'
p117
(lp118
sS'hot_setting'
p119
S''
p120
sS'DAT'
p121
(lp122
S'Friday:25'
p123
aS'Friday afternoon:37'
p124
aS'Friday morning:98'
p125
asS'death'
p126
g120
sS'title'
p127
S'Transistor blast in Beed injures four'
p128
sS'det_loc'
p129
(lp130
S'India'
p131
aS'Maharashtra'
p132
aS'Beed'
p133
ag120
aS'Koregaon Village'
p134
asS'terror_group'
p135
(lp136
g120
asS'content'
p137
S'Four members of a family were injured in a transistor bomb blast at Koregaon village of Kaij tehsil in Beed district of Maharashtra on Friday . According to Beed police , the blast took place on Friday afternoon . The injured are Om Ramesh Nimbalkar ( 32 ) , his wife Usha Nimbalkar ( 25 ) , his mother Kusum Ramesh Nimbalkar ( 55 ) and two-year-old son Kunal . Mr. Nimbalkar , a resident of Koregaon , who works as a bus conductor in the Ambejogai bus depot , found a parcel in a bus on Friday morning and took it to his house . On opening it , he found a radio set and three cells . His family members were huddled around him when he inserted the cells into the radio . The radio exploded when Mr. Nimbalkar switched it on . According to some reports reaching here , the sound of the explosion could be heard four km away . Dr. Rakesh Jadhav , Deputy Superintendent of Swami Ramanand Tirath Hospital in Beed , where the injured had been admitted , told The Hindu that all four have been referred to the J.J. Hospital in Mumbai now for ophthalmic care . Mr. Nimbalkar and his wife have suffered corneal injuries . All four have suffered fractures on their hands . Mr. Nimbalkar lost his right hand and two fingers of his left hand . Kunal has also suffered heavy corneal injuries , said Dr. Jadhav . Asked if they were out of danger , Dr. Jadhav said : We cant say this at this point of time because some of them have deep injuries . A team of forensic experts have collected samples from the spot . Inspector General , Aurangabad range , Riteish Kumar , Superintendent of Police Dattatray Mandlik , a team of the Maharashtra Anti-Terrorism Squad and a team of the National Investigation Agency have reached the spot . Mumbai Staff Reporter reports : The police are awaiting the preliminary forensic report to ascertain the nature of the bomb . Forensic teams have collected evidence . It has been sent to Aurangabad for preliminary investigation . We are still awaiting the report , Mr. Mandlik told The Hindu . He declined to give any further information . OPEN'
p138
sS'injured'
p139
S'4'
p140
sS'org_unorg'
p141
g120
sS'O'
p142
(lp143
S'four members:1'
p144
aS'injured:7'
p145
aS'transistor bomb blast:10'
p146
aS'blast:33'
p147
aS'injured:41'
p148
aS'bus conductor:83'
p149
aS'ambejogai bus depot:87'
p150
aS'parcel:93'
p151
aS'radio set:114'
p152
aS'three cells:117'
p153
aS'huddled:124'
p154
aS'radio exploded:137'
p155
aS'reports:149'
p156
aS'explosion:157'
p157
aS'admitted:184'
p158
aS'ophthalmic care:203'
p159
aS'corneal injuries:213'
p160
aS'fractures:220'
p161
aS'corneal injuries:244'
p162
aS'deep injuries:277'
p163
aS'forensic experts:283'
p164
aS'collected samples:286'
p165
aS'mumbai staff reporter:327'
p166
aS'bomb:346'
p167
aS'forensic teams:348'
p168
aS'evidence:352'
p169
aS'preliminary investigation:361'
p170
aS'report:369'
p171
asS'unexpl'
p172
(lp173
g120
asS'ocassion'
p174
g120
sS'link'
p175
S'http://www.thehindu.com/todays-paper/tp-national/transistor-blast-in-beed-injures-four/article4155325.ece'
p176
sS'date'
p177
S'01-12-2012'
p178
sS'target'
p179
S'INDIVIDUAL'
p180
sS'hot_spot'
p181
S'Koregaon Village of Kaij tehsil in Beed district of Maharashtra'
p182
sS'delivery_mod'
p183
g120
sS'delivery_met'
p184
g120
sS'expl'
p185
(lp186
g120
asS'ORG'
p187
(lp188
(lp189
S'Swami Ramanand Tirath Hospital'
p190
aS'172'
p191
aS'Others'
p192
aa(lp193
S'The Hindu'
p194
aS'187'
p195
aS'Others'
p196
aa(lp197
S'J.J. Hospital'
p198
aS'197'
p199
aS'Others'
p200
aa(lp201
S'Anti-Terrorism Squad'
p202
aS'312'
p203
aS'Others'
p204
aa(lp205
S'National Investigation Agency'
p206
aS'319'
p207
aS'Others'
p208
aa(lp209
S'The Hindu'
p210
aS'374'
p211
aS'Others'
p212
aas.