(dp0
S'LOC'
p1
(lp2
(lp3
S'Kareli'
p4
aS'18'
p5
aS'Event'
p6
aa(lp7
S'Allahabad'
p8
aS'21'
p9
aS'Neutral'
p10
aa(lp11
S'Allahabad'
p12
aS'128'
p13
aS'Neutral'
p14
aa(lp15
S'Allahabad'
p16
aS'267'
p17
aS'Neutral'
p18
aa(lp19
S'Allahabad'
p20
aS'279'
p21
aS'Neutral'
p22
aasS'PER'
p23
(lp24
(lp25
S'B. P. Singh'
p26
aS'137'
p27
aS'Comment'
p28
aa(lp29
S'Singh'
p30
aS'252'
p31
aS'Comment'
p32
aa(lp33
S'Singh'
p34
aS'284'
p35
aS'Comment'
p36
aasS'TIM'
p37
(lp38
S'3.30 p.m.:111'
p39
asS'hot_setting'
p40
S''
p41
sS'DAT'
p42
(lp43
S'Wednesday:23'
p44
asS'death'
p45
g41
sS'title'
p46
S'Two children killed in Allahabad bomb explosion'
p47
sS'det_loc'
p48
(lp49
S'India'
p50
aS'Uttar Pradesh'
p51
aS'Allahabad'
p52
ag41
ag41
asS'terror_group'
p53
(lp54
g41
asS'content'
p55
S'Two children were killed and half a dozen persons injured in a powerful bomb blast that rocked Kareli area of Allahabad on Wednesday . The blast occurred in a garbage dump near a nullah under the Kareli Scheme police station area and the victims are rag-pickers . It is suspected that a crude bomb was placed in the dump , and the device went off when it was touched by the kids playing in the area . The basti where the incident took place is inhabited by rag-pickers . Unofficial reports said the blast claimed five lives , including four children and a woman . The explosion occurred at around 3.30 p.m. . A team of Anti-Terrorist Squad ( ATS ) and forensic experts have rushed to Allahabad . State I-G ( Law & Order ) B. P. Singh told journalists that in the morning some rag-pickers had collected the garbage and kept it at the bomb blast site . Some children were playing in the area when the explosion occurred . While two children were killed , four more persons were injured in the blast , the I-G added . One of the deceased has been identified . The injured include two women and two girls in the age group of 11 to 40 years . About the intensity of the blast , the I-G said from the damage caused by the explosion it appeared to be a powerful blast . Regarding the type of the explosive material , Mr. Singh said it would be assessed by the forensic team which has been sent to Allahabad . He added that no specific alert has been sounded in Allahabad or elsewhere . Mr. Singh denied that crude bombs hurled by some anti-social elements caused the explosion . OPEN'
p56
sS'injured'
p57
g41
sS'org_unorg'
p58
S'Organized'
p59
sS'O'
p60
(lp61
S'bomb blast:14'
p62
aS'garbage dump:30'
p63
aS'nullah:34'
p64
aS'kareli:37'
p65
aS'kareli scheme police station area:37'
p66
aS'kareli scheme:37'
p67
aS'scheme:38'
p68
aS'station area:40'
p69
aS'crude bomb:53'
p70
aS'dump:59'
p71
aS'incident:82'
p72
aS'blast:94'
p73
aS'explosion:107'
p74
aS'anti-terrorist:117'
p75
aS'anti-terrorist squad:117'
p76
aS'forensic experts:123'
p77
aS'law & order:133'
p78
aS'garbage:151'
p79
aS'bomb blast site:157'
p80
aS'explosion:170'
p81
aS'blast:186'
p82
aS'age group:210'
p83
aS'intensity:220'
p84
aS'blast:223'
p85
aS'explosion:234'
p86
aS'explosive material:248'
p87
aS'crude bombs:287'
p88
aS'explosion:296'
p89
asS'unexpl'
p90
(lp91
g41
asS'ocassion'
p92
g41
sS'link'
p93
S'http://www.thehindu.com/todays-paper/tp-national/tp-otherstates/two-children-killed-in-allahabad-bomb-explosion/article3450942.ece'
p94
sS'date'
p95
S'23-05-2012'
p96
sS'target'
p97
g41
sS'hot_spot'
p98
g41
sS'delivery_mod'
p99
g41
sS'delivery_met'
p100
g41
sS'expl'
p101
(lp102
g41
asS'ORG'
p103
(lp104
(lp105
S'Anti-Terrorist Squad'
p106
aS'117'
p107
aS'Others'
p108
aas.