(dp0
S'LOC'
p1
(lp2
(lp3
S'Samjhauta Express'
p4
aS'33'
p5
aS'Event'
p6
aa(lp7
S'Indore'
p8
aS'90'
p9
aS'Assoc Event Location'
p10
aa(lp11
S'Delhi'
p12
aS'92'
p13
aS'Assoc Event Location'
p14
aasS'PER'
p15
(lp16
(lp17
S'Kamal Chauhan'
p18
aS'16'
p19
aS'Accused'
p20
aa(lp21
S'Chauhan'
p22
aS'38'
p23
aS'Accused'
p24
aa(lp25
S'Chauhan'
p26
aS'83'
p27
aS'Accused'
p28
aa(lp29
S'R K Handa'
p30
aS'107'
p31
aS'Comment'
p32
aa(lp33
S'Rajan Malhotra'
p34
aS'111'
p35
aS'Comment'
p36
aa(lp37
S'Chauhan'
p38
aS'127'
p39
aS'Accused'
p40
aa(lp41
S'Mr Handa'
p42
aS'145'
p43
aS'Comment'
p44
aasS'TIM'
p45
(lp46
sS'hot_setting'
p47
S''
p48
sS'DAT'
p49
(lp50
S'Friday:6'
p51
aS'March seven:52'
p52
asS'death'
p53
g48
sS'title'
p54
S'Court declines further custody of blast accused'
p55
sS'det_loc'
p56
(lp57
S'India'
p58
ag48
ag48
aS'Panchkula'
p59
ag48
asS'terror_group'
p60
(lp61
g48
asS'content'
p62
S'A special court here on Friday declined the application of NIA seeking further custody of Kamal Chauhan , a disgruntled RSS worker arrested by the investigation agency , in connection with the Samjhauta Express blast . Sending Chauhan to judicial custody , the court posted the case for further hearing till March seven . The NIA contended , in the in-camera proceedings , that Chauhan had revealed certain facts which further need to be investigated . The NIA told the court that Chauhan had travelled under fictitious names from Indore to Delhi and was also involved in planting of bombs on the train , CBI prosecutors R K Handa and Rajan Malhotra told reporters outside the court . The investigating agency also apprised the court that Chauhan had given Rs one lakh to another accused in the case , who is still absconding , Mr Handa said.PTI OPEN'
p63
sS'injured'
p64
g48
sS'org_unorg'
p65
S'Organized'
p66
sS'O'
p67
(lp68
S'court:3'
p69
aS'application:9'
p70
aS'nia:11'
p71
aS'custody:14'
p72
aS'investigation agency:26'
p73
aS'connection:30'
p74
aS'express blast:34'
p75
aS'express:34'
p76
aS'blast:35'
p77
aS'chauhan:38'
p78
aS'custody:41'
p79
aS'court:44'
p80
aS'case:47'
p81
aS'hearing:50'
p82
aS'in-camera:61'
p83
aS'need:72'
p84
aS'court:81'
p85
aS'train:103'
p86
aS'court:117'
p87
aS'agency:121'
p88
aS'court:125'
p89
aS'rs:130'
p90
aS'lakh:132'
p91
aS'case:138'
p92
asS'unexpl'
p93
(lp94
g48
asS'ocassion'
p95
g48
sS'link'
p96
S'http://www.thehindu.com/todays-paper/tp-national/tp-newdelhi/court-declines-further-custody-of-blast-accused/article2956050.ece'
p97
sS'date'
p98
S'04-03-2012'
p99
sS'target'
p100
S'Public Transport'
p101
sS'hot_spot'
p102
S'Train'
p103
sS'delivery_mod'
p104
S'Train'
p105
sS'delivery_met'
p106
S'Planted'
p107
sS'expl'
p108
(lp109
g48
asS'ORG'
p110
(lp111
(lp112
S'NIA'
p113
aS'11'
p114
aS'Others'
p115
aa(lp116
S'RSS'
p117
aS'21'
p118
aS'Others'
p119
aa(lp120
S'NIA'
p121
aS'56'
p122
aS'Others'
p123
aa(lp124
S'NIA'
p125
aS'78'
p126
aS'Others'
p127
aa(lp128
S'CBI'
p129
aS'105'
p130
aS'Others'
p131
aas.