(dp0
S'LOC'
p1
(lp2
(lp3
S'Poompuhar'
p4
aS'29'
p5
aS'Event'
p6
aa(lp7
S'Poopuhar'
p8
aS'47'
p9
aS'Event'
p10
aa(lp11
S'Melayur'
p12
aS'60'
p13
aS'Event'
p14
aa(lp15
S'Poompuhar'
p16
aS'62'
p17
aS'Event'
p18
aasS'PER'
p19
(lp20
(lp21
S'Muthu Rajendran'
p22
aS'7'
p23
aS'Victim'
p24
aa(lp25
S'Muthu Rajendran'
p26
aS'39'
p27
aS'Victim'
p28
aa(lp29
S'Muthu Devendran'
p30
aS'51'
p31
aS'Others'
p32
aa(lp33
S'Muthu Rajendran'
p34
aS'100'
p35
aS'Victim'
p36
aasS'TIM'
p37
(lp38
S'evening : 137'
p39
asS'hot_setting'
p40
S''
p41
sS'DAT'
p42
(lp43
S'Monday night : 31'
p44
asS'death'
p45
S'1'
p46
sS'title'
p47
S'DMK functionary hacked to death'
p48
sS'org_unorg'
p49
S'ORGANISED'
p50
sS'terror_group'
p51
(lp52
g41
asS'content'
p53
S'A DMK State executive committee member Muthu Rajendran was hacked to death after a targeted country bomb was blasted to carry out the killing by unknown persons at Poompuhar on Monday night . According to preliminary information , Muthu Rajendran , who is the brother of Poopuhar panchayat union president Muthu Devendran , was sitting outside a shop at Melayur at Poompuhar at the time of the attack . The attack was reportedly executed by four unidentified persons , who arrived at the site and hurled a country bomb to create a melee . In the ensuing melee , Muthu Rajendran was hacked to death in a brutal manner . The brutally of the killing is seen as a planned murder triggered by personal enmity . The site of the killing was also the victims usual evening hangouts , sources told The Hindu . OPEN'
p54
sS'injured'
p55
g41
sS'det_loc'
p56
(lp57
S'India'
p58
aS'Tamil Nadu'
p59
aS'Nagapattinam'
p60
aS'Poompuhar'
p61
aS'Outside a shop at Melayur at Poompuhar'
p62
asS'O'
p63
(lp64
S'dmk state executive committee member:2'
p65
aS'hacked to death:10'
p66
aS'country bomb:16'
p67
aS'blasted:19'
p68
aS'killing:24'
p69
aS'unknown persons:26'
p70
aS'preliminary information:36'
p71
aS'panchayat union president:48'
p72
aS'attack:68'
p73
aS'four unidentified persons:76'
p74
aS'country bomb:88'
p75
aS'melee:93'
p76
aS'hacked to death:103'
p77
aS'brutal manner:108'
p78
aS'brutally:112'
p79
aS'planned murder:120'
p80
aS'personal enmity:124'
p81
asS'unexpl'
p82
(lp83
g41
asS'ocassion'
p84
g41
sS'link'
p85
S'http://www.thehindu.com/todays-paper/tp-national/tp-tamilnadu/dmk-functionary-hacked-to-death/article3883555.ece'
p86
sS'date'
p87
S'10-09-2012'
p88
sS'target'
p89
S'INDIVIDUAL'
p90
sS'hot_spot'
p91
S'Outside a shop at Melayur at Poompuhar'
p92
sS'delivery_mod'
p93
g41
sS'delivery_met'
p94
S'THROWN'
p95
sS'expl'
p96
(lp97
S'COUNTRY BOMB'
p98
asS'ORG'
p99
(lp100
(lp101
S'DMK'
p102
aS'2'
p103
aS'Others'
p104
aa(lp105
S'The Hindu'
p106
aS'142'
p107
aS'Others'
p108
aas.