(dp0
S'LOC'
p1
(lp2
(lp3
S'Nepal'
p4
aS'8'
p5
aS'Neutral'
p6
aa(lp7
S'Singha Durbar'
p8
aS'44'
p9
aS'Event'
p10
aa(lp11
S'Central government secretariat'
p12
aS'48'
p13
aS'Event'
p14
aasS'PER'
p15
(lp16
(lp17
S'Bijay Kumar Gachhedar'
p18
aS'124'
p19
aS'Comment'
p20
aasS'TIM'
p21
(lp22
sS'hot_setting'
p23
S''
p24
sS'DAT'
p25
(lp26
S'Monday:18'
p27
asS'death'
p28
S'3'
p29
sS'title'
p30
S'Bomb explosion kills three in Kathmandu'
p31
sS'org_unorg'
p32
S'Organized'
p33
sS'terror_group'
p34
(lp35
g24
asS'content'
p36
S"A bomb explosion in the heart of Nepal 's capital killed three people and injured seven on Monday afternoon . The blast occurred in front of the office of the Nepal Oil Corporation , less than hundred metres from the southern gate of Singha Durbar , the Central government secretariat which houses the Prime Minister 's office and key ministries . Two individuals died on the spot , while a third succumbed to injuries at the hospital . A little known group , Samyukta Jatiya Mukti Morcha ( United Ethnic Liberation Front ) , called up a private television channel to claim responsibility for the blast . It said the blasts were to protest against the recent fuel price hike . Home Minister Bijay Kumar Gachhedar inspected the site and visited the injured at the hospital . The opposition accused the government of not providing even minimal security to citizens . OPEN"
p37
sS'injured'
p38
S'7'
p39
sS'det_loc'
p40
(lp41
S'Nepal'
p42
ag24
ag24
aS'Kathmandu'
p43
ag24
asS'O'
p44
(lp45
S'bomb explosion:2'
p46
aS'claim responsibility:102'
p47
aS'blast:106'
p48
aS'protest:114'
p49
aS'home minister:122'
p50
aS'home:122'
p51
aS'site:129'
p52
aS'opposition:139'
p53
aS'government:142'
p54
asS'unexpl'
p55
(lp56
g24
asS'ocassion'
p57
g24
sS'link'
p58
S'http://www.thehindu.com/todays-paper/tp-international/bomb-explosion-kills-three-in-kathmandu/article2940090.ece'
p59
sS'date'
p60
S'27-02-2012'
p61
sS'target'
p62
S'Government Building'
p63
sS'hot_spot'
p64
S'Nepal Oil Corporation '
p65
sS'delivery_mod'
p66
g24
sS'delivery_met'
p67
g24
sS'expl'
p68
(lp69
g24
asS'ORG'
p70
(lp71
(lp72
S'Nepal Oil Corporation'
p73
aS'31'
p74
aS'Victim'
p75
aa(lp76
S'Samyukta Jatiya Mukti Morcha'
p77
aS'84'
p78
aS'Accused'
p79
aa(lp80
S'United Ethnic Liberation Front'
p81
aS'89'
p82
aS'Accused'
p83
aas.