(dp0
S'LOC'
p1
(lp2
(lp3
S'Afghanistan'
p4
aS'22'
p5
aS'Neutral'
p6
aa(lp7
S'Wana'
p8
aS'40'
p9
aS'Neutral'
p10
aa(lp11
S'South Waziristan'
p12
aS'43'
p13
aS'Neutral'
p14
aasS'PER'
p15
(lp16
(lp17
S'Maulvi Abbas'
p18
aS'73'
p19
aS'Victim'
p20
aa(lp21
S'Abbas'
p22
aS'85'
p23
aS'Victim'
p24
aasS'TIM'
p25
(lp26
sS'hot_setting'
p27
S''
p28
sS'DAT'
p29
(lp30
S'Friday:5'
p31
asS'death'
p32
S'3'
p33
sS'title'
p34
S'Pakistan blast kills three'
p35
sS'det_loc'
p36
(lp37
S'Pakistan'
p38
ag28
ag28
aS'Waziristan'
p39
ag28
asS'terror_group'
p40
(lp41
g28
asS'content'
p42
S"A bomb explosion on Friday killed atleast three people including a local militant commander in a restive Pakistani tribal region bordering Afghanistan , security officials said . The blast took place in a vegetable market in the town of Wana , in South Waziristan tribal district , which is considered a base for Al-Qaeda , the Taliban and other Islamist militants . '' A bomb at the office of local Taliban commander Maulvi Abbas 's brother in the vegetable market went off , killing Abbas and two others including his son , '' a local security official said . Four people sustained injuries in the blast , which has not been so far claimed by any group or individual.AFP OPEN"
p43
sS'injured'
p44
g28
sS'org_unorg'
p45
S'Organized'
p46
sS'O'
p47
(lp48
S'bomb explosion:2'
p49
aS'commander:14'
p50
aS'region:20'
p51
aS'security:24'
p52
aS'blast:29'
p53
aS'place:31'
p54
aS'vegetable market:34'
p55
aS'town:38'
p56
aS'wana:40'
p57
aS'district:46'
p58
aS'base:52'
p59
aS'al-qaeda:54'
p60
aS'taliban:57'
p61
aS'bomb:65'
p62
aS'office:68'
p63
aS'local taliban:70'
p64
aS'taliban commander:71'
p65
aS'commander:72'
p66
aS'brother:76'
p67
aS'vegetable market:79'
p68
aS'son:91'
p69
aS'security official:96'
p70
aS'blast:106'
p71
aS'group:117'
p72
asS'unexpl'
p73
(lp74
g28
asS'ocassion'
p75
g28
sS'link'
p76
S'http://www.thehindu.com/todays-paper/tp-in-school/pakistan-blast-kills-three/article4227226.ece'
p77
sS'date'
p78
S'21-12-2012'
p79
sS'target'
p80
S'Market Place'
p81
sS'hot_spot'
p82
g28
sS'delivery_mod'
p83
g28
sS'delivery_met'
p84
g28
sS'expl'
p85
(lp86
g28
asS'ORG'
p87
(lp88
(lp89
S'Al-Qaeda'
p90
aS'54'
p91
aS'Others'
p92
aas.