(dp0
S'LOC'
p1
(lp2
(lp3
S'Mumbai'
p4
aS'10'
p5
aS'Event'
p6
aa(lp7
S'India'
p8
aS'19'
p9
aS'Neutral'
p10
aa(lp11
S'Pakistan'
p12
aS'36'
p13
aS'Neutral'
p14
aa(lp15
S'India'
p16
aS'63'
p17
aS'Neutral'
p18
aa(lp19
S'South Asia'
p20
aS'85'
p21
aS'Neutral'
p22
aasS'PER'
p23
(lp24
(lp25
S'Dawood Ibrahim'
p26
aS'2'
p27
aS'Accused'
p28
aa(lp29
S'Sushilkumar Shinde'
p30
aS'60'
p31
aS'Comment'
p32
aasS'TIM'
p33
(lp34
sS'hot_setting'
p35
S''
p36
sS'DAT'
p37
(lp38
S'1993 : 9'
p39
aS'Tuesday:21'
p40
asS'death'
p41
g36
sS'title'
p42
S'SHINDE'
p43
sS'org_unorg'
p44
S'ORGANISED'
p45
sS'terror_group'
p46
(lp47
g36
asS'content'
p48
S'With Dawood Ibrahim , the man behind the 1993 Mumbai bombings , still out of its reach , India on Tuesday said the masterminds of the heinous serial blasts are sitting in safe havens in Pakistan which has taken no action against them despite being provided with credible evidence . Addressing the Interpol General Assembly here , Home Minister Sushilkumar Shinde said India continues to face a high degree of terrorist threats on several fronts , in particular of cross-border terrorism . Terrorism in South Asia has increasingly emerged as an effective strategic weapon , he said . OPEN'
p49
sS'injured'
p50
g36
sS'det_loc'
p51
(lp52
S'India'
p53
aS'Maharashtra'
p54
ag36
aS'Mumbai'
p55
aS'Mumbai'
p56
asS'O'
p57
(lp58
S'masterminds:24'
p59
aS'heinous:27'
p60
aS'serial blasts:28'
p61
aS'Home Minister:58'
p62
aS'cross-border terrorism:80'
p63
aS'weapon:94'
p64
asS'unexpl'
p65
(lp66
g36
asS'ocassion'
p67
g36
sS'link'
p68
S'http://www.thehindu.com/todays-paper/tp-in-school/shinde/article4072200.ece'
p69
sS'date'
p70
S'12-03-1993'
p71
sS'target'
p72
g36
sS'hot_spot'
p73
S'Mumbai'
p74
sS'delivery_mod'
p75
g36
sS'delivery_met'
p76
g36
sS'expl'
p77
(lp78
g36
asS'ORG'
p79
(lp80
(lp81
S'Interpol General Assembly'
p82
aS'53'
p83
aS'Others'
p84
aa(lp85
S'terrorist'
p86
aS'71'
p87
aS'Accused'
p88
aas.