(dp0
S'LOC'
p1
(lp2
(lp3
S'Iran'
p4
aS'72'
p5
aS'Neutral'
p6
aa(lp7
S'Delhi Police lens:229'
p8
aS'Neutral'
p9
aS'Assoc Event Location'
p10
aa(lp11
S'Delhi'
p12
aS'2'
p13
aS'Event'
p14
aa(lp15
S'Tehran'
p16
aS'8'
p17
aS'Neutral'
p18
aa(lp19
S'New Delhi'
p20
aS'23'
p21
aS'Event'
p22
aa(lp23
S'Iran'
p24
aS'58'
p25
aS'Neutral'
p26
aa(lp27
S'Iran'
p28
aS'83'
p29
aS'Neutral'
p30
aa(lp31
S'Delhi'
p32
aS'141'
p33
aS'Event'
p34
aa(lp35
S'Iran'
p36
aS'149'
p37
aS'Neutral'
p38
aa(lp39
S'Iran'
p40
aS'162'
p41
aS'Neutral'
p42
aa(lp43
S'Prime Ministers Race Course Road residence'
p44
aS'217'
p45
aS'Assoc Event Location'
p46
aa(lp47
S'Delhi'
p48
aS'229'
p49
aS'Event'
p50
aa(lp51
S'international border'
p52
aS'258'
p53
aS'Neutral'
p54
aa(lp55
S'Jammu & Kashmir'
p56
aS'261'
p57
aS'Neutral'
p58
aa(lp59
S'Pakistan'
p60
aS'274'
p61
aS'Neutral'
p62
aa(lp63
S'Pakistan'
p64
aS'324'
p65
aS'Neutral'
p66
aa(lp67
S'Assam'
p68
aS'329'
p69
aS'Neutral'
p70
aa(lp71
S'Assam'
p72
aS'367'
p73
aS'Neutral'
p74
aasS'PER'
p75
(lp76
(lp77
S'Houshang Afshar'
p78
aS'194'
p79
aS'Accused'
p80
aS'Others'
p81
aa(lp82
S'P. Chidambaram'
p83
aS'33'
p84
aS'Comment'
p85
aa(lp86
S'Masoud Sedaghatzadeh'
p87
aS'233'
p88
aS'Accused'
p89
aa(lp90
S'Saeid Moradi'
p91
aS'236'
p92
aS'Accused'
p93
aa(lp94
S'Mohammad Kharzei'
p95
aS'239'
p96
aS'Accused'
p97
aa(lp98
S'Chidambaram'
p99
aS'245'
p100
aS'Comment'
p101
aa(lp102
S'Chidambaram'
p103
aS'333'
p104
aS'Comment'
p105
aasS'TIM'
p106
(lp107
sS'hot_setting'
p108
S''
p109
sS'DAT'
p110
(lp111
S'February 2012:114'
p112
asS'death'
p113
g109
sS'title'
p114
S'Delhi Police to question Iranians on car blast'
p115
sS'det_loc'
p116
(lp117
S'India'
p118
aS'Delhi'
p119
ag109
aS'NEW DELHI'
p120
aS'NEW DELHI'
p121
asS'terror_group'
p122
(lp123
g109
asS'content'
p124
S'A Delhi Police team will soon visit Tehran to question some Iranian nationals on the recent Israeli Embassy vehicle bomb blast in New Delhi . This was disclosed by Union Home Minister P. Chidambaram at his last monthly Press conference before taking over as Union Finance Minister . There are some persons who we believe are in Iran , who require to be questioned . So we asked the Government of Iran for permission for one of our teams to go to Iran to question them . They have agreed , he said . He , however , refused to comment on the alleged involvement of the elite Iranian Republican Guards in the February 2012 bombing case , in which an Israeli diplomat was injured . Let the police team return , he said . Due to logistical reasons the Delhi Police could not send its team to Iran earlier , but they have managed to get fresh dates from the Iran Government to seek help from their Iranian counterparts in its probe into the high-profile case . During the blast case probe , names of four Iranian nationals came up . While Houshang Afshar has been named as the main accused for planting the bomb on the vehicle in the high-security zone close to the Prime Ministers Race Course Road residence , the other three under the Delhi Police lens are Masoud Sedaghatzadeh , Saeid Moradi and Mohammad Kharzei . Meanwhile , Mr. Chidambaram expressed gave concern over the detection of a 400-metre-long tunnel across the international border in Jammu & Kashmir and said the matter would soon be taken up with Pakistan . It is a matter of concern . This matter is being discussed at the highest levels between the Ministry of Home Affairs , Ministry of Defence and Ministry of External Affairs . An appropriate response , an appropriate way , will be found to take it up with Pakistan . Referring to the Assam violence , Mr. Chidambaram said the situation was fast returning to normal and refugees have started moving back to their homes . Appealing to the various communities to live in peace and harmony , he said : Assam is a typical example of a pluralistic society where communities like Bodos , minorities , Bengali Hindus , Adivasis , Rajbongshis and others live . My appeal to them is we must learn to live together . OPEN'
p125
sS'injured'
p126
g109
sS'org_unorg'
p127
S'ORGANISED'
p128
sS'O'
p129
(lp130
S'person:0'
p131
aS'israeli embassy:17'
p132
aS'bomb blast:20'
p133
aS'union home minister:30'
p134
aS'press conference:39'
p135
aS'minister:47'
p136
aS'israeli diplomat:122'
p137
aS'iranian:169'
p138
aS'high-profile case:176'
p139
aS'high-security zone:212'
p140
aS'pluralistic society:374'
p141
aS'bodos:379'
p142
aS'minorities:381'
p143
aS'bengali hindus:383'
p144
aS'adivasis:386'
p145
aS'rajbongshis:388'
p146
asS'unexpl'
p147
(lp148
g109
asS'ocassion'
p149
g109
sS'link'
p150
S'http://www.thehindu.com/todays-paper/tp-national/tp-newdelhi/delhi-police-to-question-iranians-on-car-blast/article3714918.ece'
p151
sS'date'
p152
S'31-07-2012'
p153
sS'target'
p154
g109
sS'hot_spot'
p155
S'NEW DELHI'
p156
sS'delivery_mod'
p157
S'CAR'
p158
sS'delivery_met'
p159
S'PLANTED'
p160
sS'expl'
p161
(lp162
g109
asS'ORG'
p163
(lp164
(lp165
S'Iranian nationals'
p166
aS'12'
p167
aS'Assoc Accused'
p168
aa(lp169
S'Union Finance'
p170
aS'45'
p171
aS'Others'
p172
aa(lp173
S'Government'
p174
aS'70'
p175
aS'Others'
p176
aa(lp177
S'elite Iranian Republican Guards'
p178
aS'108'
p179
aS'Others'
p180
aa(lp181
S'police'
p182
aS'129'
p183
aS'Others'
p184
aa(lp185
S'Police'
p186
aS'142'
p187
aS'Others'
p188
aa(lp189
S'Iran Government'
p190
aS'162'
p191
aS'Others'
p192
aa(lp193
S'Iranian nationals'
p194
aS'188'
p195
aS'Assoc Accused'
p196
aa(lp197
S'Police'
p198
aS'230'
p199
aS'Others'
p200
aa(lp201
S'Ministry of Home Affairs'
p202
aS'294'
p203
aS'Others'
p204
aa(lp205
S'Ministry of Defence and Ministry of External Affairs'
p206
aS'299'
p207
aS'Others'
p208
aas.