(dp0
S'LOC'
p1
(lp2
(lp3
S'Kurgodu'
p4
aS'42'
p5
aS'Neutral'
p6
aa(lp7
S'Bellary taluk'
p8
aS'45'
p9
aS'Neutral'
p10
aa(lp11
S'Anantapur'
p12
aS'149'
p13
aS'Source'
p14
aa(lp15
S'Andhra Pradesh'
p16
aS'152'
p17
aS'Source'
p18
aasS'PER'
p19
(lp20
(lp21
S'Karibasappa'
p22
aS'172'
p23
aS'Victim'
p24
aS'Others'
p25
aa(lp26
S'Nagaraj'
p27
aS'179'
p28
aS'Victim'
p29
aS'Others'
p30
aa(lp31
S'Jagmohan Reddy'
p32
aS'37'
p33
aS'Assoc Victim'
p34
aa(lp35
S'Jagadish'
p36
aS'40'
p37
aS'Assoc Victim'
p38
aa(lp39
S'Chandragupta'
p40
aS'70'
p41
aS'Comment'
p42
aa(lp43
S'Mahadeva'
p44
aS'168'
p45
aS'Victim'
p46
aa(lp47
S'Doddabasava'
p48
aS'170'
p49
aS'Victim'
p50
aasS'TIM'
p51
(lp52
S'evening : 193'
p53
asS'hot_setting'
p54
S''
p55
sS'DAT'
p56
(lp57
S'Monday afternoon : 26'
p58
asS'death'
p59
S'4'
p60
sS'title'
p61
S'Four die in blast at stone quarry'
p62
sS'det_loc'
p63
(lp64
S'India'
p65
aS'Karnataka'
p66
aS'Bellary'
p67
ag55
ag55
asS'terror_group'
p68
(lp69
g55
asS'content'
p70
S'Four persons were killed , three on the spot when gelatin sticks that were stocked in a storeroom of a stone quarry , exploded on Monday afternoon . The stone quarry is said to belong to Jagmohan Reddy and Jagadish of Kurgodu village in Bellary taluk . The reason for the blast can not be ascertained immediately . Experts from the bomb squad would be pressed into service , Chandragupta , Superintendent of Police , who visited the spot , told The Hindu . Though the quarry has been functioning with a valid licence , the stock of gelatin sticks might have been stored illegally , sources said . The intensity of the blast was indicative of how big a stock may have been kept in the makeshift storeroom . According to sources , the accident occurred when the gelatin sticks , said to have been brought from Anantapur district of Andhra Pradesh , was being dumped in the storeroom . The police identified the victims as Mahadeva , Doddabasava and Karibasappa , who died instantaneously , and Nagaraj , who succumbed to his injuries at the VIMS Hospital later in the evening . OPEN'
p71
sS'injured'
p72
g55
sS'org_unorg'
p73
g55
sS'O'
p74
(lp75
S'gelatin sticks:11'
p76
aS'storeroom:18'
p77
aS'stone quarry:21'
p78
aS'stone quarry:30'
p79
aS'blast:52'
p80
aS'experts:59'
p81
aS'quarry:87'
p82
aS'valid licence:93'
p83
aS'gelatin sticks:99'
p84
aS'stored illegally:104'
p85
aS'blast:114'
p86
aS'storeroom:129'
p87
aS'gelatin sticks:140'
p88
aS'storeroom:160'
p89
aS'victims:166'
p90
aS'succumbed:182'
p91
asS'unexpl'
p92
(lp93
g55
asS'ocassion'
p94
g55
sS'link'
p95
S'http://www.thehindu.com/todays-paper/tp-national/tp-karnataka/four-die-in-blast-at-stone-quarry/article3347417.ece'
p96
sS'date'
p97
S'23-04-2012'
p98
sS'target'
p99
g55
sS'hot_spot'
p100
g55
sS'delivery_mod'
p101
g55
sS'delivery_met'
p102
g55
sS'expl'
p103
(lp104
S'GELATIN STICK'
p105
asS'ORG'
p106
(lp107
(lp108
S'bomb squad'
p109
aS'62'
p110
aS'Others'
p111
aa(lp112
S'The Hindu'
p113
aS'82'
p114
aS'Others'
p115
aa(lp116
S'VIMS Hospital'
p117
aS'188'
p118
aS'Others'
p119
aas.