(dp0
S'LOC'
p1
(lp2
(lp3
S'Lahore'
p4
aS'33'
p5
aS'Event'
p6
aa(lp7
S'Karachi'
p8
aS'57'
p9
aS'Neutral'
p10
aa(lp11
S'Peshawar'
p12
aS'59'
p13
aS'Neutral'
p14
aa(lp15
S'Khyber Pakhtunkhwa'
p16
aS'67'
p17
aS'Neutral'
p18
aa(lp19
S'Afghan border'
p20
aS'73'
p21
aS'Neutral'
p22
aasS'PER'
p23
(lp24
sS'TIM'
p25
(lp26
sS'hot_setting'
p27
S''
p28
sS'DAT'
p29
(lp30
S'Wednesday:16'
p31
asS'death'
p32
S'2'
p33
sS'title'
p34
S'Pakistan police defuse train bomb'
p35
sS'det_loc'
p36
(lp37
S'Pakistan'
p38
ag28
ag28
aS'Lahore'
p39
ag28
asS'terror_group'
p40
(lp41
g28
asS'content'
p42
S"Pakistani police defused a bomb on a passenger train in the country 's northwest on Wednesday , officials said , hours after a blast at a station in the eastern city of Lahore killed two people . A guard found the bomb in a briefcase in the early hours of the morning on the train from Karachi to Peshawar , the main town in the northwestern Khyber Pakhtunkhwa province , near the Afghan border . AFP OPEN"
p43
sS'injured'
p44
g28
sS'org_unorg'
p45
S'Organized'
p46
sS'O'
p47
(lp48
S'defused:3'
p49
aS'passenger train:8'
p50
aS'blast:24'
p51
aS'station:27'
p52
aS'bomb:42'
p53
aS'briefcase:45'
p54
aS'morning:52'
p55
aS'train:55'
p56
aS'town:63'
p57
aS'border:74'
p58
asS'unexpl'
p59
(lp60
g28
asS'ocassion'
p61
g28
sS'link'
p62
S'http://www.thehindu.com/todays-paper/tp-in-school/pakistan-police-defuse-train-bomb/article3354301.ece'
p63
sS'date'
p64
S'25-04-2012'
p65
sS'target'
p66
g28
sS'hot_spot'
p67
g28
sS'delivery_mod'
p68
g28
sS'delivery_met'
p69
g28
sS'expl'
p70
(lp71
g28
asS'ORG'
p72
(lp73
s.