(dp0
S'LOC'
p1
(lp2
(lp3
S'Pakistan'
p4
aS'15'
p5
aS'Neutral'
p6
aa(lp7
S'Quetta'
p8
aS'21'
p9
aS'Event'
p10
aa(lp11
S'Baluchistan'
p12
aS'54'
p13
aS'Neutral'
p14
aa(lp15
S'Afghanistan'
p16
aS'59'
p17
aS'Neutral'
p18
aa(lp19
S'Iran'
p20
aS'61'
p21
aS'Neutral'
p22
aa(lp23
S'Baluchistan'
p24
aS'114'
p25
aS'Neutral'
p26
aa(lp27
S'Pakistan'
p28
aS'123'
p29
aS'Neutral'
p30
aasS'PER'
p31
(lp32
(lp33
S'Wazir Khan Nasir'
p34
aS'79'
p35
aS'Comment'
p36
aasS'TIM'
p37
(lp38
sS'hot_setting'
p39
S''
p40
sS'DAT'
p41
(lp42
S'Friday:23'
p43
aS'2004:130'
p44
asS'death'
p45
S'6'
p46
sS'title'
p47
S'Blast kills six in Pakistan'
p48
sS'org_unorg'
p49
S'Organized'
p50
sS'terror_group'
p51
(lp52
g40
asS'content'
p53
S"A bomb attack killed at least six people outside a party political meeting in Pakistan 's troubled southwestern city of Quetta on Friday , police said . The bomb was detonated by remote control as the secular Pashtun nationalist Awami National Party ( ANP ) held a public meeting on the outskirts of Baluchistan province , which borders Afghanistan and Iran . `` The death toll in the blast has risen to six , '' local police official Wazir Khan Nasir said . He also added the bomb had been planted on a bicycle , adding that those killed in the attack also included a young girl while six others were wounded . Baluchistan is one of the most deprived areas of Pakistan where Baluch rebels rose up in 2004 , demanding political autonomy and a greater share of profits from the oil , gas and mineral resources in the region.AFP OPEN"
p54
sS'injured'
p55
g46
sS'det_loc'
p56
(lp57
S'Pakistan'
p58
ag40
ag40
ag40
ag40
asS'O'
p59
(lp60
S'bomb attack:2'
p61
aS'party:11'
p62
aS'meeting:13'
p63
aS'city:19'
p64
aS'bomb:29'
p65
aS'control:34'
p66
aS'pashtun:38'
p67
aS'public meeting:48'
p68
aS'province:55'
p69
aS'death toll:65'
p70
aS'blast:69'
p71
aS'bomb:88'
p72
aS'bicycle:94'
p73
aS'attack:102'
p74
aS'Baluch rebels:125'
p75
aS'share:138'
p76
aS'oil:143'
p77
aS'gas:145'
p78
aS'mineral:147'
p79
asS'unexpl'
p80
(lp81
g40
asS'ocassion'
p82
g40
sS'link'
p83
S'http://www.thehindu.com/todays-paper/tp-in-school/blast-kills-six-in-pakistan/article3637404.ece'
p84
sS'date'
p85
S'13-07-2012'
p86
sS'target'
p87
g40
sS'hot_spot'
p88
g40
sS'delivery_mod'
p89
g40
sS'delivery_met'
p90
g40
sS'expl'
p91
(lp92
g40
asS'ORG'
p93
(lp94
(lp95
S'Awami National Party'
p96
aS'40'
p97
aS'Others'
p98
aas.