(dp0
S'LOC'
p1
(lp2
(lp3
S'Delhi'
p4
aS'14'
p5
aS'Event'
p6
aa(lp7
S'Delhi'
p8
aS'49'
p9
aS'Event'
p10
aasS'PER'
p11
(lp12
(lp13
S'Vinod Yadav'
p14
aS'34'
p15
aS'Others'
p16
aa(lp17
S'Syed Mohammed Ahmad Kazmi'
p18
aS'105'
p19
aS'Others'
p20
aasS'TIM'
p21
(lp22
sS'hot_setting'
p23
S''
p24
sS'DAT'
p25
(lp26
S'Monday:5'
p27
aS'February:21'
p28
aS'February 13:21'
p29
asS'death'
p30
g24
sS'title'
p31
S'Open warrants against 3 Iranian nationals'
p32
sS'det_loc'
p33
(lp34
S'India'
p35
ag24
ag24
aS'New Delhi'
p36
ag24
asS'terror_group'
p37
(lp38
g24
asS'content'
p39
S"A court here on Monday issued open warrants against three Iranian nationals who Delhi police allege were involved in the February 13 bombing of an Israeli diplomat 's car . Chief Metropolitan Magistrate Vinod Yadav issued the open warrant on the application moved by the Special Cell of Delhi Police . The Special Cell told the court that the trio had left the country immediately after the blast but their whereabouts were yet to be ascertained . An open warrant will allow authorities to proceed legally against the three men when they are apprehended . Application rejected Meanwhile , the court rejected freelance journalist Syed Mohammed Ahmad Kazmi 's application seeking copies of documents and evidence based on which his arrest had been made , pointing out that the matter was still in the investigation stage . OPEN"
p40
sS'injured'
p41
S'5'
p42
sS'org_unorg'
p43
S'Organized'
p44
sS'O'
p45
(lp46
S'court:2'
p47
aS'bombing:23'
p48
aS'diplomat:27'
p49
aS'car:29'
p50
aS'chief metropolitan:31'
p51
aS'magistrate:33'
p52
aS'warrant:39'
p53
aS'application:42'
p54
aS'cell:47'
p55
aS'cell:54'
p56
aS'court:57'
p57
aS'trio:60'
p58
aS'country:64'
p59
aS'blast:68'
p60
aS'whereabouts:71'
p61
aS'warrant:80'
p62
aS'application:96'
p63
aS'court:101'
p64
aS'freelance journalist:103'
p65
aS'application:110'
p66
aS'evidence:116'
p67
aS'arrest:121'
p68
aS'matter:130'
p69
aS'investigation stage:135'
p70
asS'unexpl'
p71
(lp72
g24
asS'ocassion'
p73
g24
sS'link'
p74
S'http://www.thehindu.com/todays-paper/tp-national/open-warrants-against-3-iranian-nationals/article2996456.ece'
p75
sS'date'
p76
S'13-02-2012'
p77
sS'target'
p78
S'personal transport'
p79
sS'hot_spot'
p80
S" Israeli diplomat 's car "
p81
sS'delivery_mod'
p82
S'Four wheeler'
p83
sS'delivery_met'
p84
S'Planted'
p85
sS'expl'
p86
(lp87
g24
asS'ORG'
p88
(lp89
s.