(dp0
S'LOC'
p1
(lp2
(lp3
S'hawala'
p4
aS'22'
p5
aS'Assoc Event Location'
p6
aa(lp7
S'Mumbai'
p8
aS'39'
p9
aS'Neutral'
p10
aa(lp11
S'Zaveri Bazar'
p12
aS'152'
p13
aS'Event'
p14
aa(lp15
S'Opera House'
p16
aS'155'
p17
aS'Event'
p18
aa(lp19
S'Dadar Kabutarkhana'
p20
aS'158'
p21
aS'Event'
p22
aa(lp23
S'Opera House'
p24
aS'182'
p25
aS'Event'
p26
aa(lp27
S'Zaveri Bazar'
p28
aS'214'
p29
aS'Event'
p30
aa(lp31
S'Zaveri Bazar'
p32
aS'229'
p33
aS'Event'
p34
aa(lp35
S'Darbhanga'
p36
aS'249'
p37
aS'Source'
p38
aa(lp39
S'Bihar'
p40
aS'251'
p41
aS'Source'
p42
aa(lp43
S'Mumbai'
p44
aS'256'
p45
aS'Assoc Event Location'
p46
aa(lp47
S'Saudi Arabia'
p48
aS'342'
p49
aS'Assoc Event Location'
p50
aa(lp51
S'hawala'
p52
aS'345'
p53
aS'Assoc Event Location'
p54
aa(lp55
S'New Delhi'
p56
aS'349'
p57
aS'Neutral'
p58
aasS'PER'
p59
(lp60
(lp61
S'Haroon Rashid Naik'
p62
aS'17'
p63
aS'Others'
p64
aa(lp65
S'Kanwar Nain Pathrija'
p66
aS'24'
p67
aS'Accused'
p68
aa(lp69
S'Haroon'
p70
aS'41'
p71
aS'Accused'
p72
aa(lp73
S'Haroon'
p74
aS'133'
p75
aS'Accused'
p76
aa(lp77
S'Pathrija'
p78
aS'135'
p79
aS'Accused'
p80
aa(lp81
S'Naquee Ahmed Wasi Ahmed Sheikh'
p82
aS'170'
p83
aS'Accused'
p84
aa(lp85
S'Nadeem Ahmed Ashfaq Sheikh'
p86
aS'176'
p87
aS'Accused'
p88
aa(lp89
S'Naquee'
p90
aS'242'
p91
aS'Accused'
p92
aa(lp93
S'Nadeem'
p94
aS'244'
p95
aS'Accused'
p96
aa(lp97
S'Haroon'
p98
aS'281'
p99
aS'Accused'
p100
aa(lp101
S'Haroon'
p102
aS'313'
p103
aS'Accused'
p104
aa(lp105
S'Pathrija'
p106
aS'347'
p107
aS'Accused'
p108
aasS'TIM'
p109
(lp110
sS'hot_setting'
p111
S''
p112
sS'DAT'
p113
(lp114
S'July 13 , 2011 : 29'
p115
aS'February 18:137'
p116
aS'February 17:144'
p117
aS'July 13:161'
p118
aS'Friday:192'
p119
aS'February 24:202'
p120
aS'August 2011:300'
p121
aS'February 1:324'
p122
asS'death'
p123
g112
sS'title'
p124
S'Police custody of 13/7 blasts accused extended'
p125
sS'org_unorg'
p126
S'Organized'
p127
sS'terror_group'
p128
(lp129
S'Indian Mujahideen'
p130
asS'content'
p131
S"A court here has extended the police custody of alleged Indian Mujahideen ( IM ) operative Haroon Rashid Naik and Delhi-based hawala operator Kanwar Nain Pathrija in the July 13 , 2011 , triple bomb blasts case in Mumbai . Haroon pleaded innocent before the court after he asked the court the reason for his arrest . The Maharashtra Anti-Terrorism Squad ( ATS ) has so far made four arrests in the case . All four have been charged under various sections of the Unlawful Activities ( Prevention ) Act , the Explosives Act , the Indian Penal Code , etc. . The court also granted police custody to the other two accused in another bomb blast case the same day . Thus all four accused are to stay in police custody Haroon and Pathrija till February 18 and the other two till February 17 . Three bombs went off at Zaveri Bazar , Opera House and Dadar Kabutarkhana on July 13 last year . The ATS earlier arrested Naquee Ahmed Wasi Ahmed Sheikh and Nadeem Ahmed Ashfaq Sheikh in the Opera House blast case . Their police custody ended on Friday , after which they were granted judicial custody till February 24 . But the ATS showed them as arrested in the Zaveri Bazar blast case and sought their custody . They have booked them for the Zaveri Bazar blast now , the lawyer for both the accused said . Naquee and Nadeem , both hailing from Darbhanga in Bihar , were arrested in Mumbai by the ATS on the charge of involvement in the blasts . They were previously arrested for procuring SIM cards with fake documents . Haroon was in prison since last year after the ATS arrested him in a fake Indian currency case in August 2011 . Last month , the ATS filed a transfer request for Haroon 's custody in the case , which was granted on February 1 . The ATS has accused him of sending Rs .10 lakh used for the blast from Saudi Arabia to hawala operator Pathrija in New Delhi . OPEN"
p132
sS'injured'
p133
g112
sS'det_loc'
p134
(lp135
S'India'
p136
aS'Maharashtra'
p137
aS'Mumbai-City'
p138
ag112
ag112
asS'O'
p139
(lp140
S'court:2'
p141
aS'custody:8'
p142
aS'im:14'
p143
aS'operative:16'
p144
aS'bomb:35'
p145
aS'arrest:56'
p146
aS'indian penal code:97'
p147
aS'custody:108'
p148
aS'bomb blast case:116'
p149
aS'custody:132'
p150
aS'blast case:184'
p151
aS'custody:189'
p152
aS'custody:200'
p153
aS'blast case:216'
p154
aS'custody:221'
p155
aS'blast:231'
p156
aS'lawyer:235'
p157
aS'charge:262'
p158
aS'involvement:264'
p159
aS'prison:284'
p160
aS'year:287'
p161
aS'currency case:297'
p162
aS'month:304'
p163
aS'transfer request:310'
p164
aS'custody:315'
p165
aS'case:318'
p166
aS'blast:340'
p167
asS'unexpl'
p168
(lp169
g112
asS'ocassion'
p170
g112
sS'link'
p171
S'http://www.thehindu.com/todays-paper/tp-national/tp-newdelhi/police-custody-of-137-blasts-accused-extended/article2884563.ece'
p172
sS'date'
p173
S'11-02-2012'
p174
sS'target'
p175
S'Market Place'
p176
sS'hot_spot'
p177
g112
sS'delivery_mod'
p178
g112
sS'delivery_met'
p179
g112
sS'expl'
p180
(lp181
g112
asS'ORG'
p182
(lp183
(lp184
S'Indian Mujahideen'
p185
aS'11'
p186
aS'Accused'
p187
aa(lp188
S'Maharashtra Anti-Terrorism Squad'
p189
aS'59'
p190
aS'Others'
p191
aas.