(dp0
S'LOC'
p1
(lp2
(lp3
S'Sitanagaram'
p4
aS'14'
p5
aS'Event'
p6
aa(lp7
S'Dummugudem mandal'
p8
aS'16'
p9
aS'Event'
p10
aa(lp11
S'Sitanagaram'
p12
aS'87'
p13
aS'Event'
p14
aa(lp15
S'Chhattisgarh'
p16
aS'200'
p17
aS'Event'
p18
aasS'PER'
p19
(lp20
(lp21
S'forest section officer'
p22
aS'74'
p23
aS'Victim'
p24
aa(lp25
S'Kurasam Rajulu'
p26
aS'78'
p27
aS'Victim'
p28
aa(lp29
S'Adivasis'
p30
aS'122'
p31
aS'Assoc Victim'
p32
aasS'TIM'
p33
(lp34
S'2 a.m.:89'
p35
asS'hot_setting'
p36
S''
p37
sS'DAT'
p38
(lp39
S'Monday:23'
p40
aS'May 16:42'
p41
asS'death'
p42
g37
sS'title'
p43
S"Maoists attempt to blast forest official's quarters"
p44
sS'det_loc'
p45
(lp46
S'India'
p47
ag37
ag37
ag37
aS'Sitanagaram in Dummugudem mandal,khammam'
p48
asS'terror_group'
p49
(lp50
S'Maoist Communist Centre (MCC)'
p51
asS'content'
p52
S"Maoists made an attempt to blast a forest section officer 's quarters at Sitanagaram in Dummugudem mandal in the early hours of Monday . The incident comes just two days ahead of the nationwide bandh called by the banned outfit on May 16 against Operation Green Hunt and the proposed National Counter Terrorism Centre . According to sources , the Maoists , mainly comprising militia members , went to the quarters of the forest section officer , Kurasam Rajulu , abutting the Bhadrachalam-Charla main road at Sitanagaram around 2 a.m. . A group went inside the quarters and woke up the official , who was alone . Partial damage The naxalites hit him with rifle butts and accused him of harassing Adivasis . After throwing his belongings outside the quarters , the Maoists planted two tiffin carriers containing explosive material inside the quarters . They then set off the bombs . One of them went off causing partial damage to the floor and doors . They snatched the official 's mobile phone and left behind a poster calling upon people to make the bandh a success . The incident , which occurred a few kilometres from the border with Chhattisgarh , caught the local police by surprise . OPEN"
p53
sS'injured'
p54
g37
sS'org_unorg'
p55
S'Organized'
p56
sS'O'
p57
(lp58
S'attempt:4'
p59
aS'blast:6'
p60
aS'forest section officer:8'
p61
aS'mandal:17'
p62
aS'incident:26'
p63
aS'bandh:35'
p64
aS'outfit:40'
p65
aS'operation green hunt:45'
p66
aS'operation green:45'
p67
aS'hunt:47'
p68
aS'national counter terrorism centre:51'
p69
aS'militia:65'
p70
aS'forest section officer:74'
p71
aS'bhadrachalam-charla:83'
p72
aS'road:85'
p73
aS'group:93'
p74
aS'official:102'
p75
aS'damage:109'
p76
aS'hit:112'
p77
aS'rifle:115'
p78
aS'tiffin:136'
p79
aS'explosive material:139'
p80
aS'set:147'
p81
aS'damage:159'
p82
aS'floor:162'
p83
aS'official:169'
p84
aS'phone:172'
p85
aS'poster:177'
p86
aS'bandh:184'
p87
aS'success:186'
p88
aS'incident:189'
p89
aS'border:198'
p90
aS'surprise:207'
p91
asS'unexpl'
p92
(lp93
g37
asS'ocassion'
p94
S'Riots'
p95
sS'link'
p96
S'http://www.thehindu.com/todays-paper/tp-national/tp-andhrapradesh/maoists-attempt-to-blast-forest-officials-quarters/article3419954.ece'
p97
sS'date'
p98
S'14-05-2012'
p99
sS'target'
p100
S'quarters'
p101
sS'hot_spot'
p102
g37
sS'delivery_mod'
p103
S'tiffin'
p104
sS'delivery_met'
p105
S'Planted'
p106
sS'expl'
p107
(lp108
g37
asS'ORG'
p109
(lp110
(lp111
S'National Counter Terrorism Centre'
p112
aS'51'
p113
aS'Others'
p114
aa(lp115
S'Maoists'
p116
aS'61'
p117
aS'Accused'
p118
aa(lp119
S'naxalites'
p120
aS'111'
p121
aS'Accused'
p122
aa(lp123
S'Maoists'
p124
aS'133'
p125
aS'Accused'
p126
aas.