(dp0
S'LOC'
p1
(lp2
(lp3
S'Peshawar city'
p4
aS'11'
p5
aS'Neutral'
p6
aa(lp7
S'Peshawar'
p8
aS'11'
p9
aS'Neutral'
p10
aa(lp11
S'Pakistan'
p12
aS'15'
p13
aS'Neutral'
p14
aa(lp15
S'Phandu Baba shrine'
p16
aS'35'
p17
aS'Event'
p18
aa(lp19
S'Chamkani'
p20
aS'39'
p21
aS'Event'
p22
aa(lp23
S'Peshawar'
p24
aS'70'
p25
aS'Assoc Event Location'
p26
aa(lp27
S'Nowshera'
p28
aS'72'
p29
aS'Assoc Event Location'
p30
aa(lp31
S'Kaka Sahib shrine'
p32
aS'124'
p33
aS'Assoc Event Location'
p34
aa(lp35
S'Nowshera'
p36
aS'128'
p37
aS'Assoc Event Location'
p38
aa(lp39
S'Grand Trunk Road'
p40
aS'148'
p41
aS'Neutral'
p42
aa(lp43
S'Nowshera'
p44
aS'152'
p45
aS'Neutral'
p46
aasS'PER'
p47
(lp48
(lp49
S'Mian Umar Baba'
p50
aS'96'
p51
aS'Others'
p52
aasS'TIM'
p53
(lp54
sS'hot_setting'
p55
S''
p56
sS'DAT'
p57
(lp58
S'Saturday:49'
p59
aS'October:77'
p60
aS'October 28:77'
p61
aS'Friday:81'
p62
aS'October:106'
p63
aS'October 28:106'
p64
asS'death'
p65
g56
sS'title'
p66
S'Militants bomb Sufi shrine in Pakistan'
p67
sS'org_unorg'
p68
S'Organized'
p69
sS'terror_group'
p70
(lp71
g56
asS'content'
p72
S'Militants have bombed a Sufi shrine on the outskirts of Peshawar city of northwest Pakistan , the third such attack in the region since last week . The powerful bomb went off at the Phandu Baba shrine in Chamkani , a suburb of the provincial capital , late Saturday though there were no casualties . The blast caused extensive damage to the shrine . At least three shrines in Peshawar and Nowshera have been attacked since October 28 . On Friday , a bomb disposal squad had defused an improvised explosive device planted at the Mian Umar Baba shrine in the same village . On October 28 , four persons were killed and several others injured when a bomb went off at the Kaka Sahib shrine in Nowshera town . The attack was condemned by political parties and civil society groups . Hundreds of people blocked the Grand Trunk Road in Nowshera to protest the blast . No group has claimed responsibility for the attacks though the Taliban has been blamed for bombing shrines . The militants consider the practice of visiting shrines to be un-Islamic . PTI OPEN'
p73
sS'injured'
p74
g56
sS'det_loc'
p75
(lp76
S'Pakistan'
p77
ag56
ag56
aS'Islamabad'
p78
ag56
asS'O'
p79
(lp80
S'Sufi shrine:5'
p81
aS'bomb:30'
p82
aS'suburb:42'
p83
aS'capital:46'
p84
aS'blast:57'
p85
aS'damage:60'
p86
aS'shrine:63'
p87
aS'bomb disposal squad:84'
p88
aS'explosive device:91'
p89
aS'village:103'
p90
aS'bomb:119'
p91
aS'town:129'
p92
aS'attack:132'
p93
aS'society:140'
p94
aS'protest:154'
p95
aS'blast:156'
p96
aS'group:159'
p97
aS'responsibility:162'
p98
aS'taliban:168'
p99
aS'bombing:173'
p100
aS'practice:180'
p101
asS'unexpl'
p102
(lp103
g56
asS'ocassion'
p104
g56
sS'link'
p105
S'http://www.thehindu.com/todays-paper/tp-in-school/militants-bomb-sufi-shrine-in-pakistan/article4065602.ece'
p106
sS'date'
p107
S'04-11-2012'
p108
sS'target'
p109
g56
sS'hot_spot'
p110
g56
sS'delivery_mod'
p111
g56
sS'delivery_met'
p112
g56
sS'expl'
p113
(lp114
g56
asS'ORG'
p115
(lp116
(lp117
S'Taliban'
p118
aS'168'
p119
aS'Others'
p120
aas.