(dp0
S'LOC'
p1
(lp2
(lp3
S'Buguda'
p4
aS'8'
p5
aS'Event'
p6
aa(lp7
S'Ganjam'
p8
aS'10'
p9
aS'Event'
p10
aasS'PER'
p11
(lp12
sS'TIM'
p13
(lp14
sS'hot_setting'
p15
S''
p16
sS'DAT'
p17
(lp18
S'Monday afternoon:13'
p19
asS'death'
p20
g16
sS'title'
p21
S'Crude bombs hurled at liquor shop'
p22
sS'org_unorg'
p23
S'Organized'
p24
sS'terror_group'
p25
(lp26
S'Miscreants,Dacoits & Smuggler Gang'
p27
asS'content'
p28
S'Two miscreants terrorised the market place at Buguda in Ganjam district on Monday afternoon . They came on a motorcycle and hurled crude bombs at a foreign liquor shop . No one was injured by the blast of these crude bombs . The miscreants managed to escape from the spot . According to polices sources rivalry related to liquor trading may be the reason behind the attack . OPEN'
p29
sS'injured'
p30
g16
sS'det_loc'
p31
(lp32
S'India'
p33
aS'Orissa'
p34
aS'Ganjam'
p35
aS'Buguda'
p36
ag16
asS'O'
p37
(lp38
S'market place:5'
p39
aS'afternoon:14'
p40
aS'motorcycle:20'
p41
aS'crude bombs:23'
p42
aS'liquor shop:28'
p43
aS'injured:34'
p44
aS'crude bombs:40'
p45
aS'escape:47'
p46
aS'rivalry:56'
p47
aS'liquor trading:59'
p48
aS'attack:67'
p49
asS'unexpl'
p50
(lp51
g16
asS'ocassion'
p52
g16
sS'link'
p53
S'http://www.thehindu.com/todays-paper/tp-national/tp-otherstates/crude-bombs-hurled-at-liquor-shop/article3492233.ece'
p54
sS'date'
p55
S'04-06-2012'
p56
sS'target'
p57
S'Market Place'
p58
sS'hot_spot'
p59
g16
sS'delivery_mod'
p60
g16
sS'delivery_met'
p61
S'Thrown'
p62
sS'expl'
p63
(lp64
S'Crude bomb'
p65
asS'ORG'
p66
(lp67
s.