(dp0
S'LOC'
p1
(lp2
(lp3
S'northwest Pakistan'
p4
aS'18'
p5
aS'Event'
p6
aa(lp7
S'Khyber Pakhtunkhwa'
p8
aS'44'
p9
aS'Event'
p10
aa(lp11
S'Pakistan'
p12
aS'144'
p13
aS'Neutral'
p14
aasS'PER'
p15
(lp16
(lp17
S'Dera Ismail Khan'
p18
aS'40'
p19
aS'Others'
p20
aa(lp21
S'Anwar Khan Akbar'
p22
aS'87'
p23
aS'Comment'
p24
aa(lp25
S'Nazir Khan'
p26
aS'93'
p27
aS'Comment'
p28
aa(lp29
S'Khalid Aziz'
p30
aS'131'
p31
aS'Comment'
p32
aasS'TIM'
p33
(lp34
sS'hot_setting'
p35
S'Ashura'
p36
sS'DAT'
p37
(lp38
S'Saturday : 52'
p39
asS'death'
p40
S'3'
p41
sS'title'
p42
S'Bomb attack on Shiite parade kills three in Pakistan'
p43
sS'det_loc'
p44
(lp45
S'Pakistan'
p46
aS''
p47
ag47
aS'Khyber Pakhtunkhwa'
p48
aS' Dera Ismail Khan in Khyber Pakhtunkhwa province'
p49
asS'terror_group'
p50
(lp51
g47
asS'content'
p52
S"A bomb attack on a Shiite Muslim procession killed three people and wounded more than 50 in northwest Pakistan on Sunday as Shiites marked their holiest day Ashura , police said . The bomb exploded in the city of Dera Ismail Khan in Khyber Pakhtunkhwa province , where a blast on Saturday killed eight people near a Shiite Muslim procession . `` Three people have been killed and more than 50 injured . The target of the attack was the Ashura procession , '' police official Anwar Khan Akbar told AFP . Nazir Khan , a second police official in the city , said the bomb was planted inside a shop . `` It was a remote-controlled bomb and exploded as a procession reached here , '' he said . Khalid Aziz , a doctor in the city 's main hospital , told Pakistan 's private ARY TV channel the condition of some of the injured was critical.AFP OPEN"
p53
sS'injured'
p54
g47
sS'org_unorg'
p55
S'Organized'
p56
sS'O'
p57
(lp58
S'bomb attack:2'
p59
aS'procession:8'
p60
aS'day:27'
p61
aS'bomb:34'
p62
aS'city:38'
p63
aS'blast:50'
p64
aS'procession:60'
p65
aS'target:75'
p66
aS'attack:78'
p67
aS'procession:82'
p68
aS'official:86'
p69
aS'official:99'
p70
aS'city:102'
p71
aS'bomb:106'
p72
aS'shop:111'
p73
aS'bomb:118'
p74
aS'procession:123'
p75
aS'doctor:135'
p76
aS'city:138'
p77
aS'hospital:141'
p78
aS'condition:151'
p79
asS'unexpl'
p80
(lp81
g47
asS'ocassion'
p82
S'Religious festivals'
p83
sS'link'
p84
S'http://www.thehindu.com/todays-paper/tp-in-school/bomb-attack-on-shiite-parade-kills-three-in-pakistan/article4135170.ece'
p85
sS'date'
p86
S'23-09-2012'
p87
sS'target'
p88
S'Market Place'
p89
sS'hot_spot'
p90
g47
sS'delivery_mod'
p91
g47
sS'delivery_met'
p92
S'Planted'
p93
sS'expl'
p94
(lp95
g47
asS'ORG'
p96
(lp97
(lp98
S'Shiite Muslim'
p99
aS'6'
p100
aS'Victim'
p101
aa(lp102
S'Shiites'
p103
aS'23'
p104
aS'Victim'
p105
aa(lp106
S'Shiite Muslim'
p107
aS'58'
p108
aS'Victim'
p109
aa(lp110
S'ARY TV channel'
p111
aS'147'
p112
aS'Others'
p113
aas.