(dp0
S'LOC'
p1
(lp2
(lp3
S'Peshawar'
p4
aS'23'
p5
aS'Event'
p6
aa(lp7
S'Khyber-Pukhtoonkhwa Assembly'
p8
aS'53'
p9
aS'Neutral'
p10
aa(lp11
S'Taliban'
p12
aS'112'
p13
aS'Neutral'
p14
aasS'PER'
p15
(lp16
(lp17
S'Khushdil Khan'
p18
aS'56'
p19
aS'Victim'
p20
aa(lp21
S'Khan'
p22
aS'62'
p23
aS'Victim'
p24
aasS'TIM'
p25
(lp26
S'evening : 41'
p27
asS'hot_setting'
p28
S''
p29
sS'DAT'
p30
(lp31
S'Sunday morning:25'
p32
asS'death'
p33
S'13'
p34
sS'title'
p35
S'Blast at Peshawar funeral kills 13'
p36
sS'org_unorg'
p37
g29
sS'terror_group'
p38
(lp39
S'AWAMI NATIONAL PARTY (ANP)'
p40
asS'content'
p41
S"At least 13 people were killed and thrice the number injured in a suicide attack near a graveyard on the outskirts of Peshawar on Sunday morning . Though no organisation had claimed responsibility for the attack till late in the evening , police suspect the target was the Deputy Speaker of the Khyber-Pukhtoonkhwa Assembly , Khushdil Khan . ANP targeted Mr. Khan , a member of the Awami National Party , escaped unhurt as he had left the place after offering funeral prayers for a member of the local community . According to the police , he had formed an anti-Taliban lashkar ' and was on the hit list of the Taliban . Late last month also , the senior leadership of the ANP had been targeted in a bomb blast but all of them , including the Khyber-Pukhtoonkhwa Chief Minister , escaped unhurt . OPEN"
p42
sS'injured'
p43
S'3'
p44
sS'det_loc'
p45
(lp46
S'Pakistan'
p47
ag29
ag29
aS'Peshawar'
p48
ag29
asS'O'
p49
(lp50
S'suicide attack:14'
p51
aS'graveyard:18'
p52
aS'responsibility:33'
p53
aS'attack:36'
p54
aS'suspect:44'
p55
aS'target:46'
p56
aS'Deputy Speaker:49'
p57
aS'Khyber-Pukhtoonkhwa Assembly:53'
p58
aS'unhurt:73'
p59
aS'funeral prayers:82'
p60
aS'local community:89'
p61
aS'anti-Taliban lashkar:101'
p62
aS'Khyber-Pukhtoonkhwa Chief Minister:139'
p63
aS'unhurt:144'
p64
asS'unexpl'
p65
(lp66
g29
asS'ocassion'
p67
g29
sS'link'
p68
S'http://www.thehindu.com/todays-paper/tp-international/blast-at-peshawar-funeral-kills-13/article2986066.ece'
p69
sS'date'
p70
S'11-03-2012'
p71
sS'target'
p72
S'GOVERNMENT PERSONNEL'
p73
sS'hot_spot'
p74
g29
sS'delivery_mod'
p75
S'HUMAN'
p76
sS'delivery_met'
p77
S'PLANTED'
p78
sS'expl'
p79
(lp80
g29
asS'ORG'
p81
(lp82
(lp83
S'ANP'
p84
aS'59'
p85
aS'Accused'
p86
aa(lp87
S'Awami National Party'
p88
aS'68'
p89
aS'Accused'
p90
aas.