(dp0
S'LOC'
p1
(lp2
(lp3
S'Samjhauta Express'
p4
aS'29'
p5
aS'Event'
p6
aa(lp7
S'Panchkula'
p8
aS'69'
p9
aS'Neutral'
p10
aa(lp11
S'Delhi-Lahore train'
p12
aS'92'
p13
aS'Event'
p14
aasS'PER'
p15
(lp16
(lp17
S'Kamal Chauhan'
p18
aS'1'
p19
aS'Accused'
p20
aa(lp21
S'Chauhan'
p22
aS'55'
p23
aS'Accused'
p24
aasS'TIM'
p25
(lp26
sS'hot_setting'
p27
S''
p28
sS'DAT'
p29
(lp30
S'Tuesday:19'
p31
aS'2007:32'
p32
aS'February:79'
p33
aS'February 24:79'
p34
asS'death'
p35
S'68'
p36
sS'title'
p37
S'Chauhan says he planted Samjhauta bombs'
p38
sS'org_unorg'
p39
S'Organized'
p40
sS'terror_group'
p41
(lp42
g28
asS'content'
p43
S'Kamal Chauhan , a disgruntled former Rashtriya Swayamsevak Sangh worker arrested by the National Investigation Agency , on Tuesday claimed that he had planted bombs on board the Samjhauta Express in 2007 . The blast left 68 people , mostly Pakistanis , dead . Yes , I have done it on my will , Chauhan told journalists as he was being taken out after in-camera proceedings in the Panchkula court , which granted the NIA his custody till February 24 for questioning him on his role in the blast on the Delhi-Lahore train . PTI OPEN'
p44
sS'injured'
p45
g28
sS'det_loc'
p46
(lp47
S'India'
p48
aS'Haryana'
p49
aS'Panchkula'
p50
ag28
ag28
asS'O'
p51
(lp52
S'worker:10'
p53
aS'planted bombs on board:24'
p54
aS'board:27'
p55
aS'blast:35'
p56
aS'pakistanis:41'
p57
aS'dead:43'
p58
aS'in-camera:65'
p59
aS'custody:77'
p60
aS'questioning:82'
p61
aS'role:86'
p62
aS'blast:89'
p63
asS'unexpl'
p64
(lp65
g28
asS'ocassion'
p66
g28
sS'link'
p67
S'http://www.thehindu.com/todays-paper/chauhan-says-he-planted-samjhauta-bombs/article2894626.ece'
p68
sS'date'
p69
S'14-02-2012'
p70
sS'target'
p71
S'Public Transport'
p72
sS'hot_spot'
p73
S'Samjhauta Express'
p74
sS'delivery_mod'
p75
g28
sS'delivery_met'
p76
S'Planted'
p77
sS'expl'
p78
(lp79
g28
asS'ORG'
p80
(lp81
(lp82
S'Rashtriya Swayamsevak Sangh'
p83
aS'7'
p84
aS'Others'
p85
aa(lp86
S'National Investigation Agency'
p87
aS'14'
p88
aS'Others'
p89
aa(lp90
S'NIA'
p91
aS'75'
p92
aS'Others'
p93
aas.