(dp0
S'LOC'
p1
(lp2
(lp3
S'Sivasagar'
p4
aS'20'
p5
aS'Event'
p6
aa(lp7
S'Dibrugarh'
p8
aS'70'
p9
aS'Neutral'
p10
aa(lp11
S'Sivasagar'
p12
aS'80'
p13
aS'Neutral'
p14
aa(lp15
S'Central Market'
p16
aS'129'
p17
aS'Event'
p18
aa(lp19
S'Lakshmi Talkies'
p20
aS'132'
p21
aS'Event'
p22
aasS'PER'
p23
(lp24
(lp25
S'Paresh Barua'
p26
aS'36'
p27
aS'Accused'
p28
aa(lp29
S'G. D. Tripathi'
p30
aS'52'
p31
aS'Comment'
p32
aa(lp33
S'Mr. Tripathi'
p34
aS'115'
p35
aS'Comment'
p36
aasS'TIM'
p37
(lp38
sS'hot_setting'
p39
S''
p40
sS'DAT'
p41
(lp42
S'Monday:23'
p43
asS'death'
p44
S'1'
p45
sS'title'
p46
S'One killed as bomb goes off in Assam'
p47
sS'det_loc'
p48
(lp49
S'India'
p50
aS'Assam'
p51
aS'Sivasagar'
p52
ag40
aS'between Central Market and Lakshmi Talkies'
p53
asS'terror_group'
p54
(lp55
S'United Liberation Front of Assam (ULFA'
p56
asS'content'
p57
S'One person was killed and seven injured when a bicycle-bomb went off outside a cinema hall in Upper Assams Sivasagar town on Monday night . Police suspect that the blast was the handiwork of the Paresh Barua faction of the United Liberation Front of Asom ( ULFA ) . Home Secretary G. D. Tripathi told The Hindu that one critically injured person was shifted to Assam Medical College in Dibrugarh , while the others were admitted to hospitals in Sivasagar town . It is suspected that an improvised explosive device was used . Had the blast occurred in the evening when the place is crowded , there would have been many more casualties , Mr. Tripathi said . PTI reports : Police said the blast was triggered between Central Market and Lakshmi Talkies in the heart of the town . OPEN'
p58
sS'injured'
p59
S'7'
p60
sS'org_unorg'
p61
S'Organized'
p62
sS'O'
p63
(lp64
S'bicycle-bomb:10'
p65
aS'cinema hall:15'
p66
aS'town:21'
p67
aS'suspect:27'
p68
aS'blast:30'
p69
aS'handiwork:33'
p70
aS'home secretary:50'
p71
aS'person:62'
p72
aS'town:81'
p73
aS'improvised explosive device:88'
p74
aS'evening:100'
p75
aS'place:103'
p76
aS'blast:125'
p77
asS'unexpl'
p78
(lp79
g40
asS'ocassion'
p80
g40
sS'link'
p81
S'http://www.thehindu.com/todays-paper/one-killed-as-bomb-goes-off-in-assam/article3934144.ece'
p82
sS'date'
p83
S'24-09-2012'
p84
sS'target'
p85
S'Market Place'
p86
sS'hot_spot'
p87
g40
sS'delivery_mod'
p88
S'Bicycle'
p89
sS'delivery_met'
p90
S'Planted'
p91
sS'expl'
p92
(lp93
S'IED'
p94
asS'ORG'
p95
(lp96
(lp97
S'United Liberation Front of Asom'
p98
aS'41'
p99
aS'Accused'
p100
aa(lp101
S'ULFA'
p102
aS'47'
p103
aS'Accused'
p104
aa(lp105
S'The Hindu'
p106
aS'56'
p107
aS'Others'
p108
aa(lp109
S'Assam Medical College'
p110
aS'66'
p111
aS'Others'
p112
aas.