(dp0
S'LOC'
p1
(lp2
(lp3
S'Mattanchery'
p4
aS'16'
p5
aS'Accused Location'
p6
aa(lp7
S'Ahmedabad'
p8
aS'28'
p9
aS'Event'
p10
aa(lp11
S'Mattanchery'
p12
aS'65'
p13
aS'Accused Location'
p14
aa(lp15
S'Mattanchery'
p16
aS'116'
p17
aS'Accused Location'
p18
aa(lp19
S'Mattanchery RTO'
p20
aS'131'
p21
aS'Accused Location'
p22
aa(lp23
S'Mattanchery'
p24
aS'131'
p25
aS'Accused Location'
p26
aa(lp27
S'Kerala'
p28
aS'200'
p29
aS'Neutral'
p30
aa(lp31
S'Kozhikode'
p32
aS'219'
p33
aS'Event'
p34
aa(lp35
S'Bangalore'
p36
aS'237'
p37
aS'Neutral'
p38
aasS'PER'
p39
(lp40
(lp41
S'Shameer'
p42
aS'157'
p43
aS'Accused'
p44
aS'Assoc Accused'
p45
aa(lp46
S'Shameer'
p47
aS'63'
p48
aS'Assoc Accused'
p49
aa(lp50
S'Shameer'
p51
aS'73'
p52
aS'Assoc Accused'
p53
aa(lp54
S'Shameer'
p55
aS'137'
p56
aS'Assoc Accused'
p57
aa(lp58
S'Shameer'
p59
aS'147'
p60
aS'Assoc Accused'
p61
aa(lp62
S'Abdul Halim'
p63
aS'211'
p64
aS'Accused'
p65
aa(lp66
S'Thadiyentavide Nazeer'
p67
aS'242'
p68
aS'Assoc Accused'
p69
aasS'TIM'
p70
(lp71
sS'hot_setting'
p72
S''
p73
sS'DAT'
p74
(lp75
S'2008 : 27'
p76
aS'2003:118'
p77
asS'death'
p78
S'50'
p79
sS'title'
p80
S'Blasts: NIA collects details of Kerala man'
p81
sS'det_loc'
p82
(lp83
S'India'
p84
aS'Gujarat'
p85
ag73
aS'Ahmedabad'
p86
ag73
asS'terror_group'
p87
(lp88
g73
asS'content'
p89
S'A team of officers from the National Investigation Agency ( NIA ) conducted searches at Mattanchery here to collect details about a person in connection with 2008 Ahmedabad serial blasts . Informed sources said the owner of one of the three motorcycles used by the terrorists to plant bombs that killed nearly 50 people and injured more than 200 was identified as Shameer of Mattanchery . The NIA team narrowed down on Shameer after tracking the ownership details from the chassis number of the vehicle remains recovered from the blast site . The chassis number was referred to the dealer and later to the Regional Transport Office to learn that the motorbike was registered in Mattanchery in 2003 . It is learnt that the NIA team collected information from the Mattanchery RTO regarding the address of Shameer given in official records and got in touch with Shameer . According to information available from local sources , Shameer was working abroad and has returned recently . He is learnt to have told the NIA officials that he had sold the bike . The vehicle is learnt to have changed ownership many times . Religious extremists have been using vehicles from Kerala for terror activities in different parts of the country . Abdul Halim , arrested for twin blasts in Kozhikode , confessed to have attempted to steal a van from rural district here to be used in Bangalore blasts . Terror suspect Thadiyentavide Nazeer also confessed to Crime Branch officials during interrogation on probe about assault on a jeweller to stealing vehicles . OPEN'
p90
sS'injured'
p91
S'200'
p92
sS'org_unorg'
p93
g73
sS'O'
p94
(lp95
S'collect details:19'
p96
aS'ahmedabad serial blasts:28'
p97
aS'owner:36'
p98
aS'three motorcycles:41'
p99
aS'terrorists:46'
p100
aS'plant bombs:48'
p101
aS'chassis number:81'
p102
aS'blast site:90'
p103
aS'chassis number:94'
p104
aS'dealer:100'
p105
aS'motorbike:112'
p106
aS'official records:140'
p107
aS'local sources:154'
p108
aS'nia officials:173'
p109
aS'bike:180'
p110
aS'Religious extremists:193'
p111
aS'terror activities:202'
p112
aS'twin blasts:216'
p113
aS'attempted to steal a van:224'
p114
aS'bangalore blasts:237'
p115
aS'Terror suspect:240'
p116
aS'interrogation:251'
p117
aS'assault:255'
p118
aS'jeweller:258'
p119
aS'stealing vehicles:260'
p120
asS'unexpl'
p121
(lp122
g73
asS'ocassion'
p123
g73
sS'link'
p124
S'http://www.thehindu.com/todays-paper/tp-national/blasts-nia-collects-details-of-kerala-man/article3513632.ece'
p125
sS'date'
p126
S'13-05-2008'
p127
sS'target'
p128
g73
sS'hot_spot'
p129
g73
sS'delivery_mod'
p130
S'MOTORCYCLES'
p131
sS'delivery_met'
p132
S'PLANTED'
p133
sS'expl'
p134
(lp135
g73
asS'ORG'
p136
(lp137
(lp138
S'National Investigation Agency'
p139
aS'7'
p140
aS'Others'
p141
aa(lp142
S'NIA'
p143
aS'11'
p144
aS'Others'
p145
aa(lp146
S'NIA'
p147
aS'68'
p148
aS'Others'
p149
aa(lp150
S'Regional Transport Office'
p151
aS'105'
p152
aS'Others'
p153
aa(lp154
S'NIA'
p155
aS'125'
p156
aS'Others'
p157
aa(lp158
S'RTO'
p159
aS'132'
p160
aS'Others'
p161
aa(lp162
S'NIA'
p163
aS'173'
p164
aS'Others'
p165
aa(lp166
S'Crime Branch'
p167
aS'247'
p168
aS'Others'
p169
aas.