(dp0
S'LOC'
p1
(lp2
(lp3
S'Karaiyanchavadi'
p4
aS'8'
p5
aS'Neutral'
p6
aa(lp7
S'Poonamallee'
p8
aS'10'
p9
aS'Event'
p10
aa(lp11
S'Nagore'
p12
aS'46'
p13
aS'Neutral'
p14
aa(lp15
S'Nagore'
p16
aS'61'
p17
aS'Neutral'
p18
aa(lp19
S'Mayiladuthurai'
p20
aS'94'
p21
aS'Neutral'
p22
aasS'PER'
p23
(lp24
(lp25
S'Thangam'
p26
aS'52'
p27
aS'Victim'
p28
aa(lp29
S'Muthukrishnan'
p30
aS'59'
p31
aS'Victim'
p32
aa(lp33
S'Aaroon Ismail'
p34
aS'145'
p35
aS'Accused'
p36
aa(lp37
S'Riyab'
p38
aS'148'
p39
aS'Accused'
p40
aa(lp41
S'Kuthbhutheen'
p42
aS'150'
p43
aS'Accused'
p44
aa(lp45
S'Zahir Ussain'
p46
aS'152'
p47
aS'Accused'
p48
aa(lp49
S'Abdul Hajeez'
p50
aS'155'
p51
aS'Accused'
p52
aa(lp53
S'Raja Ussain'
p54
aS'158'
p55
aS'Accused'
p56
aa(lp57
S'Dubier'
p58
aS'161'
p59
aS'Accused'
p60
aa(lp61
S'Aaroon Ismail'
p62
aS'173'
p63
aS'Accused'
p64
aa(lp65
S'Riyab'
p66
aS'176'
p67
aS'Accused'
p68
aa(lp69
S'Kuthbhutheen'
p70
aS'178'
p71
aS'Accused'
p72
aa(lp73
S'Zahir Ussain'
p74
aS'180'
p75
aS'Accused'
p76
aa(lp77
S'Abdul Hajeez'
p78
aS'183'
p79
aS'Accused'
p80
aasS'TIM'
p81
(lp82
sS'hot_setting'
p83
S''
p84
sS'DAT'
p85
(lp86
S'1995:27'
p87
aS'July 3 , 1995 : 71'
p88
aS'February 1:169'
p89
asS'death'
p90
g84
sS'title'
p91
S'Life sentence for five'
p92
sS'det_loc'
p93
(lp94
S'India'
p95
aS'Tamil Nadu'
p96
aS'Chennai'
p97
aS'Karaiyanchavadi'
p98
ag84
asS'terror_group'
p99
(lp100
g84
asS'content'
p101
S'The Special Court for Blast Cases at Karaiyanchavadi , Poonamallee sentenced five persons to life imprisonment in connection with Nagore blast case registered in the year 1995 and acquitted two others who were charge-sheeted in the same case . The CB-CID police had investigated the Nagore blast case in which Ms. Thangam , wife of Hindu Munnani activist Muthukrishnan of Nagore was killed when she opened a parcel bomb on July 3 , 1995 . During investigation , it was revealed that another parcel was also sent to a BJP party functionary at Mayiladuthurai on the same day . However , the parcel was brought back to the post office as the addressee was not in station . The police who later opened the parcel found that it too contained a bomb and proceeded to defuse it . Subsequently , the CB CID arrested Aaroon Ismail , Riyab , Kuthbhutheen , Zahir Ussain , Abdul Hajeez , Raja Ussain and Dubier . . The Special Court Judge on February 1 sentenced on Aaroon Ismail , Riyab , Kuthbhutheen , Zahir Ussain and Abdul Hajeez . The other two were acquitted from the case , sources said . OPEN'
p102
sS'injured'
p103
g84
sS'org_unorg'
p104
S'Organized'
p105
sS'O'
p106
(lp107
S'special court:2'
p108
aS'blast:5'
p109
aS'life imprisonment:15'
p110
aS'connection:18'
p111
aS'nagore:20'
p112
aS'nagore blast case:20'
p113
aS'blast case:21'
p114
aS'year:26'
p115
aS'case:38'
p116
aS'cb-cid:41'
p117
aS'blast case:47'
p118
aS'wife:54'
p119
aS'hindu:56'
p120
aS'activist:58'
p121
aS'parcel bomb:68'
p122
aS'investigation:77'
p123
aS'parcel:84'
p124
aS'day:98'
p125
aS'parcel:103'
p126
aS'post office:109'
p127
aS'addressee:113'
p128
aS'station:117'
p129
aS'parcel:125'
p130
aS'bomb:132'
p131
aS'cb cid:142'
p132
aS'special court judge:165'
p133
aS'case:193'
p134
asS'unexpl'
p135
(lp136
g84
asS'ocassion'
p137
g84
sS'link'
p138
S'http://www.thehindu.com/todays-paper/tp-national/life-sentence-for-five/article2852357.ece'
p139
sS'date'
p140
S'01-02-2012'
p141
sS'target'
p142
g84
sS'hot_spot'
p143
g84
sS'delivery_mod'
p144
g84
sS'delivery_met'
p145
g84
sS'expl'
p146
(lp147
g84
asS'ORG'
p148
(lp149
(lp150
S'BJP'
p151
aS'90'
p152
aS'Others'
p153
aas.