(dp0
S'LOC'
p1
(lp2
(lp3
S'Meenakshinaickenpatti'
p4
aS'6'
p5
aS'Event'
p6
aa(lp7
S'Dindigul'
p8
aS'8'
p9
aS'Event'
p10
aasS'PER'
p11
(lp12
(lp13
S'S. Shanmugam'
p14
aS'52'
p15
aS'Victim'
p16
aa(lp17
S'T. Jayachandran'
p18
aS'67'
p19
aS'Comment'
p20
aasS'TIM'
p21
(lp22
sS'hot_setting'
p23
S''
p24
sS'DAT'
p25
(lp26
S'Thursday:15'
p27
asS'death'
p28
g24
sS'title'
p29
S'Bomb blast triggers panic'
p30
sS'org_unorg'
p31
S'Organized'
p32
sS'terror_group'
p33
(lp34
S'Miscreants,Dacoits & Smuggler Gang'
p35
asS'content'
p36
S'A powerful bomb blast at Meenakshinaickenpatti in Dindigul district in the early hours of Thursday created panic in the locality . The impact was so great that the petty shop where it detonated was totally ripped apart . Tension prevailed at the village since morning . The shop was owned by S. Shanmugam ( 41 ) . After inspecting the blast spot , Superintendent of Police T. Jayachandran said that investigations revealed that the bomb was a powerful one and further investigations were on to find out whether the bomb was stored by some unidentified persons in the shop . OPEN'
p37
sS'injured'
p38
g24
sS'det_loc'
p39
(lp40
S'India'
p41
aS'Tamil Nadu'
p42
aS'Dindigul'
p43
ag24
ag24
asS'O'
p44
(lp45
S'bomb blast:3'
p46
aS'district:9'
p47
aS'locality:20'
p48
aS'impact:23'
p49
aS'detonated:33'
p50
aS'tension:39'
p51
aS'shop:48'
p52
aS'blast spot:61'
p53
aS'bomb:75'
p54
aS'bomb:90'
p55
asS'unexpl'
p56
(lp57
g24
asS'ocassion'
p58
g24
sS'link'
p59
S'http://www.thehindu.com/todays-paper/bomb-blast-triggers-panic/article3944294.ece'
p60
sS'date'
p61
S'27-09-2012'
p62
sS'target'
p63
g24
sS'hot_spot'
p64
g24
sS'delivery_mod'
p65
g24
sS'delivery_met'
p66
S'Planted'
p67
sS'expl'
p68
(lp69
g24
asS'ORG'
p70
(lp71
s.