(dp0
S'LOC'
p1
(lp2
(lp3
S'Syria'
p4
aS'19'
p5
aS'Event'
p6
aa(lp7
S'Christian'
p8
aS'51'
p9
aS'Event'
p10
aa(lp11
S'Druze'
p12
aS'53'
p13
aS'Event'
p14
aa(lp15
S'Jaramana'
p16
aS'56'
p17
aS'Event'
p18
aasS'PER'
p19
(lp20
sS'TIM'
p21
(lp22
sS'hot_setting'
p23
S''
p24
sS'DAT'
p25
(lp26
S'Wednesday:23'
p27
asS'death'
p28
S'38'
p29
sS'title'
p30
S'second aircraft downed'
p31
sS'org_unorg'
p32
g24
sS'terror_group'
p33
(lp34
g24
asS'content'
p35
S"Simultaneous car bombings killed at least 38 people and left a trail of destruction in a town near Syria 's capital on Wednesday , as rebels downed a military aircraft for a second straight day . The explosives-packed cars were detonated at daybreak in a pro-regime neighbourhood of the mainly Christian and Druze town of Jaramana , residents , state media and a rights watchdog reported . The blasts ripped through a central square near a petrol station , sending residents fleeing in panic . OPEN"
p36
sS'injured'
p37
g24
sS'det_loc'
p38
(lp39
S'Syria'
p40
ag24
ag24
aS'JARAMANA'
p41
ag24
asS'O'
p42
(lp43
S'car bombings:2'
p44
aS'trail:12'
p45
aS'destruction:14'
p46
aS'military aircraft:29'
p47
aS'second straight day:33'
p48
aS'explosives-packed cars:38'
p49
aS'daybreak:43'
p50
aS'pro-regime:46'
p51
aS'state media:60'
p52
aS'watchdog:65'
p53
aS'blasts:69'
p54
aS'central square:73'
p55
aS'petrol station:77'
p56
asS'unexpl'
p57
(lp58
g24
asS'ocassion'
p59
g24
sS'link'
p60
S'http://www.thehindu.com/todays-paper/tp-in-school/second-aircraft-downed/article4144601.ece'
p61
sS'date'
p62
S'28-11-2012'
p63
sS'target'
p64
S'TOWN'
p65
sS'hot_spot'
p66
g24
sS'delivery_mod'
p67
S'CAR'
p68
sS'delivery_met'
p69
S'PLANTED'
p70
sS'expl'
p71
(lp72
g24
asS'ORG'
p73
(lp74
s.