(dp0
S'LOC'
p1
(lp2
(lp3
S'Uthangarai Bazaar'
p4
aS'16'
p5
aS'Neutral'
p6
aa(lp7
S'Krishnagiri Road'
p8
aS'19'
p9
aS'Neutral'
p10
aa(lp11
S'Uthangarai'
p12
aS'51'
p13
aS'Neutral'
p14
aa(lp15
S'Salem'
p16
aS'169'
p17
aS'Neutral'
p18
aasS'PER'
p19
(lp20
(lp21
S'V. Kasi Viswanathan'
p22
aS'53'
p23
aS'Others'
p24
aa(lp25
S'Viswanathan'
p26
aS'55'
p27
aS'Others'
p28
aa(lp29
S'Viswanathan'
p30
aS'59'
p31
aS'Others'
p32
aa(lp33
S'T. Kanthalakshmi'
p34
aS'80'
p35
aS'Others'
p36
aa(lp37
S'Kanthalakshmi'
p38
aS'154'
p39
aS'Others'
p40
aa(lp41
S'Abishek Dixit'
p42
aS'232'
p43
aS'Others'
p44
aa(lp45
S'Abishek'
p46
aS'232'
p47
aS'Others'
p48
aa(lp49
S'Dixit'
p50
aS'233'
p51
aS'Others'
p52
aa(lp53
S'R. Sathish'
p54
aS'238'
p55
aS'Others'
p56
aa(lp57
S'R.'
p58
aS'238'
p59
aS'Others'
p60
aasS'TIM'
p61
(lp62
S'6.20 p.m.:22'
p63
asS'hot_setting'
p64
S''
p65
sS'DAT'
p66
(lp67
S'Monday:25'
p68
asS'death'
p69
S'1'
p70
sS'title'
p71
S'Country bomb goes off in tea shop, one killed'
p72
sS'org_unorg'
p73
S'Organized'
p74
sS'terror_group'
p75
(lp76
g65
asS'content'
p77
S"One person was killed on the spot in a blast at a tea shop in Uthangarai Bazaar on Krishnagiri Road around 6.20 p.m. on Monday . The shop was destroyed in the blast while a woman aged around 60 years escaped with minor injuries , Deputy Superintendent of Police , Uthangarai , V. Kasi Viswanathan said . Mr. Viswanathan told The Hindu that two persons , including a man carrying the country bomb came to the tea shop of T. Kanthalakshmi ( 60 ) on the Krishnagiri National Highway . The bomb accidently went off when one of them stepped on it from a bench after having tea . He was killed on the spot . The identity of the man was not known immediately and in the impact of the blast his body parts were strewn around . The other man who came along with him fled . Doctors said that Ms. Kanthalakshmi 's ear drum had been affected . They referred her to a hospital in Salem . The duo came on a bike with registration number TN 23 AQ 5727 . The police ruled out the use of gelatine sticks or other high-intensity explosives . They said the country made bomb , weighing about one kg , is generally used for killing wild boars invading fields . Forensic experts are collecting samples from the place of blast . Abishek Dixit , SP , and R. Sathish , Revenue Divisional Officer rushed to the spot . OPEN"
p78
sS'injured'
p79
g65
sS'det_loc'
p80
(lp81
S'India'
p82
aS'Tamil Nadu'
p83
ag65
aS'Uthangarai'
p84
ag65
asS'O'
p85
(lp86
S'spot:7'
p87
aS'blast:10'
p88
aS'tea shop:13'
p89
aS'blast:33'
p90
aS'woman:36'
p91
aS'deputy superintendent:46'
p92
aS'country bomb:72'
p93
aS'tea shop:77'
p94
aS'bomb:92'
p95
aS'bench:105'
p96
aS'identity:118'
p97
aS'impact:129'
p98
aS'blast:132'
p99
aS'hospital:167'
p100
aS'bike:176'
p101
aS'gelatine:192'
p102
aS'country:202'
p103
aS'bomb:204'
p104
aS'blast:230'
p105
aS'revenue:241'
p106
aS'divisional officer:242'
p107
aS'spot:247'
p108
asS'unexpl'
p109
(lp110
g65
asS'ocassion'
p111
g65
sS'link'
p112
S'http://www.thehindu.com/todays-paper/tp-national/country-bomb-goes-off-in-tea-shop-one-killed/article2965311.ece'
p113
sS'date'
p114
S'05-03-2012'
p115
sS'target'
p116
S'Market Place'
p117
sS'hot_spot'
p118
g65
sS'delivery_mod'
p119
S'Two wheeler'
p120
sS'delivery_met'
p121
S'Planted'
p122
sS'expl'
p123
(lp124
S'Crude bomb'
p125
asS'ORG'
p126
(lp127
(lp128
S'The Hindu'
p129
aS'61'
p130
aS'Others'
p131
aa(lp132
S'Hindu'
p133
aS'62'
p134
aS'Others'
p135
aa(lp136
S'Krishnagiri National'
p137
aS'87'
p138
aS'Others'
p139
aa(lp140
S'Krishnagiri National Highway'
p141
aS'87'
p142
aS'Others'
p143
aa(lp144
S'Highway'
p145
aS'89'
p146
aS'Others'
p147
aas.