(dp0
S'LOC'
p1
(lp2
(lp3
S'Sylhet'
p4
aS'8'
p5
aS'Neutral'
p6
aa(lp7
S'Bangladesh'
p8
aS'10'
p9
aS'Neutral'
p10
aa(lp11
S'Delhi'
p12
aS'142'
p13
aS'Neutral'
p14
aa(lp15
S'Kishtwar'
p16
aS'176'
p17
aS'Neutral'
p18
aa(lp19
S'Kishtwar'
p20
aS'209'
p21
aS'Neutral'
p22
aa(lp23
S'J&K'
p24
aS'211'
p25
aS'Neutral'
p26
aa(lp27
S'Delhi'
p28
aS'289'
p29
aS'Neutral'
p30
aa(lp31
S'Jammu'
p32
aS'383'
p33
aS'Neutral'
p34
aa(lp35
S'Bangladesh'
p36
aS'385'
p37
aS'Neutral'
p38
aa(lp39
S'Delhi'
p40
aS'387'
p41
aS'Neutral'
p42
aa(lp43
S'Pakistan'
p44
aS'412'
p45
aS'Neutral'
p46
aa(lp47
S'Kishtwar'
p48
aS'480'
p49
aS'Neutral'
p50
aa(lp51
S'Kud'
p52
aS'489'
p53
aS'Neutral'
p54
aa(lp55
S'Kishtwar'
p56
aS'513'
p57
aS'Neutral'
p58
aasS'PER'
p59
(lp60
(lp61
S'Wasim Akram Malik'
p62
aS'12'
p63
aS'Others'
p64
aa(lp65
S'Osama bin Laden'
p66
aS'42'
p67
aS'Others'
p68
aa(lp69
S'Mullah Omar'
p70
aS'51'
p71
aS'Others'
p72
aa(lp73
S'Wasim'
p74
aS'59'
p75
aS'Others'
p76
aa(lp77
S'Wasim'
p78
aS'84'
p79
aS'Others'
p80
aa(lp81
S'Wasim'
p82
aS'140'
p83
aS'Others'
p84
aa(lp85
S'Junaid Akram Malik'
p86
aS'187'
p87
aS'Others'
p88
aa(lp89
S'Amir Kamal'
p90
aS'191'
p91
aS'Others'
p92
aa(lp93
S'Chota Hafiz'
p94
aS'195'
p95
aS'Others'
p96
aa(lp97
S'Wasim'
p98
aS'251'
p99
aS'Others'
p100
aa(lp101
S'Wasim'
p102
aS'264'
p103
aS'Others'
p104
aa(lp105
S'Amir Kamal'
p106
aS'305'
p107
aS'Others'
p108
aa(lp109
S'Chota Hafiz'
p110
aS'308'
p111
aS'Others'
p112
aa(lp113
S'Wasim'
p114
aS'311'
p115
aS'Others'
p116
aa(lp117
S'Wasim'
p118
aS'337'
p119
aS'Others'
p120
aa(lp121
S'Amir Abbas Dev'
p122
aS'340'
p123
aS'Others'
p124
aa(lp125
S'Wasim'
p126
aS'380'
p127
aS'Others'
p128
aa(lp129
S'Abu Saifulla'
p130
aS'402'
p131
aS'Others'
p132
aa(lp133
S'Abu Bilal'
p134
aS'405'
p135
aS'Others'
p136
aa(lp137
S'Wasim'
p138
aS'408'
p139
aS'Others'
p140
aa(lp141
S'Wasim'
p142
aS'466'
p143
aS'Others'
p144
aa(lp145
S'Dev'
p146
aS'468'
p147
aS'Others'
p148
aa(lp149
S'Junaid'
p150
aS'492'
p151
aS'Others'
p152
aa(lp153
S'Wasim'
p154
aS'507'
p155
aS'Others'
p156
aa(lp157
S'Dev'
p158
aS'510'
p159
aS'Others'
p160
aa(lp161
S'Wasim'
p162
aS'521'
p163
aS'Others'
p164
aa(lp165
S'Abid Hussain Bhawani'
p166
aS'526'
p167
aS'Others'
p168
aa(lp169
S'Abid Hussain Bhwani'
p170
aS'556'
p171
aS'Others'
p172
aa(lp173
S'Amir Abbas Dev'
p174
aS'563'
p175
aS'Others'
p176
aasS'TIM'
p177
(lp178
sS'hot_setting'
p179
S''
p180
sS'DAT'
p181
(lp182
S'September 7 , 2011:25'
p183
aS'June 2011:147'
p184
aS'July:178'
p185
aS'July:244'
p186
aS'July:335'
p187
aS'July 29:389'
p188
aS'September 2:393'
p189
aS'September 7:436'
p190
aS'Wednesday:440'
p191
aS'September 4:463'
p192
aS'September 7:536'
p193
asS'death'
p194
g180
sS'title'
p195
S'Wasim was inspired by Osama, Mullah Omar and al-Zawahiri'
p196
sS'det_loc'
p197
(lp198
S'India'
p199
aS'Delhi'
p200
aS'New Delhi'
p201
ag180
ag180
asS'terror_group'
p202
(lp203
S'Hizb-ul-Mujahideen / Hizb-Ul-Mujahideen Pir Panjal Regiment'
p204
aS'al-Qaeda'
p205
asS'content'
p206
S"An MBBS student of a college at Sylhet in Bangladesh , Wasim Akram Malik , accused of plotting the Delhi High Court blast on September 7 , 2011 , was allegedly inspired by books and texts on the late al-Qaeda chief Osama bin Laden and the Taliban 's spiritual leader Mullah Omar he read on the Internet . Wasim had also read a lot about Ayman al-Zawahiri , an Egyptian doctor and current leader of the al-Qaeda . Being a doctor himself , Wasim identified with him and eulogised his contribution towards jihad . Jihad , he believed , was a means of revolution , which , if done with dedication , shall definitely bring about a change in the lives of the Kashmiri population , the National Investigation Agency said in a statement . The agency alleged that Wasim reached Delhi in the end of June 2011 and after reconnaissance of the Delhi High Court area chose to target Gate No : 5 to inflict maximum fatalities in an IED attack . After reaching Kishtwar in July , he contacted three Hizb-ul-Mujahideen militants his brother Junaid Akram Malik , Amir Kamal , and Chota Hafiz . He exhorted and instigated them to think big ' and beyond Kishtwar and J&K . ' He fully convinced them about the seriousness and gravity of his plan and his commitment towards jihad , the NIA said . During a meeting in the second week of July , the three Hizb-ul operatives approved Wasim 's plan of a terror strike at the Delhi High Court . Wasim insisted on highlighting the action in the national and international arena and the need for deploying non-Kashmiri looking boys for executing this task in Delhi . The responsibility of arranging non-Kashmiri boys and getting an IED fabricated was taken by Amir Kamal and Chota Hafiz . Wasim admitted that he sent the email to media houses claiming responsibility for the bomb blast . Jihadi project In the third week of July , Wasim directed accused Amir Abbas Dev to look for a confident person with good knowledge of computer and Internet and motivate him for undertaking an important Jihadi ' project . This person was to send the email to media houses . Thereafter , Wasim purportedly left Jammu for Bangladesh via Delhi on July 29 . On September 2 , the three Hizb-ul men allegedly introduced Abu Saifulla and Abu Bilal to Wasim as militants from Pakistan who had been arranged for carrying out the bomb blast . During this meeting , they allegedly planned to explode the IED on September 7 , a Wednesday , as Wednesdays are Public Interest Litigation ( PIL ) days at the High Court and consequently attract more litigants . On September 4 , Wasim and Dev allegedly dropped the two Pakistani militants at a bus stand at Kishtwar . The duo was supposed to proceed to Kud , where Junaid would allegedly hand over the briefcase containing the IED . The next day , Wasim allegedly met Dev again at Kishtwar and passed on the email message . Wasim instructed Dev to tell Abid Hussain Bhawani to keep watching TV news channels on September 7 , and to send the email a few hours after hearing the news about the bomb blast . Abid Hussain Bhwani followed the instructions of Amir Abbas Dev and sent the email as planned earlier , the statement said . OPEN"
p207
sS'injured'
p208
g180
sS'org_unorg'
p209
S'Organized'
p210
sS'O'
p211
(lp212
S'student:3'
p213
aS'college:6'
p214
aS'sylhet:8'
p215
aS'blast:23'
p216
aS'al-qaeda chief:40'
p217
aS'al-qaeda:40'
p218
aS'chief osama:41'
p219
aS'chief:41'
p220
aS'osama:42'
p221
aS'bin:43'
p222
aS'laden:44'
p223
aS'taliban:47'
p224
aS'leader:50'
p225
aS'internet:57'
p226
aS'lot:64'
p227
aS'ayman al-zawahiri:66'
p228
aS'doctor:71'
p229
aS'leader:74'
p230
aS'al-qaeda:77'
p231
aS'doctor:81'
p232
aS'contribution:91'
p233
aS'jihad:93'
p234
aS'jihad:95'
p235
aS'revolution:104'
p236
aS'dedication:111'
p237
aS'change:118'
p238
aS'kashmiri population:124'
p239
aS'kashmiri:124'
p240
aS'population:125'
p241
aS'statement:134'
p242
aS'agency:137'
p243
aS'end:145'
p244
aS'reconnaissance:151'
p245
aS'area:157'
p246
aS'target gate:160'
p247
aS'maximum:167'
p248
aS'ied attack:171'
p249
aS'hizb-ul-mujahideen:183'
p250
aS'hizb-ul-mujahideen militants:183'
p251
aS'j&k:211'
p252
aS'seriousness:220'
p253
aS'gravity:222'
p254
aS'plan:225'
p255
aS'commitment:228'
p256
aS'jihad:230'
p257
aS'meeting:238'
p258
aS'week:242'
p259
aS'hizb-ul:248'
p260
aS'plan:253'
p261
aS'terror strike:256'
p262
aS'action:269'
p263
aS'arena:275'
p264
aS'need:278'
p265
aS'task:287'
p266
aS'responsibility:292'
p267
aS'ied:300'
p268
aS'email:317'
p269
aS'responsibility:322'
p270
aS'bomb blast:325'
p271
aS'jihadi project:328'
p272
aS'jihadi:328'
p273
aS'project:329'
p274
aS'week:333'
p275
aS'look:344'
p276
aS'person:348'
p277
aS'knowledge:351'
p278
aS'computer:353'
p279
aS'internet:355'
p280
aS'undertaking:360'
p281
aS'important jihadi:362'
p282
aS'project:365'
p283
aS'person:368'
p284
aS'email:373'
p285
aS'hizb-ul:398'
p286
aS'bomb blast:421'
p287
aS'meeting:426'
p288
aS'ied:434'
p289
aS'public interest litigation:445'
p290
aS'public:445'
p291
aS'interest litigation:446'
p292
aS'pil:449'
p293
aS'dev:468'
p294
aS'bus:477'
p295
aS'duo:483'
p296
aS'kud:489'
p297
aS'junaid:492'
p298
aS'hand:495'
p299
aS'briefcase:498'
p300
aS'ied:501'
p301
aS'day:505'
p302
aS'dev:510'
p303
aS'email message:518'
p304
aS'dev:523'
p305
aS'tv news:532'
p306
aS'email:543'
p307
aS'hearing:548'
p308
aS'news:550'
p309
aS'bomb blast:553'
p310
aS'email:569'
p311
aS'statement:575'
p312
asS'unexpl'
p313
(lp314
g180
asS'ocassion'
p315
g180
sS'link'
p316
S'http://www.thehindu.com/todays-paper/tp-national/wasim-was-inspired-by-osama-mullah-omar-and-alzawahiri/article2992658.ece'
p317
sS'date'
p318
S'07-09-2011'
p319
sS'target'
p320
S'Government Building'
p321
sS'hot_spot'
p322
g180
sS'delivery_mod'
p323
S'Two wheeler'
p324
sS'delivery_met'
p325
S'Planted'
p326
sS'expl'
p327
(lp328
S'IED'
p329
asS'ORG'
p330
(lp331
(lp332
S'Delhi High Court'
p333
aS'20'
p334
aS'Others'
p335
aa(lp336
S'al-Qaeda'
p337
aS'40'
p338
aS'Others'
p339
aa(lp340
S'al-Qaeda'
p341
aS'77'
p342
aS'Others'
p343
aa(lp344
S'National Investigation Agency'
p345
aS'128'
p346
aS'Others'
p347
aa(lp348
S'Delhi High Court'
p349
aS'154'
p350
aS'Others'
p351
aa(lp352
S'Hizb-ul-Mujahideen'
p353
aS'183'
p354
aS'Others'
p355
aa(lp356
S'NIA'
p357
aS'233'
p358
aS'Others'
p359
aa(lp360
S'Hizb-ul'
p361
aS'248'
p362
aS'Others'
p363
aa(lp364
S'Delhi'
p365
aS'260'
p366
aS'Others'
p367
aa(lp368
S'Delhi High Court'
p369
aS'260'
p370
aS'Others'
p371
aa(lp372
S'Court'
p373
aS'262'
p374
aS'Others'
p375
aa(lp376
S'Hizb-ul'
p377
aS'398'
p378
aS'Others'
p379
aa(lp380
S'High Court'
p381
aS'454'
p382
aS'Others'
p383
aas.