(dp0
S'LOC'
p1
(lp2
(lp3
S'Yerwada jail'
p4
aS'19'
p5
aS'Accused Location'
p6
aa(lp7
S'Yerwada'
p8
aS'51'
p9
aS'Accused Location'
p10
aa(lp11
S'Pune'
p12
aS'72'
p13
aS'Accused Location'
p14
aa(lp15
S'Bangalore Chinnaswamy stadium'
p16
aS'225'
p17
aS'Event'
p18
aa(lp19
S'Delhi Jama Masjid'
p20
aS'233'
p21
aS'Event'
p22
aa(lp23
S'Delhi'
p24
aS'247'
p25
aS'Neutral'
p26
aa(lp27
S'Pune'
p28
aS'258'
p29
aS'Event'
p30
aa(lp31
S'Pune'
p32
aS'277'
p33
aS'Event'
p34
aa(lp35
S'Pune'
p36
aS'299'
p37
aS'Event'
p38
aa(lp39
S"Pune 's Shrimant Dagdusheth Halwai Ganpati Temple"
p40
aS'299'
p41
aS'Event'
p42
aa(lp43
S"Pune 's German Bakery Blast"
p44
aS'330'
p45
aS'Event'
p46
aa(lp47
S'Yerwada'
p48
aS'356'
p49
aS'Accused Location'
p50
aasS'PER'
p51
(lp52
(lp53
S'Mohammad Qateel Siddiqui'
p54
aS'14'
p55
aS'Accused'
p56
aa(lp57
S'Sharad Mohol'
p58
aS'41'
p59
aS'Accused'
p60
aa(lp61
S'Amol Bhalerao'
p62
aS'44'
p63
aS'Accused'
p64
aa(lp65
S'Siddiqui'
p66
aS'56'
p67
aS'Accused'
p68
aa(lp69
S'Siddiqui'
p70
aS'75'
p71
aS'Accused'
p72
aa(lp73
S'Mohammad Afroz'
p74
aS'81'
p75
aS'Comment'
p76
aa(lp77
S'Afroz'
p78
aS'139'
p79
aS'Comment'
p80
aa(lp81
S'Siddiqui'
p82
aS'149'
p83
aS'Accused'
p84
aa(lp85
S'Siddiqui'
p86
aS'167'
p87
aS'Accused'
p88
aa(lp89
S'Mohol'
p90
aS'172'
p91
aS'Accused'
p92
aa(lp93
S'Bhalerao'
p94
aS'174'
p95
aS'Accused'
p96
aa(lp97
S'Siddiqui'
p98
aS'209'
p99
aS'Accused'
p100
aa(lp101
S'Yasin Bhatkal'
p102
aS'219'
p103
aS'Accused'
p104
aa(lp105
S'Siddiqui'
p106
aS'284'
p107
aS'Accused'
p108
aa(lp109
S'Yasin Bhatkal'
p110
aS'314'
p111
aS'Accused'
p112
aa(lp113
S'Bhatkal'
p114
aS'317'
p115
aS'Accused'
p116
aa(lp117
S'Siddiqui'
p118
aS'349'
p119
aS'Accused'
p120
aa(lp121
S'Mohol'
p122
aS'359'
p123
aS'Accused'
p124
aa(lp125
S'Bhalerao'
p126
aS'361'
p127
aS'Accused'
p128
aa(lp129
S'Kishore Jadhav'
p130
aS'394'
p131
aS'Comment'
p132
aasS'TIM'
p133
(lp134
S'evening : 165'
p135
asS'hot_setting'
p136
S''
p137
sS'DAT'
p138
(lp139
S'Saturday:54'
p140
aS'Saturday:164'
p141
aS'November 2011:250'
p142
aS'May:263'
p143
aS'February 13 , 2010 : 307'
p144
asS'death'
p145
g137
sS'title'
p146
S"Terror suspect's murder: definite reason yet to emerge"
p147
sS'det_loc'
p148
(lp149
S'India'
p150
aS'Karnataka'
p151
ag137
aS'Bangalore'
p152
aS' Bangalore Chinnaswamy stadium'
p153
asS'terror_group'
p154
(lp155
S'INDIAN MUJAHIDEEN'
p156
asS'content'
p157
S"A day after the murder of suspected Indian Mujahideen ( IM ) operative Mohammad Qateel Siddiqui in the Yerwada jail here , a definite reason is yet to emerge . While the two jail inmates accused of the killing , Sharad Mohol and Amol Bhalerao , were arrested by the Yerwada police on Saturday , Siddiqui 's relatives accused the Maharashtra Anti-terrorism Sqaud ( ATS ) of foul play . In Pune to collect Siddiqui 's body , his cousin Mohammad Afroz stated that he had lost faith in the police machinery . What had he done ? The police could not prove anything . They had him for six months , he stated . He was murdered inside the jail while the ATS was in-charge of him . You can understand who wanted him killed , Mr Afroz said , suggesting that the ATS was responsible for Siddiqui 's murder . He stated that he had not been given the body by Saturday evening . Siddiqui was allegedly murdered by Mohol and Bhalerao on Fridaymorning . While ATS sources stated that the duo killed him because he was involved in anti-national activities , there are speculations that it might have been a IM hit job , as Siddiqui was being touted as the link to IM mastermind Yasin Bhatkal . Accused in the Bangalore Chinnaswamy stadium blast case and in the Delhi Jama Masjid blast case , he was arrested by the Special Cell of Delhi Police in November 2011 . He was later brought to Pune by the ATS in May to probe his involvement in the foiled bid to bomb a temple in Pune . According to the ATS , Siddiqui had confessed to being a part of the conspiracy to plant a bomb outside Pune 's Shrimant Dagdusheth Halwai Ganpati Temple on February 13 , 2010 , along with Yasin Bhatkal . Bhatkal is wanted in several other terror cases in the country , including Pune 's German Bakery Blast case . However , the ATS refused to comment on the IM link in Siddiqui 's murder . Meanwhile , the Yerwada police arrested Mohol and Bhalerao from the jail . They will be produced in court tomorrow . We will ask for police custody after which we will know the reason for the murder duringinvestigation , Police Inspector Kishore Jadhav stated . OPEN"
p158
sS'injured'
p159
g137
sS'org_unorg'
p160
S'ORGANISED'
p161
sS'O'
p162
(lp163
S'murder:5'
p164
aS'jail:34'
p165
aS'murder:151'
p166
aS'duo:184'
p167
aS'speculations:197'
p168
aS'probe:265'
p169
aS'foiled bid:270'
p170
aS'temple:275'
p171
aS'plant:295'
p172
aS'jail:364'
p173
asS'unexpl'
p174
(lp175
g137
asS'ocassion'
p176
g137
sS'link'
p177
S'http://www.thehindu.com/todays-paper/tp-national/tp-karnataka/terror-suspects-murder-definite-reason-yet-to-emerge/article3510985.ece'
p178
sS'date'
p179
S'17-04-2010'
p180
sS'target'
p181
S'STADIUM'
p182
sS'hot_spot'
p183
S' Bangalore Chinnaswamy stadium'
p184
sS'delivery_mod'
p185
g137
sS'delivery_met'
p186
g137
sS'expl'
p187
(lp188
g137
asS'ORG'
p189
(lp190
(lp191
S'Indian Mujahideen'
p192
aS'8'
p193
aS'Accused'
p194
aa(lp195
S'IM'
p196
aS'11'
p197
aS'Accused'
p198
aa(lp199
S'police'
p200
aS'52'
p201
aS'Others'
p202
aa(lp203
S'Maharashtra Anti-terrorism Sqaud ( ATS )'
p204
aS'61'
p205
aS'Others'
p206
aa(lp207
S'police'
p208
aS'91'
p209
aS'Others'
p210
aa(lp211
S'police'
p212
aS'100'
p213
aS'Others'
p214
aa(lp215
S'ATS'
p216
aS'124'
p217
aS'Others'
p218
aa(lp219
S'ATS'
p220
aS'145'
p221
aS'Others'
p222
aa(lp223
S'ATS'
p224
aS'179'
p225
aS'Others'
p226
aa(lp227
S'anti-national activities'
p228
aS'192'
p229
aS'Others'
p230
aa(lp231
S'IM'
p232
aS'204'
p233
aS'Accused'
p234
aa(lp235
S'IM'
p236
aS'217'
p237
aS'Accused'
p238
aa(lp239
S'Delhi'
p240
aS'233'
p241
aS'Others'
p242
aa(lp243
S'Special Cell'
p244
aS'244'
p245
aS'Others'
p246
aa(lp247
S'Police'
p248
aS'248'
p249
aS'Others'
p250
aa(lp251
S'ATS'
p252
aS'261'
p253
aS'Others'
p254
aa(lp255
S'ATS'
p256
aS'282'
p257
aS'Others'
p258
aa(lp259
S'ATS'
p260
aS'340'
p261
aS'Others'
p262
aa(lp263
S'IM'
p264
aS'346'
p265
aS'Others'
p266
aa(lp267
S'police'
p268
aS'357'
p269
aS'Others'
p270
aa(lp271
S'police'
p272
aS'378'
p273
aS'Others'
p274
aa(lp275
S'Police'
p276
aS'392'
p277
aS'Others'
p278
aas.