(dp0
S'LOC'
p1
(lp2
(lp3
S'Delapur'
p4
aS'77'
p5
aS'Accused Location'
p6
aa(lp7
S'Indore'
p8
aS'79'
p9
aS'Accused Location'
p10
aa(lp11
S'Madhya Pradesh'
p12
aS'81'
p13
aS'Neutral'
p14
aa(lp15
S'Mecca Masjid'
p16
aS'189'
p17
aS'Event'
p18
aasS'PER'
p19
(lp20
(lp21
S'Tej Ram'
p22
aS'11'
p23
aS'Accused'
p24
aa(lp25
S'Tej Ram'
p26
aS'37'
p27
aS'Accused'
p28
aa(lp29
S'Tej Ram'
p30
aS'105'
p31
aS'Accused'
p32
aa(lp33
S'Tej Ram'
p34
aS'146'
p35
aS'Accused'
p36
aa(lp37
S'Tej Ram'
p38
aS'157'
p39
aS'Accused'
p40
aa(lp41
S'Tej Ram'
p42
aS'173'
p43
aS'Accused'
p44
aa(lp45
S'Tej Rams'
p46
aS'203'
p47
aS'Accused'
p48
aa(lp49
S'Rajender Choudhary'
p50
aS'206'
p51
aS'Accused'
p52
aasS'TIM'
p53
(lp54
sS'hot_setting'
p55
S''
p56
sS'DAT'
p57
(lp58
S'Saturday:5'
p59
aS'2007:21'
p60
aS'February 18 , 2007:64'
p61
aS'December 25:74'
p62
aS'Thursday:90'
p63
aS'Saturday:136'
p64
aS'Monday:149'
p65
asS'death'
p66
g56
sS'title'
p67
S'Mecca Masjid blast accused with NIA'
p68
sS'org_unorg'
p69
S'Organized'
p70
sS'terror_group'
p71
(lp72
g56
asS'content'
p73
S'A local court on Saturday granted 18-day police custody of Tej Ram , who was arrested in connection with the 2007 Mecca Masjid bomb blast case , to the National Investigation Agency ( NIA ) . Tej Ram , believed to be a member of the right-wing group that is suspected to be behind the Samjhauta Express blast which claimed 68 lives on February 18 , 2007 , was arrested by NIA on December 25 from Delapur of Indore in Madhya Pradesh and produced before a court here on Thursday . NIA had earlier filed a petition in the court seeking 20-day custody of Tej Ram to enable it to further question him and also to travel with him as part of the investigation . After hearing arguments from both sides , the court on Saturday granted 18-day remand to NIA for custodial interrogation of Tej Ram from Monday . The agency was asked to produce Tej Ram before the court after completion of the custody period . According to NIA , Tej Ram was the person who had planted the IED which did not explode in the Mecca Masjid while the IED which exploded under the marble platform was concealed by Tej Rams associate Rajender Choudhary , already in the agencys custody in connection with Samjhauta Express bomb blast case . PTI OPEN'
p74
sS'injured'
p75
g56
sS'det_loc'
p76
(lp77
S'India'
p78
aS'Andhra Pradesh'
p79
ag56
aS'Hyderabad'
p80
ag56
asS'O'
p81
(lp82
S'mecca masjid bomb blast case:22'
p83
aS'samjhauta express blast:56'
p84
aS'investigation:124'
p85
aS'interrogation:144'
p86
aS'IED:182'
p87
aS'ied:193'
p88
aS'marble platform:198'
p89
aS'samjhauta express bomb blast case:217'
p90
asS'unexpl'
p91
(lp92
g56
asS'ocassion'
p93
g56
sS'link'
p94
S'http://www.thehindu.com/todays-paper/tp-national/tp-andhrapradesh/mecca-masjid-blast-accused-with-nia/article4255088.ece'
p95
sS'date'
p96
S'29-12-2012'
p97
sS'target'
p98
g56
sS'hot_spot'
p99
g56
sS'delivery_mod'
p100
g56
sS'delivery_met'
p101
g56
sS'expl'
p102
(lp103
S'IED'
p104
asS'ORG'
p105
(lp106
(lp107
S'National Investigation Agency'
p108
aS'30'
p109
aS'Others'
p110
aa(lp111
S'NIA'
p112
aS'34'
p113
aS'Others'
p114
aa(lp115
S'NIA'
p116
aS'72'
p117
aS'Others'
p118
aa(lp119
S'NIA'
p120
aS'92'
p121
aS'Others'
p122
aa(lp123
S'NIA'
p124
aS'141'
p125
aS'Others'
p126
aa(lp127
S'NIA'
p128
aS'171'
p129
aS'Others'
p130
aas.