(dp0
S'LOC'
p1
(lp2
(lp3
S'Jagannath temple'
p4
aS'16'
p5
aS'Neutral'
p6
aa(lp7
S'Ankuli'
p8
aS'19'
p9
aS'Neutral'
p10
aasS'PER'
p11
(lp12
(lp13
S'Bauribandhu Choudhury'
p14
aS'35'
p15
aS'Victim'
p16
aasS'TIM'
p17
(lp18
S'6.30 p.m.:46'
p19
asS'hot_setting'
p20
S''
p21
sS'DAT'
p22
(lp23
S'Monday:27'
p24
aS'Monday evening:27'
p25
asS'death'
p26
g21
sS'title'
p27
S'Briefly'
p28
sS'org_unorg'
p29
S'Organized'
p30
sS'terror_group'
p31
(lp32
S'Miscreants,Dacoits & Smuggler Gang'
p33
asS'content'
p34
S'One person died when a group of miscreants hurled crude bombs at him near the Jagannath temple in Ankuli industrial estate area of the city on Monday evening . The deceased was identified as Bauribandhu Choudhury . He was standing at spot when at around 6.30 p.m. when the attackers blasted bombs targeting him . Two other youths were also injured . According to the police , the injured persons were suspected to be from the attacker group and were injured when accidentally a bomb blasted in their hands . OPEN'
p35
sS'injured'
p36
g21
sS'det_loc'
p37
(lp38
S'India'
p39
aS'Orissa'
p40
aS'Ganjam'
p41
aS'Ankuli'
p42
ag21
asS'O'
p43
(lp44
S'crude bombs:10'
p45
aS'industrial estate area:20'
p46
aS'standing:40'
p47
aS'spot:42'
p48
aS'injured:69'
p49
aS'attacker group:77'
p50
aS'bomb:85'
p51
asS'unexpl'
p52
(lp53
g21
asS'ocassion'
p54
g21
sS'link'
p55
S'http://www.thehindu.com/todays-paper/tp-national/tp-otherstates/briefly/article4139227.ece'
p56
sS'date'
p57
S'26-11-2012'
p58
sS'target'
p59
g21
sS'hot_spot'
p60
g21
sS'delivery_mod'
p61
g21
sS'delivery_met'
p62
g21
sS'expl'
p63
(lp64
S'Crude bomb'
p65
asS'ORG'
p66
(lp67
s.