(dp0
S'LOC'
p1
(lp2
(lp3
S'eastern Beirut'
p4
aS'6'
p5
aS'Event'
p6
aa(lp7
S'Lebanese capitalin'
p8
aS'25'
p9
aS'Event'
p10
aa(lp11
S'Syria'
p12
aS'48'
p13
aS'Neutral'
p14
aasS'PER'
p15
(lp16
sS'TIM'
p17
(lp18
sS'hot_setting'
p19
S''
p20
sS'DAT'
p21
(lp22
S'Friday:9'
p23
asS'death'
p24
S'8'
p25
sS'title'
p26
S'Beirut car bomb kills 8'
p27
sS'det_loc'
p28
(lp29
S'Lebanon'
p30
ag20
ag20
aS'Beirut'
p31
ag20
asS'terror_group'
p32
(lp33
g20
asS'content'
p34
S'A car bomb ripped through eastern Beirut on Friday , killing at least eight people . It is the most serious blast in the Lebanese capitalin more than four years . While the motive was not immediately known , manyquickly connected it to the civil war in Syria . AFP OPEN'
p35
sS'injured'
p36
g20
sS'org_unorg'
p37
S'Organized'
p38
sS'O'
p39
(lp40
S'car bomb:2'
p41
aS'ripped:4'
p42
aS'killing:11'
p43
aS'most serious:20'
p44
aS'blast:22'
p45
aS'capitalin:26'
p46
aS'motive:34'
p47
aS'war:46'
p48
asS'unexpl'
p49
(lp50
g20
asS'ocassion'
p51
g20
sS'link'
p52
S'http://www.thehindu.com/todays-paper/tp-international/beirut-car-bomb-kills-8/article4014986.ece'
p53
sS'date'
p54
S'19-10-2012'
p55
sS'target'
p56
g20
sS'hot_spot'
p57
g20
sS'delivery_mod'
p58
g20
sS'delivery_met'
p59
g20
sS'expl'
p60
(lp61
g20
asS'ORG'
p62
(lp63
s.