(dp0
S'LOC'
p1
(lp2
(lp3
S'southern Nepal'
p4
aS'24'
p5
aa(lp6
S'Kathmandu : 92'
p7
aS'Neutral'
p8
aS'Assoc Event Location'
p9
aa(lp10
S'Janakpur:133'
p11
aS'Event'
p12
aS'Neutral'
p13
aa(lp14
S'Nepal'
p15
aS'25'
p16
aS'Assoc Event Location'
p17
aa(lp18
S'Janakpur'
p19
aS'38'
p20
aS'Event'
p21
aa(lp22
S'Kathmandu'
p23
aS'92'
p24
aS'Neutral'
p25
aa(lp26
S'Janakpur'
p27
aS'133'
p28
aS'Neutral'
p29
aa(lp30
S'Terai plains'
p31
aS'141'
p32
aS'Neutral'
p33
aasS'PER'
p34
(lp35
(lp36
S'Basanta Raj Gautam'
p37
aS'97'
p38
aS'Comment'
p39
aa(lp40
S'Gautam'
p41
aS'178'
p42
aS'Comment'
p43
aasS'TIM'
p44
(lp45
sS'hot_setting'
p46
S''
p47
sS'DAT'
p48
(lp49
S'Monday:27'
p50
asS'death'
p51
S'4'
p52
sS'title'
p53
S'Nepal bomb blast kills 4 protesters'
p54
sS'org_unorg'
p55
S'ORGANISED'
p56
sS'terror_group'
p57
(lp58
g47
asS'content'
p59
S'Four people were killed and nearly 30 wounded when a bomb attached to a motorbike went off near a crowd of protesters in southern Nepal on Monday . The group of 150 demonstrators in the city of Janakpur , 20 km from the Indian border , were staging a sit-in to demand a separate province for Maithili-speaking people when the bike exploded . One of the protesters died on the spot while three died on their way to hospital . We have referred around seven seriously injured victims for treatment to Kathmandu , local police chief Basanta Raj Gautam told AFP . Over 20 people who sustained minor injures from the blast are being treated at various hospitals in the district . The protesters had been taking part in a strike in Janakpur to demand the new province in the Terai plains . There were around 150 persons sitting in the protest ... when the bomb went off . We have increased security in the area but no one has taken responsibility for the incident , Mr. Gautam said . AFP OPEN'
p60
sS'injured'
p61
S'30'
p62
sS'det_loc'
p63
(lp64
S'Nepal'
p65
ag47
ag47
aS'KATHMANDU'
p66
aS'southern Nepal ,Janakpur '
p67
asS'O'
p68
(lp69
S'bomb attached:11'
p70
aS'indian border:44'
p71
aS'sit-in:50'
p72
aS'maithili-speaking:57'
p73
aS'exploded:62'
p74
aS'afp:101'
p75
aS'150 persons:147'
p76
aS'protest:152'
p77
aS'afp:181'
p78
asS'unexpl'
p79
(lp80
g47
asS'ocassion'
p81
g47
sS'link'
p82
S'http://www.thehindu.com/todays-paper/tp-international/nepal-bomb-blast-kills-4-protesters/article3372054.ece'
p83
sS'date'
p84
S'30-04-2012'
p85
sS'target'
p86
g47
sS'hot_spot'
p87
S'crowd of protesters,Janakpur '
p88
sS'delivery_mod'
p89
S'MOTORCYCLES'
p90
sS'delivery_met'
p91
S'STORED'
p92
sS'expl'
p93
(lp94
g47
asS'ORG'
p95
(lp96
(lp97
S'hospital'
p98
aS'79'
p99
aS'Others'
p100
aa(lp101
S'police'
p102
aS'95'
p103
aS'Others'
p104
aa(lp105
S'hospitals'
p106
aS'118'
p107
aS'Others'
p108
aas.