(dp0
S'LOC'
p1
(lp2
(lp3
S'Tiruchi'
p4
aS'13'
p5
aS'Neutral'
p6
aa(lp7
S'Tiruchi'
p8
aS'33'
p9
aS'Neutral'
p10
aa(lp11
S'Kallakudi Palanganatham'
p12
aS'65'
p13
aS'Event'
p14
aa(lp15
S'Kallagam'
p16
aS'68'
p17
aS'Event'
p18
aa(lp19
S'Tiruchi'
p20
aS'112'
p21
aS'Neutral'
p22
aasS'PER'
p23
(lp24
(lp25
S'P.Velmurugan'
p26
aS'15'
p27
aS'Comment'
p28
aa(lp29
S'S.Senthilkumar'
p30
aS'43'
p31
aS'Accused'
p32
aa(lp33
S'D.Periyasamy'
p34
aS'46'
p35
aS'Accused'
p36
aa(lp37
S'Senthilkumar'
p38
aS'120'
p39
aS'Accused'
p40
aa(lp41
S'Periyasamy'
p42
aS'122'
p43
aS'Accused'
p44
aa(lp45
S'Lenin'
p46
aS'124'
p47
aS'Accused'
p48
aa(lp49
S'Seeliyampatti Rajaram'
p50
aS'126'
p51
aS'Accused'
p52
aa(lp53
S'Nagarajan'
p54
aS'129'
p55
aS'Accused'
p56
aa(lp57
S'Lenin'
p58
aS'174'
p59
aS'Accused'
p60
aa(lp61
S'Rajaram'
p62
aS'183'
p63
aS'Accused'
p64
aa(lp65
S'Nagarajan'
p66
aS'185'
p67
aS'Accused'
p68
aasS'TIM'
p69
(lp70
sS'hot_setting'
p71
S''
p72
sS'DAT'
p73
(lp74
S'Wednesday:17'
p75
aS'1992:35'
p76
aS'October 1992:62'
p77
asS'death'
p78
S'1'
p79
sS'title'
p80
S'One gets life, 5-year RI for other in railway track bomb blast case'
p81
sS'org_unorg'
p82
S'Organized'
p83
sS'terror_group'
p84
(lp85
S'Miscreants,Dacoits & Smuggler Gang'
p86
asS'content'
p87
S': The Principal Sessions Judge and Designated Judge under TADA Act , Tiruchi , P.Velmurugan on Wednesday convicted two persons in the case pertaining to a bomb blast on railway track near Tiruchi in 1992 . The Judge awarded life imprisonment to S.Senthilkumar and sentenced D.Periyasamy to undergo five-year rigorous imprisonment . The bomb blast on railway track took place in October 1992 between Kallakudi Palanganatham and Kallagam in the wee hours minutes before the ChennaiQuilon Express was to pass through damaging wooden sleepers and rails to a length of 20 feet . The case initially registered by the Vriddhachalam Railway Police was subsequently transferred to the Q Branch police , Tiruchi , for further investigation . Five persons Senthilkumar , Periyasamy , Lenin , Seeliyampatti Rajaram and Nagarajan were cited as accused in the bomb blast case . They were members of Tamil Nadu Viduthalai Padai and Tamil Nadu Makkal Viduthalai Padai . The case was registered under the TADA Act , Explosive Substances Act , and the Indian Railway Act . Lenin was killed in a blast later , while Rajaram and Nagarajan died in an encounter with police . A total number of 41 witnesses were examined by the prosecution during the course of the trial . OPEN'
p88
sS'injured'
p89
g72
sS'det_loc'
p90
(lp91
S'India'
p92
aS'Tamil Nadu'
p93
aS'Tiruchiorappalli'
p94
aS'Tiruchi'
p95
ag72
asS'O'
p96
(lp97
S'bomb blast:27'
p98
aS'railway track:30'
p99
aS'judge:38'
p100
aS'life imprisonment:40'
p101
aS'bomb blast:54'
p102
aS'railway track:57'
p103
aS'chennaiquilon express:76'
p104
aS'q branch:108'
p105
aS'investigation:116'
p106
aS'bomb blast case:136'
p107
aS'tada act:161'
p108
aS'railway act:171'
p109
aS'blast:179'
p110
aS'encounter:189'
p111
asS'unexpl'
p112
(lp113
g72
asS'ocassion'
p114
g72
sS'link'
p115
S'http://www.thehindu.com/todays-paper/tp-national/one-gets-life-5year-ri-for-other-in-railway-track-bomb-blast-case/article3579288.ece'
p116
sS'date'
p117
S'28-06-2012'
p118
sS'target'
p119
g72
sS'hot_spot'
p120
g72
sS'delivery_mod'
p121
g72
sS'delivery_met'
p122
S'Planted'
p123
sS'expl'
p124
(lp125
g72
asS'ORG'
p126
(lp127
(lp128
S'Vriddhachalam Railway Police'
p129
aS'100'
p130
aS'Others'
p131
aa(lp132
S'Tamil Nadu Viduthalai Padai'
p133
aS'144'
p134
aS'Others'
p135
aa(lp136
S'Tamil Nadu Makkal Viduthalai Padai'
p137
aS'149'
p138
aS'Others'
p139
aas.