(dp0
S'LOC'
p1
(lp2
(lp3
S'Delhi-based'
p4
aS'22'
p5
aS'Neutral'
p6
aa(lp7
S'Maharashtra'
p8
aS'60'
p9
aS'Neutral'
p10
aa(lp11
S'Zaveri Bazaar'
p12
aS'156'
p13
aS'Event'
p14
aa(lp15
S'Opera House'
p16
aS'159'
p17
aS'Event'
p18
aa(lp19
S'Dadar Kabutarkhana'
p20
aS'162'
p21
aS'Event'
p22
aa(lp23
S'Opera House'
p24
aS'186'
p25
aS'Assoc Event Location'
p26
aa(lp27
S'Zaveri Bazaar'
p28
aS'220'
p29
aS'Event'
p30
aa(lp31
S'Zaveri Bazaar'
p32
aS'235'
p33
aS'Event'
p34
aS'Neutral'
p35
aa(lp36
S'Darbhanga'
p37
aS'255'
p38
aS'Accused Location'
p39
aa(lp40
S'Bihar'
p41
aS'257'
p42
aS'Accused Location'
p43
aa(lp44
S'Saudi Arabia'
p45
aS'350'
p46
aS'Neutral'
p47
aa(lp48
S'New Delhi'
p49
aS'357'
p50
aS'Neutral'
p51
aa(lp52
S'Maharashtra'
p53
aS'362'
p54
aS'Neutral'
p55
aa(lp56
S'Maharashtra'
p57
aS'414'
p58
aS'Neutral'
p59
aa(lp60
S'Ghaziabad'
p61
aS'428'
p62
aS'Accused Location'
p63
aa(lp64
S'New Delhi'
p65
aS'435'
p66
aS'Neutral'
p67
aasS'PER'
p68
(lp69
(lp70
S'Haroon Rashid Naik'
p71
aS'18'
p72
aS'Accused'
p73
aa(lp74
S'Kanwar Nain Pathrija'
p75
aS'25'
p76
aS'Accused'
p77
aa(lp78
S'Haroon'
p79
aS'136'
p80
aS'Accused'
p81
aa(lp82
S'Pathrija'
p83
aS'138'
p84
aS'Accused'
p85
aa(lp86
S'Naquee Ahmed Wasi Ahmed Sheikh'
p87
aS'174'
p88
aS'Assoc Accused'
p89
aa(lp90
S'Nadeem Ahmed Ashfaq Sheikh'
p91
aS'180'
p92
aS'Assoc Accused'
p93
aa(lp94
S'Naquee'
p95
aS'248'
p96
aS'Assoc Accused'
p97
aa(lp98
S'Nadeem'
p99
aS'250'
p100
aS'Assoc Accused'
p101
aa(lp102
S'Haroon'
p103
aS'288'
p104
aS'Accused'
p105
aa(lp106
S'Haroon'
p107
aS'320'
p108
aS'Accused'
p109
aa(lp110
S'Pathrija'
p111
aS'355'
p112
aS'Accused'
p113
aa(lp114
S'Haroon'
p115
aS'369'
p116
aS'Accused'
p117
aa(lp118
S'Pathrija'
p119
aS'423'
p120
aS'Accused'
p121
aa(lp122
S'Yasin Bhatkal'
p123
aS'458'
p124
aS'Assoc Accused'
p125
aasS'TIM'
p126
(lp127
sS'hot_setting'
p128
S''
p129
sS'DAT'
p130
(lp131
S'July 13 , 2011 : 30'
p132
aS'February 18 : 140'
p133
aS'February : 147'
p134
aS'July 13 : 165'
p135
aS'Friday : 196'
p136
aS'February 24 : 206'
p137
aS'Friday : 213'
p138
aS'August 2011 : 307'
p139
aS'February : 331'
p140
aS'February 1 : 331'
p141
aS'Friday : 367'
p142
aS'January 30 : 441'
p143
asS'death'
p144
g129
sS'title'
p145
S'13/7 blasts: police custody of accused extended'
p146
sS'det_loc'
p147
(lp148
S'India'
p149
aS'Maharashtra'
p150
aS'Mumbai-City'
p151
ag129
ag129
asS'terror_group'
p152
(lp153
S'Indian Mujahideen'
p154
asS'content'
p155
S"A local court on Friday extended the police custody of alleged Indian Mujahideen ( IM ) operative Haroon Rashid Naik and Delhi-based hawala operator Kanwar Nain Pathrija in the July 13 , 2011 triple bomb blasts case in the city . Haroon pleaded innocent before the court after he asked the court the reason for his arrest . The Maharashtra Anti-Terrorism Squad ( ATS ) has so far made four arrests in the case . They have all been charged under various sections of the Unlawful Activities ( Prevention ) Act , the Explosives Act , the Indian Penal Code , etc. . The court also granted police custody to the other two accused in another bomb blast case the same day . Thus , all the four accused are to stay in police custody Haroon and Pathrija till February 18 and the other two till February 17 . Three bombs went off at the Zaveri Bazaar , Opera House and Dadar Kabutarkhana on July 13 last year . The ATS earlier arrested Naquee Ahmed Wasi Ahmed Sheikh and Nadeem Ahmed Ashfaq Sheikh in the Opera House blast case . Their police custody ended on Friday , after which they were granted judicial custody till February 24 . But the ATS on Friday showed them as arrested in the Zaveri Bazaar blast case and sought their custody . They have booked them for the Zaveri Bazaar blast now , the lawyer for both the accused said . Naquee and Nadeem , both hailing from Darbhanga in Bihar , were arrested in the city by the ATS on the charge of involvement in the blasts . They were previously arrested for procuring SIM cards with fake documents . Haroon was in prison since last year after the ATS arrested him in a fake Indian currency case in August 2011 . Last month , the ATS filed a transfer request for Haroon 's custody in the case , which was granted on February 1 . The ATS has accused him of sending Rs .10 lakh used for the blast , from Saudi Arabia to Hawala operator Pathrija in New Delhi . Probe beyond Maharashtra ' The ATS on Friday accused Haroon of trying to destroy the evidence against him . We have to investigate the Hawala angle in depth . We have to further find out if any fake currency was used in the attack who all helped him . The investigation may go beyond Maharashtra , the public prosecutor told the court . Pathrija , a resident of Ghaziabad who owns a jewellery shop in New Delhi , was arrested on January 30 . He is accused of arranging to hand over the money to wanted IM operative Yasin Bhatkal , who is alleged to have later distributed the money to other accused . Mobile phone , diaries seized ' We have seized mobile phone , diaries , SIM cards from him . He is also involved in the conspiracy and we require his custody to investigate the Hawala angle in depth , the prosecutor said . OPEN"
p156
sS'injured'
p157
g129
sS'org_unorg'
p158
S'Organized'
p159
sS'O'
p160
(lp161
S'court:3'
p162
aS'custody:9'
p163
aS'operative:17'
p164
aS'hawala operator:23'
p165
aS'bomb:35'
p166
aS'case:37'
p167
aS'city:40'
p168
aS'court:47'
p169
aS'court:52'
p170
aS'reason:54'
p171
aS'arrest:57'
p172
aS'case:74'
p173
aS'unlawful activities:86'
p174
aS'prevention:89'
p175
aS'act:91'
p176
aS'act:95'
p177
aS'indian penal code:98'
p178
aS'court:105'
p179
aS'custody:109'
p180
aS'bomb blast case:117'
p181
aS'day:122'
p182
aS'stay:132'
p183
aS'custody:135'
p184
aS'year:168'
p185
aS'blast case:188'
p186
aS'custody:193'
p187
aS'custody:204'
p188
aS'blast case:222'
p189
aS'custody:227'
p190
aS'blast:237'
p191
aS'lawyer:241'
p192
aS'city:263'
p193
aS'charge:269'
p194
aS'involvement:271'
p195
aS'sim:282'
p196
aS'sim cards:282'
p197
aS'fake:285'
p198
aS'prison:291'
p199
aS'year:294'
p200
aS'fake:302'
p201
aS'currency case:304'
p202
aS'month:311'
p203
aS'transfer request:317'
p204
aS'custody:322'
p205
aS'case:325'
p206
aS'rs:341'
p207
aS'lakh:343'
p208
aS'blast:347'
p209
aS'probe:360'
p210
aS'evidence:375'
p211
aS'hawala angle:384'
p212
aS'depth:387'
p213
aS'fake currency:397'
p214
aS'attack:403'
p215
aS'investigation:410'
p216
aS'public prosecutor:417'
p217
aS'court:421'
p218
aS'resident:426'
p219
aS'jewellery shop:432'
p220
aS'hand:450'
p221
aS'money:453'
p222
aS'money:469'
p223
aS'mobile phone:474'
p224
aS'phone:484'
p225
aS'sim cards:488'
p226
aS'sim:488'
p227
aS'conspiracy:499'
p228
aS'custody:504'
p229
aS'hawala angle:508'
p230
aS'depth:511'
p231
aS'prosecutor:514'
p232
asS'unexpl'
p233
(lp234
g129
asS'ocassion'
p235
g129
sS'link'
p236
S'http://www.thehindu.com/todays-paper/tp-national/137-blasts-police-custody-of-accused-extended/article2881520.ece'
p237
sS'date'
p238
S'10-02-2012'
p239
sS'target'
p240
S'Market Place'
p241
sS'hot_spot'
p242
S' Zaveri Bazaar , Opera House and Dadar Kabutarkhana '
p243
sS'delivery_mod'
p244
g129
sS'delivery_met'
p245
S'Planted'
p246
sS'expl'
p247
(lp248
g129
asS'ORG'
p249
(lp250
(lp251
S'Indian Mujahideen'
p252
aS'12'
p253
aS'Accused'
p254
aa(lp255
S'IM'
p256
aS'15'
p257
aS'Accused'
p258
aa(lp259
S'Anti-Terrorism Squad'
p260
aS'61'
p261
aS'Others'
p262
aa(lp263
S'ATS'
p264
aS'64'
p265
aS'Others'
p266
aa(lp267
S'ATS'
p268
aS'171'
p269
aS'Others'
p270
aa(lp271
S'ATS'
p272
aS'211'
p273
aS'Others'
p274
aa(lp275
S'ATS'
p276
aS'266'
p277
aS'Others'
p278
aa(lp279
S'ATS'
p280
aS'297'
p281
aS'Others'
p282
aa(lp283
S'ATS'
p284
aS'314'
p285
aS'Others'
p286
aa(lp287
S'ATS'
p288
aS'335'
p289
aS'Others'
p290
aa(lp291
S'ATS'
p292
aS'365'
p293
aS'Others'
p294
aa(lp295
S'IM'
p296
aS'456'
p297
aS'Accused'
p298
aas.