(dp0
S'LOC'
p1
(lp2
(lp3
S'Haryana'
p4
aS'31'
p5
aS'Event'
p6
aa(lp7
S'Madhya Pradesh'
p8
aS'33'
p9
aS'Event'
p10
aa(lp11
S'Panchkula'
p12
aS'47'
p13
aS'Neutral'
p14
aa(lp15
S'Noida'
p16
aS'55'
p17
aS'Neutral'
p18
aa(lp19
S'Old Delhi'
p20
aS'114'
p21
aS'Neutral'
p22
aasS'PER'
p23
(lp24
(lp25
S'Kamal Chauhan'
p26
aS'1'
p27
aS'Others'
p28
aa(lp29
S'Chauhan'
p30
aS'91'
p31
aS'Others'
p32
aa(lp33
S'Ramchandra Kalasangra alias Ramji'
p34
aS'94'
p35
aS'Others'
p36
aa(lp37
S'Lokesh Sharma'
p38
aS'99'
p39
aS'Others'
p40
aa(lp41
S'R.K. Handa'
p42
aS'127'
p43
aS'Others'
p44
aasS'TIM'
p45
(lp46
sS'hot_setting'
p47
S''
p48
sS'DAT'
p49
(lp50
S'2007:22'
p51
aS'Tuesday : 40'
p52
aS'Tuesday:50'
p53
aS'Sunday:57'
p54
aS'February 24:69'
p55
asS'death'
p56
S'68'
p57
sS'title'
p58
S'Chauhan planted bombs on Samjhauta Express: NIA'
p59
sS'org_unorg'
p60
S'ORGANISED'
p61
sS'terror_group'
p62
(lp63
g48
asS'content'
p64
S"Kamal Chauhan , a disgruntled RSS worker arrested by the National Investigation Agency , planted bombs onboard the Samjhauta Express in 2007 after undergoing training in arms and explosives in Haryana and Madhya Pradesh , the agency said on Tuesday . He was taken to the Panchkula court on Tuesday after his arrest in Noida on Sunday . The court remanded him in the agency 's custody till February 24 for questioning on his alleged role in the blast that killed 68 people , mostly Pakistanis . Investigations reveal that Chauhan along with Ramchandra Kalasangra alias Ramji and Lokesh Sharma , also charged in the case planted the explosives in the train at Old Delhi , from where the train originates , NIA 's Special Prosecutor R.K. Handa said outside the court . PTI OPEN"
p65
sS'injured'
p66
g48
sS'det_loc'
p67
(lp68
S'India'
p69
aS'Delhi'
p70
ag48
aS'Haryana'
p71
aS'battles fought'
p72
asS'O'
p73
(lp74
S'Samjhauta Express:19'
p75
aS'training:25'
p76
aS'court:60'
p77
aS'blast:79'
p78
aS'Pakistanis:86'
p79
aS'train:120'
p80
aS'prosecutor:126'
p81
asS'unexpl'
p82
(lp83
g48
asS'ocassion'
p84
g48
sS'link'
p85
S'http://www.thehindu.com/todays-paper/chauhan-planted-bombs-on-samjhauta-express-nia/article2894408.ece'
p86
sS'date'
p87
S'18-02-2007'
p88
sS'target'
p89
S'RAILWAY STATION'
p90
sS'hot_spot'
p91
g48
sS'delivery_mod'
p92
S'TRAIN'
p93
sS'delivery_met'
p94
S'PLANTED'
p95
sS'expl'
p96
(lp97
g48
asS'ORG'
p98
(lp99
(lp100
S'RSS worker'
p101
aS'6'
p102
aS'Others'
p103
aa(lp104
S'National Investigation Agency'
p105
aS'11'
p106
aS'Others'
p107
aa(lp108
S'agency'
p109
aS'37'
p110
aS'Others'
p111
aa(lp112
S'NIA'
p113
aS'123'
p114
aS'Others'
p115
aas.