(dp0
S'LOC'
p1
(lp2
(lp3
S'Assams'
p4
aS'20'
p5
aS'Event'
p6
aa(lp7
S'Sivasagar'
p8
aS'21'
p9
aS'Event'
p10
aa(lp11
S'Dibrugarh'
p12
aS'64'
p13
aS'Neutral'
p14
aa(lp15
S'Sivasagar'
p16
aS'74'
p17
aS'Event'
p18
aasS'PER'
p19
(lp20
(lp21
S'Paresh Barua'
p22
aS'37'
p23
aS'Accused'
p24
aa(lp25
S'G.D. Tripathi'
p26
aS'46'
p27
aS'Comment'
p28
aS'Others'
p29
aasS'TIM'
p30
(lp31
sS'hot_setting'
p32
S''
p33
sS'DAT'
p34
(lp35
S'Monday:24'
p36
asS'death'
p37
S'1'
p38
sS'title'
p39
S'1 killed as bomb goes off in Assam'
p40
sS'org_unorg'
p41
S'Organized'
p42
sS'terror_group'
p43
(lp44
S'United Liberation Front of Assam (ULFA'
p45
asS'content'
p46
S'One person was killed and seven were injured when a bicycle-bomb went off outside a cinema hall in upper Assams Sivasagar town on Monday night . Police suspect that the blast was the handiwork of the Paresh Barua faction of the ULFA . Home Secretary G.D. Tripathi told The Hindu that one critically injured person was shifted to the Assam Medical College in Dibrugarh , while the others were admitted to hospitals in Sivasagar town . It is suspected that an improvised explosive device was used . Had the blast occurred in the evening when the place is crowded , there would have been many more casualties . OPEN'
p47
sS'injured'
p48
S'7'
p49
sS'det_loc'
p50
(lp51
S'India'
p52
aS'Assam'
p53
aS'Sivasagar'
p54
ag33
ag33
asS'O'
p55
(lp56
S'injured:8'
p57
aS'bicycle-bomb:11'
p58
aS'cinema hall:16'
p59
aS'town:22'
p60
aS'night:25'
p61
aS'suspect:28'
p62
aS'blast:31'
p63
aS'handiwork:34'
p64
aS'faction:39'
p65
aS'home secretary:44'
p66
aS'home:44'
p67
aS'person:55'
p68
aS'town:75'
p69
aS'explosive device:83'
p70
aS'blast:90'
p71
asS'unexpl'
p72
(lp73
g33
asS'ocassion'
p74
g33
sS'link'
p75
S'http://www.thehindu.com/todays-paper/1-killed-as-bomb-goes-off-in-assam/article3933909.ece'
p76
sS'date'
p77
S'24-09-2012'
p78
sS'target'
p79
S'Market Place'
p80
sS'hot_spot'
p81
g33
sS'delivery_mod'
p82
S'Bicycle'
p83
sS'delivery_met'
p84
S'Planted'
p85
sS'expl'
p86
(lp87
g33
asS'ORG'
p88
(lp89
(lp90
S'ULFA'
p91
aS'42'
p92
aS'Accused'
p93
aa(lp94
S'The Hindu'
p95
aS'49'
p96
aS'Others'
p97
aa(lp98
S'Assam Medical College'
p99
aS'60'
p100
aS'Others'
p101
aas.