(dp0
S'LOC'
p1
(lp2
(lp3
S'Ankuli industrial estate area'
p4
aS'24'
p5
aS'Event'
p6
aasS'PER'
p7
(lp8
sS'TIM'
p9
(lp10
sS'hot_setting'
p11
S''
p12
sS'DAT'
p13
(lp14
S'Wednesday:15'
p15
aS'November:29'
p16
aS'November 26:29'
p17
asS'death'
p18
g12
sS'title'
p19
S'Two youths arrested'
p20
sS'det_loc'
p21
(lp22
S'India'
p23
aS'Orissa'
p24
ag12
aS'Berhampur'
p25
ag12
asS'terror_group'
p26
(lp27
g12
asS'content'
p28
S'Two youths were arrested by personnel of Baidyanathpur police station of the city on Wednesday in relation to the case of bombarding at Ankuli industrial estate area on November 26 . One person had been killed in the bomb blast . Two of the attackers had also been seriously injured when a bomb exploded in their hand by accident . These injured attackers were undergoing treatment in MKCG Medical College Hospital under police custody . According to police sources five persons were involved in that case of bombing . Only one of the accused was still absconding . OPEN'
p29
sS'injured'
p30
g12
sS'org_unorg'
p31
S'Organized'
p32
sS'O'
p33
(lp34
S'city:13'
p35
aS'relation:17'
p36
aS'case:20'
p37
aS'person:33'
p38
aS'bomb blast:39'
p39
aS'bomb:53'
p40
aS'hand:57'
p41
aS'accident:59'
p42
aS'treatment:66'
p43
aS'custody:74'
p44
aS'case:86'
p45
aS'bombing:88'
p46
asS'unexpl'
p47
(lp48
g12
asS'ocassion'
p49
g12
sS'link'
p50
S'http://www.thehindu.com/todays-paper/tp-national/tp-otherstates/two-youths-arrested/article4145500.ece'
p51
sS'date'
p52
S'28-11-2012'
p53
sS'target'
p54
g12
sS'hot_spot'
p55
g12
sS'delivery_mod'
p56
g12
sS'delivery_met'
p57
g12
sS'expl'
p58
(lp59
g12
asS'ORG'
p60
(lp61
(lp62
S'Baidyanathpur police station'
p63
aS'8'
p64
aS'Others'
p65
aa(lp66
S'MKCG Medical College Hospital'
p67
aS'68'
p68
aS'Others'
p69
aas.