(dp0
S'LOC'
p1
(lp2
(lp3
S'Kerala'
p4
aS'50'
p5
aS'Neutral'
p6
aa(lp7
S'Bangalore'
p8
aS'60'
p9
aS'Event'
p10
aa(lp11
S'Bangalore Central Jail'
p12
aS'60'
p13
aS'Neutral'
p14
aa(lp15
S'Karnataka'
p16
aS'131'
p17
aS'Event'
p18
aa(lp19
S'Bangalore'
p20
aS'138'
p21
aS'Event'
p22
aS'Neutral'
p23
aa(lp24
S'Kerala-based'
p25
aS'141'
p26
aS'Neutral'
p27
aa(lp28
S'Bangalore'
p29
aS'206'
p30
aS'Event'
p31
aasS'PER'
p32
(lp33
(lp34
S'Abdul Nazir Maudany'
p35
aS'1'
p36
aS'Accused'
p37
aa(lp38
S'H.N. Nagmohandas'
p39
aS'28'
p40
aS'Others'
p41
aa(lp42
S'Maudany'
p43
aS'46'
p44
aS'Accused'
p45
aa(lp46
S'Abdul Khadar'
p47
aS'167'
p48
aS'Assoc Accused'
p49
aa(lp50
S'Khadar'
p51
aS'176'
p52
aS'Assoc Accused'
p53
aasS'TIM'
p54
(lp55
sS'hot_setting'
p56
S''
p57
sS'DAT'
p58
(lp59
S'2008:8'
p60
aS'Monday:15'
p61
aS'September 26:43'
p62
aS'August 2010:52'
p63
aS'Monday:155'
p64
aS'February 25:214'
p65
aS'Monday:227'
p66
asS'death'
p67
g57
sS'title'
p68
S'Maudany moves court for bail on medical grounds'
p69
sS'det_loc'
p70
(lp71
S'India'
p72
ag57
ag57
aS'Bangalore'
p73
ag57
asS'terror_group'
p74
(lp75
g57
asS'content'
p76
S'Abdul Nazir Maudany , accused in the 2008 Bangalore serial bomb blast case on Monday moved the Karnataka High Court seeking bail on medical grounds . Justice H.N. Nagmohandas , before whom the petition came up for hearing , adjourned hearing to September 26 . Maudany was arrested in Kerala in August 2010 , and is lodged in the Bangalore Central Jail . Last year , the High Court had refused to grant him bail while holding that it would put the security of the State and the nation in jeopardy . However , the court had asked the prison authorities to provide necessary medical treatment to him as he has been suffering from different ailments . Later , even the Supreme Court had denied him bail but directed the Karnataka government to provide him treatment in Bangalore from a Kerala-based ayurvedic medical treatment centre . Bail denied Meanwhile , the High Court on Monday rejected the plea for release on bail by another accused , Abdul Khadar , in the serial blasts case . Khadar , who is accused number 27 in these cases , had sought release on bail claiming that he was falsely implicated by the police . The trail court in Bangalore had already rejected his bail plea on February 25 , 2012 . When the plea came up for hearing on Monday , the High Court did not find merit in his petition . OPEN'
p77
sS'injured'
p78
g57
sS'org_unorg'
p79
S'Organized'
p80
sS'O'
p81
(lp82
S'bangalore serial bomb blast case:9'
p83
aS'bangalore:9'
p84
aS'serial bomb blast case:10'
p85
aS'bail:22'
p86
aS'petition:34'
p87
aS'hearing:38'
p88
aS'hearing:41'
p89
aS'maudany:46'
p90
aS'jail:62'
p91
aS'year:65'
p92
aS'grant:73'
p93
aS'bail:75'
p94
aS'security:83'
p95
aS'state:86'
p96
aS'nation:89'
p97
aS'jeopardy:91'
p98
aS'court:96'
p99
aS'prison:100'
p100
aS'treatment:106'
p101
aS'bail:127'
p102
aS'government:132'
p103
aS'treatment:136'
p104
aS'treatment centre:144'
p105
aS'bail:147'
p106
aS'plea:158'
p107
aS'release:160'
p108
aS'bail:162'
p109
aS'serial:172'
p110
aS'case:174'
p111
aS'number:181'
p112
aS'release:189'
p113
aS'bail:191'
p114
aS'trail court:203'
p115
aS'bail plea:211'
p116
aS'plea:221'
p117
aS'hearing:225'
p118
aS'merit:235'
p119
aS'petition:238'
p120
asS'unexpl'
p121
(lp122
g57
asS'ocassion'
p123
g57
sS'link'
p124
S'http://www.thehindu.com/todays-paper/tp-national/maudany-moves-court-for-bail-on-medical-grounds/article3933779.ece'
p125
sS'date'
p126
S'01-07-2008'
p127
sS'target'
p128
S'Serial blasts'
p129
sS'hot_spot'
p130
g57
sS'delivery_mod'
p131
g57
sS'delivery_met'
p132
S'Planted'
p133
sS'expl'
p134
(lp135
g57
asS'ORG'
p136
(lp137
(lp138
S'Karnataka High Court'
p139
aS'18'
p140
aS'Others'
p141
aa(lp142
S'Supreme Court'
p143
aS'122'
p144
aS'Others'
p145
aas.