(dp0
S'LOC'
p1
(lp2
(lp3
S'New Natham Road'
p4
aS'65'
p5
aS'Neutral'
p6
aa(lp7
S'Palanganatham'
p8
aS'69'
p9
aS'Neutral'
p10
aa(lp11
S'Vilangudi areas'
p12
aS'72'
p13
aS'Neutral'
p14
aasS'PER'
p15
(lp16
(lp17
S'L.K. Advani'
p18
aS'97'
p19
aS'Others'
p20
aasS'TIM'
p21
(lp22
S'afternoon : 11'
p23
asS'hot_setting'
p24
S''
p25
sS'DAT'
p26
(lp27
S'Monday:10'
p28
asS'death'
p29
g25
sS'title'
p30
S'Tip-off leads to combing operation in Madurai'
p31
sS'org_unorg'
p32
S'ORGANISED'
p33
sS'terror_group'
p34
(lp35
g25
asS'content'
p36
S"Combing operation was carried out in the city on Monday afternoon . According to police sources , following a tip-off that a wanted ' person was moving in the city in a specific vehicle , all the check-posts in and around bordering the city were put on high alert . Apart from checks at these points , senior officers were seen moving along the New Natham Road , Palanganatham and near Vilangudi areas . An officer said that they were on the look out for a key person , whose name figured in the BJP leader L.K. Advani 's pipe bomb blast case . The operation went on for about three hours , he added . OPEN"
p37
sS'injured'
p38
g25
sS'det_loc'
p39
(lp40
S'India'
p41
aS'Tamil Nadu'
p42
ag25
aS'MADURAI'
p43
ag25
asS'O'
p44
(lp45
S'combing operation:1'
p46
aS'specific vehicle:33'
p47
aS'officers:59'
p48
aS'officer:76'
p49
aS'three hours:111'
p50
asS'unexpl'
p51
(lp52
g25
asS'ocassion'
p53
g25
sS'link'
p54
S'http://www.thehindu.com/todays-paper/tp-national/tp-tamilnadu/tipoff-leads-to-combing-operation-in-madurai/article3467712.ece'
p55
sS'date'
p56
S'28-05-2012'
p57
sS'target'
p58
S'POLITICAL LEADER/GROUP'
p59
sS'hot_spot'
p60
g25
sS'delivery_mod'
p61
g25
sS'delivery_met'
p62
g25
sS'expl'
p63
(lp64
S' PIPE BOMB'
p65
asS'ORG'
p66
(lp67
(lp68
S'police'
p69
aS'15'
p70
aS'Others'
p71
aa(lp72
S'officers'
p73
aS'59'
p74
aS'Others'
p75
aa(lp76
S'officer'
p77
aS'76'
p78
aS'Others'
p79
aa(lp80
S'BJP'
p81
aS'95'
p82
aS'Others'
p83
aas.