(dp0
S'LOC'
p1
(lp2
(lp3
S'DUBAI'
p4
aS''
p5
aS'Neutral'
p6
aasS'PER'
p7
(lp8
sS'TIM'
p9
(lp10
sS'hot_setting'
p11
g5
sS'DAT'
p12
(lp13
S'Wednesday : 27'
p14
asS'death'
p15
S'0'
p16
sS'title'
p17
S'Blast wounds Bahrain policemen'
p18
sS'org_unorg'
p19
S'ORGANISED'
p20
sS'terror_group'
p21
(lp22
g5
asS'content'
p23
S"A bomb attack carried out by `` terrorists '' wounded four Bahraini policemen in a Shiite-populated village overnight , the official BNA news agency said on Wednesday . The exact cause of the blast was unknown , but `` an act of sabotage '' sparked the fire at a shop , the official said , adding an investigation was launched into the `` terrorist act '' . AFP OPEN"
p24
sS'injured'
p25
S'4'
p26
sS'det_loc'
p27
(lp28
S'Bahrain'
p29
ag5
ag5
ag5
aS'A Shiite-populated village'
p30
asS'O'
p31
(lp32
S'bomb attack:2'
p33
aS'terrorists:8'
p34
aS'bahraini policemen:12'
p35
aS'shiite-populated village:16'
p36
aS'blast:34'
p37
aS'sabotage:43'
p38
aS'fire at a shop:47'
p39
aS'investigation:58'
p40
aS'terrorist act:64'
p41
asS'unexpl'
p42
(lp43
g5
asS'ocassion'
p44
g5
sS'link'
p45
S'http://www.thehindu.com/todays-paper/tp-in-school/blast-wounds-bahrain-policemen/article3354303.ece'
p46
sS'date'
p47
S'25-04-2012'
p48
sS'target'
p49
S'SHIA ISLAM'
p50
sS'hot_spot'
p51
S'Shiite-populated village'
p52
sS'delivery_mod'
p53
g5
sS'delivery_met'
p54
S'PLANTED'
p55
sS'expl'
p56
(lp57
g5
asS'ORG'
p58
(lp59
(lp60
S'BNA'
p61
aS'22'
p62
aS'Others'
p63
aa(lp64
S'AFP'
p65
aS'68'
p66
aS'Others'
p67
aas.