(dp0
S'LOC'
p1
(lp2
(lp3
S'Kokrajhar'
p4
aS'9'
p5
aS'Event'
p6
aa(lp7
S'Chirang'
p8
aS'11'
p9
aS'Event'
p10
aa(lp11
S'Assam'
p12
aS'22'
p13
aS'Event'
p14
aa(lp15
S'Baksa'
p16
aS'54'
p17
aS'Event'
p18
aa(lp19
S'Kokrajhar'
p20
aS'77'
p21
aS'Event'
p22
aa(lp23
S'Chirang'
p24
aS'79'
p25
aS'Event'
p26
aa(lp27
S'Bongaingaon:81'
p28
aS'Event'
p29
aS'Neutral'
p30
aa(lp31
S'Dhubri'
p32
aS'83'
p33
aS'Event'
p34
aa(lp35
S'Borlao'
p36
aS'131'
p37
aS'Assoc Event Location'
p38
aa(lp39
S'Chirang'
p40
aS'134'
p41
aS'Neutral'
p42
aa(lp43
S'Bongaigaon'
p44
aS'161'
p45
aS'Victim Location'
p46
aa(lp47
S'Kokrajhar'
p48
aS'166'
p49
aS'Event'
p50
aa(lp51
S'Chirang'
p52
aS'168'
p53
aS'Event'
p54
aa(lp55
S'Kokrajhar'
p56
aS'189'
p57
aS'Assoc Event Location'
p58
aa(lp59
S'Bortol'
p60
aS'210'
p61
aS'Neutral'
p62
aa(lp63
S'Chirang'
p64
aS'212'
p65
aS'Event'
p66
aa(lp67
S'Goreswar'
p68
aS'284'
p69
aS'Assoc Event Location'
p70
aa(lp71
S'Baksa'
p72
aS'286'
p73
aS'Assoc Event Location'
p74
aasS'PER'
p75
(lp76
(lp77
S'L.R. Bisnoi'
p78
aS'114'
p79
aS'Comment'
p80
aa(lp81
S'Puru Gupta'
p82
aS'244'
p83
aS'Comment'
p84
aa(lp85
S'Khagen Sarma'
p86
aS'275'
p87
aS'Comment'
p88
aasS'TIM'
p89
(lp90
sS'hot_setting'
p91
S''
p92
sS'DAT'
p93
(lp94
S'Sunday:40'
p95
aS'Saturday:173'
p96
aS'Sunday morning:192'
p97
asS'death'
p98
S'60'
p99
sS'title'
p100
S'Four bodies found in Kokrajhar, Chirang districts'
p101
sS'org_unorg'
p102
g92
sS'terror_group'
p103
(lp104
g92
asS'content'
p105
S'In an indication of return of violence in Kokrajhar and Chirang districts under the Bodoland Territorial Council ( BTC ) of Assam , bodies of four persons , including two inmates of a relief camp , were recovered on Sunday , while a low intensity transistor bomb blast left three people injured in Baksa district , which also comes under the BTC . Following the recovery of the bodies , the death toll in violence in Kokrajhar , Chirang , Bongaingaon and Dhubri districts has gone up to 60 . About 4.33 lakh displaced people are taking shelter in relief camps in the districts . Inspector-General of Police ( Law and Order ) L.R. Bisnoi told The Hindu that the bodies of two inmates of the Kawakati relief camp near Borlao village in Chirang district , who went home looking for their cattle , were found with cut marks in a village . In another incident , two persons from Bongaigaon , who went to Kokrajhar via Chirang in an autorickshaw on Saturday , were hacked to death . Their bodies were recovered from the Champabati river in Kokrajhar district on Sunday morning . After the news of their death spread , a mob blocked National Highway 31 at Bortol in Chirang district and threw stones at a bus of the Bodoland Transport Service , prompting the police and paramilitary forces to fire in the air to disperse them . Chirang Deputy Commissioner Puru Gupta said the driver , conductor and a passenger sustained minor injuries . Indefinite curfew was imposed again in the district . Additional Director-General of Police ( Special Branch ) Khagen Sarma said a low intensity blast occurred at Goreswar in Baksa district when a farmer , along with two others , was trying to operate a transistor which he found on a paddy field . The three sustained injuries . Police did not rule out the possibility of someone discarding the transistor with some circuit inside , perhaps due to the movement of security personnel in the area . OPEN'
p106
sS'injured'
p107
S'3'
p108
sS'det_loc'
p109
(lp110
S'India'
p111
aS'Assam'
p112
aS'Baksa'
p113
ag92
aS'Kokrajhar and Chirang district, Assam'
p114
asS'O'
p115
(lp116
S'indication:3'
p117
aS'violence:7'
p118
aS'two inmates:30'
p119
aS'relief camp:34'
p120
aS'intensity transistor bomb blast:45'
p121
aS'death toll in violence:72'
p122
aS'4.33 lakh displaced people:92'
p123
aS'shelter:98'
p124
aS'relief camps:100'
p125
aS'Inspector-General of Police ( Law and Order ) L.R. Bisnoi:106'
p126
aS'Kawakati relief camp:127'
p127
aS'autorickshaw:171'
p128
aS'hacked to death:176'
p129
aS'Champabati river:186'
p130
aS'death spread:200'
p131
aS'National Highway 31:206'
p132
aS'threw stones:215'
p133
aS'police and paramilitary forces:228'
p134
aS'Chirang Deputy Commissioner Puru Gupta:241'
p135
aS'Indefinite curfew:258'
p136
aS'intensity blast:280'
p137
aS'transistor:302'
p138
aS'paddy field:308'
p139
aS'transistor:327'
p140
asS'unexpl'
p141
(lp142
g92
asS'ocassion'
p143
g92
sS'link'
p144
S'http://www.thehindu.com/todays-paper/four-bodies-found-in-kokrajhar-chirang-districts/article3732392.ece'
p145
sS'date'
p146
S'25-07-2012'
p147
sS'target'
p148
S'TOWN'
p149
sS'hot_spot'
p150
S'Kokrajhar , Chirang , Bongaingaon and Dhubri districts, Assam'
p151
sS'delivery_mod'
p152
g92
sS'delivery_met'
p153
g92
sS'expl'
p154
(lp155
g92
asS'ORG'
p156
(lp157
(lp158
S'Bodoland Territorial Council'
p159
aS'15'
p160
aS'Others'
p161
aa(lp162
S'BTC'
p163
aS'19'
p164
aS'Others'
p165
aa(lp166
S'BTC'
p167
aS'62'
p168
aS'Others'
p169
aa(lp170
S'The Hindu'
p171
aS'117'
p172
aS'Others'
p173
aa(lp174
S'Bodoland Transport Service'
p175
aS'222'
p176
aS'Others'
p177
aas.