(dp0
S'LOC'
p1
(lp2
(lp3
S'Delhi'
p4
aS'2'
p5
aS'Neutral'
p6
aa(lp7
S'Tehran'
p8
aS'8'
p9
aS'Assoc Event Location'
p10
aa(lp11
S'Iran'
p12
aS'59'
p13
aS'Neutral'
p14
aa(lp15
S'Iran'
p16
aS'84'
p17
aS'Neutral'
p18
aa(lp19
S'Delhi'
p20
aS'143'
p21
aS'Neutral'
p22
aa(lp23
S'Iran'
p24
aS'151'
p25
aS'Neutral'
p26
aa(lp27
S'Iran'
p28
aS'164'
p29
aS'Neutral'
p30
aa(lp31
S'Prime Ministers Race Course Road residence'
p32
aS'219'
p33
aS'Assoc Event Location'
p34
aa(lp35
S'Delhi'
p36
aS'231'
p37
aS'Neutral'
p38
aa(lp39
S'Jammu and Kashmir'
p40
aS'266'
p41
aS'Accused Location'
p42
aa(lp43
S'Pakistan'
p44
aS'279'
p45
aS'Accused Location'
p46
aa(lp47
S'Pakistan'
p48
aS'329'
p49
aS'Accused Location'
p50
aa(lp51
S'Assam'
p52
aS'337'
p53
aS'Event'
p54
aa(lp55
S'Assam'
p56
aS'375'
p57
aS'Neutral'
p58
aa(lp59
S'Iran'
p60
aS'432'
p61
aS'Neutral'
p62
aa(lp63
S'Iran'
p64
aS'446'
p65
aS'Neutral'
p66
aa(lp67
S'Assams'
p68
aS'449'
p69
aS'Neutral'
p70
aasS'PER'
p71
(lp72
(lp73
S'Chidambaram'
p74
aS'25'
p75
aS'Comment'
p76
aa(lp77
S'Chidambaram'
p78
aS'94'
p79
aS'Comment'
p80
aa(lp81
S'Houshang Afshar'
p82
aS'196'
p83
aS'Accused'
p84
aa(lp85
S'Masoud Sedaghatzadeh'
p86
aS'235'
p87
aS'Accused'
p88
aa(lp89
S'Saeid Moradi'
p90
aS'238'
p91
aS'Accused'
p92
aa(lp93
S'Mohammad Kharzei'
p94
aS'241'
p95
aS'Accused'
p96
aa(lp97
S'Chidambaram'
p98
aS'250'
p99
aS'Comment'
p100
aa(lp101
S'Chidambaram'
p102
aS'341'
p103
aS'Comment'
p104
aa(lp105
S'Chidambaram'
p106
aS'443'
p107
aS'Comment'
p108
aa(lp109
S'Chidambaram'
p110
aS'458'
p111
aS'Comment'
p112
aasS'TIM'
p113
(lp114
sS'hot_setting'
p115
S''
p116
sS'DAT'
p117
(lp118
S'Tuesday:28'
p119
aS'February 2012:116'
p120
asS'death'
p121
g116
sS'title'
p122
S'Delhi Police to question Iranians on car blast'
p123
sS'det_loc'
p124
(lp125
S'Israel'
p126
ag116
ag116
ag116
aS'high-security zone close to the Prime Ministers Race Course Road residence '
p127
asS'terror_group'
p128
(lp129
g116
asS'content'
p130
S'A Delhi Police team will soon visit Tehran to question some Iranian nationals on the Israeli embassy vehicle bomb blast , Home Minister P. Chidambaram said on Tuesday . He was addressing his last monthly press conference before taking over as Finance Minister in the UPA-led Congress government . There are some persons who we believe are in Iran , who require to be questioned . So we asked the Government of Iran for permission for one of our teams to go to Iran to question them . They have agreed , Mr. Chidambaram said . He , however , refused to comment on the alleged involvement of the elite Iranian Republican Guards in the February 2012 bombing case , in which an Israeli diplomat was injured . Let the police team return , he said . Due to logistical reasons the Delhi Police could not send its team to Iran earlier , but it has managed to get fresh dates from the Iran government to seek help from their Iranian counterparts in its probe into the high-profile case . During the blast case probe , names of four Iranian nationals came up . While Houshang Afshar has been named as the main accused for planting the bomb on the vehicle in the high-security zone close to the Prime Ministers Race Course Road residence , the other three under the Delhi Police lens are Masoud Sedaghatzadeh , Saeid Moradi and Mohammad Kharzei . Concern over tunnel Meanwhile , Mr. Chidambaram expressed gave concern over the detection of a 400-metre-long tunnel across the international border in Jammu and Kashmir and said the matter would soon be taken up with Pakistan . It is a matter of concern . This matter is being discussed at the highest levels between the Ministry of Home Affairs , Ministry of Defence and Ministry of External Affairs . An appropriate response , an appropriate way , will be found to take it up with Pakistan , he said . Referring to the Assam violence , Mr. Chidambaram said the situation was fast returning to normal and refugees have started moving back to their homes . Appealing to the various communities to live in peace and harmony , he said : Assam is a typical example of a pluralistic society , where communities like Bodos , minorities , Bengali Hindus , Adivasis , Rajbongshis and others live . My appeal to them is we must learn to live together . -LSB- Whatever legal arrangement they live under -RSB- they have to learn to live together . Government of Iran grants permissionAssams pluralistic society must learn to live together : Chidambaram Government of Iran grants permission Assams pluralistic society must learn to live together : Chidambaram OPEN'
p131
sS'injured'
p132
g116
sS'org_unorg'
p133
S'ORGANISED'
p134
sS'O'
p135
(lp136
S'iranian nationals:12'
p137
aS'israeli:16'
p138
aS'Home Minister:22'
p139
aS'press conference:36'
p140
aS'finance minister:42'
p141
aS'israeli:124'
p142
aS'iranian:171'
p143
aS'blast case probe:183'
p144
aS'Iranian nationals:190'
p145
aS'international border:263'
p146
aS'refugees:351'
p147
aS'communities:364'
p148
aS'pluralistic society:382'
p149
aS'bodos:388'
p150
aS'minorities:390'
p151
aS'bengali hindus:392'
p152
aS'adivasis:395'
p153
aS'rajbongshis:397'
p154
aS'Government:430'
p155
asS'unexpl'
p156
(lp157
g116
asS'ocassion'
p158
g116
sS'link'
p159
S'http://www.thehindu.com/todays-paper/tp-national/delhi-police-to-question-iranians-on-car-blast/article3709879.ece'
p160
sS'date'
p161
S'31-07-2012'
p162
sS'target'
p163
g116
sS'hot_spot'
p164
S'high-security zone close to the Prime Ministers Race Course Road residence '
p165
sS'delivery_mod'
p166
S'VEHICLES'
p167
sS'delivery_met'
p168
S'PLANTED'
p169
sS'expl'
p170
(lp171
g116
asS'ORG'
p172
(lp173
(lp174
S'UPA-led Congress government'
p175
aS'46'
p176
aS'Others'
p177
aa(lp178
S'Government of Iran'
p179
aS'71'
p180
aS'Others'
p181
aa(lp182
S'elite Iranian Republican Guards'
p183
aS'110'
p184
aS'Others'
p185
aa(lp186
S'police'
p187
aS'131'
p188
aS'Others'
p189
aa(lp190
S'Iran government'
p191
aS'164'
p192
aS'Others'
p193
aa(lp194
S'Police'
p195
aS'232'
p196
aS'Others'
p197
aa(lp198
S'Ministry of Home Affairs'
p199
aS'299'
p200
aS'Others'
p201
aa(lp202
S'Ministry of Defence and Ministry of External Affairs'
p203
aS'304'
p204
aS'Others'
p205
aa(lp206
S'Government'
p207
aS'444'
p208
aS'Others'
p209
aas.