(dp0
S'LOC'
p1
(lp2
(lp3
S'Gurmeta village'
p4
aS'23'
p5
aS'Event'
p6
aa(lp7
S'Rohtas district'
p8
aS'26'
p9
aS'Event'
p10
aasS'PER'
p11
(lp12
(lp13
S'Manu Maharaj'
p14
aS'85'
p15
aS'Comment'
p16
aasS'TIM'
p17
(lp18
sS'hot_setting'
p19
S''
p20
sS'DAT'
p21
(lp22
S'Saturday:4'
p23
asS'death'
p24
g20
sS'title'
p25
S'Explosives seized, bunker destroyed'
p26
sS'det_loc'
p27
(lp28
S'India'
p29
aS'Bihar'
p30
aS'Rohtas'
p31
aS'Dehri-on-Sone'
p32
aS' Gurmeta village in Rohtas district'
p33
asS'terror_group'
p34
(lp35
g20
asS'content'
p36
S"Security forces on Saturday seized about one quintal explosives and other items from a Naxal hide out and blasted a bunker in Gurmeta village in Rohtas district , a police officer said . Launching a joint combing operation against the Naxalites , the CRPF 's CoBRA battalion jawans , SAP and district police seized one quintal explosives , four cane bombs , over 400 detonators , besides Naxal literature and dresses at a hide-out in the village , Superintendent of Police ( SP ) Manu Maharaj said . The security forces also destroyed a bunker of the ultras , he said , adding that the combing operation was still underway in the village . PTI OPEN"
p37
sS'injured'
p38
g20
sS'org_unorg'
p39
S'ORGANISED'
p40
sS'O'
p41
(lp42
S'bunker:21'
p43
aS'officer:31'
p44
aS'operation:38'
p45
aS'one quintal explosives:55'
p46
aS'cane:60'
p47
aS'cane bombs:60'
p48
aS'over 400 detonators:63'
p49
aS'village:77'
p50
aS'superintendent:79'
p51
aS'police:81'
p52
aS'sp:83'
p53
aS'security:90'
p54
aS'ultras:98'
p55
asS'unexpl'
p56
(lp57
g20
asS'ocassion'
p58
g20
sS'link'
p59
S'http://www.thehindu.com/todays-paper/tp-national/tp-newdelhi/explosives-seized-bunker-destroyed/article2821872.ece'
p60
sS'date'
p61
S'21-01-2012'
p62
sS'target'
p63
g20
sS'hot_spot'
p64
S' Gurmeta village in Rohtas district'
p65
sS'delivery_mod'
p66
g20
sS'delivery_met'
p67
g20
sS'expl'
p68
(lp69
S'QUINTAL EXPLOSIVES'
p70
aS'CANE BOMBS'
p71
aS'DETONATING'
p72
asS'ORG'
p73
(lp74
(lp75
S'Naxal hide'
p76
aS'15'
p77
aS'Others'
p78
aa(lp79
S'police'
p80
aS'30'
p81
aS'Others'
p82
aa(lp83
S'Naxalites'
p84
aS'41'
p85
aS'Others'
p86
aa(lp87
S'CRPF'
p88
aS'44'
p89
aS'Others'
p90
aa(lp91
S"CRPF 's CoBRA battalion jawans"
p92
aS'44'
p93
aS'Others'
p94
aa(lp95
S'SAP and district police'
p96
aS'50'
p97
aS'Others'
p98
aa(lp99
S'Naxal'
p100
aS'68'
p101
aS'Others'
p102
aa(lp103
S'security forces'
p104
aS'90'
p105
aS'Others'
p106
aas.