(dp0
S'LOC'
p1
(lp2
(lp3
S'Hyderabad'
p4
aS'27'
p5
aS'Neutral'
p6
aa(lp7
S'Malegaon explosion'
p8
aS'30'
p9
aS'Neutral'
p10
aa(lp11
S'Malegaon'
p12
aS'30'
p13
aS'Neutral'
p14
aa(lp15
S'Maharashtra'
p16
aS'33'
p17
aS'Neutral'
p18
aa(lp19
S'Ujjain'
p20
aS'46'
p21
aS'Neutral'
p22
aa(lp23
S'Madhya Pradesh'
p24
aS'49'
p25
aS'Neutral'
p26
aa(lp27
S'Madhya Pradesh'
p28
aS'105'
p29
aS'Neutral'
p30
aa(lp31
S'Delhi'
p32
aS'120'
p33
aS'Neutral'
p34
aa(lp35
S'Delhi Police'
p36
aS'120'
p37
aS'Neutral'
p38
aa(lp39
S'Ujjain'
p40
aS'188'
p41
aS'Neutral'
p42
aa(lp43
S'Mecca Masjid'
p44
aS'200'
p45
aS'Neutral'
p46
aa(lp47
S'Mecca'
p48
aS'200'
p49
aS'Neutral'
p50
aa(lp51
S'Masjid'
p52
aS'201'
p53
aS'Neutral'
p54
aa(lp55
S'Chitrakoot'
p56
aS'221'
p57
aS'Neutral'
p58
aa(lp59
S'Malegaon'
p60
aS'240'
p61
aS'Neutral'
p62
aa(lp63
S'Malegaon'
p64
aS'279'
p65
aS'Neutral'
p66
aa(lp67
S'Malegaon'
p68
aS'305'
p69
aS'Neutral'
p70
aa(lp71
S'Ajmers Dargah Sharif'
p72
aS'442'
p73
aS'Neutral'
p74
aa(lp75
S'Mecca Masjid'
p76
aS'447'
p77
aS'Neutral'
p78
aa(lp79
S'Pakistan'
p80
aS'461'
p81
aS'Neutral'
p82
aasS'PER'
p83
(lp84
(lp85
S'Rajendra Chaudhary'
p86
aS'35'
p87
aS'Others'
p88
aa(lp89
S'Samandar'
p90
aS'38'
p91
aS'Others'
p92
aa(lp93
S'Chaudhary'
p94
aS'76'
p95
aS'Others'
p96
aa(lp97
S'S.A.R. Geelani'
p98
aS'89'
p99
aS'Others'
p100
aa(lp101
S'Geelani'
p102
aS'111'
p103
aS'Others'
p104
aa(lp105
S'Sunil Joshi'
p106
aS'160'
p107
aS'Others'
p108
aa(lp109
S'Tej Ram'
p110
aS'185'
p111
aS'Others'
p112
aa(lp113
S'Dhan Singh'
p114
aS'216'
p115
aS'Others'
p116
aa(lp117
S'Chaudhary'
p118
aS'251'
p119
aS'Others'
p120
aa(lp121
S'Dhan Singh'
p122
aS'264'
p123
aS'Others'
p124
aa(lp125
S'Ramji Kalsangra'
p126
aS'267'
p127
aS'Others'
p128
aa(lp129
S'Amit'
p130
aS'270'
p131
aS'Others'
p132
aa(lp133
S'Ashwini Chauhan'
p134
aS'272'
p135
aS'Others'
p136
aa(lp137
S'Dhan Singh'
p138
aS'294'
p139
aS'Others'
p140
aa(lp141
S'Malegaon'
p142
aS'354'
p143
aS'Others'
p144
aa(lp145
S'Swami Aseemanand'
p146
aS'372'
p147
aS'Others'
p148
aa(lp149
S'Ramji Kalsangra'
p150
aS'402'
p151
aS'Others'
p152
aa(lp153
S'Amit'
p154
aS'405'
p155
aS'Others'
p156
aa(lp157
S'Sandeep Dange'
p158
aS'407'
p159
aS'Others'
p160
aa(lp161
S'Sunil Joshi'
p162
aS'418'
p163
aS'Others'
p164
aasS'TIM'
p165
(lp166
sS'hot_setting'
p167
S''
p168
sS'DAT'
p169
(lp170
S'2007:15'
p171
aS'May 2007:21'
p172
aS'May:21'
p173
aS'February:68'
p174
aS'February 18 , 2007 : 68'
p175
aS'February 2005:92'
p176
aS'2008:108'
p177
aS'December 13 , 2001 : 124'
p178
aS'October 2003:142'
p179
aS'December 2007:167'
p180
aS'2008:242'
p181
aS'2006:281'
p182
aS'2008:307'
p183
aS'2006:317'
p184
aS'2011:370'
p185
aS'2006:384'
p186
asS'death'
p187
g168
sS'title'
p188
S'Recent arrests may help NIA crack blast cases'
p189
sS'det_loc'
p190
(lp191
S'India'
p192
aS'Madhya Pradesh'
p193
aS'Ujjain'
p194
ag168
ag168
asS'terror_group'
p195
(lp196
g168
asS'content'
p197
S'Three recent arrests by the National Investigation Agency may throw new light on the 2007 Samjhauta Express blasts , the May 2007 Mecca Masjid blast in Hyderabad and the Malegaon explosion in Maharashtra . Rajendra Chaudhary alias Samandar , who was arrested last week from Ujjain district of Madhya Pradesh , had allegedly planted explosives aboard the Samjhauta Express . The train blast claimed 68 lives on February 18 , 2007 . NIA sources said Chaudhary was also suspected to be behind the attack on Delhi University professor S.A.R. Geelani in February 2005 as well as involved in the killing of a witness in Madhya Pradesh in 2008 . Prof. Geelani , who was arrested and chargesheeted by the Delhi Police in the December 13 , 2001 Parliament House terror attack case , was acquitted by the Delhi High Court in October 2003 . Investigators see Chaudharys hand also in the murderous attack on the former RSS pracharak , Sunil Joshi , who was eliminated in December 2007 allegedly to put the lid on a conspiracy by Hindu extremist groups . The NIA arrested Tej Ram from Ujjain . He was suspected to have planted a bomb at the Mecca Masjid and carried out the explosion that killed nine people . The third person , Dhan Singh , arrested from Chitrakoot on the Uttar Pradesh-Madhya Pradesh border , is suspected to have been involved in the second blast at Malegaon in 2008 as well as in the Samjhauta blast . Chaudhary is believed to have told NIA investigators that he , along with Dhan Singh , Ramji Kalsangra and Amit alias Ashwini Chauhan , had planted bombs in Malegaon in 2006 in which 37 people were killed and more than 300 injured . Dhan Singh is also suspected to have planted the bomb in Malegaon in 2008 that killed seven people . The Malegaon blasts in 2006 , probed by Maharashtras Anti-Terrorism Squad , were blamed on nine Muslim men . The arrested men claimed that they had been framed . Most of them were freed on bail by court last year . Malegaon was chosen for bomb attacks twice as it has a sizable Muslim population . In 2011 , Swami Aseemanand admitted that radical Hindu and right-wing extremists were behind the 2006 blasts . He , however , retracted his confession . The NIA is on the lookout for Ramji Kalsangra , Amit and Sandeep Dange , who was a close associate of the slain Sunil Joshi . The investigators believe that the loosely-held module , comprising fringe elements of right-wing extremism , was also behind the blasts in Ajmers Dargah Sharif , the Mecca Masjid and the Samjhauta Express that provides a much sought-after rail link to Pakistan . OPEN'
p198
sS'injured'
p199
g168
sS'org_unorg'
p200
S'Organized'
p201
sS'O'
p202
(lp203
S'light:12'
p204
aS'express blasts:17'
p205
aS'express:17'
p206
aS'mecca:23'
p207
aS'mecca masjid blast:23'
p208
aS'week:44'
p209
aS'district:47'
p210
aS'express:59'
p211
aS'train blast:62'
p212
aS'attack:84'
p213
aS'professor:88'
p214
aS'witness:103'
p215
aS'Parliament House terror attack:128'
p216
aS'attack:153'
p217
aS'hindu extremist groups:178'
p218
aS'extremist:179'
p219
aS'bomb:197'
p220
aS'explosion:206'
p221
aS'person:214'
p222
aS'border:227'
p223
aS'blast:238'
p224
aS'blast:249'
p225
aS'malegaon blasts:314'
p226
aS'bomb:358'
p227
aS'population:367'
p228
aS'radical hindu:376'
p229
aS'confession:393'
p230
aS'lookout:400'
p231
aS'associate:414'
p232
aS'loosely-held module:426'
p233
aS'extremism:434'
p234
aS'rail link:458'
p235
asS'unexpl'
p236
(lp237
g168
asS'ocassion'
p238
g168
sS'link'
p239
S'http://www.thehindu.com/todays-paper/recent-arrests-may-help-nia-crack-blast-cases/article4243681.ece'
p240
sS'date'
p241
g168
sS'target'
p242
S'Religious Places'
p243
sS'hot_spot'
p244
g168
sS'delivery_mod'
p245
g168
sS'delivery_met'
p246
S'Planted'
p247
sS'expl'
p248
(lp249
g168
asS'ORG'
p250
(lp251
(lp252
S'National Investigation Agency'
p253
aS'6'
p254
aS'Others'
p255
aa(lp256
S'NIA'
p257
aS'73'
p258
aS'Others'
p259
aa(lp260
S'Delhi University'
p261
aS'86'
p262
aS'Others'
p263
aa(lp264
S'Delhi High Court'
p265
aS'138'
p266
aS'Others'
p267
aa(lp268
S'RSS'
p269
aS'157'
p270
aS'Others'
p271
aa(lp272
S'NIA'
p273
aS'183'
p274
aS'Others'
p275
aa(lp276
S'NIA'
p277
aS'257'
p278
aS'Others'
p279
aa(lp280
S'Maharashtras Anti-Terrorism Squad'
p281
aS'321'
p282
aS'Others'
p283
aa(lp284
S'NIA'
p285
aS'396'
p286
aS'Others'
p287
aas.