(dp0
S'LOC'
p1
(lp2
(lp3
S'Kilpauk'
p4
aS'26'
p5
aS'Event'
p6
aa(lp7
S'Royapettah GH'
p8
aS'55'
p9
aS'Neutral'
p10
aasS'PER'
p11
(lp12
(lp13
S'S. Sukannthan'
p14
aS'1'
p15
aS'Victim'
p16
aS'Others'
p17
aa(lp18
S'Sathya'
p19
aS'13'
p20
aS'Victim'
p21
aa(lp22
S'Sukanthan'
p23
aS'36'
p24
aS'Victim'
p25
aasS'TIM'
p26
(lp27
sS'hot_setting'
p28
S''
p29
sS'DAT'
p30
(lp31
S'Friday morning : 23'
p32
asS'death'
p33
g29
sS'title'
p34
S'Explosion fallout: man loses six fingers'
p35
sS'org_unorg'
p36
g29
sS'terror_group'
p37
(lp38
g29
asS'content'
p39
S'S. Sukannthan ( 27 ) who was injured along with his accomplice Sathya ( 32 ) while making country bombs early on Friday morning at Kilpauk lost six of his fingers in the explosion . Sukanthan was admitted to Stanley Medical College Hospital for treatment after the blast and was later shifted to the Royapettah GH . The doctors found he had lost four fingers on his right hand and two on his left when they removed his bandages . OPEN'
p40
sS'injured'
p41
g29
sS'det_loc'
p42
(lp43
S'India'
p44
aS'Tamil Nadu'
p45
aS'Chennai'
p46
ag29
ag29
asS'O'
p47
(lp48
S'injured:8'
p49
aS'accomplice:12'
p50
aS'country bombs:19'
p51
aS'explosion:34'
p52
aS'treatment:45'
p53
aS'blast:48'
p54
aS'doctors:59'
p55
aS'lost four fingers:63'
p56
asS'unexpl'
p57
(lp58
g29
asS'ocassion'
p59
g29
sS'link'
p60
S'http://www.thehindu.com/todays-paper/tp-national/tp-tamilnadu/explosion-fallout-man-loses-six-fingers/article3368713.ece'
p61
sS'date'
p62
S'27-04-2012'
p63
sS'target'
p64
g29
sS'hot_spot'
p65
g29
sS'delivery_mod'
p66
g29
sS'delivery_met'
p67
g29
sS'expl'
p68
(lp69
g29
asS'ORG'
p70
(lp71
(lp72
S'Stanley Medical College Hospital'
p73
aS'40'
p74
aS'Others'
p75
aas.