(dp0
S'LOC'
p1
(lp2
(lp3
S'Kwakeithel'
p4
aS'17'
p5
aS'Event'
p6
aa(lp7
S'Imphal-Tiddim road'
p8
aS'31'
p9
aS'Event'
p10
aasS'PER'
p11
(lp12
sS'TIM'
p13
(lp14
sS'hot_setting'
p15
S''
p16
sS'DAT'
p17
(lp18
S'Sunday:8'
p19
asS'death'
p20
S'0'
p21
sS'title'
p22
S'Army personnel escape bomb attack near Imphal'
p23
sS'org_unorg'
p24
S'Organized'
p25
sS'terror_group'
p26
(lp27
S'United National Liberation Front (UNLF)'
p28
ag16
asS'content'
p29
S'Army personnel had a narrow escape on Sunday , when a powerful remote-controlled bomb exploded in Kwakeithel , near here , seconds after their truck crossed the place on the Imphal-Tiddim road . The bomb buried near a tree caused a foot-deep crater . A manhunt by the police shortly after the blast drew a blank . So far , no underground organisation has claimed responsibility . Police said the explosion was part of the coordinated violent campaign against the security forces by the United National Liberation Front and the Revolutionary Peoples Front . OPEN'
p30
sS'injured'
p31
g21
sS'det_loc'
p32
(lp33
S'India'
p34
aS'Manipur'
p35
ag16
ag16
ag16
asS'O'
p36
(lp37
S'army personnel:1'
p38
aS'escape:6'
p39
aS'remote-controlled bomb:13'
p40
aS'truck:25'
p41
aS'place:28'
p42
aS'imphal-tiddim road:31'
p43
aS'bomb:35'
p44
aS'tree:39'
p45
aS'foot-deep crater:42'
p46
aS'manhunt:46'
p47
aS'blast:53'
p48
aS'organisation:63'
p49
aS'responsibility:66'
p50
aS'explosion:71'
p51
aS'part:73'
p52
aS'campaign:78'
p53
aS'security:81'
p54
asS'unexpl'
p55
(lp56
g16
asS'ocassion'
p57
S'Operations against terrorist groups'
p58
sS'link'
p59
S'http://www.thehindu.com/todays-paper/tp-national/army-personnel-escape-bomb-attack-near-imphal/article3930530.ece'
p60
sS'date'
p61
S'23-09-2012'
p62
sS'target'
p63
g16
sS'hot_spot'
p64
S'Imphal-Tiddim roa'
p65
sS'delivery_mod'
p66
g16
sS'delivery_met'
p67
S'Planted'
p68
sS'expl'
p69
(lp70
g16
asS'ORG'
p71
(lp72
(lp73
S'United National Liberation Front'
p74
aS'85'
p75
aS'Accused'
p76
aa(lp77
S'Revolutionary Peoples Front'
p78
aS'91'
p79
aS'Accused'
p80
aas.