(dp0
S'LOC'
p1
(lp2
sS'PER'
p3
(lp4
(lp5
S'Mukhtar Ahmed Khan'
p6
aS'1'
p7
aS'Accused'
p8
aasS'TIM'
p9
(lp10
S'acquitted : 34'
p11
asS'hot_setting'
p12
S''
p13
sS'DAT'
p14
(lp15
S'Saturday:30'
p16
asS'death'
p17
g13
sS'title'
p18
S'LeT suspect acquitted'
p19
sS'org_unorg'
p20
S'Organized'
p21
sS'terror_group'
p22
(lp23
S'Lashkar-e-Taiba / Pasban-E-Ahle Hadis (LeT)'
p24
asS'content'
p25
S'Mukhtar Ahmed Khan , a suspected Lashkar-e-Taiba ( LeT ) militant , arrested for allegedly planning to execute bomb blasts here , was acquitted by a Delhi court on Saturday . He was acquitted as the prosecution failed to prove its case . OPEN'
p26
sS'injured'
p27
g13
sS'det_loc'
p28
(lp29
S'India'
p30
aS'Delhi'
p31
aS'New Delhi'
p32
ag13
ag13
asS'O'
p33
(lp34
S'suspected:6'
p35
aS'militant:11'
p36
aS'arrested:13'
p37
aS'allegedly planning:15'
p38
aS'bomb:19'
p39
aS'prosecution:37'
p40
aS'case:42'
p41
asS'unexpl'
p42
(lp43
g13
asS'ocassion'
p44
g13
sS'link'
p45
S'http://www.thehindu.com/todays-paper/let-suspect-acquitted/article3341194.ece'
p46
sS'date'
p47
S'21-04-2012'
p48
sS'target'
p49
g13
sS'hot_spot'
p50
g13
sS'delivery_mod'
p51
g13
sS'delivery_met'
p52
g13
sS'expl'
p53
(lp54
g13
asS'ORG'
p55
(lp56
(lp57
S'Lashkar-e-Taiba ( LeT )'
p58
aS'7'
p59
aS'Accused'
p60
aa(lp61
S'Delhi court'
p62
aS'27'
p63
aS'Others'
p64
aas.