(dp0
S'LOC'
p1
(lp2
(lp3
S'Koregaon'
p4
aS'14'
p5
aS'Event'
p6
aa(lp7
S'Kaij tehsil'
p8
aS'17'
p9
aS'Event'
p10
aa(lp11
S'Beed'
p12
aS'20'
p13
aS'Event'
p14
aa(lp15
S'Maharashtra'
p16
aS'23'
p17
aS'Event'
p18
aa(lp19
S'Kendrewadi'
p20
aS'48'
p21
aS'Accused Location'
p22
aa(lp23
S'Ambejogai'
p24
aS'51'
p25
aS'Accused Location'
p26
aa(lp27
S'Ambejogai'
p28
aS'102'
p29
aS'Accused Location'
p30
aa(lp31
S'Mumbai'
p32
aS'145'
p33
aS'Neutral'
p34
aasS'PER'
p35
(lp36
(lp37
S'Aba'
p38
aS'43'
p39
aS'Accused'
p40
aa(lp41
S'Rajabhau Giri'
p42
aS'45'
p43
aS'Accused'
p44
aa(lp45
S'Giri'
p46
aS'54'
p47
aS'Accused'
p48
aa(lp49
S'Gopinath Tarkase'
p50
aS'59'
p51
aS'Others'
p52
aa(lp53
S'Tarkase'
p54
aS'66'
p55
aS'Others'
p56
aa(lp57
S'Giri'
p58
aS'75'
p59
aS'Accused'
p60
aa(lp61
S'Tarkase'
p62
aS'89'
p63
aS'Others'
p64
aa(lp65
S'Om Nimbalkar'
p66
aS'108'
p67
aS'Victim'
p68
aasS'TIM'
p69
(lp70
sS'hot_setting'
p71
S''
p72
sS'DAT'
p73
(lp74
sS'death'
p75
S'0'
p76
sS'title'
p77
S'Beed blast due to personal enmity, say police'
p78
sS'det_loc'
p79
(lp80
S'India'
p81
aS'Maharashtra'
p82
aS'Beed'
p83
aS'Koregaon village'
p84
aS'Koregaon village of Kaij tehsil in Beed district of Maharashtra'
p85
asS'terror_group'
p86
(lp87
g72
asS'content'
p88
S'The police have ruled out terror angle in the radio bomb blast at Koregaon village of Kaij tehsil in Beed district of Maharashtra last week . Four members of a family were injured in the blast . The police , who arrested Aba alias Rajabhau Giri of Kendrewadi village in Ambejogai , said Giri had personal enmity with Gopinath Tarkase of his village . Mr. Tarkase had filed a police complaint against him . Giri put some explosives in a radio set and wrote the name of Mr. Tarkase on it . He then left it in an MRCTC bus in Ambejogai . The bus conductor , Om Nimbalkar , took it home and when he tried to switch it on , it exploded , injuring him , his wife , mother and a son . The injured were admitted to JJ hospital in Mumbai . OPEN'
p89
sS'injured'
p90
S'4'
p91
sS'org_unorg'
p92
S'ORGANISED'
p93
sS'O'
p94
(lp95
S'terror angle:6'
p96
aS'radio bomb blast:10'
p97
aS'Four members:27'
p98
aS'injured:33'
p99
aS'blast:36'
p100
aS'personal enmity:56'
p101
aS'police complaint:70'
p102
aS'explosives:78'
p103
aS'radio set:81'
p104
aS'bus:100'
p105
aS'bus conductor:105'
p106
aS'exploded:124'
p107
aS'injured:138'
p108
asS'unexpl'
p109
(lp110
S'RADIO SET'
p111
asS'ocassion'
p112
g72
sS'link'
p113
S'http://www.thehindu.com/todays-paper/tp-national/beed-blast-due-to-personal-enmity-say-police/article4162142.ece'
p114
sS'date'
p115
S'30-11-2012'
p116
sS'target'
p117
S'INDIVIDUAL'
p118
sS'hot_spot'
p119
S'People other than the targeted person was victimised by mistake.'
p120
sS'delivery_mod'
p121
S'BUS'
p122
sS'delivery_met'
p123
S'PLANTED'
p124
sS'expl'
p125
(lp126
g72
asS'ORG'
p127
(lp128
(lp129
S'MRCTC'
p130
aS'99'
p131
aS'Others'
p132
aa(lp133
S'JJ hospital'
p134
aS'142'
p135
aS'Others'
p136
aas.