(dp0
S'LOC'
p1
(lp2
(lp3
S'Doomdooma Township'
p4
aS'26'
p5
aS'Event'
p6
aa(lp7
S'Tinsukia district'
p8
aS'29'
p9
aS'Event'
p10
aa(lp11
S'Assam'
p12
aS'32'
p13
aS'Event'
p14
aa(lp15
S'Doomdooma'
p16
aS'46'
p17
aS'Event'
p18
aa(lp19
S'Assam'
p20
aS'134'
p21
aS'Source'
p22
aasS'PER'
p23
(lp24
(lp25
S'Anil Nath'
p26
aS'81'
p27
aS'Victim'
p28
aa(lp29
S'Prabodh Sonowal'
p30
aS'84'
p31
aS'Victim'
p32
aa(lp33
S'Joy Asom'
p34
aS'116'
p35
aS'Accused'
p36
aasS'TIM'
p37
(lp38
sS'hot_setting'
p39
S" ULFA 's foundation day "
p40
sS'DAT'
p41
(lp42
S'Saturday : 51'
p43
aS'April 7:150'
p44
asS'death'
p45
S'0'
p46
sS'title'
p47
S'Two policemen injured in blast'
p48
sS'det_loc'
p49
(lp50
S'India'
p51
aS'Assam'
p52
aS'Tinsukia'
p53
aS''
p54
aS'Doomdooma Township'
p55
asS'terror_group'
p56
(lp57
S'United Liberation Front of Assam (ULFA'
p58
asS'content'
p59
S"Two policemen were injured in a bomb blast allegedly triggered by the anti-talk faction of the United Liberation Front of Asom ( ULFA ) at Doomdooma Township in Tinsukia district of Assam . According to the police , a group of security personnel went to Doomdooma 's main market on Saturday night acting on a tip-off and found a suspicious packet at a vegetable shop . The blast took place while the police were inspecting the packet . Police personnel Anil Nath and Prabodh Sonowal sustained minor injuries in the explosion . Their condition is stated to be stable . Meanwhile , in an e-mail to the media , ULFA anti-talk faction publicity department member Joy Asom claimed responsibility for the blast . The incident comes at a time when security forces in Assam are in a state of alert in the run-up to ULFA 's foundation day on April 7 . PTI OPEN"
p60
sS'injured'
p61
S'2'
p62
sS'org_unorg'
p63
S'Organized'
p64
sS'O'
p65
(lp66
S'bomb blast:7'
p67
aS'anti-talk faction:13'
p68
aS'faction:14'
p69
aS'group:40'
p70
aS'security:42'
p71
aS'market:49'
p72
aS'night:52'
p73
aS'packet:61'
p74
aS'blast:68'
p75
aS'place:70'
p76
aS'packet:77'
p77
aS'explosion:91'
p78
aS'condition:94'
p79
aS'blast:122'
p80
aS'incident:125'
p81
aS'security:131'
p82
asS'unexpl'
p83
(lp84
g54
asS'ocassion'
p85
S'Important days for terrorist organizations'
p86
sS'link'
p87
S'http://www.thehindu.com/todays-paper/tp-national/tp-otherstates/two-policemen-injured-in-blast/article3271297.ece'
p88
sS'date'
p89
S'31-03-2012'
p90
sS'target'
p91
S'Market Place'
p92
sS'hot_spot'
p93
S"Doomdooma 's main market"
p94
sS'delivery_mod'
p95
g54
sS'delivery_met'
p96
S'Planted'
p97
sS'expl'
p98
(lp99
g54
asS'ORG'
p100
(lp101
(lp102
S'United Liberation Front of Asom'
p103
aS'17'
p104
aS'Accused'
p105
aa(lp106
S'ULFA'
p107
aS'23'
p108
aS'Accused'
p109
aa(lp110
S'ULFA'
p111
aS'110'
p112
aS'Accused'
p113
aa(lp114
S'ULFA'
p115
aS'145'
p116
aS'Accused'
p117
aas.