(dp0
S'LOC'
p1
(lp2
(lp3
S'Damascus'
p4
aS'11'
p5
aS'Event'
p6
aa(lp7
S'Syria'
p8
aS'22'
p9
aS'Neutral'
p10
aa(lp11
S'Syria'
p12
aS'69'
p13
aS'Neutral'
p14
aa(lp15
S'Damascus'
p16
aS'116'
p17
aS'Event'
p18
aa(lp19
S'Syria'
p20
aS'129'
p21
aS'Neutral'
p22
aa(lp23
S'Damascus'
p24
aS'133'
p25
aS'Event'
p26
aasS'PER'
p27
(lp28
(lp29
S'Maher Nuwaimi'
p30
aS'119'
p31
aS'Accused'
p32
aa(lp33
S'Bashar al-Assad'
p34
aS'157'
p35
aS'Assoc Victim'
p36
aasS'TIM'
p37
(lp38
sS'hot_setting'
p39
S''
p40
sS'DAT'
p41
(lp42
S'Wednesday:6'
p43
asS'death'
p44
g40
sS'title'
p45
S'Massive bomb blast rocks Damascus near UN hotel'
p46
sS'org_unorg'
p47
S'Organized'
p48
sS'terror_group'
p49
(lp50
g40
asS'content'
p51
S"A massive bomb blast on Wednesday rocked the heart of Damascus near the hotel used by the UN observer mission in Syria , in an attack claimed by the rebel Free Syrian Army . The blast , which tore a huge hole out of a petrol tanker near the Dama Rose hotel , wounded at least five people , a military source at the scene said , while Syria 's deputy foreign minister said UN staff were unscathed . `` The FSA operation targeted a military command office with explosives designed to go off at a meeting of army officers and members of the shabiha ( pro-government militia ) which decides on daily operations in Damascus , '' Maher Nuwaimi , head of the FSA coordination command in Syria , said . Damascus has been hit by several bomb blasts , including an attack last month at the national security headquarters that killed three of President Bashar al-Assad 's top security chiefs and was claimed by the FSA . State television showed images of charred vehicles and the fuel truck , its rear end blown off and still smouldering from the blast as firefighters doused the area and security forces set up a cordon.AFP OPEN"
p52
sS'injured'
p53
g40
sS'det_loc'
p54
(lp55
S'Syria'
p56
ag40
ag40
aS'Damascus'
p57
ag40
asS'O'
p58
(lp59
S'bomb blast:3'
p60
aS'heart:9'
p61
aS'damascus:11'
p62
aS'hotel:14'
p63
aS'blast:36'
p64
aS'hole:42'
p65
aS'petrol tanker:46'
p66
aS'source:62'
p67
aS'scene:65'
p68
aS'deputy:71'
p69
aS'minister:73'
p70
aS'pro-government militia:107'
p71
aS'damascus:133'
p72
aS'hit:136'
p73
aS'bomb:139'
p74
aS'attack:144'
p75
aS'month:146'
p76
aS'security:150'
p77
aS'state television:170'
p78
aS'blast:192'
p79
asS'unexpl'
p80
(lp81
g40
asS'ocassion'
p82
g40
sS'link'
p83
S'http://www.thehindu.com/todays-paper/tp-in-school/massive-bomb-blast-rocks-damascus-near-un-hotel/article3777345.ece'
p84
sS'date'
p85
S'15-08-2012'
p86
sS'target'
p87
g40
sS'hot_spot'
p88
g40
sS'delivery_mod'
p89
g40
sS'delivery_met'
p90
g40
sS'expl'
p91
(lp92
g40
asS'ORG'
p93
(lp94
(lp95
S'Free Syrian Army'
p96
aS'31'
p97
aS'Accused'
p98
aa(lp99
S'Dama Rose'
p100
aS'50'
p101
aS'Others'
p102
aa(lp103
S'UN'
p104
aS'75'
p105
aS'Others'
p106
aa(lp107
S'FSA'
p108
aS'82'
p109
aS'Accused'
p110
aa(lp111
S'shabiha'
p112
aS'105'
p113
aS'Assoc Accused'
p114
aa(lp115
S'FSA'
p116
aS'125'
p117
aS'Accused'
p118
aa(lp119
S'FSA'
p120
aS'168'
p121
aS'Accused'
p122
aas.