(dp0
S'LOC'
p1
(lp2
(lp3
S'U.S.'
p4
aS'7'
p5
aS'Neutral'
p6
aa(lp7
S'Afghanistan'
p8
aS'16'
p9
aS'Event'
p10
aa(lp11
S'Khost'
p12
aS'45'
p13
aS'Event'
p14
aa(lp15
S'Khost'
p16
aS'104'
p17
aS'Neutral'
p18
aa(lp19
S'Pakistan'
p20
aS'107'
p21
aS'Neutral'
p22
aa(lp23
S'Afghanistan'
p24
aS'149'
p25
aS'Event'
p26
aasS'PER'
p27
(lp28
(lp29
S'Zabihullah Mujahed'
p30
aS'60'
p31
aS'Assoc Accused'
p32
aasS'TIM'
p33
(lp34
sS'hot_setting'
p35
S''
p36
sS'DAT'
p37
(lp38
S'Wednesday:27'
p39
asS'death'
p40
S'3'
p41
sS'title'
p42
S'Three Afghans killed in suicide attack at U.S. base'
p43
sS'det_loc'
p44
(lp45
S'Afghanistan'
p46
ag36
ag36
aS'KHOST'
p47
ag36
asS'terror_group'
p48
(lp49
S'TALIBAN'
p50
asS'content'
p51
S"A suicide car bombing at a U.S. military base near a flashpoint city in eastern Afghanistan killed at least three Afghans and wounded seven others on Wednesday , officials said . The blast took place at the entrance of Forward Operating Base Chapman in Khost . Taliban claims responsibility The Taliban claimed responsibility for the attack . Taliban spokesman Zabihullah Mujahed said the attacker `` detonated a car bomb while American invading forces were searching visitors going to the base '' . `` One police officer who tried to search the vehicle and two civilians nearby were killed , '' he said . Khost province borders Pakistan , which is widely believed to be a key source of fighters , funds and supplies for the Taliban . The Haqqani network , a militant group close to Al-Qaeda and blamed for some of the most daring insurgent attacks in Afghanistan , is particularly active in the province.AFP OPEN"
p52
sS'injured'
p53
g5
sS'org_unorg'
p54
S'ORGANISED'
p55
sS'O'
p56
(lp57
S'suicide car bombing:2'
p58
aS'u.s. military:7'
p59
aS'flashpoint city:12'
p60
aS'three afghans:20'
p61
aS'blast:33'
p62
aS'taliban:47'
p63
aS'attack:56'
p64
aS'attacker:64'
p65
aS'car bomb:68'
p66
aS'american invading forces:71'
p67
aS'key source:116'
p68
aS'fighters:119'
p69
aS'funds:121'
p70
aS'insurgent attacks:146'
p71
asS'unexpl'
p72
(lp73
g36
asS'ocassion'
p74
g36
sS'link'
p75
S'http://www.thehindu.com/todays-paper/tp-in-school/three-afghans-killed-in-suicide-attack-at-us-base/article4243203.ece'
p76
sS'date'
p77
S'26-12-2012'
p78
sS'target'
p79
S'POLICE AND DEFENCE FORCES'
p80
sS'hot_spot'
p81
g36
sS'delivery_mod'
p82
S'CAR'
p83
sS'delivery_met'
p84
S'PLANTED'
p85
sS'expl'
p86
(lp87
g36
asS'ORG'
p88
(lp89
(lp90
S'Forward Operating Base Chapman'
p91
aS'40'
p92
aS'Accused'
p93
aa(lp94
S'Taliban'
p95
aS'47'
p96
aS'Accused'
p97
aa(lp98
S'Taliban'
p99
aS'51'
p100
aS'Accused'
p101
aa(lp102
S'Taliban'
p103
aS'58'
p104
aS'Accused'
p105
aa(lp106
S'Taliban'
p107
aS'126'
p108
aS'Accused'
p109
aa(lp110
S'Haqqani network'
p111
aS'129'
p112
aS'Assoc Accused'
p113
aa(lp114
S'Al-Qaeda'
p115
aS'137'
p116
aS'Assoc Accused'
p117
aas.