(dp0
S'LOC'
p1
(lp2
(lp3
S'Pune'
p4
aS'35'
p5
aS'Assoc Event Location'
p6
aa(lp7
S'Delhi'
p8
aS'59'
p9
aS'Event'
p10
aa(lp11
S'Darbhanga'
p12
aS'67'
p13
aS'Accused Location'
p14
aa(lp15
S'Delhi'
p16
aS'74'
p17
aS'Event'
p18
aa(lp19
S'Anand Vihar'
p20
aS'77'
p21
aS'Neutral'
p22
aa(lp23
S'Bihar'
p24
aS'164'
p25
aS'Assoc Event Location'
p26
aasS'PER'
p27
(lp28
(lp29
S'Mohammad Qateel Siddiqui'
p30
aS'18'
p31
aS'Accused'
p32
aa(lp33
S'Vinod Yadav'
p34
aS'40'
p35
aS'Comment'
p36
aa(lp37
S'Siddiqui'
p38
aS'48'
p39
aS'Accused'
p40
aa(lp41
S'Siddiqui'
p42
aS'69'
p43
aS'Accused'
p44
aa(lp45
S'Siddiqui'
p46
aS'119'
p47
aS'Accused'
p48
aa(lp49
S'Mohammed Tariq Anjum'
p50
aS'155'
p51
aS'Accused'
p52
aasS'TIM'
p53
(lp54
sS'hot_setting'
p55
S''
p56
sS'DAT'
p57
(lp58
S'Tuesday:9'
p59
aS'November 22:82'
p60
aS'February 13 , 2010 : 132'
p61
asS'death'
p62
g56
sS'title'
p63
S'Pune, Hyderabad ATS get one-month custody of IM men'
p64
sS'det_loc'
p65
(lp66
S'India'
p67
aS'Maharashtra'
p68
aS'Pune'
p69
ag56
ag56
asS'terror_group'
p70
(lp71
S'Indian Mujahideen'
p72
asS'content'
p73
S"The Anti-Terrorism Squad of Pune Police was on Tuesday given custodial remand of alleged Indian Mujahideen operative Mohammad Qateel Siddiqui to interrogate him for his alleged role in the German Bakery bomb blast in Pune . Chief Metropolitan Magistrate Vinod Yadav allowed the Pune ATS to take Siddiqui in custody for a month after the Special Cell of Delhi Police said it had no objection . Darbhanga resident Siddiqui was arrested by the Delhi Police near Anand Vihar Bus Terminal on November 22 . He was one of the eight alleged IM operatives arrested by the Special Cell over suspicion of their alleged involvement in various bomb blasts across the country . According to the Pune ATS , Siddiqui had conducted a reconnaissance of the bakery a few days before the February 13 , 2010 , blast . Meanwhile , the Hyderabad ATS was given one month 's custody of another alleged IM operative Mohammed Tariq Anjum . He was also arrested from Bihar . OPEN"
p74
sS'injured'
p75
g56
sS'org_unorg'
p76
S'Organized'
p77
sS'O'
p78
(lp79
S'anti-terrorism squad:2'
p80
aS'remand:12'
p81
aS'operative:17'
p82
aS'German Bakery bomb blast:30'
p83
aS'custody:50'
p84
aS'month:53'
p85
aS'cell:57'
p86
aS'objection:65'
p87
aS'cell:98'
p88
aS'suspicion:100'
p89
aS'involvement:104'
p90
aS'bomb:107'
p91
aS'country:111'
p92
aS'reconnaissance:123'
p93
aS'bakery:126'
p94
aS'blast:137'
p95
aS'month:147'
p96
aS'custody:149'
p97
asS'unexpl'
p98
(lp99
g56
asS'ocassion'
p100
g56
sS'link'
p101
S'http://www.thehindu.com/todays-paper/tp-national/pune-hyderabad-ats-get-onemonth-custody-of-im-men/article3375107.ece'
p102
sS'date'
p103
S'01-05-2012'
p104
sS'target'
p105
S'Market Place'
p106
sS'hot_spot'
p107
g56
sS'delivery_mod'
p108
g56
sS'delivery_met'
p109
S'Planted'
p110
sS'expl'
p111
(lp112
g56
asS'ORG'
p113
(lp114
(lp115
S'Indian Mujahideen'
p116
aS'15'
p117
aS'Accused'
p118
aa(lp119
S'Pune ATS'
p120
aS'116'
p121
aS'Others'
p122
aa(lp123
S'Hyderabad ATS'
p124
aS'142'
p125
aS'Others'
p126
aa(lp127
S'IM'
p128
aS'153'
p129
aS'Accused'
p130
aas.