(dp0
S'LOC'
p1
(lp2
(lp3
S'Damascus'
p4
aS'14'
p5
aS'Event'
p6
aa(lp7
S'Syria'
p8
aS'35'
p9
aS'Event'
p10
aa(lp11
S'Rawda'
p12
aS'58'
p13
aS'Event'
p14
aa(lp15
S'Al-Shami hospital'
p16
aS'93'
p17
aS'Assoc Event Location'
p18
aa(lp19
S'Damascus'
p20
aS'184'
p21
aS'Event'
p22
aS'Neutral'
p23
aasS'PER'
p24
(lp25
(lp26
S'General Daoud Rajha'
p27
aS'5'
p28
aS'Others'
p29
aa(lp30
S'Rajha'
p31
aS'72'
p32
aS'Others'
p33
aa(lp34
S'Interior Minister Mohammed'
p35
aS'104'
p36
aS'Others'
p37
aa(lp38
S'Mohammed al-Shaar'
p39
aS'106'
p40
aS'Victim'
p41
aa(lp42
S'Rajha'
p43
aS'113'
p44
aS'Victim'
p45
aa(lp46
S'Bashar al-Assad'
p47
aS'139'
p48
aS'Victim'
p49
aa(lp50
S'Hisham Ikhtiyar'
p51
aS'161'
p52
aS'Victim'
p53
aa(lp54
S'Ikhtiyar'
p55
aS'170'
p56
aS'Victim'
p57
aa(lp58
S'Assad'
p59
aS'206'
p60
aS'Others'
p61
aasS'TIM'
p62
(lp63
sS'hot_setting'
p64
S'Suicide bombing'
p65
sS'DAT'
p66
(lp67
S'Wednesday:16'
p68
asS'death'
p69
S''
p70
sS'title'
p71
S'Syria defence minister killed in bomb attack'
p72
sS'org_unorg'
p73
S'Unorganized'
p74
sS'terror_group'
p75
(lp76
g70
asS'content'
p77
S": Syrian defence minister General Daoud Rajha died in a suicide attack in Damascus on Wednesday , as raging battles across the capital upped the stakes ahead of a Security Council vote on the Syria crisis . State television said a suicide bomber targeted a meeting of ministers and security officials at the National Security headquarters in Rawda , a high security district in the heart of the capital , killing Rajha . Security officials told AFP that several other participants in the meeting were wounded in the blast and taken to Al-Shami hospital in the capital for treatment . The officials said Interior Minister Mohammed al-Shaar was among the wounded . Rajha , a Christian , was defence minister , deputy army chief and deputy of the Council of Ministers . Syria 's army chief is President Bashar al-Assad . The National Security branch -- a key part of the country 's security apparatus -- is headed by General Hisham Ikhtiyar . There was no immediate news of Ikhtiyar 's fate after the bombing . The attack came as battles raged across Damascus and after the Free Syrian Army ( FSA ) -- comprising defected soldiers and civilians who have taken up arms against Assad 's forces -- warned the Assad regime to `` expect surprises . '' OPEN"
p78
sS'injured'
p79
g70
sS'det_loc'
p80
(lp81
S'Syria'
p82
ag70
ag70
aS'Rawda'
p83
aS'Damascus, National Security headquarters,Rawda'
p84
asS'O'
p85
(lp86
S'defence minister:3'
p87
aS'defence minister general:3'
p88
aS'general daoud:5'
p89
aS'rajha:7'
p90
aS'suicide attack:11'
p91
aS'damascus:14'
p92
aS'capital:23'
p93
aS'security:30'
p94
aS'security council:30'
p95
aS'council vote:31'
p96
aS'council:31'
p97
aS'vote:32'
p98
aS'syria crisis:35'
p99
aS'syria:35'
p100
aS'crisis:36'
p101
aS'state television:38'
p102
aS'suicide bomber:42'
p103
aS'meeting:46'
p104
aS'security:50'
p105
aS'national security headquarters:54'
p106
aS'national security:54'
p107
aS'national:54'
p108
aS'security:55'
p109
aS'security district:62'
p110
aS'heart:66'
p111
aS'capital:69'
p112
aS'security:74'
p113
aS'afp:77'
p114
aS'meeting:84'
p115
aS'blast:89'
p116
aS'al-shami:93'
p117
aS'al-shami hospital:93'
p118
aS'hospital:94'
p119
aS'capital:97'
p120
aS'treatment:99'
p121
aS'christian:116'
p122
aS'defence minister:119'
p123
aS'deputy army chief:122'
p124
aS'deputy:126'
p125
aS'council:129'
p126
aS'council of ministers:129'
p127
aS'ministers:131'
p128
aS'army chief:135'
p129
aS'president bashar:138'
p130
aS'national security branch:143'
p131
aS'national:143'
p132
aS'security branch:144'
p133
aS'key part:148'
p134
aS'country:152'
p135
aS'security apparatus:154'
p136
aS'general hisham ikhtiyar:160'
p137
aS'news:168'
p138
aS'fate:172'
p139
aS'bombing:175'
p140
aS'attack:178'
p141
aS'damascus:184'
p142
aS'free:188'
p143
aS'army:190'
p144
aS'fsa:192'
p145
aS'assad regime:212'
p146
aS'assad:212'
p147
aS'regime:213'
p148
asS'unexpl'
p149
(lp150
g70
asS'ocassion'
p151
g70
sS'link'
p152
S'http://www.thehindu.com/todays-paper/tp-in-school/syria-defence-minister-killed-in-bomb-attack/article3655447.ece'
p153
sS'date'
p154
S'20-07-2012'
p155
sS'target'
p156
S'Government Building'
p157
sS'hot_spot'
p158
S'National Security headquarters,Raw'
p159
sS'delivery_mod'
p160
S'Human'
p161
sS'delivery_met'
p162
g70
sS'expl'
p163
(lp164
g70
asS'ORG'
p165
(lp166
(lp167
S'Security Council'
p168
aS'30'
p169
aS'Others'
p170
aa(lp171
S'National Security headquarters'
p172
aS'54'
p173
aS'Others'
p174
aa(lp175
S'AFP'
p176
aS'77'
p177
aS'Others'
p178
aa(lp179
S'Free Syrian Army'
p180
aS'188'
p181
aS'Others'
p182
aa(lp183
S'Assad regime'
p184
aS'212'
p185
aS'Others'
p186
aas.