(dp0
S'LOC'
p1
(lp2
(lp3
S'Assams'
p4
aS'20'
p5
aS'Event'
p6
aa(lp7
S'Sivasagar'
p8
aS'21'
p9
aS'Event'
p10
aa(lp11
S'Dibrugarh'
p12
aS'71'
p13
aS'Neutral'
p14
aa(lp15
S'Sivasagar'
p16
aS'81'
p17
aS'Event'
p18
aasS'PER'
p19
(lp20
(lp21
S'Paresh Barua'
p22
aS'37'
p23
aS'Accused'
p24
aS'Others'
p25
aa(lp26
S'G.D. Tripathi'
p27
aS'53'
p28
aS'Comment'
p29
aasS'TIM'
p30
(lp31
sS'hot_setting'
p32
S''
p33
sS'DAT'
p34
(lp35
S'Monday:24'
p36
aS'Monday night : 24'
p37
asS'death'
p38
S'1'
p39
sS'title'
p40
S'1 killed as bicycle-bomb goes off'
p41
sS'det_loc'
p42
(lp43
S'India'
p44
aS'Assam'
p45
ag33
aS'Guwahati'
p46
ag33
asS'terror_group'
p47
(lp48
S'UNITED LIBERATION FRONT OF ASSAM (ULFA)'
p49
asS'content'
p50
S'One person was killed and seven were injured when a bicycle-bomb went off outside a cinema hall in upper Assams Sivasagar town on Monday night . Police suspect that the blast was the handiwork of the Paresh Barua faction of the United Liberation Front of Asom ( ULFA ) . Home Secretary G.D. Tripathi told The Hindu that one critically injured person was shifted to the Assam Medical College in Dibrugarh , while the others were admitted to hospitals in Sivasagar town . OPEN'
p51
sS'injured'
p52
S'7'
p53
sS'org_unorg'
p54
S'ORGANISED'
p55
sS'O'
p56
(lp57
S'injured:8'
p58
aS'bicycle-bomb:11'
p59
aS'cinema hall:16'
p60
aS'blast:31'
p61
aS'handiwork:34'
p62
aS'home secretary g.d. tripathi:51'
p63
aS'critically injured:60'
p64
asS'unexpl'
p65
(lp66
g33
asS'ocassion'
p67
g33
sS'link'
p68
S'http://www.thehindu.com/todays-paper/1-killed-as-bicyclebomb-goes-off/article3933773.ece'
p69
sS'date'
p70
S'10-09-2012'
p71
sS'target'
p72
S'TOWN'
p73
sS'hot_spot'
p74
g33
sS'delivery_mod'
p75
S'BYCICLE'
p76
sS'delivery_met'
p77
S'PLANTED'
p78
sS'expl'
p79
(lp80
g33
asS'ORG'
p81
(lp82
(lp83
S'United Liberation Front'
p84
aS'42'
p85
aS'Others'
p86
aa(lp87
S'United Liberation Front of Asom'
p88
aS'42'
p89
aS'Accused'
p90
aa(lp91
S'ULFA'
p92
aS'48'
p93
aS'Accused'
p94
aa(lp95
S'The Hindu'
p96
aS'56'
p97
aS'Others'
p98
aa(lp99
S'Assam Medical College'
p100
aS'67'
p101
aS'Others'
p102
aas.