(dp0
S'LOC'
p1
(lp2
(lp3
S'Chanchalguda prison'
p4
aS'33'
p5
aS'Assoc Event Location'
p6
aa(lp7
S'Chanchalguda jail'
p8
aS'109'
p9
aS'Assoc Event Location'
p10
aa(lp11
S'Jaipur'
p12
aS'117'
p13
aS'Neutral'
p14
aa(lp15
S'Jaipur'
p16
aS'148'
p17
aS'Neutral'
p18
aa(lp19
S'Mecca Masjid'
p20
aS'155'
p21
aS'Neutral'
p22
aasS'PER'
p23
(lp24
(lp25
S'Bharat Mohanlal Ratheswar'
p26
aS'10'
p27
aS'Accused'
p28
aa(lp29
S'Bharat Bhai'
p30
aS'14'
p31
aS'Accused'
p32
aa(lp33
S'Bharat'
p34
aS'41'
p35
aS'Accused'
p36
aa(lp37
S'Bharat'
p38
aS'74'
p39
aS'Accused'
p40
aa(lp41
S'B. Rajavardhan Reddy'
p42
aS'97'
p43
aS'Others'
p44
aa(lp45
S'Bharat'
p46
aS'103'
p47
aS'Accused'
p48
aasS'TIM'
p49
(lp50
sS'hot_setting'
p51
S''
p52
sS'DAT'
p53
(lp54
S'Friday:6'
p55
aS'2007:21'
p56
aS'December:145'
p57
asS'death'
p58
g52
sS'title'
p59
S'Mecca Masjid blast accused gets bail'
p60
sS'org_unorg'
p61
S'Organized'
p62
sS'terror_group'
p63
(lp64
g52
asS'content'
p65
S"A local court here on Friday granted bail to Bharat Mohanlal Ratheswar alias Bharat Bhai , the accused in the 2007 Mecca Masjid bomb blast case . Presently , he is in Chanchalguda prison The court granted the bail to Bharat after the National Investigating Agency ( NIA ) , which is probing the case , failed to file charge-sheet even after the expiry of 180 days of remand period . It asked Bharat to produce two sureties for Rs .10,000 each and stipulated that he be available for investigators as and when required , said B. Rajavardhan Reddy , counsel for Bharat . After releasing from the Chanchalguda jail , he will be taken to Jaipur in connection with the Ajmer dargah bomb blast case . Transit warrant The NIA has brought him to the city on a prisoner 's transit warrant in December last from Jaipur for his alleged involvement in the Mecca Masjid blast case . The NIA has named him as accused number seven in the case . OPEN"
p66
sS'injured'
p67
g52
sS'det_loc'
p68
(lp69
S'India'
p70
aS'Andhra Pradesh'
p71
aS'Hyderabad'
p72
ag52
ag52
asS'O'
p73
(lp74
S'court:3'
p75
aS'bail:8'
p76
aS'mecca masjid bomb blast case:22'
p77
aS'mecca:22'
p78
aS'masjid bomb blast case:23'
p79
aS'prison:34'
p80
aS'court:36'
p81
aS'bail:39'
p82
aS'bharat:41'
p83
aS'national:44'
p84
aS'agency:46'
p85
aS'case:55'
p86
aS'file charge-sheet:59'
p87
aS'expiry:64'
p88
aS'remand period:69'
p89
aS'bharat:74'
p90
aS'rs:80'
p91
aS'counsel:101'
p92
aS'bharat:103'
p93
aS'jail:110'
p94
aS'connection:119'
p95
aS'ajmer dargah bomb blast case:122'
p96
aS'ajmer:122'
p97
aS'dargah bomb blast case:123'
p98
aS'transit:128'
p99
aS'transit warrant:128'
p100
aS'warrant:129'
p101
aS'city:137'
p102
aS'prisoner:140'
p103
aS'transit warrant:142'
p104
aS'involvement:152'
p105
aS'number:167'
p106
aS'case:171'
p107
asS'unexpl'
p108
(lp109
g52
asS'ocassion'
p110
g52
sS'link'
p111
S'http://www.thehindu.com/todays-paper/tp-national/tp-andhrapradesh/mecca-masjid-blast-accused-gets-bail/article3481915.ece'
p112
sS'date'
p113
S'01-06-2012'
p114
sS'target'
p115
S'Religious Places'
p116
sS'hot_spot'
p117
g52
sS'delivery_mod'
p118
g52
sS'delivery_met'
p119
g52
sS'expl'
p120
(lp121
g52
asS'ORG'
p122
(lp123
(lp124
S'National Investigating Agency'
p125
aS'44'
p126
aS'Others'
p127
aa(lp128
S'NIA'
p129
aS'48'
p130
aS'Others'
p131
aa(lp132
S'NIA'
p133
aS'131'
p134
aS'Others'
p135
aa(lp136
S'NIA'
p137
aS'161'
p138
aS'Others'
p139
aas.