(dp0
S'LOC'
p1
(lp2
(lp3
S'Damascus'
p4
aS'7'
p5
aS'Event'
p6
aa(lp7
S'India'
p8
aS'9'
p9
aS'Neutral'
p10
aa(lp11
S'Syria'
p12
aS'16'
p13
aS'Neutral'
p14
aa(lp15
S'Syria'
p16
aS'103'
p17
aS'Neutral'
p18
aa(lp19
S'Palestinians'
p20
aS'108'
p21
aS'Neutral'
p22
aa(lp23
S'Iraqis'
p24
aS'110'
p25
aS'Neutral'
p26
aa(lp27
S'Damascus'
p28
aS'132'
p29
aS'Neutral'
p30
aa(lp31
S'Syrian'
p32
aS'204'
p33
aS'Neutral'
p34
aasS'PER'
p35
(lp36
(lp37
S'Syed Akbaruddin'
p38
aS'61'
p39
aS'Comment'
p40
aa(lp41
S'Mother Teresas'
p42
aS'148'
p43
aS'Others'
p44
aa(lp45
S'Assad'
p46
aS'209'
p47
aS'Others'
p48
aasS'TIM'
p49
(lp50
sS'hot_setting'
p51
S''
p52
sS'DAT'
p53
(lp54
S'Tuesday:70'
p55
asS'death'
p56
g52
sS'title'
p57
S'India pruning mission in unsafe Syria'
p58
sS'org_unorg'
p59
S'ORGANISED'
p60
sS'terror_group'
p61
(lp62
g52
asS'content'
p63
S"With indiscriminate violence having arrived in Damascus , India is thinning down its mission in Syria and evacuating family members of those who will remain . In the haven for expatriates from nearby countries , there are , however , few Indians and those who have remained are being asked to leave by available flights , External Affairs Ministry spokesman Syed Akbaruddin said at a news briefing here on Tuesday . We are advising the Indians to leave the country . After an assessment of the security situation , the families of embassy staff are being evacuated , he said . Although Syria is home to displaced Palestinians and Iraqis , besides people of many other nationalities and faiths , there were only 900 Indians when powerful bomb blasts starting rocking Damascus . Now there are about 100 left including the embassy staff and a few from Mother Teresas Missionaries of Charity . Last week , the Government issued a travel advisory warning Indians against visiting the country , where attacks against unarmed civilians by the Free Syrian Army and some shadowy groups have escalated in their struggle against the Bashar al-Assad regime . A bomb attack last week claimed the lives of Syrian Defence Minister and Mr. Assad 's brother-in-law . OPEN"
p64
sS'injured'
p65
g52
sS'det_loc'
p66
(lp67
S'Syria'
p68
ag52
ag52
aS'Damascus'
p69
aS'Damascus'
p70
asS'O'
p71
(lp72
S'violence:3'
p73
aS'damascus:7'
p74
aS'ministry:59'
p75
aS'Indians:76'
p76
aS'assessment:84'
p77
aS'embassy staff:93'
p78
aS'syria:103'
p79
aS'Indians:125'
p80
aS'charity:152'
p81
aS'travel:161'
p82
aS'country:168'
p83
aS'shadowy:182'
p84
aS'groups:183'
p85
aS'bashar:191'
p86
aS'Defence Minister:205'
p87
asS'unexpl'
p88
(lp89
g52
asS'ocassion'
p90
g52
sS'link'
p91
S'http://www.thehindu.com/todays-paper/tp-national/india-pruning-mission-in-unsafe-syria/article3680426.ece'
p92
sS'date'
p93
g52
sS'target'
p94
g52
sS'hot_spot'
p95
g52
sS'delivery_mod'
p96
g52
sS'delivery_met'
p97
g52
sS'expl'
p98
(lp99
g52
asS'ORG'
p100
(lp101
(lp102
S'External Affairs'
p103
aS'57'
p104
aS'Others'
p105
aa(lp106
S'Missionaries'
p107
aS'150'
p108
aS'Others'
p109
aa(lp110
S'Free'
p111
aS'177'
p112
aS'Others'
p113
aa(lp114
S'Free Syrian Army'
p115
aS'177'
p116
aS'Others'
p117
aa(lp118
S'Army'
p119
aS'179'
p120
aS'Others'
p121
aa(lp122
S'shadowy'
p123
aS'182'
p124
aS'Others'
p125
aa(lp126
S'Bashar al-Assad regime'
p127
aS'191'
p128
aS'Others'
p129
aas.