(dp0
S'LOC'
p1
(lp2
(lp3
S'Delhi'
p4
aS'43'
p5
aS'Neutral'
p6
aa(lp7
S'Delhi'
p8
aS'63'
p9
aS'Neutral'
p10
aa(lp11
S'India'
p12
aS'149'
p13
aS'Neutral'
p14
aa(lp15
S'Rampura'
p16
aS'200'
p17
aS'Event'
p18
aasS'PER'
p19
(lp20
(lp21
S'H.L. Dattu'
p22
aS'54'
p23
aS'Comment'
p24
aa(lp25
S'C.K. Prasad'
p26
aS'57'
p27
aS'Comment'
p28
aa(lp29
S'Dattu'
p30
aS'79'
p31
aS'Comment'
p32
aa(lp33
S'Prasad'
p34
aS'107'
p35
aS'Comment'
p36
aa(lp37
S'Mohammad Hussain'
p38
aS'174'
p39
aS'Accused'
p40
aa(lp41
S'Zulfikur Ali'
p42
aS'177'
p43
aS'Accused'
p44
aasS'TIM'
p45
(lp46
sS'hot_setting'
p47
S''
p48
sS'DAT'
p49
(lp50
S'Wednesday : 27'
p51
aS'1997 : 42'
p52
aS'December 30 , 1997 : 205'
p53
asS'death'
p54
S'4'
p55
sS'title'
p56
S'Court quashes death sentence'
p57
sS'det_loc'
p58
(lp59
S'India'
p60
aS'Delhi'
p61
ag48
aS'New Delhi:'
p62
aS'Rampura bus stand '
p63
asS'terror_group'
p64
(lp65
g48
asS'content'
p66
S'Underlining the importance of fair trial and due procedure contemplated under Article 21 of the Constitution even to a foreign national , the Supreme Court on Wednesday set aside the death sentence awarded to a Pakistani terrorist found guilty in the 1997 Delhi bomb blast case . Though the Bench , comprising Justices H.L. Dattu and C.K. Prasad , set aside the Delhi High Court judgment , the judges gave a split verdict in the case . Justice Dattu ordered a fresh trial , holding that the trial was vitiated as the appellant was not provided with a counsel to defend himself properly , while Justice Prasad held that the trial was illegal and directed him to be set at liberty and ordered his deportation . However , in view of the split verdict , the Bench requested that the matter be placed before the Chief Justice of India to seek another Bench to decide whether the case was to be given a fresh hearing or the accused should be set at liberty Mohammad Hussain alias Zulfikur Ali , the appellant , was awarded death after being found guilty of placing a bomb in a blue line bus at Rampura bus stand here on December 30 , 1997 , causing an explosion in which four persons were killed and 24 sustained injuries . OPEN'
p67
sS'injured'
p68
S'24'
p69
sS'org_unorg'
p70
S'ORGANISED'
p71
sS'O'
p72
(lp73
S'Article 21:12'
p74
aS'Pakistani:36'
p75
aS'not available'
p76
aS'appellant:93'
p77
aS'counsel:99'
p78
aS'justice:106'
p79
aS'illegal:113'
p80
aS'liberty:121'
p81
aS'deportation:125'
p82
aS'Chief Justice:146'
p83
asS'unexpl'
p84
(lp85
g48
asS'ocassion'
p86
g48
sS'link'
p87
S'http://www.thehindu.com/todays-paper/court-quashes-death-sentence/article2794727.ece'
p88
sS'date'
p89
S'18-01-2012'
p90
sS'target'
p91
g48
sS'hot_spot'
p92
g48
sS'delivery_mod'
p93
S'BUS'
p94
sS'delivery_met'
p95
S'PLANTED'
p96
sS'expl'
p97
(lp98
g48
asS'ORG'
p99
(lp100
(lp101
S'foreign national'
p102
aS'20'
p103
aS'Others'
p104
aa(lp105
S'Supreme Court'
p106
aS'24'
p107
aS'Others'
p108
aa(lp109
S'High Court judgment'
p110
aS'64'
p111
aS'Others'
p112
aas.