(dp0
S'LOC'
p1
(lp2
(lp3
S'Ningombam'
p4
aS'6'
p5
aS'Event'
p6
aa(lp7
S'Thoubal'
p8
aS'9'
p9
aS'Event'
p10
aa(lp11
S'Manipur'
p12
aS'16'
p13
aS'Assoc Event Location'
p14
aa(lp15
S'Manipur'
p16
aS'118'
p17
aS'Assoc Event Location'
p18
aasS'PER'
p19
(lp20
(lp21
S'Okram Ibobi Singh'
p22
aS'19'
p23
aS'Others'
p24
aasS'TIM'
p25
(lp26
sS'hot_setting'
p27
S'Thoubal Assembly constituency '
p28
sS'DAT'
p29
(lp30
S'Saturday night:26'
p31
asS'death'
p32
S''
p33
sS'title'
p34
S'Bombs go off in Ibobi constituency'
p35
sS'org_unorg'
p36
S'ORGANISED'
p37
sS'terror_group'
p38
(lp39
S'CORCOM'
p40
asS'content'
p41
S'Two powerful bombs exploded at Ningombam in the Thoubal Assembly constituency , the stronghold of Manipur Chief Minister Okram Ibobi Singh , around midnight on Saturday night . However , there was no casualty in the blasts , alleged to be part of the continuing campaign by the CorCom ( Co-ordination Committee ) of seven proscribed underground organisations against Congress candidates . The CorCom of UNLF , the RPF , the KCP , the PREPAK , the PREPAK ( Pro ) , the KYKL and the UPPK had banned the Congress from contesting the Assembly elections , alleging that it was anti-people and anti- revolutionary . Besides , it played a major role in the merger of Manipur with Indian Union . OPEN'
p42
sS'injured'
p43
g33
sS'det_loc'
p44
(lp45
S'India'
p46
aS'Manipur'
p47
aS'Thoubal'
p48
aS'IMPHAL'
p49
aS'Ningombam'
p50
asS'O'
p51
(lp52
S'Assembly constituency:10'
p53
aS'stronghold:14'
p54
aS'Chief Minister:17'
p55
aS'casualty:34'
p56
aS'campaign:46'
p57
aS'co-ordination committee:51'
p58
aS'Congress candidates:60'
p59
aS'assembly elections:95'
p60
aS'revolutionary:105'
p61
aS'role:113'
p62
aS'merger:116'
p63
asS'unexpl'
p64
(lp65
g33
asS'ocassion'
p66
S'ELECTIONS'
p67
sS'link'
p68
S'http://www.thehindu.com/todays-paper/bombs-go-off-in-ibobi-constituency/article2824110.ece'
p69
sS'date'
p70
S'21-01-2012'
p71
sS'target'
p72
S'MINISTER'
p73
sS'hot_spot'
p74
S'Ningombam in the Thoubal Assembly constituency'
p75
sS'delivery_mod'
p76
g33
sS'delivery_met'
p77
S'PLANTED'
p78
sS'expl'
p79
(lp80
g33
asS'ORG'
p81
(lp82
(lp83
S'CorCom'
p84
aS'49'
p85
aS'Accused'
p86
aa(lp87
S'CorCom'
p88
aS'64'
p89
aS'Accused'
p90
aa(lp91
S'UNLF'
p92
aS'66'
p93
aS'Accused'
p94
aa(lp95
S'RPF'
p96
aS'69'
p97
aS'Accused'
p98
aa(lp99
S'KCP'
p100
aS'72'
p101
aS'Accused'
p102
aa(lp103
S'PREPAK'
p104
aS'75'
p105
aS'Accused'
p106
aa(lp107
S'PREPAK ( Pro'
p108
aS'78'
p109
aS'Accused'
p110
aa(lp111
S'KYKL'
p112
aS'84'
p113
aS'Accused'
p114
aa(lp115
S'UPPK'
p116
aS'87'
p117
aS'Accused'
p118
aa(lp119
S'Indian Union'
p120
aS'120'
p121
aS'Others'
p122
aas.