(dp0
S'LOC'
p1
(lp2
(lp3
S'Ningombam'
p4
aS'6'
p5
aS'Event'
p6
aa(lp7
S'Manipur'
p8
aS'16'
p9
aS'Assoc Event Location'
p10
aa(lp11
S'Manipur'
p12
aS'117'
p13
aS'Assoc Event Location'
p14
aasS'PER'
p15
(lp16
(lp17
S'Okram Ibobi'
p18
aS'19'
p19
aS'Others'
p20
aasS'TIM'
p21
(lp22
sS'hot_setting'
p23
S'Thoubal Assembly constituency '
p24
sS'DAT'
p25
(lp26
S'Saturday:26'
p27
asS'death'
p28
S''
p29
sS'title'
p30
S'Bombs go off in Ibobi constituency'
p31
sS'org_unorg'
p32
S'ORGANISED'
p33
sS'terror_group'
p34
(lp35
S'CORCOM'
p36
asS'content'
p37
S'Two powerful bombs exploded at Ningombam in the Thoubal Assembly constituency , the stronghold of Manipur Chief Minister Okram Ibobi Singh , around midnight on Saturday . However , there was no casualty in the blasts , alleged to be part of the continuing campaign by the CorCom ( Co-ordination Committee ) of seven proscribed underground organisations against Congress candidates . The CorCom of the UNLF , the RPF , the KCP , the PREPAK , the PREPAK ( Pro ) , the KYKL and the UPPK had banned the Congress from contesting the Assembly elections , alleging that it was anti-people and anti-revolutionary . Besides , it played a major role in the merger of Manipur with the Indian Union . OPEN'
p38
sS'injured'
p39
g29
sS'det_loc'
p40
(lp41
S'India'
p42
aS'Manipur'
p43
aS'Thoubal'
p44
aS'IMPHAL'
p45
aS'Ningombam '
p46
asS'O'
p47
(lp48
S'thoubal assembly constituency:9'
p49
aS'Chief Minister:17'
p50
aS'midnight:24'
p51
aS'blasts:36'
p52
aS'co-ordination committee:50'
p53
aS'Congress:91'
p54
aS'assembly elections:95'
p55
aS'anti-people:102'
p56
aS'anti-revolutionary:104'
p57
asS'unexpl'
p58
(lp59
g29
asS'ocassion'
p60
S'ELECTIONS'
p61
sS'link'
p62
S'http://www.thehindu.com/todays-paper/bombs-go-off-in-ibobi-constituency/article2824023.ece'
p63
sS'date'
p64
S'21-01-2012'
p65
sS'target'
p66
S'MINISTER'
p67
sS'hot_spot'
p68
S'Ningombam in the Thoubal Assembly constituency '
p69
sS'delivery_mod'
p70
g29
sS'delivery_met'
p71
S'PLANTED'
p72
sS'expl'
p73
(lp74
g29
asS'ORG'
p75
(lp76
(lp77
S'CorCom'
p78
aS'48'
p79
aS'Accused'
p80
aa(lp81
S'CorCom'
p82
aS'63'
p83
aS'Accused'
p84
aa(lp85
S'UNLF'
p86
aS'66'
p87
aS'Accused'
p88
aa(lp89
S'RPF'
p90
aS'69'
p91
aS'Accused'
p92
aa(lp93
S'KCP'
p94
aS'72'
p95
aS'Accused'
p96
aa(lp97
S'PREPAK'
p98
aS'75'
p99
aS'Accused'
p100
aa(lp101
S'PREPAK ( Pro )'
p102
aS'78'
p103
aS'Accused'
p104
aa(lp105
S'KYKL'
p106
aS'84'
p107
aS'Accused'
p108
aa(lp109
S'UPPK'
p110
aS'87'
p111
aS'Accused'
p112
aa(lp113
S'Indian Union'
p114
aS'120'
p115
aS'Others'
p116
aas.