(dp0
S'LOC'
p1
(lp2
(lp3
S'M. Chinnaswamy Stadium'
p4
aS'32'
p5
aS'Event'
p6
aa(lp7
S'Balha'
p8
aS'70'
p9
aS'Accused Location'
p10
aa(lp11
S'Madhubani'
p12
aS'73'
p13
aS'Accused Location'
p14
aa(lp15
S'Bihar'
p16
aS'76'
p17
aS'Accused Location'
p18
aa(lp19
S'Kolkata'
p20
aS'81'
p21
aS'Neutral'
p22
aa(lp23
S'Bihar'
p24
aS'175'
p25
aS'Neutral'
p26
aa(lp27
S'New Delhi'
p28
aS'177'
p29
aS'Neutral'
p30
aa(lp31
S'Jama Masjid'
p32
aS'197'
p33
aS'Assoc Event Location'
p34
aa(lp35
S'Bihar'
p36
aS'211'
p37
aS'Neutral'
p38
aa(lp39
S'Bengal'
p40
aS'214'
p41
aS'Neutral'
p42
aa(lp43
S'Maharashtra'
p44
aS'216'
p45
aS'Neutral'
p46
aa(lp47
S'Uttar Pradesh'
p48
aS'218'
p49
aS'Neutral'
p50
aa(lp51
S'New Delhi'
p52
aS'221'
p53
aS'Neutral'
p54
aa(lp55
S'Nepal'
p56
aS'224'
p57
aS'Neutral'
p58
aasS'PER'
p59
(lp60
(lp61
S'Kamal Hassan'
p62
aS'1'
p63
aS'Accused'
p64
aa(lp65
S'Yasin Bhatkal'
p66
aS'45'
p67
aS'Accused'
p68
aa(lp69
S'Kamal Hassan'
p70
aS'58'
p71
aS'Accused'
p72
aa(lp73
S'Bilal'
p74
aS'61'
p75
aS'Accused'
p76
aa(lp77
S'Billu'
p78
aS'63'
p79
aS'Accused'
p80
aa(lp81
S'Kalu'
p82
aS'65'
p83
aS'Accused'
p84
aa(lp85
S'Hassan'
p86
aS'153'
p87
aS'Accused'
p88
aa(lp89
S'Yasin Bhatkal'
p90
aS'166'
p91
aS'Accused'
p92
aa(lp93
S'Hassan'
p94
aS'204'
p95
aS'Accused'
p96
aa(lp97
S'Yasin Bhatkal'
p98
aS'208'
p99
aS'Accused'
p100
aasS'TIM'
p101
(lp102
sS'hot_setting'
p103
S'IPL match '
p104
sS'DAT'
p105
(lp106
S'2010 : 37'
p107
aS'April 10 : 83'
p108
aS'April 17 , 2010 : 106'
p109
aS'Friday : 155'
p110
asS'death'
p111
S'0'
p112
sS'title'
p113
S"IM operative was indoctrinated by Yasin Bhatkal'"
p114
sS'det_loc'
p115
(lp116
S'India'
p117
aS'Karnataka'
p118
aS'Bangalore Urban'
p119
aS''
p120
aS'M. Chinnaswamy Stadium'
p121
asS'terror_group'
p122
(lp123
S'Indian Mujahideen'
p124
asS'content'
p125
S'Kamal Hassan ( 24 ) , an alleged operative of militant organisation Indian Mujahideen ( IM ) , who has been arrested by the city police for alleged involvement in the M. Chinnaswamy Stadium blast in 2010 , was indoctrinated to jihadi activities by Yasin Bhatkal , the mastermind of the stadium blasts , police said . Kamal Hassan alias Bilal alias Billu alias Kalu , a native of Balha village in Madhubani district in Bihar , was arrested in Kolkata on April 10 by the Central Crime Branch sleuths . Some 15 persons were injured when two crude bombs exploded outside the stadium on April 17 , 2010 , just ahead of the IPL match between Royal Challengers Bangalore and Mumbai Indians . Another crude bomb was found near the stadium and created panic , though it was defused . The CCB officials , who are probing the case , interrogated Hassan on Friday . Sources said he was indoctrinated into jihadi activities by Yasin Bhatkal and tasked with looking for hideouts in Bihar and New Delhi for all IM operatives , including stadium blasts , and a conspiracy to set off explosions at the Jama Masjid . Investigations have revealed that Hassan travelled along with Yasin Bhatkal to Bihar , West Bengal , Maharashtra , Uttar Pradesh , New Delhi and Nepal . Sources added that police officials plan to take him to various places for further investigation . OPEN'
p126
sS'injured'
p127
S'15'
p128
sS'org_unorg'
p129
S'Organized'
p130
sS'O'
p131
(lp132
S'operative:9'
p133
aS'organisation:12'
p134
aS'city:25'
p135
aS'involvement:29'
p136
aS'jihadi:42'
p137
aS'mastermind:49'
p138
aS'stadium:52'
p139
aS'district:74'
p140
aS'injured:96'
p141
aS'crude:99'
p142
aS'stadium:104'
p143
aS'match:116'
p144
aS'crude bomb:126'
p145
aS'stadium:132'
p146
aS'panic:135'
p147
aS'case:150'
p148
aS'jihadi:163'
p149
aS'hideouts:173'
p150
aS'stadium:185'
p151
aS'conspiracy:190'
p152
aS'set:192'
p153
aS'plan:231'
p154
aS'investigation:240'
p155
asS'unexpl'
p156
(lp157
g120
asS'ocassion'
p158
S'Sport Tournaments'
p159
sS'link'
p160
S'http://www.thehindu.com/todays-paper/tp-national/tp-karnataka/im-operative-was-indoctrinated-by-yasin-bhatkal/article3313342.ece'
p161
sS'date'
p162
S'17-04-2010'
p163
sS'target'
p164
g120
sS'hot_spot'
p165
S'M. Chinnaswamy Stadium'
p166
sS'delivery_mod'
p167
g120
sS'delivery_met'
p168
S'Planted'
p169
sS'expl'
p170
(lp171
S'Crude bomb'
p172
asS'ORG'
p173
(lp174
(lp175
S'Indian Mujahideen'
p176
aS'13'
p177
aS'Accused'
p178
aa(lp179
S'IM'
p180
aS'16'
p181
aS'Accused'
p182
aa(lp183
S'Central Crime Branch'
p184
aS'87'
p185
aS'Others'
p186
aa(lp187
S'IPL'
p188
aS'115'
p189
aS'Victim'
p190
aa(lp191
S'Royal Challengers Bangalore'
p192
aS'118'
p193
aS'Victim'
p194
aa(lp195
S'Mumbai Indians'
p196
aS'122'
p197
aS'Victim'
p198
aa(lp199
S'CCB'
p200
aS'143'
p201
aS'Others'
p202
aa(lp203
S'IM'
p204
aS'181'
p205
aS'Accused'
p206
aas.