(dp0
S'LOC'
p1
(lp2
(lp3
S'Malleswaram'
p4
aS'5'
p5
aS'Event'
p6
aasS'PER'
p7
(lp8
(lp9
S'Raghavendra Auradkar'
p10
aS'33'
p11
aS'Comment'
p12
aa(lp13
S'Auradkar'
p14
aS'85'
p15
aS'Comment'
p16
aa(lp17
S'Auradkar'
p18
aS'156'
p19
aS'Comment'
p20
aasS'TIM'
p21
(lp22
sS'hot_setting'
p23
S''
p24
sS'DAT'
p25
(lp26
sS'death'
p27
g24
sS'title'
p28
S'It was ammonium nitrate'
p29
sS'det_loc'
p30
(lp31
S'India'
p32
aS'Karnataka'
p33
aS'Bangalore Urban'
p34
aS'Malleswaram'
p35
aS'BJP office'
p36
asS'terror_group'
p37
(lp38
g24
asS'content'
p39
S'Fourteen days after the Malleswaram blasts , the ballastic report of the Forensic Sciences Laboratory ( FSL ) has confirmed the use of ammonium nitrate in the bomb . Commissioner of Police Raghavendra Auradkar said : As we had suspected , ammonium nitrate was used in the blast . The FSL analysis confirmed that there were projectiles in the bomb and the parts of the motorcycle have played the role of projectile , he added . Sharing the progress of the investigations , Mr. Auradkar said that the police have interrogated more than 60 people in this connection . But the number of arrests is only four so far , while a massive manhunt for the other suspects and questioning of the suspects is on , the Police Commissioner said . So far the police have not traced the people who came to the city and planted the bomb near the BJP office , Mr. Auradkar said . OPEN'
p40
sS'injured'
p41
g24
sS'org_unorg'
p42
S'Organized'
p43
sS'O'
p44
(lp45
S'ammonium nitrate:24'
p46
aS'ammonium nitrate:42'
p47
aS'projectiles:57'
p48
aS'motorcycle:66'
p49
aS'number:102'
p50
aS'manhunt:114'
p51
asS'unexpl'
p52
(lp53
g24
asS'ocassion'
p54
g24
sS'link'
p55
S'http://www.thehindu.com/todays-paper/tp-national/tp-karnataka/it-was-ammonium-nitrate/article4675117.ece'
p56
sS'date'
p57
S'01-05-2013'
p58
sS'target'
p59
S'Public Organization'
p60
sS'hot_spot'
p61
S'BJP office'
p62
sS'delivery_mod'
p63
S'Two wheeler'
p64
sS'delivery_met'
p65
S'Planted'
p66
sS'expl'
p67
(lp68
S'Ammonium Nitrate'
p69
asS'ORG'
p70
(lp71
(lp72
S'Forensic Sciences Laboratory ( FSL )'
p73
aS'13'
p74
aS'Others'
p75
aa(lp76
S'FSL'
p77
aS'51'
p78
aS'Others'
p79
aa(lp80
S'BJP office'
p81
aS'152'
p82
aS'Victim'
p83
aas.