(dp0
S'LOC'
p1
(lp2
(lp3
S'Libyan'
p4
aS'14'
p5
aS'Event'
p6
aa(lp7
S'Benghazi'
p8
aS'17'
p9
aS'Event'
p10
aa(lp11
S'United States'
p12
aS'38'
p13
aS'Neutral'
p14
aa(lp15
S'Benghazi'
p16
aS'42'
p17
aS'Neutral'
p18
aasS'PER'
p19
(lp20
sS'TIM'
p21
(lp22
sS'hot_setting'
p23
S''
p24
sS'DAT'
p25
(lp26
S'Wednesday:19'
p27
asS'death'
p28
S'4'
p29
sS'title'
p30
S"Blast wrecks govt office in Libya's Benghazi witnesses"
p31
sS'det_loc'
p32
(lp33
S'Libya'
p34
ag24
ag24
aS'Benghazi'
p35
ag24
asS'terror_group'
p36
(lp37
g24
asS'content'
p38
S'A powerful blast caused serious damage to a foreign ministry building in the Libyan city of Benghazi on Wednesday , witnesses said . The explosion comes on the first anniversary of an attack by militants on the United States consulate in Benghazi , which killed four Americans , including the ambassador . It was not immediately known if the blast , which the witnesses said appeared to have been caused by a car bomb , had resulted in casualties . An AFP photographer said a large section of the foreign ministry building had been destroyed and parts of the nearby local headquarters of the central bank seriously damaged.AFP OPEN'
p39
sS'injured'
p40
g24
sS'org_unorg'
p41
g24
sS'O'
p42
(lp43
S'powerful blast:2'
p44
aS'serious damage:5'
p45
aS'foreign ministry building:9'
p46
aS'witnesses:21'
p47
aS'explosion:25'
p48
aS'first anniversary:29'
p49
aS'attack:33'
p50
aS'militants:35'
p51
aS'consulate:40'
p52
aS'killed:45'
p53
aS'four Americans:46'
p54
aS'ambassador:51'
p55
aS'blast:60'
p56
aS'witnesses:64'
p57
aS'appeared:66'
p58
aS'car bomb:73'
p59
aS'casualties:79'
p60
aS'photographer:83'
p61
aS'large section:86'
p62
aS'foreign ministry building:90'
p63
aS'destroyed:95'
p64
aS'local headquarters:101'
p65
aS'central bank:105'
p66
aS'seriously damaged.AFP:107'
p67
asS'unexpl'
p68
(lp69
g24
asS'ocassion'
p70
g24
sS'link'
p71
S'http://www.thehindu.com/todays-paper/tp-in-school/blast-wrecks-govt-office-in-libyas-benghazi-witnesses/article5117742.ece'
p72
sS'date'
p73
S'11-09-2013'
p74
sS'target'
p75
S'FOREIGN MINISTRY'
p76
sS'hot_spot'
p77
g24
sS'delivery_mod'
p78
g24
sS'delivery_met'
p79
S'PLANTED'
p80
sS'expl'
p81
(lp82
g24
asS'ORG'
p83
(lp84
(lp85
S'AFP'
p86
aS'82'
p87
aS'Others'
p88
aas.