(dp0
S'LOC'
p1
(lp2
(lp3
S'Sathyamangalam Tiger Reserve'
p4
aS'4'
p5
aS'Neutral'
p6
aa(lp7
S'Erode'
p8
aS'8'
p9
aS'Neutral'
p10
aa(lp11
S'Thalavadi'
p12
aS'28'
p13
aS'Neutral'
p14
aa(lp15
S'Tamil NaduKarnataka border'
p16
aS'31'
p17
aS'Neutral'
p18
aa(lp19
S'Arukkalwadi'
p20
aS'50'
p21
aS'Neutral'
p22
aa(lp23
S'Thalavadi'
p24
aS'53'
p25
aS'Neutral'
p26
aasS'PER'
p27
(lp28
sS'TIM'
p29
(lp30
sS'hot_setting'
p31
S''
p32
sS'DAT'
p33
(lp34
S'Saturday : 11'
p35
aS'1972 : 133'
p36
asS'death'
p37
g32
sS'title'
p38
S'Three poachers held, crude bombs seized'
p39
sS'org_unorg'
p40
g32
sS'terror_group'
p41
(lp42
g32
asS'content'
p43
S'Officials of the Sathyamangalam Tiger Reserve in Erode district on Saturday seized 92 crude bombs , used for killing wild boars , and arrested three poachers near Thalavadi in the Tamil NaduKarnataka border . According to official sources , the poachers , who were travelling on a two-wheeler in Arukkalwadi village near Thalavadi , were spotted during a c Cases were filed against the arrested persons under Section 9 ( No person shall hunt any wild animal specified in Schedules I , II , III and IV ) and Section 32 Ban on use of injurious substances ( No person shall use in a sanctuary , chemicals , explosives or any other substances which may cause injury to or endanger , any wildlife in a sanctuary ) of Wildlife Protection Act of 1972 . The police would also file cases under the Arms Act . Explaining how an explosive is made , a senior forest officer says ammonium nitrate powder sulphur and glass pieces are mixed and made like a marble . The mixture is covered with food item and placed on land to attract animals . The moment an animal bites , it is killed in a blast . Then , the poachers collect the meat and is consumed or sold . OPEN'
p44
sS'injured'
p45
g32
sS'det_loc'
p46
(lp47
S'India'
p48
aS'Tamil Nadu'
p49
aS'Erode'
p50
ag32
ag32
asS'O'
p51
(lp52
S'92 crude bombs:13'
p53
aS'killing wild boars:19'
p54
aS'arrested three poachers:24'
p55
aS'poachers:41'
p56
aS'two-wheeler:48'
p57
aS'arrested persons:65'
p58
aS'Section 9:68'
p59
aS'hunt:74'
p60
aS'wild animal:76'
p61
aS'Schedules I , II , III and IV:80'
p62
aS'Section 32:90'
p63
aS'Ban:92'
p64
aS'injurious substances:96'
p65
aS'sanctuary:105'
p66
aS'chemicals:107'
p67
aS'explosives:109'
p68
aS'injury:117'
p69
aS'endanger:120'
p70
aS'wildlife:123'
p71
aS'sanctuary:126'
p72
aS'Wildlife Protection Act of 1972:129'
p73
aS'file cases:139'
p74
aS'Arms Act:143'
p75
aS'explosive:149'
p76
aS'senior forest officer:154'
p77
aS'ammonium nitrate:158'
p78
aS'sulphur:161'
p79
aS'glass pieces:163'
p80
aS'marble:171'
p81
aS'food item:178'
p82
aS'attract animals:185'
p83
aS'animal bites:191'
p84
aS'blast:199'
p85
aS'poachers:204'
p86
aS'meat:207'
p87
aS'consumed or sold:210'
p88
asS'unexpl'
p89
(lp90
g32
asS'ocassion'
p91
g32
sS'link'
p92
S'http://www.thehindu.com/todays-paper/tp-national/tp-tamilnadu/three-poachers-held-crude-bombs-seized/article5081311.ece'
p93
sS'date'
p94
S'01-09-2013'
p95
sS'target'
p96
S'WILD ANIMALS'
p97
sS'hot_spot'
p98
g32
sS'delivery_mod'
p99
S'MEAT'
p100
sS'delivery_met'
p101
S'PLANTED'
p102
sS'expl'
p103
(lp104
S'CRUDE BOMB'
p105
asS'ORG'
p106
(lp107
s.