(dp0
S'LOC'
p1
(lp2
(lp3
S'America'
p4
aS'7'
p5
aS'Event'
p6
aa(lp7
S'Boston'
p8
aS'26'
p9
aS'Event'
p10
aa(lp11
S'New York'
p12
aS'63'
p13
aS'Accused Location'
p14
aa(lp15
S'Washington'
p16
aS'66'
p17
aS'Accused Location'
p18
aa(lp19
S'Pennsylvania'
p20
aS'68'
p21
aS'Accused Location'
p22
aa(lp23
S'White House'
p24
aS'97'
p25
aS'Neutral'
p26
aa(lp27
S'Boston'
p28
aS'135'
p29
aS'Event'
p30
aa(lp31
S'United States'
p32
aS'164'
p33
aS'Event'
p34
aa(lp35
S'Boston'
p36
aS'229'
p37
aS'Event'
p38
aa(lp39
S'Massachusetts'
p40
aS'268'
p41
aS'Neutral'
p42
aasS'PER'
p43
(lp44
(lp45
S'Barack Obama'
p46
aS'80'
p47
aS'Others'
p48
aa(lp49
S'Rick DesLauriers'
p50
aS'122'
p51
aS'Others'
p52
aa(lp53
S'Obama'
p54
aS'177'
p55
aS'Others'
p56
aa(lp57
S'Martin Richard'
p58
aS'234'
p59
aS'Others'
p60
aa(lp61
S'William'
p62
aS'239'
p63
aS'Others'
p64
aa(lp65
S'Deval Patrick'
p66
aS'270'
p67
aS'Comment'
p68
aasS'TIM'
p69
(lp70
sS'hot_setting'
p71
S''
p72
sS'DAT'
p73
(lp74
S'Monday : 13'
p75
aS'September 11 , 2001 : 70'
p76
aS'September 11 : 173'
p77
asS'death'
p78
S'3'
p79
sS'title'
p80
S'3 dead, over 100 hurt in Boston Marathon bomb blasts'
p81
sS'det_loc'
p82
(lp83
S'United States'
p84
ag72
ag72
aS'Boston'
p85
ag72
asS'terror_group'
p86
(lp87
g72
asS'content'
p88
S"Two bomb blasts struck one of America 's top sporting events on Monday , killing at least three and wounding more than 100 as the Boston Marathon erupted in a maelstrom of blood , screams , smoke and panic . The twin explosions 13 seconds apart came more than a decade after nearly 3,000 people were killed in suicide airliner strikes on New York , Washington and Pennsylvania on September 11 , 2001 . Act of terror ? President Barack Obama went on national television to warn against `` jumping to conclusions '' but a senior White House official , speaking on condition of anonymity , said such an attack was `` clearly an act of terror . '' Special agent Rick DesLauriers , who heads the Federal Bureau of Investigations ( FBI ) Boston bureau , told reporters : `` It is a criminal investigation that is a potential terrorist investigation . '' Security was stepped up in major cities across the United States amid fears of a repeat of the September 11 attacks . Obama said those behind the blasts will `` feel the full weight of justice . '' At the blast scene , a horrific chorus of high-pitched wailing and screaming rang out as bewildered runners and spectators fled the carnage and debris . An eight-year-old boy was reportedly among the dead . The Boston Globe identified him as Martin Richard , whose father William was running in the race . His mother and a sister were gravely injured while a second sister was unharmed . More than 100 people were wounded , Massachusetts governor Deval Patrick said , without giving an exact figure . The Globe said more than 140 were hurt . OPEN"
p89
sS'injured'
p90
S'100'
p91
sS'org_unorg'
p92
g72
sS'O'
p93
(lp94
S'bomb blasts:2'
p95
aS'sporting events:10'
p96
aS'Boston Marathon:26'
p97
aS'maelstrom of blood:31'
p98
aS'screams:35'
p99
aS'smoke:37'
p100
aS'panic:39'
p101
aS'twin explosions:42'
p102
aS'decade:51'
p103
aS'3,000 people:54'
p104
aS'suicide airliner strikes:59'
p105
aS'Act of terror:75'
p106
aS'President Barack Obama:79'
p107
aS'warn against:87'
p108
aS'jumping to conclusions:90'
p109
aS'House official:98'
p110
aS'anonymity:105'
p111
aS'attack:110'
p112
aS'clearly an act of terror:113'
p113
aS'criminal investigation:145'
p114
aS'terrorist investigation:151'
p115
aS'Security:155'
p116
aS'fears:167'
p117
aS'full weight of justice:187'
p118
aS'blast scene:195'
p119
aS'horrific chorus:199'
p120
aS'high-pitched wailing:202'
p121
aS'screaming rang out:205'
p122
aS'bewildered runners:209'
p123
aS'spectators:212'
p124
aS'carnage and debris:215'
p125
aS'eight-year-old boy:220'
p126
aS'unharmed:259'
p127
aS'governor Deval Patrick:269'
p128
asS'unexpl'
p129
(lp130
g72
asS'ocassion'
p131
g72
sS'link'
p132
S'http://www.thehindu.com/todays-paper/tp-in-school/3-dead-over-100-hurt-in-boston-marathon-bomb-blasts/article4625200.ece'
p133
sS'date'
p134
S'15-04-2013'
p135
sS'target'
p136
S'SPORTS VENUE'
p137
sS'hot_spot'
p138
S'Boston Marathon'
p139
sS'delivery_mod'
p140
g72
sS'delivery_met'
p141
S'PLANTED'
p142
sS'expl'
p143
(lp144
g72
asS'ORG'
p145
(lp146
(lp147
S'Federal Bureau of Investigations'
p148
aS'128'
p149
aS'Others'
p150
aa(lp151
S'FBI'
p152
aS'133'
p153
aS'Others'
p154
aa(lp155
S'Boston bureau'
p156
aS'135'
p157
aS'Others'
p158
aa(lp159
S'Boston Globe'
p160
aS'229'
p161
aS'Others'
p162
aa(lp163
S'Globe'
p164
aS'281'
p165
aS'Others'
p166
aas.