(dp0
S'LOC'
p1
(lp2
(lp3
S'Varanasi'
p4
aS'16'
p5
aS'Event'
p6
aa(lp7
S'Varanasi'
p8
aS'39'
p9
aS'Event'
p10
aa(lp11
S'Varanasi'
p12
aS'47'
p13
aS'Event'
p14
aa(lp15
S'Jamuna Fatak'
p16
aS'93'
p17
aS'Event'
p18
aa(lp19
S'Godaulia'
p20
aS'96'
p21
aS'Event'
p22
aa(lp23
S'Dashashwamedh Ghat'
p24
aS'99'
p25
aS'Event'
p26
aa(lp27
S'cantonment area'
p28
aS'115'
p29
aS'Event'
p30
aa(lp31
S'Varanasi'
p32
aS'118'
p33
aS'Event'
p34
aa(lp35
S'U.P.'
p36
aS'131'
p37
aS'Event'
p38
aa(lp39
S'Dasna jail'
p40
aS'160'
p41
aS'Assoc Event Location'
p42
aa(lp43
S'Batla House'
p44
aS'168'
p45
aS'Assoc Event Location'
p46
aa(lp47
S'New Delhi'
p48
aS'172'
p49
aS'Assoc Event Location'
p50
aasS'PER'
p51
(lp52
(lp53
S'Shamim Ahmad'
p54
aS'19'
p55
aS'Accused'
p56
aa(lp57
S'Shamim'
p58
aS'36'
p59
aS'Accused'
p60
aa(lp61
S'Shamim'
p62
aS'70'
p63
aS'Accused'
p64
aa(lp65
S'Waliullah'
p66
aS'138'
p67
aS'Assoc Accused'
p68
aasS'TIM'
p69
(lp70
sS'hot_setting'
p71
S''
p72
sS'DAT'
p73
(lp74
S'2006:15'
p75
aS'March 7 , 2006:120'
p76
aS'2008:164'
p77
asS'death'
p78
S'21'
p79
sS'title'
p80
S'Cases against Varanasi blast accused to be withdrawn'
p81
sS'det_loc'
p82
(lp83
S'India'
p84
aS'Uttar Pradesh'
p85
aS'Lucknow'
p86
aS'Lucknow'
p87
ag72
asS'terror_group'
p88
(lp89
S'Harkat-ul-Mujahideen or Harkat-Ul-Ansar or Harkat-Ul-Jehad-E-Islami'
p90
asS'content'
p91
S'The Uttar Pradesh Government has decided to withdraw cases against alleged HUJI worker and 2006 Varanasi blast accused Shamim Ahmad , a senior official said . A decision has been taken to withdraw cases against Shamim in the Varanasi blast case . The District Magistrate of Varanasi has been asked to approach the local court there in this connection , said a senior Home Department official . The absconding Shamim , who was never arrested in the case , is accused of having planted a bomb , which remained unexploded , at Jamuna Fatak in Godaulia area at Dashashwamedh Ghat . The bomb was recovered soon after twin blasts in the Sankatmochan temple and cantonment area of Varanasi on March 7 , 2006 , which killed 21 persons . The U.P. special task force had arrested one Waliullah , the imam of a mosque , for being the alleged mastermind behind the blasts . He is currently lodged in Dasna jail . In 2008 , following the Batla House encounter in New Delhi , one alleged Indian Mujahideen member was arrested who is said to have confessed to being involved in the planting of the unexploded bomb . - PTI OPEN'
p92
sS'injured'
p93
g72
sS'org_unorg'
p94
S'Organized'
p95
sS'O'
p96
(lp97
S'huji worker:12'
p98
aS'blast:17'
p99
aS'official:24'
p100
aS'decision:28'
p101
aS'blast case:40'
p102
aS'district magistrate:44'
p103
aS'district:44'
p104
aS'magistrate:45'
p105
aS'approach:52'
p106
aS'court:55'
p107
aS'connection:59'
p108
aS'official:66'
p109
aS'case:78'
p110
aS'bomb:86'
p111
aS'bomb:103'
p112
aS'twin blasts:108'
p113
aS'task force:133'
p114
aS'imam:141'
p115
aS'mosque:144'
p116
aS'mastermind:150'
p117
aS'jail:161'
p118
aS'encounter:170'
p119
aS'member:179'
p120
aS'bomb:197'
p121
asS'unexpl'
p122
(lp123
g72
asS'ocassion'
p124
g72
sS'link'
p125
S'http://www.thehindu.com/todays-paper/tp-national/tp-newdelhi/cases-against-varanasi-blast-accused-to-be-withdrawn/article4782897.ece'
p126
sS'date'
p127
S'05-06-2013'
p128
sS'target'
p129
S'Religious Places'
p130
sS'hot_spot'
p131
S'Dashashwamedh Ghat'
p132
sS'delivery_mod'
p133
g72
sS'delivery_met'
p134
S'Planted'
p135
sS'expl'
p136
(lp137
g72
asS'ORG'
p138
(lp139
(lp140
S'Uttar Pradesh Government'
p141
aS'2'
p142
aS'Others'
p143
aa(lp144
S'Home Department'
p145
aS'64'
p146
aS'Others'
p147
aa(lp148
S'Sankatmochan temple'
p149
aS'112'
p150
aS'Victim'
p151
aa(lp152
S'Indian Mujahideen'
p153
aS'177'
p154
aS'Accused'
p155
aas.