(dp0
S'LOC'
p1
(lp2
(lp3
S'Bangalore'
p4
aS'7'
p5
aS'Neutral'
p6
aa(lp7
S'Chennai'
p8
aS'21'
p9
aS'Neutral'
p10
aa(lp11
S'M.A. Chidambaram stadium'
p12
aS'43'
p13
aS'Neutral'
p14
aa(lp15
S'Chennai'
p16
aS'103'
p17
aS'Neutral'
p18
aa(lp19
S'Bangalore'
p20
aS'120'
p21
aS'Neutral'
p22
aa(lp23
S'Chennai'
p24
aS'141'
p25
aS'Neutral'
p26
aa(lp27
S'Madurai'
p28
aS'145'
p29
aS'Neutral'
p30
aa(lp31
S'Chennai'
p32
aS'254'
p33
aS'Neutral'
p34
aa(lp35
S'Sunrisers Hyderabad'
p36
aS'258'
p37
aS'Neutral'
p38
aa(lp39
S'Bangalore'
p40
aS'307'
p41
aS'Event'
p42
aa(lp43
S'Chennai'
p44
aS'312'
p45
aS'Assoc Event Location'
p46
aa(lp47
S'Bangalore'
p48
aS'344'
p49
aS'Event'
p50
aa(lp51
S'Bangalore'
p52
aS'357'
p53
aS'Event'
p54
aasS'PER'
p55
(lp56
(lp57
S'M.A. Chidambaram'
p58
aS'43'
p59
aS'Others'
p60
aa(lp61
S'K. Shankar'
p62
aS'162'
p63
aS'Others'
p64
aa(lp65
S'Hyderabad'
p66
aS'259'
p67
aS'Others'
p68
aasS'TIM'
p69
(lp70
S'8 p.m.:236'
p71
asS'hot_setting'
p72
S''
p73
sS'DAT'
p74
(lp75
S'Wednesday:91'
p76
aS'April 17:122'
p77
aS'Wednesday:239'
p78
aS'Thursday:261'
p79
asS'death'
p80
g73
sS'title'
p81
S'Security for IPL matches up'
p82
sS'det_loc'
p83
(lp84
S'India'
p85
aS'Karnataka'
p86
ag73
aS'Bangalore'
p87
aS'Bangalore'
p88
asS'terror_group'
p89
(lp90
g73
asS'content'
p91
S'Close on the heels of the Bangalore bomb blast and the arrest of two suspects allegedly involved in it in Chennai , intelligence agencies have written to the city police to enhance security arrangements for the ongoing IPL cricket matches at the M.A. Chidambaram stadium here . In a two-page note sent to the Police Commissioner , intelligence agencies suggested that watchtowers be erected at strategic locations around the stadium . Deployment of additional manpower , surveillance cameras and plainclothesmen was suggested at vantage points , police sources said on Wednesday . Though there was no specific threat to IPL matches in Chennai , the security alert , according to the sources , was consequent to the explosion in Bangalore on April 17 that left 17 persons injured . So far , police have arrested three persons , two in Chennai and one in Madurai , in connection with the blast . According to Joint Commissioner of Police ( East ) K. Shankar , police held a meeting with Tamil Nadu Cricket Association ( TNCA ) authorities on strengthening the security arrangements . Camera surveillance We have sought to bring the entire stadium premises under camera surveillance . Police will take over the stadium one day ahead of the match . A three-tier frisking mechanism is in place , he said . Armed security personnel were deployed at all entry points of the stadium since 8 p.m. on Wednesday . Six more matches are scheduled to be played here , including one between Chennai Super Kings and Sunrisers Hyderabad on Thursday . We have also tightened security at the hotel where players are staying . Police presence along the MRTS corridor that runs close to the stadium and all high-rise buildings in the vicinity has been enhanced . The fact that two suspects involved in the Bangalore blast being held in Chennai has prompted the alert , a police official said , adding that the Standard Operating Procedure for the IPL security included an evacuation process in the event of an exigency . Bangalore blast prompts alert from intelligence agenciesEntire stadium to come under camera surveillance Bangalore blast prompts alert from intelligence agencies Entire stadium to come under camera surveillance OPEN'
p92
sS'injured'
p93
S'17'
p94
sS'org_unorg'
p95
S'ORGANISED'
p96
sS'O'
p97
(lp98
S'bomb blast:8'
p99
aS'arrest:12'
p100
aS'intelligence:23'
p101
aS'ipl cricket matches:38'
p102
aS'stadium:70'
p103
aS'deployment:72'
p104
aS'manpower:75'
p105
aS'surveillance:77'
p106
aS'tnca:175'
p107
aS'camera surveillance:184'
p108
aS'vicinity:294'
p109
aS'standard operating procedure:326'
p110
aS'exigency:342'
p111
aS'intelligence agenciesentire stadium:349'
p112
aS'camera surveillance:355'
p113
aS'stadium:365'
p114
aS'camera surveillance:369'
p115
asS'unexpl'
p116
(lp117
g73
asS'ocassion'
p118
g73
sS'link'
p119
S'http://www.thehindu.com/todays-paper/tp-national/tp-tamilnadu/security-for-ipl-matches-up/article4652342.ece'
p120
sS'date'
p121
S'17-04-2013'
p122
sS'target'
p123
g73
sS'hot_spot'
p124
S'Bangalore'
p125
sS'delivery_mod'
p126
g73
sS'delivery_met'
p127
g73
sS'expl'
p128
(lp129
g73
asS'ORG'
p130
(lp131
(lp132
S'city police'
p133
aS'29'
p134
aS'Others'
p135
aa(lp136
S'Police Commissioner , intelligence'
p137
aS'55'
p138
aS'Others'
p139
aa(lp140
S'police'
p141
aS'87'
p142
aS'Others'
p143
aa(lp144
S'police'
p145
aS'133'
p146
aS'Others'
p147
aa(lp148
S'Joint Commissioner of Police'
p149
aS'155'
p150
aS'Others'
p151
aa(lp152
S'police'
p153
aS'165'
p154
aS'Others'
p155
aa(lp156
S'Tamil Nadu Cricket Association'
p157
aS'170'
p158
aS'Others'
p159
aa(lp160
S'Police'
p161
aS'199'
p162
aS'Others'
p163
aa(lp164
S'Armed security personnel'
p165
aS'223'
p166
aS'Others'
p167
aa(lp168
S'Chennai Super Kings'
p169
aS'254'
p170
aS'Others'
p171
aa(lp172
S'Police'
p173
aS'276'
p174
aS'Others'
p175
aa(lp176
S'police'
p177
aS'319'
p178
aS'Others'
p179
aa(lp180
S'intelligence agenciesEntire'
p181
aS'349'
p182
aS'Others'
p183
aa(lp184
S'intelligence agencies'
p185
aS'362'
p186
aS'Others'
p187
aas.