(dp0
S'LOC'
p1
(lp2
(lp3
S'Delhi'
p4
aS'2'
p5
aS'Neutral'
p6
aasS'PER'
p7
(lp8
(lp9
S'Devinderpal Singh Bhullars'
p10
aS'5'
p11
aS'Accused'
p12
aa(lp13
S'Bhullar'
p14
aS'40'
p15
aS'Accused'
p16
aasS'TIM'
p17
(lp18
sS'hot_setting'
p19
S''
p20
sS'DAT'
p21
(lp22
S'1993 : 1'
p23
aS'Tuesday:10'
p24
aS'September 1993:53'
p25
asS'death'
p26
S'9'
p27
sS'title'
p28
S'SC-BHULLAR'
p29
sS'org_unorg'
p30
g20
sS'terror_group'
p31
(lp32
g20
asS'content'
p33
S'1993 Delhi blast convict Devinderpal Singh Bhullars wife on Tuesday approached the Supreme Court seeking stay on execution of his death sentence till her review plea against its verdict is decided . Khalistan Liberation Force ( KLF ) terrorist Bhullar was convicted and awarded death penalty for triggering a bomb blast in September 1993 , killing nine people and injuring 25 others.PTI OPEN'
p34
sS'injured'
p35
S'25'
p36
sS'det_loc'
p37
(lp38
S'India'
p39
aS'Delhi'
p40
aS'Central'
p41
ag20
ag20
asS'O'
p42
(lp43
S'blast:3'
p44
aS'execution:18'
p45
aS'death sentence:21'
p46
aS'review plea:25'
p47
aS'verdict:29'
p48
aS'terrorist:39'
p49
aS'convicted:42'
p50
aS'awarded death penalty:44'
p51
aS'bomb blast:50'
p52
asS'unexpl'
p53
(lp54
g20
asS'ocassion'
p55
g20
sS'link'
p56
S'http://www.thehindu.com/todays-paper/tp-in-school/scbhullar/article4693993.ece'
p57
sS'date'
p58
S'08-05-2013'
p59
sS'target'
p60
S'CITY'
p61
sS'hot_spot'
p62
g20
sS'delivery_mod'
p63
g20
sS'delivery_met'
p64
S'PLANTED'
p65
sS'expl'
p66
(lp67
g20
asS'ORG'
p68
(lp69
(lp70
S'Supreme Court'
p71
aS'13'
p72
aS'Others'
p73
aa(lp74
S'Khalistan Liberation Force'
p75
aS'33'
p76
aS'Others'
p77
aa(lp78
S'KLF'
p79
aS'37'
p80
aS'Others'
p81
aas.