(dp0
S'LOC'
p1
(lp2
(lp3
S'Bangalore : 28'
p4
aS'Event'
p5
aS'Neutral'
p6
aa(lp7
S'Bangalore'
p8
aS'1'
p9
aS'Event'
p10
aa(lp11
S'Tamil Nadu'
p12
aS'11'
p13
aS'Assoc Event Location'
p14
aa(lp15
S'Malleswaram'
p16
aS'24'
p17
aS'Event'
p18
aa(lp19
S'Bangalore'
p20
aS'28'
p21
aS'Event'
p22
aa(lp23
S'Batlagundu'
p24
aS'35'
p25
aS'Victim Location'
p26
aa(lp27
S'Dindigul'
p28
aS'37'
p29
aS'Victim Location'
p30
aa(lp31
S'Bangalore'
p32
aS'43'
p33
aS'Event'
p34
aa(lp35
S'Tirumangalam'
p36
aS'75'
p37
aS'Neutral'
p38
aa(lp39
S'Tamil Nadu'
p40
aS'77'
p41
aS'Assoc Event Location'
p42
aa(lp43
S'Thirumangalam'
p44
aS'95'
p45
aS'Neutral'
p46
aa(lp47
S'Malleswaram'
p48
aS'140'
p49
aS'Event'
p50
aa(lp51
S'Malleswaram'
p52
aS'153'
p53
aS'Event'
p54
aa(lp55
S'Tamil Nadu'
p56
aS'202'
p57
aS'Assoc Event Location'
p58
aa(lp59
S'Malleswaram'
p60
aS'316'
p61
aS'Event'
p62
aa(lp63
S'Batlagundu'
p64
aS'329'
p65
aS'Victim Location'
p66
aa(lp67
S'Dindigul'
p68
aS'331'
p69
aS'Victim Location'
p70
aa(lp71
S'Malleswaram'
p72
aS'342'
p73
aS'Event'
p74
aa(lp75
S'Batlagundu'
p76
aS'356'
p77
aS'Victim Location'
p78
aa(lp79
S'Dindigul'
p80
aS'358'
p81
aS'Victim Location'
p82
aasS'PER'
p83
(lp84
(lp85
S'Tenkasi Hanifa'
p86
aS'14'
p87
aS'Accused'
p88
aa(lp89
S'Hanifa'
p90
aS'47'
p91
aS'Accused'
p92
aa(lp93
S'Nagoor Hanifa'
p94
aS'49'
p95
aS'Accused'
p96
aa(lp97
S'L.K. Advani'
p98
aS'69'
p99
aS'Others'
p100
aa(lp101
S'Hanifa'
p102
aS'82'
p103
aS'Accused'
p104
aa(lp105
S'Hanifa'
p106
aS'144'
p107
aS'Accused'
p108
aa(lp109
S'Hanifa'
p110
aS'161'
p111
aS'Accused'
p112
aa(lp113
S'Hanifa'
p114
aS'188'
p115
aS'Accused'
p116
aa(lp117
S'Hanifa'
p118
aS'211'
p119
aS'Accused'
p120
aa(lp121
S'Advani'
p122
aS'240'
p123
aS'Others'
p124
aa(lp125
S'Hanifa'
p126
aS'271'
p127
aS'Accused'
p128
aa(lp129
S'Hanifa'
p130
aS'307'
p131
aS'Accused'
p132
aa(lp133
S'Hanifa'
p134
aS'333'
p135
aS'Accused'
p136
aasS'TIM'
p137
(lp138
sS'hot_setting'
p139
S''
p140
sS'DAT'
p141
(lp142
S'Monday : 40'
p143
aS'2011 : 80'
p144
aS'Monday : 105'
p145
aS'July 22 : 114'
p146
aS'2009 : 179'
p147
asS'death'
p148
S'6'
p149
sS'title'
p150
S'One more suspect in Malleswaram blast case held in Tamil Nadu'
p151
sS'det_loc'
p152
(lp153
S'India'
p154
aS'Tamil Nadu'
p155
ag140
aS'Bangalore'
p156
aS'Tirumangalam in Tamil Nadu '
p157
asS'terror_group'
p158
(lp159
g140
asS'content'
p160
S'Bangalore : The Special Investigation Team ( SIT ) of Tamil Nadu arrested Tenkasi Hanifa , who is one of the suspects in Malleswaram blast case in Bangalore , from his native village at Batlagundu in Dindigul district on Monday . The Bangalore police said 32-year-old Hanifa alias Nagoor Hanifa , a realtor by profession , was also accused in the pipe bomb case to target BJP leader L.K. Advani during his visit to Tirumangalam in Tamil Nadu in 2011 . Hanifa , who was hiding in his native village , was brought to Thirumangalam and produced in the Tirumangalam judicial magistrate court on Monday . He was remanded in judicial custody till July 22 . The Bangalore Central Crime Branch police confirmed Hanifas arrest , stating that they would seek his custody for questioning in connection with the Malleswaram blast case . Hanifa is the 12th accused to be arrested in Malleswaram blast case so far . Earlier , Hanifa had been arrested on charges of murdering a member of a pro-Hindu organisation and was jailed in 2009 . After he came out on bail , Hanifa was again arrested as one of the accused in a communal clash in Tamil Nadu in which six persons were killed . Hanifa who managed to get out on bail in the same year , had been absconding since his name surfaced again in the case of terror attack on Mr. Advani . A CCB official said there were four or five suspects who were still at large and efforts were on to track them down . Information so far revealed that Hanifa had played a crucial role in supplying explosives and to execute the terror attack . We will get more information about the widespread network , once we get his custody , the official said . Hanifa is the 12th accused to be arrested in Malleswaram blast case so farHe was picked up from his native village at Batlagundu in Dindigul district Hanifa is the 12th accused to be arrested in Malleswaram blast case so far He was picked up from his native village at Batlagundu in Dindigul district OPEN'
p161
sS'injured'
p162
g140
sS'org_unorg'
p163
S'ORGANISED'
p164
sS'O'
p165
(lp166
S'not available'
p167
aS'sit:8'
p168
aS'realtor:53'
p169
aS'bjp leader:67'
p170
aS'judicial custody:111'
p171
aS'murdering:168'
p172
aS'jailed:177'
p173
aS'communal clash:199'
p174
aS'absconding:226'
p175
aS'terror attack:236'
p176
aS'explosives:279'
p177
asS'unexpl'
p178
(lp179
g140
asS'ocassion'
p180
g140
sS'link'
p181
S'http://www.thehindu.com/todays-paper/one-more-suspect-in-malleswaram-blast-case-held-in-tamil-nadu/article4900417.ece'
p182
sS'date'
p183
S'09-07-2013'
p184
sS'target'
p185
S'POLITICAL LEADER/GROUP'
p186
sS'hot_spot'
p187
S'Tirumangalam in Tamil Nadu '
p188
sS'delivery_mod'
p189
g140
sS'delivery_met'
p190
S'PLANTED'
p191
sS'expl'
p192
(lp193
g140
asS'ORG'
p194
(lp195
(lp196
S'Special Investigation Team ( SIT )'
p197
aS'4'
p198
aS'Others'
p199
aa(lp200
S'police'
p201
aS'44'
p202
aS'Others'
p203
aa(lp204
S'Tirumangalam judicial magistrate court'
p205
aS'100'
p206
aS'Others'
p207
aa(lp208
S'Bangalore Central Crime Branch police'
p209
aS'118'
p210
aS'Others'
p211
aa(lp212
S'pro-Hindu'
p213
aS'173'
p214
aS'Others'
p215
aa(lp216
S'CCB'
p217
aS'243'
p218
aS'Others'
p219
aas.