(dp0
S'LOC'
p1
(lp2
(lp3
S'Baghdad'
p4
aS'14'
p5
aS'Event'
p6
aa(lp7
S'Iraq'
p8
aS'26'
p9
aS'Event'
p10
aa(lp11
S'Iraq'
p12
aS'71'
p13
aS'Event'
p14
aasS'PER'
p15
(lp16
(lp17
S'Nouri al-Maliki'
p18
aS'139'
p19
aS'Others'
p20
aasS'TIM'
p21
(lp22
sS'hot_setting'
p23
S''
p24
sS'DAT'
p25
(lp26
S'Monday afternoon : 17'
p27
aS'2006 : 122'
p28
aS'2007 : 124'
p29
asS'death'
p30
S'57'
p31
sS'title'
p32
S'57 killed in Baghdad blasts'
p33
sS'det_loc'
p34
(lp35
S'Iraq'
p36
ag24
ag24
aS'Baghdad'
p37
ag24
asS'terror_group'
p38
(lp39
S'AL-QAEDA'
p40
asS'content'
p41
S'A wave of car bombings tore through mostly Shia Muslim neighbourhoods of the Baghdad area on Monday afternoon , leaving at least 57 dead . Iraq has been hit by a wave of bloodshed that has killed more than 300 people in the past two weeks alone . There was no immediate claim of responsibility but the attacks bore the hallmarks of al-Qaedas Iraqi arm , the Islamic State of Iraq , which frequently uses car bombs and coordinated blasts in an effort to undermine Iraqis confidence in the Shia-led government . The recent wave of bloodshed has raised tensions between the countrys Sunni minority and Shia-led government . The surge in violence has been reminiscent of the sectarian carnage in 2006 and 2007 . Alarmed by a nationwide deterioration in the security situation , Iraqi Prime Minister Nouri al-Maliki has ordered a reshuffle in senior military ranks . AFP OPEN'
p42
sS'injured'
p43
g24
sS'org_unorg'
p44
g24
sS'O'
p45
(lp46
S'car bombings:4'
p47
aS'shia muslim:9'
p48
aS'bloodshed:34'
p49
aS'iraqi arm:64'
p50
aS'islamic state:68'
p51
aS'car bombs:76'
p52
aS'blasts:80'
p53
aS'effort:83'
p54
aS'Iraqis confidence:86'
p55
aS'shia-led government:90'
p56
aS'bloodshed:97'
p57
aS'raised tensions:99'
p58
aS'sunni:104'
p59
aS'shia-led:107'
p60
aS'violence:113'
p61
aS'reminiscent:116'
p62
aS'sectarian carnage:119'
p63
aS'nationwide deterioration:129'
p64
aS'security:133'
p65
aS'iraqi prime minister nouri al-maliki:136'
p66
aS'reshuffle:144'
p67
aS'senior military ranks:146'
p68
asS'unexpl'
p69
(lp70
g24
asS'ocassion'
p71
g24
sS'link'
p72
S'http://www.thehindu.com/todays-paper/tp-international/57-killed-in-baghdad-blasts/article4757835.ece'
p73
sS'date'
p74
S'27-05-2013'
p75
sS'target'
p76
S'SHIA ISLAM'
p77
sS'hot_spot'
p78
g24
sS'delivery_mod'
p79
S'CAR'
p80
sS'delivery_met'
p81
S'PLANTED'
p82
sS'expl'
p83
(lp84
g24
asS'ORG'
p85
(lp86
(lp87
S'al-Qaedas'
p88
aS'63'
p89
aS'Accused'
p90
aa(lp91
S'AFP'
p92
aS'150'
p93
aS'Others'
p94
aas.