(dp0
S'LOC'
p1
(lp2
(lp3
S'L-18 Batla House'
p4
aS'28'
p5
aS'Event'
p6
aa(lp7
S'Delhi'
p8
aS'43'
p9
aS'Neutral'
p10
aa(lp11
S'Childrens Park'
p12
aS'107'
p13
aS'Event'
p14
aa(lp15
S'India Gate'
p16
aS'110'
p17
aS'Event'
p18
aa(lp19
S'Batla House'
p20
aS'126'
p21
aS'Event'
p22
aa(lp23
S'Greater Kailash'
p24
aS'153'
p25
aS'Event'
p26
aa(lp27
S'Faizabad'
p28
aS'184'
p29
aS'Event'
p30
aa(lp31
S'Varanasi'
p32
aS'186'
p33
aS'Event'
p34
aa(lp35
S'Lucknow'
p36
aS'188'
p37
aS'Event'
p38
aa(lp39
S'Jaipur'
p40
aS'192'
p41
aS'Event'
p42
aa(lp43
S'Ahmedabad'
p44
aS'194'
p45
aS'Event'
p46
aa(lp47
S'police'
p48
aS'197'
p49
aS'Neutral'
p50
aa(lp51
S'Delhi'
p52
aS'217'
p53
aS'Event'
p54
aa(lp55
S'Ahmedabad'
p56
aS'223'
p57
aS'Event'
p58
aa(lp59
S'Pakistan'
p60
aS'286'
p61
aS'Assoc Event Location'
p62
aasS'PER'
p63
(lp64
(lp65
S'Shahzad Ahmed'
p66
aS'1'
p67
aS'Accused'
p68
aa(lp69
S'Mohan Chand Sharma'
p70
aS'21'
p71
aS'Others'
p72
aa(lp73
S'Shahzad'
p74
aS'98'
p75
aS'Accused'
p76
aa(lp77
S'Batla'
p78
aS'126'
p79
aS'Assoc Victim'
p80
aa(lp81
S'Atif Ameen'
p82
aS'132'
p83
aS'Accused'
p84
aa(lp85
S'Mohammad Sajid'
p86
aS'135'
p87
aS'Accused'
p88
aa(lp89
S'Atif'
p90
aS'143'
p91
aS'Accused'
p92
aa(lp93
S'Ariz Khan'
p94
aS'160'
p95
aS'Accused'
p96
aa(lp97
S'Junaid'
p98
aS'163'
p99
aS'Accused'
p100
aa(lp101
S'Atif'
p102
aS'169'
p103
aS'Accused'
p104
aa(lp105
S'Sajid'
p106
aS'173'
p107
aS'Accused'
p108
aa(lp109
S'Mohammad Shakeel'
p110
aS'203'
p111
aS'Accused'
p112
aa(lp113
S'Zia-Ur Rehman'
p114
aS'228'
p115
aS'Others'
p116
aa(lp117
S'Saquib Nisar'
p118
aS'231'
p119
aS'Others'
p120
aa(lp121
S'Zeeshan Ahmad'
p122
aS'234'
p123
aS'Accused'
p124
aa(lp125
S'Mubin'
p126
aS'237'
p127
aS'Accused'
p128
aa(lp129
S'Mansoor Asgar'
p130
aS'239'
p131
aS'Accused'
p132
aa(lp133
S'Asif Bashir Sheikh'
p134
aS'242'
p135
aS'Accused'
p136
aa(lp137
S'Amir Raja Khan'
p138
aS'278'
p139
aS'Accused'
p140
aa(lp141
S'Iqbal Bhatkal'
p142
aS'301'
p143
aS'Accused'
p144
aa(lp145
S'Riyaz Bhatkal'
p146
aS'306'
p147
aS'Accused'
p148
aa(lp149
S'Abu Al-Qama'
p150
aS'321'
p151
aS'Accused'
p152
aasS'TIM'
p153
(lp154
sS'hot_setting'
p155
S''
p156
sS'DAT'
p157
(lp158
S'Tuesday : 7'
p159
aS'September 19 , 2008 : 32'
p160
aS'September 13 , 2008 : 113'
p161
aS'2008 : 216'
p162
asS'death'
p163
S'2'
p164
sS'title'
p165
S'Shahzad planted bomb near India Gate'
p166
sS'det_loc'
p167
(lp168
S'India'
p169
aS'Delhi'
p170
ag156
aS'NEW DELHI'
p171
aS'Childrens Park near India Gate'
p172
asS'terror_group'
p173
(lp174
S'LASHKAR-E-TAIBA'
p175
aS'INDIAN MUJAHIDEEN'
p176
asS'content'
p177
S'Shahzad Ahmed , who was on Tuesday convicted by a city court for the murder of decorated Special Cell Inspector Mohan Chand Sharma in an encounter at L-18 Batla House on September 19 , 2008 , has also been accused by the Delhi Police of being party to a conspiracy to trigger serial explosions in the Capital six days prior to the bloody face-off . The case , in which over two dozen suspected members of terror outfit Indian Mujahideen have also been named , is pending trial at another city court . The police have accused Shahzad of planting a bomb in a dustbin at Childrens Park near India Gate on September 13 , 2008 . The two suspected IM members killed in the Batla House encounter were identified as Atif Ameen and Mohammad Sajid . According to the police , Atif had planted a bomb in the M-Block Market of Greater Kailash along with an absconding accused Ariz Khan alias Junaid . The police suspect that Atif , along with Sajid and others , was also involved in the blasts in Faizabad , Varanasi and Lucknow besides explosions in Jaipur and Ahmedabad . The police suspect that accused IM member Mohammad Shakeel , who has also been arrested , was involved in the 2008 Delhi blasts and serial explosions in Ahmedabad . Arrested accused persons Zia-Ur Rehman , Saquib Nisar , Zeeshan Ahmad , Mubin , Mansoor Asgar and Asif Bashir Sheikh were also suspected of being part of the same module . The Delhi Police had earlier said the module smashed by the Special Cell was part of terror outfit Indian Mujahideen headed by Amir Raja Khan , who reportedly operated from Pakistan and communicated with the outfit members through e-mail . According to the police , Iqbal Bhatkal and his brother Riyaz Bhatkal are co-conspirators and the outfit has strong links with Lashkar-e-Taiba , headed by Abu Al-Qama . OPEN'
p178
sS'injured'
p179
g156
sS'org_unorg'
p180
S'ORGANISED'
p181
sS'O'
p182
(lp183
S'special cell inspector:18'
p184
aS'trigger:52'
p185
aS'capital six days:57'
p186
aS'dustbin:105'
p187
aS'two:119'
p188
asS'unexpl'
p189
(lp190
g156
asS'ocassion'
p191
g156
sS'link'
p192
S'http://www.thehindu.com/todays-paper/tp-national/tp-newdelhi/shahzad-planted-bomb-near-india-gate/article4962205.ece'
p193
sS'date'
p194
S'13-09-2013'
p195
sS'target'
p196
S'PUBLIC ORGANIZATION'
p197
sS'hot_spot'
p198
S' Childrens Park near India Gate dustbin'
p199
sS'delivery_mod'
p200
S'MARKET'
p201
sS'delivery_met'
p202
S'PLANTED'
p203
sS'expl'
p204
(lp205
g156
asS'ORG'
p206
(lp207
(lp208
S'city court'
p209
aS'11'
p210
aS'Others'
p211
aa(lp212
S'Delhi Police'
p213
aS'43'
p214
aS'Others'
p215
aa(lp216
S'Indian Mujahideen'
p217
aS'79'
p218
aS'Accused'
p219
aa(lp220
S'police'
p221
aS'95'
p222
aS'Others'
p223
aa(lp224
S'IM'
p225
aS'121'
p226
aS'Accused'
p227
aa(lp228
S'police'
p229
aS'141'
p230
aS'Others'
p231
aa(lp232
S'M-Block Market'
p233
aS'150'
p234
aS'Accused'
p235
aa(lp236
S'police'
p237
aS'166'
p238
aS'Others'
p239
aa(lp240
S'IM'
p241
aS'201'
p242
aS'Accused'
p243
aa(lp244
S'Delhi Police'
p245
aS'257'
p246
aS'Others'
p247
aa(lp248
S'Special Cell'
p249
aS'267'
p250
aS'Others'
p251
aa(lp252
S'Indian Mujahideen'
p253
aS'274'
p254
aS'Accused'
p255
aa(lp256
S'police'
p257
aS'299'
p258
aS'Others'
p259
aa(lp260
S'Lashkar-e-Taiba'
p261
aS'317'
p262
aS'Accused'
p263
aas.