(dp0
S'LOC'
p1
(lp2
(lp3
S'Batlagundu'
p4
aS'9'
p5
aS'Accused Location'
p6
aa(lp7
S'Dindigul'
p8
aS'11'
p9
aS'Accused Location'
p10
aa(lp11
S'Madurai'
p12
aS'51'
p13
aS'Event'
p14
aa(lp15
S'Tenkasi'
p16
aS'84'
p17
aS'Accused Location'
p18
aa(lp19
S'Alampatti'
p20
aS'127'
p21
aS'Event'
p22
aa(lp23
S'Madurai'
p24
aS'129'
p25
aS'Event'
p26
aa(lp27
S'Tamil Nadu'
p28
aS'148'
p29
aS'Event'
p30
aa(lp31
S'Tenkasi'
p32
aS'246'
p33
aS'Assoc Event Location'
p34
aa(lp35
S'Babri Masjid'
p36
aS'256'
p37
aS'Assoc Event Location'
p38
aasS'PER'
p39
(lp40
(lp41
S'Nagoor Hanifa'
p42
aS'18'
p43
aS'Accused'
p44
aa(lp45
S'Mohamed Hanifa'
p46
aS'21'
p47
aS'Accused'
p48
aa(lp49
S'L.K. Advani'
p50
aS'41'
p51
aS'Victim'
p52
aa(lp53
S'John Nicholson'
p54
aS'76'
p55
aS'Others'
p56
aa(lp57
S'Hanifa'
p58
aS'79'
p59
aS'Accused'
p60
aa(lp61
S'Advani'
p62
aS'118'
p63
aS'Victim'
p64
aa(lp65
S'Hanifa'
p66
aS'212'
p67
aS'Accused'
p68
aa(lp69
S'Kumara Pandian'
p70
aS'240'
p71
aS'Assoc Victim'
p72
aa(lp73
S'Nicholson'
p74
aS'249'
p75
aS'Comment'
p76
aa(lp77
S'Hanifa'
p78
aS'276'
p79
aS'Accused'
p80
aa(lp81
S'Nicholson'
p82
aS'304'
p83
aS'Comment'
p84
aa(lp85
S'Fakruddin'
p86
aS'308'
p87
aS'Accused'
p88
aa(lp89
S'Police Fakruddin'
p90
aS'310'
p91
aS'Accused'
p92
aa(lp93
S'Bilal Malik'
p94
aS'313'
p95
aS'Accused'
p96
aa(lp97
S'Hanifa'
p98
aS'316'
p99
aS'Accused'
p100
aa(lp101
S'Advani'
p102
aS'331'
p103
aS'Victim'
p104
aa(lp105
S'Hanifa'
p106
aS'373'
p107
aS'Accused'
p108
aa(lp109
S'Hanifa'
p110
aS'409'
p111
aS'Accused'
p112
aasS'TIM'
p113
(lp114
sS'hot_setting'
p115
S'Jan Chetna Yatra, a political tour made by Bharatiya Janata Party leader L.K. Advani'
p116
sS'DAT'
p117
(lp118
S'Monday : 15'
p119
aS'October 28 , 2011 : 53'
p120
asS'death'
p121
S'0'
p122
sS'title'
p123
S'Prime suspect in Advani convoyattack plot held'
p124
sS'org_unorg'
p125
S'ORGANISED'
p126
sS'terror_group'
p127
(lp128
S''
p129
asS'content'
p130
S'Armed police personnel stormed into a hideout at Batlagundu in Dindigul district early on Monday and apprehended Nagoor Hanifa alias Mohamed Hanifa ( 35 ) , one of the prime suspects who allegedly conspired to eliminate Bharatiya Janata Party leader L.K. Advani and attempted to blow up his convoy near Madurai on October 28 , 2011 . Acting on a specific input , plainclothesmen led by Deputy Inspector-General of Police ( Special Investigation Team ) John Nicholson arrested Hanifa , a native of Tenkasi , who was alone in the house . A powerful pipe bomb stuffed with about 7 kg of explosives , mostly nitroglycerine , was detected and defused hours before the convoy of Mr. Advani was to have passed through a culvert at Alampatti in Madurai district . The BJP leader , who is covered by the Z-Plus category of security , was in Tamil Nadu as part of his Jan Chetna Yatra . The pipe was packed with Power Gel 90 , an explosive used to blast rocks in quarries . Timely alert by a passer-by helped the district police foil the conspiracy to blow up the causeway . A long wire connected to the pipe bomb was noticed by a villager who alerted the police . Hanifa is refusing to divulge information regarding his association with any organisation . He seems to be following the Jihadi principles ... he committed the murder of one Kumara Pandian of Hindu Munnani in Tenkasi , Mr. Nicholson told The Hindu . Besides the Babri Masjid issue , he wanted to take revenge for what he says the treatment meted out to Muslims . Hanifa and his associates had planned to take revenge on BJP and Hindu Munnani leaders , he said parrying questions on the details of the hit-list . Mr. Nicholson said three persons Fakruddin alias Police Fakruddin , Bilal Malik and Hanifa were the main conspirators in the plan to blow up the convoy of Mr. Advani . They were present at the scene of crime and escaped on seeing the police.Efforts are on to apprehend the other two . We have so far arrested eight persons in the case . The source of explosives is underinvestigation . Hanifa will be produced in a court and remanded , he added . Detonators and explosive materials and two long knives and a newspaper clipping containing the photograph of a Hindu outfit functionary were recovered from Hanifa , the police said . The SIT has arrested eight persons so far in the case . The pipe bomb was packed with explosives used to blast rocksThe BJP leader was in State as part of his Jan Chetna Yatra The pipe bomb was packed with explosives used to blast rocks The BJP leader was in State as part of his Jan Chetna Yatra OPEN'
p131
sS'injured'
p132
g122
sS'det_loc'
p133
(lp134
S'India'
p135
aS'Tamil Nadu'
p136
aS'Madurai'
p137
aS'Madurai'
p138
aS'Alampatti in Madurai district'
p139
asS'O'
p140
(lp141
S'Armed police personnel:1'
p142
aS'hideout:7'
p143
aS'apprehended:17'
p144
aS'prime suspects:30'
p145
aS'conspired:34'
p146
aS'blow up:46'
p147
aS'Deputy Inspector-General of Police:67'
p148
aS'arrested:78'
p149
aS'powerful pipe bomb:94'
p150
aS'7 kg of explosives:100'
p151
aS'nitroglycerine:106'
p152
aS'detected and defused:109'
p153
aS'culvert:125'
p154
aS'Z-Plus category:141'
p155
aS'jan chetna yatra:154'
p156
aS'power gel 90:163'
p157
aS'explosive:168'
p158
aS'blast rocks:171'
p159
aS'conspiracy:187'
p160
aS'pipe bomb:200'
p161
aS'jihadi principles:231'
p162
aS'murder:237'
p163
aS'revenge:264'
p164
aS'treatment meted:270'
p165
aS'Muslims:274'
p166
aS'revenge:284'
p167
aS'hit-list:301'
p168
aS'conspirators:320'
p169
aS'blow up:325'
p170
aS'arrested eight persons:359'
p171
aS'explosives:369'
p172
aS'underinvestigation:371'
p173
aS'court:379'
p174
aS'detonators:386'
p175
aS'explosive materials:388'
p176
aS'two long knives:391'
p177
aS'newspaper clipping:396'
p178
aS'photograph:400'
p179
aS'Hindu outfit:403'
p180
aS'arrested eight persons:418'
p181
aS'pipe bomb:428'
p182
aS'explosives:433'
p183
aS'jan chetna yatra:447'
p184
aS'pipe bomb:451'
p185
aS'explosives:456'
p186
aS'blast rocks:459'
p187
aS'jan chetna yatra:471'
p188
asS'unexpl'
p189
(lp190
S'PIPE'
p191
asS'ocassion'
p192
S'POLITICAL GATHERING/MEETING/TOUR'
p193
sS'link'
p194
S'http://www.thehindu.com/todays-paper/tp-national/prime-suspect-in-advani-convoyattack-plot-held/article4896410.ece'
p195
sS'date'
p196
S'28-10-2011'
p197
sS'target'
p198
S'POLITICAL LEADER/GROUP'
p199
sS'hot_spot'
p200
S'A culvert at Alampatti in Madurai district, through which the convoy of Advani was to have passed'
p201
sS'delivery_mod'
p202
S'PIPE'
p203
sS'delivery_met'
p204
S'PLANTED'
p205
sS'expl'
p206
(lp207
S'NITROGLYCERINE'
p208
aS'POWER GEL 90'
p209
asS'ORG'
p210
(lp211
(lp212
S'Bharatiya Janata Party'
p213
aS'37'
p214
aS'Others'
p215
aa(lp216
S'Special Investigation Team'
p217
aS'72'
p218
aS'Others'
p219
aa(lp220
S'BJP'
p221
aS'133'
p222
aS'Others'
p223
aa(lp224
S'Hindu Munnani'
p225
aS'243'
p226
aS'Others'
p227
aa(lp228
S'The Hindu'
p229
aS'251'
p230
aS'Others'
p231
aa(lp232
S'BJP'
p233
aS'286'
p234
aS'Assoc Victim'
p235
aa(lp236
S'Hindu Munnani'
p237
aS'288'
p238
aS'Assoc Victim'
p239
aa(lp240
S'SIT'
p241
aS'416'
p242
aS'Others'
p243
aa(lp244
S'BJP'
p245
aS'438'
p246
aS'Others'
p247
aa(lp248
S'BJP'
p249
aS'462'
p250
aS'Others'
p251
aas.