(dp0
S'LOC'
p1
(lp2
(lp3
S'Berhampur'
p4
aS'64'
p5
aS'Event'
p6
aasS'PER'
p7
(lp8
(lp9
S'Sheikh Shapu'
p10
aS'27'
p11
aS'Victim'
p12
aasS'TIM'
p13
(lp14
S'evening : 18'
p15
aS'7 p.m.:21'
p16
asS'hot_setting'
p17
S''
p18
sS'DAT'
p19
(lp20
S'Monday:17'
p21
asS'death'
p22
g18
sS'title'
p23
S'Briefly'
p24
sS'org_unorg'
p25
S'Organized'
p26
sS'terror_group'
p27
(lp28
g18
asS'content'
p29
S'Crude bombs were blasted by miscreants at corporation road area under town police station limits on Monday evening at around 7 p.m. . One person named Sheikh Shapu was injured . He was admitted in MKCG medical college and hospital in the city . According to sources a group of four to five miscreants were behind this bomb blast . Police officials including Berhampur Superintendent of Police ( SP ) rushed to the spot to investigate . One person has been rounded up by police in relation to this case . OPEN'
p30
sS'injured'
p31
S'1'
p32
sS'det_loc'
p33
(lp34
S'India'
p35
aS'Orissa'
p36
aS'Ganjam'
p37
aS'berhampur'
p38
aS'corporation road area'
p39
asS'O'
p40
(lp41
S'crude bombs:1'
p42
aS'corporation road area:8'
p43
aS'bomb blast:58'
p44
aS'Superintendent of Police:65'
p45
asS'unexpl'
p46
(lp47
g18
asS'ocassion'
p48
g18
sS'link'
p49
S'http://www.thehindu.com/todays-paper/tp-national/tp-otherstates/briefly/article5040809.ece'
p50
sS'date'
p51
S'19-08-2013'
p52
sS'target'
p53
g18
sS'hot_spot'
p54
S'corporation road area'
p55
sS'delivery_mod'
p56
S'Human'
p57
sS'delivery_met'
p58
g18
sS'expl'
p59
(lp60
S'Crude bomb'
p61
asS'ORG'
p62
(lp63
(lp64
S'MKCG medical college and hospital'
p65
aS'36'
p66
aS'Others'
p67
aas.