(dp0
S'LOC'
p1
(lp2
(lp3
S'Coimbatore'
p4
aS'5'
p5
aS'Accused Location'
p6
aa(lp7
S'Bangalore'
p8
aS'26'
p9
aS'Event'
p10
aasS'PER'
p11
(lp12
sS'TIM'
p13
(lp14
sS'hot_setting'
p15
S''
p16
sS'DAT'
p17
(lp18
S'April 17:15'
p19
aS'Sunday:31'
p20
asS'death'
p21
g16
sS'title'
p22
S'Two more arrested in Bangalore blasts case'
p23
sS'det_loc'
p24
(lp25
S'India'
p26
aS'Kerala'
p27
aS'Trichur'
p28
aS'Thrissur'
p29
ag16
asS'terror_group'
p30
(lp31
g16
asS'content'
p32
S'Two persons hailing from Coimbatore were arrested here for their suspected involvement in the April 17 bomb blast in front of the BJP office in Bangalore , police said on Sunday . With this , the total number of arrests in connection with the blast has risen to 13 . OPEN'
p33
sS'injured'
p34
g16
sS'org_unorg'
p35
S'Organized'
p36
sS'O'
p37
(lp38
S'involvement:12'
p39
aS'bomb blast:17'
p40
aS'arrests:40'
p41
asS'unexpl'
p42
(lp43
g16
asS'ocassion'
p44
g16
sS'link'
p45
S'http://www.thehindu.com/todays-paper/two-more-arrested-in-bangalore-blasts-case/article4710318.ece'
p46
sS'date'
p47
S'12-05-2013'
p48
sS'target'
p49
S'poltical office'
p50
sS'hot_spot'
p51
S'BJP office'
p52
sS'delivery_mod'
p53
g16
sS'delivery_met'
p54
g16
sS'expl'
p55
(lp56
g16
asS'ORG'
p57
(lp58
(lp59
S'BJP office'
p60
aS'23'
p61
aS'Victim'
p62
aas.