(dp0
S'LOC'
p1
(lp2
(lp3
S'Dilsukhnagar'
p4
aS'18'
p5
aS'Event'
p6
aa(lp7
S'Pune'
p8
aS'121'
p9
aS'Event'
p10
aa(lp11
S'Mumbai'
p12
aS'128'
p13
aS'Event'
p14
aa(lp15
S'Dilsukhnagar'
p16
aS'135'
p17
aS'Event'
p18
aasS'PER'
p19
(lp20
sS'TIM'
p21
(lp22
sS'hot_setting'
p23
S''
p24
sS'DAT'
p25
(lp26
S'August , 2012 : 116'
p27
aS'February , 2011 : 123'
p28
asS'death'
p29
S'16'
p30
sS'title'
p31
S'A week after twin blasts, police groping in dark'
p32
sS'det_loc'
p33
(lp34
S'India'
p35
ag24
ag24
aS'HYDERABAD'
p36
aS'Dilsukhnagar'
p37
asS'terror_group'
p38
(lp39
g24
asS'content'
p40
S'Even after six days after the twin explosions snuffed out 16 lives in the citys densely populated Dilsukhnagar , the leads available are taking the investigators nowhere . With no terror group claiming responsibility for the deadly terror strike and the lack of clinching evidence to indicate the involvement of pan-Islamic organisations or right wing terror outfits , forensic data became the soul source to draw inferences . The bomb signature - usage of factory-made ammonium nitrate like supergel and detonation with timers - swung the needle of suspicion towards the banned Indian Mujahideen ( IM ) , which is believed to behind similar blasts earlier . The latest terror attacks in IMs account - August , 2012 , in Pune and February , 2011 , in Mumbai - are akin to those at Dilsukhnagar since improvised explosive devices ( IEDs ) were detonated with timers . Compelled by this evidence , agencies probing the incident are racking their brains to identify as to who could have engineered the blasts . But they are not prepared to name the IM as the organisation behind the attacks . OPEN'
p41
sS'injured'
p42
g24
sS'org_unorg'
p43
S'ORGANISED'
p44
sS'O'
p45
(lp46
S'twin explosions:7'
p47
aS'clinching evidence:44'
p48
aS'wing terror:55'
p49
aS'forensic data:59'
p50
aS'needle:87'
p51
aS'IMs:113'
p52
aS'improvised explosive devices:137'
p53
aS'agencies probing:153'
p54
asS'unexpl'
p55
(lp56
g24
asS'ocassion'
p57
g24
sS'link'
p58
S'http://www.thehindu.com/todays-paper/tp-national/tp-andhrapradesh/a-week-after-twin-blasts-police-groping-in-dark/article4457368.ece'
p59
sS'date'
p60
S'22-02-2013'
p61
sS'target'
p62
S'COMMERCIAL AND RESIDENTIAL CENTERS'
p63
sS'hot_spot'
p64
S'Dilsukhnagar'
p65
sS'delivery_mod'
p66
g24
sS'delivery_met'
p67
g24
sS'expl'
p68
(lp69
S'AMMONIUM NITRATE'
p70
aS'DETONATING'
p71
aS'IED'
p72
asS'ORG'
p73
(lp74
(lp75
S'pan-Islamic'
p76
aS'51'
p77
aS'Others'
p78
aa(lp79
S'Indian Mujahideen'
p80
aS'93'
p81
aS'Accused'
p82
aa(lp83
S'IM'
p84
aS'96'
p85
aS'Accused'
p86
aa(lp87
S'IM'
p88
aS'180'
p89
aS'Others'
p90
aas.