(dp0
S'LOC'
p1
(lp2
(lp3
S'Malleswaram'
p4
aS'16'
p5
aS'Event'
p6
aa(lp7
S'Madurai'
p8
aS'22'
p9
aS'Neutral'
p10
aa(lp11
S'Tamil Nadu'
p12
aS'58'
p13
aS'Neutral'
p14
aa(lp15
S'Nesarmani'
p16
aS'76'
p17
aS'Neutral'
p18
aa(lp19
S'Nagercoil'
p20
aS'79'
p21
aS'Neutral'
p22
aa(lp23
S'Madurai'
p24
aS'92'
p25
aS'Neutral'
p26
aa(lp27
S'Bangalore'
p28
aS'117'
p29
aS'Neutral'
p30
aasS'PER'
p31
(lp32
(lp33
S'Shaleen'
p34
aS'27'
p35
aS'Accused'
p36
aa(lp37
S'Buhari'
p38
aS'40'
p39
aS'Accused'
p40
aa(lp41
S'Shaleen'
p42
aS'113'
p43
aS'Accused'
p44
aa(lp45
S'Buhari'
p46
aS'139'
p47
aS'Accused'
p48
aa(lp49
S'Basheer'
p50
aS'141'
p51
aS'Accused'
p52
aasS'TIM'
p53
(lp54
S'next day : 48'
p55
aS'four days : 144'
p56
asS'hot_setting'
p57
S''
p58
sS'DAT'
p59
(lp60
S'April 17:14'
p61
aS'Saturday:25'
p62
aS'April 22:42'
p63
aS'Saturday:96'
p64
asS'death'
p65
g58
sS'title'
p66
S'Police take 11th blast suspect into custody'
p67
sS'det_loc'
p68
(lp69
S'India'
p70
aS'Karnataka'
p71
aS'Bangalore Urban'
p72
aS'Bangalore'
p73
aS'Malleswaram'
p74
asS'terror_group'
p75
(lp76
g58
asS'content'
p77
S'The Central Crime Branch picked up the 11th suspect in connection with the April 17 Malleswaram bomb blast case , from Madurai prison on Saturday . Shaleen ( 35 ) was picked up by the police along with Kitchen Buhari on April 22 and let off the next day . He was then picked up by the Tamil Nadu police in connection with the attack on a local BJP worker and handed over to the Nesarmani police in Nagercoil town where he was remanded in judicial custody and lodged in the Madurai prison . On Saturday , a team of police picked him up to question his role in the blast . Shaleen was brought to Bangalore and produced before the 1st Additional Chief Metropolitan Magistrate and taken into 14 days custody . The police also produced Kitchen Buhari and Basheer and got four days custody . OPEN'
p78
sS'injured'
p79
g58
sS'org_unorg'
p80
g58
sS'O'
p81
(lp82
S'11th suspect:8'
p83
aS'malleswaram bomb blast case:16'
p84
aS'madurai prison:22'
p85
aS'kitchen buhari:39'
p86
aS'tamil nadu police:58'
p87
aS'attack:65'
p88
aS'bjp worker:69'
p89
aS'nesarmani police:76'
p90
aS'nagercoil town:79'
p91
aS'judicial custody:86'
p92
aS'lodged:89'
p93
aS'madurai prison:92'
p94
aS'blast:111'
p95
aS'1st additional chief metropolitan:122'
p96
aS'1st additional chief metropolitan magistrate:122'
p97
aS'magistrate:126'
p98
aS'14 days custody:130'
p99
asS'unexpl'
p100
(lp101
g58
asS'ocassion'
p102
g58
sS'link'
p103
S'http://www.thehindu.com/todays-paper/tp-national/tp-karnataka/police-take-11th-blast-suspect-into-custody/article4729109.ece'
p104
sS'date'
p105
S'17-04-2013'
p106
sS'target'
p107
g58
sS'hot_spot'
p108
g58
sS'delivery_mod'
p109
g58
sS'delivery_met'
p110
S'PLANTED'
p111
sS'expl'
p112
(lp113
g58
asS'ORG'
p114
(lp115
(lp116
S'Central Crime Branch'
p117
aS'2'
p118
aS'Others'
p119
aa(lp120
S'BJP'
p121
aS'69'
p122
aS'Others'
p123
aas.