(dp0
S'LOC'
p1
(lp2
(lp3
S'Pune'
p4
aS'22'
p5
aS'Neutral'
p6
aa(lp7
S'Maharashtra'
p8
aS'24'
p9
aS'Neutral'
p10
aa(lp11
S'Pune'
p12
aS'49'
p13
aS'Neutral'
p14
aa(lp15
S'Jangli Maharaj ( JM )'
p16
aS'65'
p17
aS'Event'
p18
aa(lp19
S'Pune'
p20
aS'79'
p21
aS'Neutral'
p22
aa(lp23
S'Balgandharva'
p24
aS'83'
p25
aS'Neutral'
p26
aa(lp27
S'Balgandharva Theatre'
p28
aS'83'
p29
aS'Neutral'
p30
aa(lp31
S'Theatre'
p32
aS'84'
p33
aS'Neutral'
p34
aa(lp35
S'McDonald food outlet'
p36
aS'94'
p37
aS'Neutral'
p38
aa(lp39
S'Decaan Gymkhana'
p40
aS'99'
p41
aS'Neutral'
p42
aa(lp43
S'Sambhaji'
p44
aS'105'
p45
aS'Neutral'
p46
aa(lp47
S'Yerwada'
p48
aS'154'
p49
aS'Neutral'
p50
aa(lp51
S'Maharashtra'
p52
aS'200'
p53
aS'Neutral'
p54
aasS'PER'
p55
(lp56
(lp57
S'Dayanand Patil'
p58
aS'55'
p59
aS'Victim'
p60
aa(lp61
S'Qateel Siddique'
p62
aS'138'
p63
aS'Accused'
p64
aa(lp65
S'Qateel'
p66
aS'149'
p67
aS'Accused'
p68
aa(lp69
S'Bhatkal'
p70
aS'226'
p71
aS'Assoc Accused'
p72
aa(lp73
S'Riyaz'
p74
aS'230'
p75
aS'Accused'
p76
aa(lp77
S'Iqbal'
p78
aS'232'
p79
aS'Accused'
p80
aa(lp81
S'Fayaz Kagzi'
p82
aS'242'
p83
aS'Victim'
p84
aa(lp85
S'Ahmed'
p86
aS'245'
p87
aS'Accused'
p88
aa(lp89
S'Wakas'
p90
aS'247'
p91
aS'Accused'
p92
aa(lp93
S'Asadulla Akhtar Javed Akhtar'
p94
aS'249'
p95
aS'Accused'
p96
aa(lp97
S'Tabrez'
p98
aS'254'
p99
aS'Accused'
p100
aa(lp101
S'Assad Khan Jamsad Ali Khan'
p102
aS'266'
p103
aS'Accused'
p104
aa(lp105
S'Imran Khan Wajid Khan Pathan'
p106
aS'272'
p107
aS'Accused'
p108
aa(lp109
S'Firoz alias Hamza Sayyed'
p110
aS'278'
p111
aS'Accused'
p112
aa(lp113
S'Irfan Mustafa Landge'
p114
aS'283'
p115
aS'Accused'
p116
aa(lp117
S'Munib Iqbal Memon'
p118
aS'287'
p119
aS'Accused'
p120
aa(lp121
S'Farooq Bagwan'
p122
aS'291'
p123
aS'Accused'
p124
aa(lp125
S'Sayyed Aarif'
p126
aS'294'
p127
aS'Accused'
p128
aa(lp129
S'Aslam Shabbir Shaikh'
p130
aS'297'
p131
aS'Accused'
p132
aa(lp133
S'Bunty Jagirdar'
p134
aS'301'
p135
aS'Accused'
p136
aasS'TIM'
p137
(lp138
sS'hot_setting'
p139
S''
p140
sS'DAT'
p141
(lp142
S'Tuesday:9'
p143
aS'August 2012:17'
p144
aS'August 1 , 2012 : 32'
p145
aS'June 8 , 2012 : 157'
p146
aS'Tuesday:319'
p147
aS'May 9:325'
p148
asS'death'
p149
S'0'
p150
sS'title'
p151
S'ATS files charge sheet in Pune blasts case'
p152
sS'org_unorg'
p153
S'ORGANISED'
p154
sS'terror_group'
p155
(lp156
S'INDIAN MUJAHIDEEN'
p157
asS'content'
p158
S'The Maharashtra Anti-Terrorism Squad ( ATS ) on Tuesday filed charge sheet in the case of August 2012 bomb blasts in Pune in Maharashtra in a local court here . On August 1 , 2012 , five co-ordinated low-intensity explosions struck a busy road in the heart of Pune , injuring one person namely Dayanand Patil ( 34 ) . The explosions occurred on Jangli Maharaj ( JM ) road , one of the key business areas of Pune at spots near Balgandharva Theatre , opposite to Dena Bank branch , opposite to McDonald food outlet , near Decaan Gymkhana bus stand and near Sambhaji garden . The police also later recovered one live bomb near Axis bank on the road . The ATS claimed that the blast was conducted to take revenge for the death of Qateel Siddique , an Indian Mujahideen ( IM ) operative . Qateel was allegedly murdered at Yerwada jail on June 8 , 2012 . In all 12 persons were charged in the case under the IPC Sections 307 ( Attempt to murder ) and 123 ( Concealing with intent to facilitate design to wage war ) , various sections of stringent the Maharashtra Control of Organised Crime Act ( MCOCA ) and the Unlawful Activities ( Prevention ) Act ( UAPA ) . The charge sheet has named Bhatkal brothers , namely Riyaz and Iqbal . Among the other three wanted accused include , Fayaz Kagzi , Ahmed alias Wakas and Asadulla Akhtar Javed Akhtar alias Tabrez . The authorities have already arrested eight accused in the case Assad Khan Jamsad Ali Khan , Imran Khan Wajid Khan Pathan , Firoz alias Hamza Sayyed , Irfan Mustafa Landge , Munib Iqbal Memon , Farooq Bagwan , Sayyed Aarif , Aslam Shabbir Shaikh alias Bunty Jagirdar . The confessional statements of the accused were not produced in the special MCOCA court on Tuesday and will be submitted on May 9 . OPEN'
p159
sS'injured'
p160
S'1'
p161
sS'det_loc'
p162
(lp163
S'India'
p164
aS'Maharashtra'
p165
aS'Pune'
p166
aS'Mumbai'
p167
aS'Jangli Maharaj ( JM ) road near Balgandharva Theatre opposite Dena Bank'
p168
asS'O'
p169
(lp170
S'charge sheet:11'
p171
aS'decaan gymkhana:99'
p172
aS'garden:106'
p173
aS'axis bank:117'
p174
aS'murder:179'
p175
aS'mcoca:207'
p176
aS'charge sheet:222'
p177
asS'unexpl'
p178
(lp179
g140
asS'ocassion'
p180
g140
sS'link'
p181
S'http://www.thehindu.com/todays-paper/tp-national/ats-files-charge-sheet-in-pune-blasts-case/article4674936.ece'
p182
sS'date'
p183
S'01-08-2012'
p184
sS'target'
p185
g140
sS'hot_spot'
p186
S' key business areas of Pune,opposite to Dena Bank branch,opposite to McDonald food outlet , near Decaan Gymkhana bus stand and near Sambhaji garden'
p187
sS'delivery_mod'
p188
g140
sS'delivery_met'
p189
S'PLANTED'
p190
sS'expl'
p191
(lp192
g140
asS'ORG'
p193
(lp194
(lp195
S'Maharashtra Anti-Terrorism Squad ( ATS )'
p196
aS'2'
p197
aS'Accused'
p198
aa(lp199
S'local court'
p200
aS'27'
p201
aS'Others'
p202
aa(lp203
S'Dena Bank'
p204
aS'88'
p205
aS'Others'
p206
aa(lp207
S'police'
p208
aS'109'
p209
aS'Others'
p210
aa(lp211
S'ATS'
p212
aS'124'
p213
aS'Accused'
p214
aa(lp215
S'Indian Mujahideen'
p216
aS'142'
p217
aS'Accused'
p218
aa(lp219
S'Indian Mujahideen ( IM )'
p220
aS'142'
p221
aS'Accused'
p222
aa(lp223
S'IPC Sections 307'
p224
aS'173'
p225
aS'Others'
p226
aa(lp227
S'Maharashtra Control of Organised Crime Act ( MCOCA )'
p228
aS'200'
p229
aS'Others'
p230
aa(lp231
S'Unlawful Activities ( Prevention ) Act ( UAPA )'
p232
aS'211'
p233
aS'Others'
p234
aa(lp235
S'MCOCA court'
p236
aS'316'
p237
aS'Others'
p238
aas.