(dp0
S'LOC'
p1
(lp2
(lp3
S'Bangalore'
p4
aS'23'
p5
aS'Event'
p6
aa(lp7
S'Bangalore'
p8
aS'64'
p9
aS'Event'
p10
aa(lp11
S'Karnataka'
p12
aS'73'
p13
aS'Neutral'
p14
aa(lp15
S'Kolkata'
p16
aS'106'
p17
aS'Neutral'
p18
aa(lp19
S'Hyderabad'
p20
aS'200'
p21
aS'Event'
p22
aa(lp23
S'Pune'
p24
aS'202'
p25
aS'Event'
p26
aa(lp27
S'Bangalore'
p28
aS'208'
p29
aS'Event'
p30
aasS'PER'
p31
(lp32
(lp33
S'R.P.N. Singh'
p34
aS'91'
p35
aS'Comment'
p36
aa(lp37
S'Sushilkumar Shinde'
p38
aS'100'
p39
aS'Others'
p40
aasS'TIM'
p41
(lp42
sS'hot_setting'
p43
S''
p44
sS'DAT'
p45
(lp46
S'Wednesday:7'
p47
asS'death'
p48
g44
sS'title'
p49
S'NIA, NSG teams in Bangalore'
p50
sS'org_unorg'
p51
S'ORGANISED'
p52
sS'terror_group'
p53
(lp54
S'INDIAN MUJAHIDEEN'
p55
asS'content'
p56
S'The Ministry of Home Affairs on Wednesday rushed a team of the National Investigation Agency ( NIA ) sleuths to probe the Bangalore blast that took place , even as the Centre alerted all State governments to step up vigil , particularly around sensitive locations . A team of the NIA and a bomb disposal squad of the National Security Guard have reached Bangalore . We are in constant touch with the Karnataka government and ready to offer any help , which is required , Minister of State for Home R.P.N. Singh told journalists here . Union Home Minister Sushilkumar Shinde , who was in Kolkata to take part in the Eastern Zonal Council meeting , said the NIA would investigate the case . He was in touch with the State government and the police , he told journalists . Advisory to States Meanwhile , the MHA issued an advisory to all States asking them to beef up security and enhance deployment of police personnel , particularly in and around sensitive and crowded locations like places of worship , markets and malls . Sources in the MHA said Indian Mujahideen , which is allegedly responsible for recent blasts in Hyderabad and Pune , could be behind the Bangalore blast . Though it is too early to name any organisation , the evidence gathered so far by probe agencies indicates that it could be the handiwork of the Indian Mujahideen . The use of improvised explosive device and ammonium nitrate is what the banned outfit had used in the past as well , the sources said . OPEN'
p57
sS'injured'
p58
g44
sS'det_loc'
p59
(lp60
S'India'
p61
aS'Karnataka'
p62
ag44
aS'Bangalore'
p63
aS'Bangalore'
p64
asS'O'
p65
(lp66
S'squad:56'
p67
aS'minister of state for home:86'
p68
aS'Union Home Minister:97'
p69
aS'investigate:121'
p70
aS'advisory to states:141'
p71
aS'worship:178'
p72
aS'markets:180'
p73
aS'malls:182'
p74
aS'explosive device:245'
p75
asS'unexpl'
p76
(lp77
g44
asS'ocassion'
p78
g44
sS'link'
p79
S'http://www.thehindu.com/todays-paper/tp-national/nia-nsg-teams-in-bangalore/article4628547.ece'
p80
sS'date'
p81
S'17-04-2013'
p82
sS'target'
p83
g44
sS'hot_spot'
p84
S'Bangalore'
p85
sS'delivery_mod'
p86
g44
sS'delivery_met'
p87
g44
sS'expl'
p88
(lp89
S'AMMONIUM NITRATE'
p90
asS'ORG'
p91
(lp92
(lp93
S'Ministry of Home Affairs'
p94
aS'2'
p95
aS'Others'
p96
aa(lp97
S'National Investigation Agency'
p98
aS'13'
p99
aS'Others'
p100
aa(lp101
S'NIA'
p102
aS'17'
p103
aS'Others'
p104
aa(lp105
S'State governments'
p106
aS'35'
p107
aS'Others'
p108
aa(lp109
S'NIA'
p110
aS'51'
p111
aS'Others'
p112
aa(lp113
S'National Security Guard'
p114
aS'59'
p115
aS'Others'
p116
aa(lp117
S'Karnataka government'
p118
aS'73'
p119
aS'Others'
p120
aa(lp121
S'journalists'
p122
aS'94'
p123
aS'Others'
p124
aa(lp125
S'Eastern Zonal Council'
p126
aS'112'
p127
aS'Others'
p128
aa(lp129
S'NIA'
p130
aS'119'
p131
aS'Others'
p132
aa(lp133
S'State government'
p134
aS'131'
p135
aS'Others'
p136
aa(lp137
S'police'
p138
aS'135'
p139
aS'Others'
p140
aa(lp141
S'journalists'
p142
aS'139'
p143
aS'Others'
p144
aa(lp145
S'MHA'
p146
aS'147'
p147
aS'Others'
p148
aa(lp149
S'deployment of police personnel'
p150
aS'162'
p151
aS'Others'
p152
aa(lp153
S'MHA'
p154
aS'187'
p155
aS'Others'
p156
aa(lp157
S'Indian Mujahideen'
p158
aS'189'
p159
aS'Accused'
p160
aa(lp161
S'Indian Mujahideen'
p162
aS'238'
p163
aS'Accused'
p164
aas.