(dp0
S'LOC'
p1
(lp2
(lp3
S'Assam'
p4
aS'6'
p5
aS'Event'
p6
aa(lp7
S'Manipur'
p8
aS'8'
p9
aS'Event'
p10
aa(lp11
S'Srinagar'
p12
aS'32'
p13
aS'Neutral'
p14
aa(lp15
S'Pakistan'
p16
aS'48'
p17
aS'Neutral'
p18
aa(lp19
S'Jammu and Kashmir'
p20
aS'61'
p21
aS'Neutral'
p22
aa(lp23
S'Bongaigaon'
p24
aS'87'
p25
aS'Event'
p26
aa(lp27
S'Assam'
p28
aS'89'
p29
aS'Event'
p30
aa(lp31
S'Kokrajhar'
p32
aS'105'
p33
aS'Event'
p34
aa(lp35
S'Chirang'
p36
aS'119'
p37
aS'Event'
p38
aa(lp39
S'Kokrajhar.Another'
p40
aS'135'
p41
aS'Event'
p42
aS'Neutral'
p43
aa(lp44
S'Manipur'
p45
aS'160'
p46
aS'Event'
p47
aasS'PER'
p48
(lp49
(lp50
S'Omar Abdullah'
p51
aS'36'
p52
aS'Comment'
p53
aa(lp54
S'Sangbijit'
p55
aS'95'
p56
aS'Accused'
p57
aa(lp58
S'Bipul Brahma'
p59
aS'122'
p60
aS'Victim'
p61
aasS'TIM'
p62
(lp63
sS'hot_setting'
p64
S'Independence Day'
p65
sS'DAT'
p66
(lp67
S'Thursday:4'
p68
asS'death'
p69
S''
p70
sS'title'
p71
S'Blasts in Assam, Manipur'
p72
sS'det_loc'
p73
(lp74
S'India'
p75
aS'Delhi'
p76
aS'New Delhi'
p77
aS'Delhi'
p78
aS'Assam , Manipur'
p79
asS'terror_group'
p80
(lp81
S'National Democratic Front of Bodoland (NDFB)'
p82
asS'content'
p83
S'Bomb blasts on Thursday rocked Assam and Manipur during Independence Day functions injuring one person even as Chief Ministers asked extremists to abjure violence and return to the mainstream . In Srinagar , Chief Minister Omar Abdullah in his Independence Day address advocated resumption of dialogue with Pakistan as well as with the separatists to resolve the political issues of Jammu and Kashmir . The celebrations passed off peacefully in the state with no report of any untoward incident from anywhere in the Valley . In Bongaigaon in Assam , the anti-talk NDFB ( Sangbijit ) faction triggered serial blasts injuring one person in Kokrajhar district where the outfit exploded two grenades while another was triggered in neighbouring Chirang district . Bipul Brahma ( 45 ) was injured in one of the explosions in Kokrajhar.Another unexploded bomb was recovered from the district and defused . A powerful bomb exploded a few minutes before the celebrations of Independence day in Manipur but no casualty was reported.PTI OPEN'
p84
sS'injured'
p85
S'1'
p86
sS'org_unorg'
p87
S'Organized'
p88
sS'O'
p89
(lp90
S'Independence Day:10'
p91
aS'abjure violence:23'
p92
aS'dialogue:46'
p93
aS'resolve:56'
p94
aS'political issues:58'
p95
aS'exploded two grenades:110'
p96
aS'powerful bomb:147'
p97
aS'exploded:149'
p98
aS'no casualty:162'
p99
asS'unexpl'
p100
(lp101
g70
asS'ocassion'
p102
S'National Festivals'
p103
sS'link'
p104
S'http://www.thehindu.com/todays-paper/tp-in-school/blasts-in-assam-manipur/article5026818.ece'
p105
sS'date'
p106
S'15-08-2013'
p107
sS'target'
p108
g70
sS'hot_spot'
p109
g70
sS'delivery_mod'
p110
S'Human'
p111
sS'delivery_met'
p112
S'Planted'
p113
sS'expl'
p114
(lp115
S'Grenade'
p116
asS'ORG'
p117
(lp118
(lp119
S'NDFB ( Sangbijit )'
p120
aS'93'
p121
aS'Accused'
p122
aas.