(dp0
S'LOC'
p1
(lp2
(lp3
S'U.S. officials'
p4
aS'32'
p5
aS'Neutral'
p6
aa(lp7
S'U.S.'
p8
aS'32'
p9
aS'Neutral'
p10
aa(lp11
S'hospital room'
p12
aS'63'
p13
aS'Event'
p14
aa(lp15
S'getaway'
p16
aS'86'
p17
aS'Neutral'
p18
aa(lp19
S'U.S.'
p20
aS'160'
p21
aS'Neutral'
p22
aa(lp23
S'U.S.'
p24
aS'187'
p25
aS'Neutral'
p26
aasS'PER'
p27
(lp28
(lp29
S'Dzhokhar Tsarnaev'
p30
aS'41'
p31
aS'Accused'
p32
aa(lp33
S'Tsarnaev'
p34
aS'54'
p35
aS'Accused'
p36
aa(lp37
S'Tamerlan'
p38
aS'92'
p39
aS'Accused'
p40
aa(lp41
S'Tsarnaev'
p42
aS'106'
p43
aS'Others'
p44
aa(lp45
S'Dzhokhar'
p46
aS'147'
p47
aS'Others'
p48
aa(lp49
S'Kazakh'
p50
aS'167'
p51
aS'Others'
p52
aa(lp53
S'Dzhokhar'
p54
aS'173'
p55
aS'Others'
p56
aa(lp57
S'Kazakh'
p58
aS'194'
p59
aS'Others'
p60
aasS'TIM'
p61
(lp62
sS'hot_setting'
p63
S''
p64
sS'DAT'
p65
(lp66
S'Monday:60'
p67
aS'Friday:98'
p68
asS'death'
p69
g64
sS'title'
p70
S'Boston bomb blast suspect charged'
p71
sS'det_loc'
p72
(lp73
S'United States'
p74
ag64
ag64
aS'BOSTON'
p75
aS'Boston Marathon'
p76
asS'terror_group'
p77
(lp78
g64
asS'content'
p79
S'The two brothers suspected of bombing the Boston Marathon appear to have been motivated by a radical brand of Islam but do not seem connected to any Muslim terrorist groups , U.S. officials said after interrogating and charging surviving brother Dzhokhar Tsarnaev with crimes that could bring the death penalty . Serious condition Tsarnaev ( 19 ) was charged Monday in his hospital room , where he was in serious condition with a gunshot wound to the throat and other injuries suffered during his attempted getaway . His older brother , Tamerlan ( 26 ) died on Friday after a fierce gunbattle with police . Tsarnaev communicated with his interrogators in writing , according to officials who cautioned that they were still trying to verify what they were told and are also looking at the suspects telephone and online communications . - AP Video footage shows Dzhokhar manipulating his phone moments before blasts , says FBITwo persons arrested in U.S. may have known the suspects : Kazakh Foreign Ministry Video footage shows Dzhokhar manipulating his phone moments before blasts , says FBI Two persons arrested in U.S. may have known the suspects : Kazakh Foreign Ministry OPEN'
p80
sS'injured'
p81
g64
sS'org_unorg'
p82
S'ORGANISED'
p83
sS'O'
p84
(lp85
S'boston marathon:8'
p86
aS'Islam:20'
p87
aS'death penalty:49'
p88
aS'gunshot wound:74'
p89
aS'getaway:86'
p90
aS'video footage:144'
p91
aS'fbi:182'
p92
asS'unexpl'
p93
(lp94
g64
asS'ocassion'
p95
g64
sS'link'
p96
S'http://www.thehindu.com/todays-paper/boston-bomb-blast-suspect-charged/article4648814.ece'
p97
sS'date'
p98
S'22-04-2013'
p99
sS'target'
p100
g64
sS'hot_spot'
p101
S'Boston Marathon'
p102
sS'delivery_mod'
p103
g64
sS'delivery_met'
p104
g64
sS'expl'
p105
(lp106
g64
asS'ORG'
p107
(lp108
(lp109
S'radical brand'
p110
aS'17'
p111
aS'Others'
p112
aa(lp113
S'Muslim terrorist'
p114
aS'28'
p115
aS'Accused'
p116
aa(lp117
S'police'
p118
aS'104'
p119
aS'Others'
p120
aa(lp121
S'Foreign Ministry'
p122
aS'168'
p123
aS'Others'
p124
aa(lp125
S'FBI'
p126
aS'182'
p127
aS'Others'
p128
aa(lp129
S'Kazakh Foreign Ministry'
p130
aS'194'
p131
aS'Others'
p132
aa(lp133
S'Foreign Ministry'
p134
aS'195'
p135
aS'Others'
p136
aas.