(dp0
S'LOC'
p1
(lp2
(lp3
S'Karnatakas'
p4
aS'22'
p5
aS'Event'
p6
aa(lp7
S'Bangalore'
p8
aS'99'
p9
aS'Event'
p10
aa(lp11
S'Malleshwaram'
p12
aS'118'
p13
aS'Event'
p14
aa(lp15
S'Bangalore'
p16
aS'121'
p17
aS'Event'
p18
aasS'PER'
p19
(lp20
(lp21
S'Raghavendra Auradkar'
p22
aS'102'
p23
aS'Comment'
p24
aa(lp25
S'R. Ashoka'
p26
aS'207'
p27
aS'Comment'
p28
aasS'TIM'
p29
(lp30
S'10.20 a.m.:74'
p31
asS'hot_setting'
p32
S''
p33
sS'DAT'
p34
(lp35
S'Wednesday morning:32'
p36
asS'death'
p37
g33
sS'title'
p38
S'16 hurt in blast near BJP office in Bangalore'
p39
sS'det_loc'
p40
(lp41
S'India'
p42
aS'Karnataka'
p43
aS'Bangalore Urban'
p44
aS'Malleswaram'
p45
ag33
asS'terror_group'
p46
(lp47
g33
asS'content'
p48
S'Sixteen people were injured , two of them seriously , in an explosion in a congested locality near the office of Karnatakas ruling Bharatiya Janata Party ( BJP ) here on Wednesday morning , police said , suspecting a bomb blast . Several vehicles were gutted but there was no damage to the party office in the explosion that was initially believed to be a cylinder blast . The explosion took place around 10.20 a.m. and investigation is on to find out whether it is caused by a bomb as a motorbike was found at the site , Bangalore Police Commissioner Raghavendra Auradkar told reporters . The BJP office is located in the crowded residential locality of Malleshwaram in north Bangalore , about 8 km from the city centre . The two seriously injured are women , one of whom has a suffered fracture in her leg , doctors at the KC General hospital , about 5 km from the explosion site , told reporters . The others have suffered minor injuries with two of them complaining of loss of hearing , the doctors said . Of the 16 injured , 11 are police personnel and five are civilians , including three women , Home Minister R. Ashoka said at the explosion site . Residents in the area told reporters that the blast shook the windowpanes of several houses . OPEN'
p49
sS'injured'
p50
S'16'
p51
sS'org_unorg'
p52
g33
sS'O'
p53
(lp54
S'explosion:13'
p55
aS'suspecting:38'
p56
aS'bomb blast:40'
p57
aS'vehicles:44'
p58
aS'gutted:46'
p59
aS'no damage:50'
p60
aS'party office:54'
p61
aS'explosion:58'
p62
aS'cylinder blast:66'
p63
aS'explosion:70'
p64
aS'investigation:77'
p65
aS'bomb:89'
p66
aS'motorbike:92'
p67
aS'site:97'
p68
aS'crowded residential locality:114'
p69
aS'two seriously injured:132'
p70
aS'suffered fracture:143'
p71
aS'explosion site:161'
p72
aS'suffered minor injuries:170'
p73
aS'loss of hearing:179'
p74
aS'explosion site:212'
p75
aS'Residents:215'
p76
aS'blast:223'
p77
aS'windowpanes:226'
p78
asS'unexpl'
p79
(lp80
g33
asS'ocassion'
p81
g33
sS'link'
p82
S'http://www.thehindu.com/todays-paper/tp-in-school/16-hurt-in-blast-near-bjp-office-in-bangalore/article4628292.ece'
p83
sS'date'
p84
S'17-04-2013'
p85
sS'target'
p86
S'POLITICAL LEADER/GROUP'
p87
sS'hot_spot'
p88
S'BJP'
p89
sS'delivery_mod'
p90
S'MOTORCYCLES'
p91
sS'delivery_met'
p92
S'PLANTED'
p93
sS'expl'
p94
(lp95
g33
asS'ORG'
p96
(lp97
(lp98
S'Bharatiya Janata Party'
p99
aS'24'
p100
aS'Others'
p101
aa(lp102
S'BJP'
p103
aS'28'
p104
aS'Others'
p105
aa(lp106
S'BJP'
p107
aS'108'
p108
aS'Others'
p109
aa(lp110
S'KC General hospital'
p111
aS'152'
p112
aS'Others'
p113
aas.