(dp0
S'LOC'
p1
(lp2
(lp3
S'Tamil Nadu'
p4
aS'6'
p5
aS'Neutral'
p6
aa(lp7
S'Bangalore'
p8
aS'29'
p9
aS'Neutral'
p10
aa(lp11
S'Melapalayam'
p12
aS'37'
p13
aS'Accused Location'
p14
aa(lp15
S'Tirunelveli'
p16
aS'39'
p17
aS'Neutral'
p18
aa(lp19
S'Coimbatore'
p20
aS'59'
p21
aS'Neutral'
p22
aa(lp23
S'Tirunelveli'
p24
aS'61'
p25
aS'Neutral'
p26
aa(lp27
S'Mattuthavani'
p28
aS'66'
p29
aS'Neutral'
p30
aa(lp31
S'Karnataka'
p32
aS'78'
p33
aS'Neutral'
p34
aa(lp35
S'Bangalore'
p36
aS'84'
p37
aS'Neutral'
p38
aa(lp39
S'Tirunelveli'
p40
aS'90'
p41
aS'Neutral'
p42
aa(lp43
S'Coimbatore'
p44
aS'114'
p45
aS'Neutral'
p46
aasS'PER'
p47
(lp48
(lp49
S'Kichan Buhari'
p50
aS'19'
p51
aS'Accused'
p52
aa(lp53
S'Buhari'
p54
aS'57'
p55
aS'Accused'
p56
aa(lp57
S'Buharis'
p58
aS'92'
p59
aS'Others'
p60
aa(lp61
S'Thowlath'
p62
aS'94'
p63
aS'Others'
p64
aasS'TIM'
p65
(lp66
S'7 a.m. : 69'
p67
asS'hot_setting'
p68
S''
p69
sS'DAT'
p70
(lp71
S'Tuesday : 12'
p72
aS'April 17 : 27'
p73
asS'death'
p74
g69
sS'title'
p75
S'Third Bangalore blast suspect held in Madurai'
p76
sS'det_loc'
p77
(lp78
S'India'
p79
aS'Tamil Nadu'
p80
ag69
aS'MADURAI'
p81
aS' near the Bharatiya Janta Party (BJP) Karnataka'
p82
asS'terror_group'
p83
(lp84
g69
asS'content'
p85
S'A special team of the Tamil Nadu and Karnataka police on Tuesday arrested a former Al-Umma activist , Kichan Buhari , here in connection with the April 17 Bangalore bomb blast . He hails from of Melapalayam in Tirunelveli . He is the third suspect to be held in the case . The team was shadowing Buhari from Coimbatore to Tirunelveli and nabbed him at Mattuthavani here at 7 a.m. , a police official said . The Karnataka police have taken him to Bangalore . Special Correspondent reports from Tirunelveli : Buharis mother Thowlath said her son was innocent . He is now leading a peaceful life . His children are studying in Coimbatore and he used to visit us twice a month , she said . OPEN'
p86
sS'injured'
p87
g69
sS'org_unorg'
p88
S'ORGANISED'
p89
sS'O'
p90
(lp91
S'activist:17'
p92
aS'bangalore bomb blast:29'
p93
aS'suspect:45'
p94
aS'nabbed:63'
p95
asS'unexpl'
p96
(lp97
g69
asS'ocassion'
p98
g69
sS'link'
p99
S'http://www.thehindu.com/todays-paper/tp-national/third-bangalore-blast-suspect-held-in-madurai/article4649189.ece'
p100
sS'date'
p101
S'17-04-2013'
p102
sS'target'
p103
S'POLITICAL LEADER/GROUP'
p104
sS'hot_spot'
p105
g69
sS'delivery_mod'
p106
g69
sS'delivery_met'
p107
g69
sS'expl'
p108
(lp109
S'IED'
p110
asS'ORG'
p111
(lp112
(lp113
S'Karnataka police'
p114
aS'9'
p115
aS'Others'
p116
aa(lp117
S'Al-Umma'
p118
aS'16'
p119
aS'Accused'
p120
aa(lp121
S'police'
p122
aS'73'
p123
aS'Others'
p124
aa(lp125
S'Karnataka police'
p126
aS'78'
p127
aS'Others'
p128
aas.