(dp0
S'LOC'
p1
(lp2
(lp3
S'Mumbai'
p4
aS'9'
p5
aS'Event'
p6
aa(lp7
S'Kondotty'
p8
aS'23'
p9
aS'Assoc Event Location'
p10
aa(lp11
S'Mumbai'
p12
aS'90'
p13
aS'Event'
p14
aa(lp15
S'Karipur'
p16
aS'119'
p17
aS'Neutral'
p18
aa(lp19
S'Sharjah'
p20
aS'167'
p21
aS'Accused Location'
p22
aa(lp23
S'Gulf'
p24
aS'197'
p25
aS'Neutral'
p26
aasS'PER'
p27
(lp28
(lp29
S'Mohammad Alshab'
p30
aS'36'
p31
aS'Assoc Accused'
p32
aa(lp33
S'Abdul Malik'
p34
aS'39'
p35
aS'Assoc Accused'
p36
aa(lp37
S'Abdul Kareem'
p38
aS'42'
p39
aS'Assoc Accused'
p40
aa(lp41
S'Mohammad Raffi'
p42
aS'45'
p43
aS'Assoc Accused'
p44
aa(lp45
S'Abdul Majeed'
p46
aS'48'
p47
aS'Assoc Accused'
p48
aa(lp49
S'Tahir Taklya'
p50
aS'51'
p51
aS'Accused'
p52
aa(lp53
S'Kamaluddin'
p54
aS'54'
p55
aS'Assoc Accused'
p56
aa(lp57
S'Abdul Majeed'
p58
aS'67'
p59
aS'Assoc Accused'
p60
aa(lp61
S'Tahir Taklya'
p62
aS'70'
p63
aS'Accused'
p64
aa(lp65
S'Dawood Ibrahim'
p66
aS'79'
p67
aS'Others'
p68
aa(lp69
S'Taklya'
p70
aS'82'
p71
aS'Accused'
p72
aa(lp73
S'Alshab'
p74
aS'102'
p75
aS'Assoc Accused'
p76
aa(lp77
S'Raffi'
p78
aS'131'
p79
aS'Assoc Accused'
p80
aa(lp81
S'Kamaluddin'
p82
aS'135'
p83
aS'Assoc Accused'
p84
aa(lp85
S'Taklya'
p86
aS'152'
p87
aS'Accused'
p88
aa(lp89
S'Raffi'
p90
aS'157'
p91
aS'Assoc Accused'
p92
aa(lp93
S'Taklya'
p94
aS'159'
p95
aS'Accused'
p96
aa(lp97
S'Taklya'
p98
aS'169'
p99
aS'Accused'
p100
aa(lp101
S'Kamaluddin'
p102
aS'182'
p103
aS'Accused'
p104
aa(lp105
S'Imtiaz Ibrahim'
p106
aS'215'
p107
aS'Assoc Accused'
p108
aa(lp109
S'Iqbal Bhai'
p110
aS'218'
p111
aS'Assoc Accused'
p112
aasS'TIM'
p113
(lp114
sS'hot_setting'
p115
S''
p116
sS'DAT'
p117
(lp118
S'1993 : 89'
p119
aS'2008 : 122'
p120
asS'death'
p121
g116
sS'title'
p122
S'Chargesheet in Kondotty fake notes case filed'
p123
sS'org_unorg'
p124
S'ORGANISED'
p125
sS'terror_group'
p126
(lp127
S"MUMBAI'S UNDERWORLD"
p128
asS'content'
p129
S'Seven persons , including an accused in the Mumbai bomb blasts case , have been named in the chargesheet filed in the Kondotty fake notes case by the National Investigation Agency ( NIA ) . Mohammad Alshab , Abdul Malik , Abdul Kareem , Mohammad Raffi , Abdul Majeed , Tahir Taklya and Kamaluddin were named in the chargesheet for using and possessing fake currency . Abdul Majeed and Tahir Taklya are both suspected aides of underworld don Dawood Ibrahim . Taklya is also an accused in the 1993 Mumbai bomb blasts case . The Directorate of Revenue Intelligence had arrested Alshab with fake Indian currency worth Rs .72.5 lakh in Rs .1,000 and Rs .500 notes from Karipur airport in 2008 . He had allegedly sourced the money from Raffi and eleventh accused Kamaluddin , who is yet to be arrested . They had allegedly obtained the fake notes from Taklya . The chargesheet said Raffi and Taklya had served a prison sentence together in Sharjah where Taklya had been arrested with Rs .50 lakh in fake Indian currency . Kamaluddin allegedly raised Rs .15.85 lakh from the State and transferred the amount to the Gulf through hawala channels as payment for the fake currency . The NIA has also named Pakistani nationals Imtiaz Ibrahim and Iqbal Bhai as accused in the case . OPEN'
p130
sS'injured'
p131
g116
sS'det_loc'
p132
(lp133
S'India'
p134
aS'Maharashtra'
p135
aS'Mumbai-City'
p136
aS'Bombay'
p137
ag116
asS'O'
p138
(lp139
S'bomb blasts:10'
p140
aS'chargesheet:19'
p141
aS'fake notes:24'
p142
aS'chargesheet:59'
p143
aS'fake currency:64'
p144
aS'suspected aides:74'
p145
aS'underworld don:77'
p146
aS'bomb blasts case:91'
p147
aS'fake indian currency:104'
p148
aS'arrested:142'
p149
aS'fake notes:149'
p150
aS'chargesheet:155'
p151
aS'prison sentence:163'
p152
aS'arrested:172'
p153
aS'Rs .50 lakh:174'
p154
aS'fake indian currency:178'
p155
aS'Rs .15.85 lakh:185'
p156
aS'hawala channels:199'
p157
aS'fake currency:205'
p158
aS'pakistani nationals:213'
p159
aS'accused:221'
p160
asS'unexpl'
p161
(lp162
g116
asS'ocassion'
p163
g116
sS'link'
p164
S'http://www.thehindu.com/todays-paper/tp-national/tp-kerala/chargesheet-in-kondotty-fake-notes-case-filed/article4809200.ece'
p165
sS'date'
p166
S'12-03-1993'
p167
sS'target'
p168
S'TOWN'
p169
sS'hot_spot'
p170
S'City of Bombay'
p171
sS'delivery_mod'
p172
g116
sS'delivery_met'
p173
g116
sS'expl'
p174
(lp175
g116
asS'ORG'
p176
(lp177
(lp178
S'National Investigation Agency'
p179
aS'29'
p180
aS'Others'
p181
aa(lp182
S'NIA'
p183
aS'33'
p184
aS'Others'
p185
aa(lp186
S'Directorate of Revenue Intelligence'
p187
aS'96'
p188
aS'Others'
p189
aa(lp190
S'NIA'
p191
aS'209'
p192
aS'Others'
p193
aas.