(dp0
S'LOC'
p1
(lp2
(lp3
S'Karnataka'
p4
aS'5'
p5
aS'Event'
p6
aa(lp7
S'Bangalore'
p8
aS'30'
p9
aS'Event'
p10
aa(lp11
S'Karnataka'
p12
aS'71'
p13
aS'Event'
p14
aa(lp15
S'Karnataka'
p16
aS'93'
p17
aS'Event'
p18
aa(lp19
S'Karumbukadai'
p20
aS'149'
p21
aS'Neutral'
p22
aa(lp23
S'G.M. Nagar'
p24
aS'151'
p25
aS'Neutral'
p26
aa(lp27
S'Kasthuri Garden'
p28
aS'154'
p29
aS'Neutral'
p30
aa(lp31
S'Ashok Nagar'
p32
aS'157'
p33
aS'Neutral'
p34
aa(lp35
S'Kuniamuthur'
p36
aS'160'
p37
aS'Neutral'
p38
aa(lp39
S'Madurai'
p40
aS'178'
p41
aS'Neutral'
p42
aa(lp43
S'Tamil Nadu'
p44
aS'187'
p45
aS'Neutral'
p46
aa(lp47
S'Karnataka'
p48
aS'190'
p49
aS'Event'
p50
aa(lp51
S'Karnataka'
p52
aS'194'
p53
aS'Event'
p54
aa(lp55
S'Bangalore'
p56
aS'205'
p57
aS'Event'
p58
aa(lp59
S'Bangalore'
p60
aS'210'
p61
aS'Event'
p62
aa(lp63
S'Coimbatore'
p64
aS'219'
p65
aS'Accused Location'
p66
aa(lp67
S'Coimbatore'
p68
aS'226'
p69
aS'Accused Location'
p70
aasS'PER'
p71
(lp72
(lp73
S'Kichan Buhari'
p74
aS'104'
p75
aS'Accused'
p76
aa(lp77
S'Askar Ali'
p78
aS'107'
p79
aS'Accused'
p80
aa(lp81
S'Valayal Hakkim'
p82
aS'110'
p83
aS'Accused'
p84
aa(lp85
S'Thenkasi Sulaiman'
p86
aS'113'
p87
aS'Accused'
p88
aa(lp89
S'Olongo'
p90
aS'116'
p91
aS'Accused'
p92
aa(lp93
S'Suleiman'
p94
aS'118'
p95
aS'Accused'
p96
aa(lp97
S'Rahmatullah'
p98
aS'121'
p99
aS'Accused'
p100
aa(lp101
S'Kichan Buhari'
p102
aS'162'
p103
aS'Accused'
p104
aasS'TIM'
p105
(lp106
S'Three-hour : 134'
p107
aS'three hours : 143'
p108
asS'hot_setting'
p109
S''
p110
sS'DAT'
p111
(lp112
S'Tuesday:8'
p113
aS'April 17:28'
p114
aS'April 23:180'
p115
aS'April 14:263'
p116
aS'April 11:283'
p117
asS'death'
p118
g110
sS'title'
p119
S'Karnataka police raid Bangalore blast suspects houses'
p120
sS'det_loc'
p121
(lp122
S'India'
p123
aS'Karnataka'
p124
aS'Bangalore Urban'
p125
aS'Bangalore'
p126
ag110
asS'terror_group'
p127
(lp128
g110
asS'content'
p129
S'A team from the Karnataka police on Tuesday searched the houses of six persons from the city who have been arrested for their alleged involvement in the April 17 Bangalore bomb blast . Police sources said some gelatine sticks and satellite phones were found . They did not , however , provide any further details of the seizure , explaining that the entire operation was done by the team from Karnataka and that the local police had only provided logistical support . According to police sources , a 12-member team from the Karnataka Police , led by a joint commissioner , had brought Kichan Buhari , Askar Ali , Valayal Hakkim , Thenkasi Sulaiman , Olongo alias Suleiman , and Rahmatullah . They were taken to their houses here under heavy security . Three-hour raid The raids , which lasted for nearly three hours , were conducted in Karumbukadai , G.M. Nagar , Kasthuri Garden , Ashok Nagar and Kuniamuthur . Kichan Buhari is one of the prime accused in the blast case and was arrested in Madurai on April 23 by a joint team of Tamil Nadu and Karnataka Police . The Karnataka team , which came with a search warrant from a Bangalore court , returned to Bangalore with the six accused . Eight detained from Coimbatore A total of eight persons from Coimbatore have been detained for their suspected involvement in the Bangalore blasts . Some of these persons are also suspected to be involved in hurling a petrol bomb at Indu Makkal Katchi leader Arjun Sampaths house on April 14 . The last person to be arrested was Zulfiquar Ali alias Boxer Ali , who was nabbed on April 11 in Kannur in Kerala , with the assistance of Coimbatore city police . He was taken to Karnataka . Seventeen persons , including 11 policemen , were injured when a bomb planted in a motorcycle exploded near the Bharatiya Janata Partys office at Malleswaram in Bangalore ahead of the Assembly elections . Police sources said some gelatine sticks and satellite phones were found OPEN'
p130
sS'injured'
p131
g110
sS'org_unorg'
p132
g110
sS'O'
p133
(lp134
S'searched:9'
p135
aS'houses of six persons:11'
p136
aS'city:17'
p137
aS'arrested:21'
p138
aS'alleged involvement:24'
p139
aS'Bangalore bomb blast:30'
p140
aS'gelatine sticks:38'
p141
aS'satellite phones:41'
p142
aS'seizure:58'
p143
aS'explaining:60'
p144
aS'entire operation:63'
p145
aS'logistical support:80'
p146
aS'12-member team:89'
p147
aS'houses:128'
p148
aS'heavy security:131'
p149
aS'The raids:136'
p150
aS'conducted:147'
p151
aS'prime accused:168'
p152
aS'blast case:172'
p153
aS'arrested:176'
p154
aS'joint team:184'
p155
aS'search warrant:201'
p156
aS'returned:208'
p157
aS'six accused:213'
p158
aS'Eight detained:216'
p159
asS'unexpl'
p160
(lp161
g110
asS'ocassion'
p162
g110
sS'link'
p163
S'http://www.thehindu.com/todays-paper/tp-national/tp-tamilnadu/karnataka-police-raid-bangalore-blast-suspects-houses/article4716675.ece'
p164
sS'date'
p165
S'18-04-2013'
p166
sS'target'
p167
g110
sS'hot_spot'
p168
g110
sS'delivery_mod'
p169
g110
sS'delivery_met'
p170
S'PLANTED'
p171
sS'expl'
p172
(lp173
g110
asS'ORG'
p174
(lp175
(lp176
S'Bangalore court'
p177
aS'205'
p178
aS'Others'
p179
aa(lp180
S'Bharatiya Janata Partys'
p181
aS'323'
p182
aS'Others'
p183
aas.