(dp0
S'LOC'
p1
(lp2
(lp3
S'Bavode'
p4
aS'20'
p5
aS'Event'
p6
aa(lp7
S'Chakkarakkal'
p8
aS'23'
p9
aS'Event'
p10
aasS'PER'
p11
(lp12
sS'TIM'
p13
(lp14
S'3 a.m. : 81'
p15
asS'hot_setting'
p16
S''
p17
sS'DAT'
p18
(lp19
S'Friday : 38'
p20
asS'death'
p21
g17
sS'title'
p22
S'CPI(M) branch office attacked'
p23
sS'det_loc'
p24
(lp25
S'India'
p26
aS'Kerala'
p27
aS'Cannanore'
p28
aS'Chakkarakkal'
p29
aS'Branch office of CPI(M), Bavode, Chakkarakkal'
p30
asS'terror_group'
p31
(lp32
S'RASHTRIYA SWAYAMSEVAK SANGH'
p33
asS'content'
p34
S': A building that houses a local library controlled by the Communist Party of India ( Marxist ) at Bavode under the Chakkarakkal police station limits was damaged in a bomb attack in the early hours of Friday . Party workers alleged that the two-storey building , which also functions as the branch office of the CPI ( M ) , was attacked by Rashtriya Swayamsevak Sangh ( RSS ) workers . The police said the attack took place at 3 a.m. . The culprits broke open the door of the building and ransacked the office , said party workers . Furniture in the building was destroyed in the attack . The windowpanes were also destroyed in the blast . The police bomb disposal squad and dog squad examined the spot . The area had been tense over following clashes between CPI ( M ) and RSS workers . OPEN'
p35
sS'injured'
p36
g17
sS'org_unorg'
p37
S'ORGANISED'
p38
sS'O'
p39
(lp40
S'local library:7'
p41
aS'damaged:28'
p42
aS'bomb attack:31'
p43
aS'party workers:40'
p44
aS'two-storey building:45'
p45
aS'branch office:53'
p46
aS'attacked:63'
p47
aS'attack:77'
p48
aS'culprits:85'
p49
aS'ransacked:94'
p50
aS'party workers:99'
p51
aS'furniture:102'
p52
aS'destroyed:107'
p53
aS'attack:110'
p54
aS'windowpanes:113'
p55
aS'destroyed:116'
p56
aS'blast:119'
p57
aS'bomb disposal squad:123'
p58
aS'dog squad:127'
p59
aS'tense:137'
p60
aS'clashes:140'
p61
asS'unexpl'
p62
(lp63
g17
asS'ocassion'
p64
g17
sS'link'
p65
S'http://www.thehindu.com/todays-paper/tp-national/tp-kerala/cpim-branch-office-attacked/article4887343.ece'
p66
sS'date'
p67
S'05-07-2013'
p68
sS'target'
p69
S'OFFICE BUILDING'
p70
sS'hot_spot'
p71
S'A two-storey building which is the branch office of CPI(M) in  Bavode in Chakkarakkal'
p72
sS'delivery_mod'
p73
g17
sS'delivery_met'
p74
g17
sS'expl'
p75
(lp76
g17
asS'ORG'
p77
(lp78
(lp79
S'Communist Party of India ( Marxist )'
p80
aS'12'
p81
aS'Victim'
p82
aa(lp83
S'CPI ( M )'
p84
aS'57'
p85
aS'Victim'
p86
aa(lp87
S'Rashtriya Swayamsevak Sangh'
p88
aS'65'
p89
aS'Accused'
p90
aa(lp91
S'RSS'
p92
aS'69'
p93
aS'Accused'
p94
aa(lp95
S'CPI ( M )'
p96
aS'142'
p97
aS'Victim'
p98
aa(lp99
S'RSS'
p100
aS'147'
p101
aS'Accused'
p102
aas.