(dp0
S'LOC'
p1
(lp2
(lp3
S'Biju Patnaik Airport'
p4
aS'12'
p5
aS'Event'
p6
aa(lp7
S'Patana'
p8
aS'42'
p9
aS'Event'
p10
aa(lp11
S'Jagatsinghpur'
p12
aS'58'
p13
aS'Neutral'
p14
aa(lp15
S'Coimbatore'
p16
aS'80'
p17
aS'Neutral'
p18
aa(lp19
S'Jagatsinghpur'
p20
aS'87'
p21
aS'Neutral'
p22
aa(lp23
S'Kujang'
p24
aS'97'
p25
aS'Neutral'
p26
aa(lp27
S'Jagatsinghpur'
p28
aS'179'
p29
aS'Neutral'
p30
aasS'PER'
p31
(lp32
(lp33
S'Abhay Sahu'
p34
aS'6'
p35
aS'Accused'
p36
aa(lp37
S'Sahu'
p38
aS'20'
p39
aS'Accused'
p40
aa(lp41
S'Satyabrata Bhoi'
p42
aS'63'
p43
aS'Comment'
p44
aa(lp45
S'Sahu'
p46
aS'83'
p47
aS'Accused'
p48
aa(lp49
S'Bhoi'
p50
aS'105'
p51
aS'Comment'
p52
aa(lp53
S'Sahu'
p54
aS'114'
p55
aS'Accused'
p56
aa(lp57
S'Sahus'
p58
aS'186'
p59
aS'Accused'
p60
aa(lp61
S'Sahu'
p62
aS'219'
p63
aS'Others'
p64
aasS'TIM'
p65
(lp66
sS'hot_setting'
p67
S''
p68
sS'DAT'
p69
(lp70
S'Saturday:17'
p71
aS'March 2:55'
p72
aS'Friday:244'
p73
asS'death'
p74
S'3'
p75
sS'title'
p76
S'Anti-Posco leader held'
p77
sS'org_unorg'
p78
S'ORGANISED'
p79
sS'terror_group'
p80
(lp81
g68
asS'content'
p82
S'Posco Pratirodh Sangram Samiti leader Abhay Sahu was arrested from near Biju Patnaik Airport here on Saturday . Mr. Sahu was arrested for his alleged involvement in a case relating to the death of three persons in a bomb blast at Patana village in the area earmarked for the proposed Posco steel plant on March 2 . Jagatsinghpur District Superintendent of Police Satyabrata Bhoi said the anti-Posco leader was arrested while he was about to board a flight to Coimbatore . Mr. Sahu was taken to Jagatsinghpur district where he was produced before a court at Kujang and remanded in judicial custody , Mr. Bhoi said . While it was alleged that Mr. Sahu was behind the blast , the Sangram Samiti had claimed that those killed in the explosion were its activists and bombs had been hurled at them by pro-Posco elements . The arrest comes at a time when the Sangram Samiti activists are continuing their agitation against the construction of a boundary wall along the land acquired for the eight-million tonne capacity steel plant in Jagatsinghpur . The Sangram Samiti condemned Mr. Sahus arrest . The district administration and police were after him as the movement , instead of withering away under severe repression , had gathered more momentum , the Samiti said . Mr. Sahu has been arrested twice in the past in connection with a series of cases relating to the anti-Posco movement . The Supreme Court on Friday set aside an order of the Orissa High Court which had quashed the State governments recommendation to the Centre for grant of prospecting licence to POSCO for the Khandadhar iron ore reserve . OPEN'
p83
sS'injured'
p84
g68
sS'det_loc'
p85
(lp86
S'India'
p87
aS'Bihar'
p88
aS'Patna'
p89
ag68
aS'Patana village,Posco steel plant'
p90
asS'O'
p91
(lp92
S'airport:14'
p93
aS'Posco steel plant:51'
p94
aS'judicial custody:101'
p95
aS'pro-Posco elements:142'
p96
aS'posco:270'
p97
aS'Khandadhar iron ore reserve:273'
p98
asS'unexpl'
p99
(lp100
g68
asS'ocassion'
p101
g68
sS'link'
p102
S'http://www.thehindu.com/todays-paper/tp-national/antiposco-leader-held/article4707776.ece'
p103
sS'date'
p104
S'11-05-2013'
p105
sS'target'
p106
g68
sS'hot_spot'
p107
S'Patana village,Posco steel plant'
p108
sS'delivery_mod'
p109
g68
sS'delivery_met'
p110
g68
sS'expl'
p111
(lp112
S'PRO-POSCO ELEMENTS'
p113
asS'ORG'
p114
(lp115
(lp116
S'Posco Pratirodh Sangram Samiti'
p117
aS'1'
p118
aS'Accused'
p119
aa(lp120
S'Police'
p121
aS'62'
p122
aS'Others'
p123
aa(lp124
S'anti-Posco'
p125
aS'67'
p126
aS'Others'
p127
aa(lp128
S'Sangram Samiti'
p129
aS'121'
p130
aS'Accused'
p131
aa(lp132
S'Sangram Samiti'
p133
aS'153'
p134
aS'Accused'
p135
aa(lp136
S'Sangram Samiti'
p137
aS'182'
p138
aS'Accused'
p139
aa(lp140
S'district administration'
p141
aS'190'
p142
aS'Others'
p143
aa(lp144
S'police'
p145
aS'193'
p146
aS'Others'
p147
aa(lp148
S'Samiti'
p149
aS'215'
p150
aS'Others'
p151
aa(lp152
S'anti-Posco movement'
p153
aS'237'
p154
aS'Others'
p155
aa(lp156
S'Supreme Court on Friday'
p157
aS'241'
p158
aS'Others'
p159
aa(lp160
S'Orissa High Court'
p161
aS'251'
p162
aS'Others'
p163
aa(lp164
S'State governments'
p165
aS'258'
p166
aS'Others'
p167
aas.