(dp0
S'LOC'
p1
(lp2
(lp3
S'Bangalore'
p4
aS'10'
p5
aS'Event'
p6
aa(lp7
S'Kannur'
p8
aS'18'
p9
aS'Neutral'
p10
aa(lp11
S'Kerala'
p12
aS'20'
p13
aS'Neutral'
p14
aa(lp15
S'Coimbatore'
p16
aS'27'
p17
aS'Neutral'
p18
aa(lp19
S'Coimbatore'
p20
aS'35'
p21
aS'Neutral'
p22
aa(lp23
S'Bangalore'
p24
aS'41'
p25
aS'Event'
p26
aa(lp27
S'Bangalore'
p28
aS'70'
p29
aS'Event'
p30
aa(lp31
S'Karnataka'
p32
aS'73'
p33
aS'Neutral'
p34
aa(lp35
S'Coimbatore Prison'
p36
aS'83'
p37
aS'Neutral'
p38
aa(lp39
S'Indu Makkal Katchi'
p40
aS'98'
p41
aS'Neutral'
p42
aa(lp43
S'Kichan Buhari'
p44
aS'125'
p45
aS'Neutral'
p46
aa(lp47
S'Madurai'
p48
aS'141'
p49
aS'Neutral'
p50
aa(lp51
S'Tamil Nadu'
p52
aS'150'
p53
aS'Neutral'
p54
aa(lp55
S'Karnataka'
p56
aS'153'
p57
aS'Neutral'
p58
aa(lp59
S'Coimbatore Central Prison'
p60
aS'186'
p61
aS'Neutral'
p62
aa(lp63
S'Coimbatore'
p64
aS'191'
p65
aS'Assoc Event Location'
p66
aa(lp67
S'Coimbatore'
p68
aS'214'
p69
aS'Neutral'
p70
aa(lp71
S'Coimbatore'
p72
aS'220'
p73
aS'Accused Location'
p74
aa(lp75
S'Kannur'
p76
aS'226'
p77
aS'Neutral'
p78
aa(lp79
S'Coimbatore'
p80
aS'241'
p81
aS'Accused Location'
p82
aa(lp83
S'Coimbatore'
p84
aS'256'
p85
aS'Neutral'
p86
aa(lp87
S'Bangalore'
p88
aS'260'
p89
aS'Event'
p90
aasS'PER'
p91
(lp92
(lp93
S'Zulfiquar Ali'
p94
aS'45'
p95
aS'Accused'
p96
aa(lp97
S'Boxer Ali'
p98
aS'48'
p99
aS'Accused'
p100
aa(lp101
S'Arjun Sampaths'
p102
aS'102'
p103
aS'Accused'
p104
aa(lp105
S'Zulfiquar Ali'
p106
aS'117'
p107
aS'Accused'
p108
aa(lp109
S'Zulfiquar Ali'
p110
aS'173'
p111
aS'Accused'
p112
aa(lp113
S'Kichan Buhari'
p114
aS'268'
p115
aS'Accused'
p116
aa(lp117
S'Rahmatullah'
p118
aS'271'
p119
aS'Accused'
p120
aa(lp121
S'Syed Suleiman'
p122
aS'273'
p123
aS'Accused'
p124
aa(lp125
S'Saddam Hussein'
p126
aS'276'
p127
aS'Accused'
p128
aa(lp129
S'Olongo Suleiman'
p130
aS'279'
p131
aS'Accused'
p132
aa(lp133
S'Askar Ali'
p134
aS'282'
p135
aS'Accused'
p136
aa(lp137
S'Valayal Hakkim'
p138
aS'285'
p139
aS'Accused'
p140
aasS'TIM'
p141
(lp142
sS'hot_setting'
p143
S''
p144
sS'DAT'
p145
(lp146
S'April 17:8'
p147
aS'Friday:16'
p148
aS'April 14:106'
p149
aS'April 23:143'
p150
asS'death'
p151
g144
sS'title'
p152
S'Suspect in Bangalore blast nabbed in Kannur'
p153
sS'det_loc'
p154
(lp155
S'India'
p156
aS'Karnataka'
p157
aS'Bangalore Urban'
p158
aS'Bangalore'
p159
ag144
asS'terror_group'
p160
(lp161
S'AL-UMMAH'
p162
asS'content'
p163
S'One of the main suspects behind the April 17 Bangalore bomb blast was nabbed on Friday in Kannur , Kerala , with the assistance of the Coimbatore City Police . The eighth person from Coimbatore to be arrested in the Bangalore blast case , Zulfiquar Ali alias Boxer Ali is suspected to have parked the explosive-laden motorcycle , according to police sources . He has been taken away to Bangalore . The Karnataka police have already interrogated a few suspects lodged in Coimbatore Prison after being arrested for their alleged role in hurling a petrol explosive at Indu Makkal Katchi leader Arjun Sampaths house on April 14 . A suspected Al-Umma activist , the police said Zulfiquar Ali had received training in bomb-making from Kichan Buhari , one of the prime accused in the blast case who was arrested in Madurai on April 23 by a special team of Tamil Nadu and Karnataka police . Police are also probing the source of ammonium nitrate , the explosive used in bomb blast . Zulfiquar Ali had also visited two convicts belonging to a fundamentalist outfit in Coimbatore Central Prison in the Coimbatore serial blasts case . He is suspected to have close links with some of the other persons arrested in this case from Coimbatore . He was born in Coimbatore and his family hails from Kannur . He has a degree in Electrical and Electronics Engineering and was working in Coimbatore as a scrap dealer , police sources added . The seven others hailing from Coimbatore arrested in the Bangalore blast case are : the prime accused Kichan Buhari , Rahmatullah , Syed Suleiman , Saddam Hussein , Olongo Suleiman , Askar Ali and Valayal Hakkim . OPEN'
p164
sS'injured'
p165
g144
sS'org_unorg'
p166
g144
sS'O'
p167
(lp168
S'main suspects:4'
p169
aS'Bangalore bomb blast:10'
p170
aS'nabbed:14'
p171
aS'eighth person:32'
p172
aS'arrested:38'
p173
aS'Bangalore blast case:41'
p174
aS'suspected:51'
p175
aS'parked:54'
p176
aS'explosive-laden motorcycle:56'
p177
aS'interrogated:77'
p178
aS'suspects:80'
p179
aS'arrested:87'
p180
aS'alleged role:90'
p181
aS'hurling:93'
p182
aS'explosive:96'
p183
aS'training:121'
p184
aS'bomb-making:123'
p185
aS'prime accused:131'
p186
aS'blast case:135'
p187
aS'arrested:139'
p188
aS'special team:147'
p189
aS'probing:159'
p190
aS'ammonium nitrate:163'
p191
aS'explosive:167'
p192
aS'bomb blast:170'
p193
aS'two convicts:178'
p194
aS'fundamentalist outfit:183'
p195
aS'Coimbatore serial blasts case:191'
p196
aS'suspected:198'
p197
aS'close links:201'
p198
aS'arrested:209'
p199
aS'Electrical and Electronics Engineering:233'
p200
aS'scrap dealer:244'
p201
aS'arrested:257'
p202
aS'Bangalore blast case:260'
p203
asS'unexpl'
p204
(lp205
g144
asS'ocassion'
p206
g144
sS'link'
p207
S'http://www.thehindu.com/todays-paper/tp-national/tp-newdelhi/suspect-in-bangalore-blast-nabbed-in-kannur/article4707843.ece'
p208
sS'date'
p209
S'17-04-2013'
p210
sS'target'
p211
S'CITY'
p212
sS'hot_spot'
p213
g144
sS'delivery_mod'
p214
g144
sS'delivery_met'
p215
S'PLANTED'
p216
sS'expl'
p217
(lp218
S'AMMONIUM NITRATE'
p219
asS'ORG'
p220
(lp221
(lp222
S'Coimbatore City Police'
p223
aS'27'
p224
aS'Others'
p225
aa(lp226
S'Al-Umma'
p227
aS'111'
p228
aS'Accused'
p229
aas.