(dp0
S'LOC'
p1
(lp2
(lp3
S'Hyderabad'
p4
aS'34'
p5
aS'Event'
p6
aa(lp7
S'Bangalore'
p8
aS'86'
p9
aS'Neutral'
p10
aa(lp11
S'Tihar Jail'
p12
aS'133'
p13
aS'Neutral'
p14
aa(lp15
S'Hyderabad'
p16
aS'201'
p17
aS'Event'
p18
aa(lp19
S'Bangalore'
p20
aS'244'
p21
aS'Neutral'
p22
aa(lp23
S'Tihar Jail'
p24
aS'322'
p25
aS'Neutral'
p26
aa(lp27
S'Delhi'
p28
aS'328'
p29
aS'Neutral'
p30
aa(lp31
S'Pune'
p32
aS'334'
p33
aS'Event'
p34
aa(lp35
S'Hyderabad'
p36
aS'351'
p37
aS'Event'
p38
aa(lp39
S'Dilsukhnagar'
p40
aS'353'
p41
aS'Event'
p42
aa(lp43
S'Hyderabad'
p44
aS'385'
p45
aS'Event'
p46
aa(lp47
S'Hyderabad'
p48
aS'432'
p49
aS'Event'
p50
aasS'PER'
p51
(lp52
(lp53
S'Syed Maqbool'
p54
aS'63'
p55
aS'Accused'
p56
aa(lp57
S'Imran Khan'
p58
aS'66'
p59
aS'Accused'
p60
aa(lp61
S'Obaid-Ur-Rehman'
p62
aS'79'
p63
aS'Accused'
p64
aa(lp65
S'I S Mehta'
p66
aS'112'
p67
aS'Comment'
p68
aa(lp69
S'Maqbool'
p70
aS'124'
p71
aS'Accused'
p72
aa(lp73
S'Imran'
p74
aS'126'
p75
aS'Accused'
p76
aa(lp77
S'Maqbool'
p78
aS'160'
p79
aS'Accused'
p80
aa(lp81
S'Imran'
p82
aS'162'
p83
aS'Accused'
p84
aa(lp85
S'Obaid-Ur-Rehman'
p86
aS'164'
p87
aS'Accused'
p88
aa(lp89
S'Maqbool'
p90
aS'179'
p91
aS'Accused'
p92
aa(lp93
S'Imran'
p94
aS'181'
p95
aS'Accused'
p96
aa(lp97
S'Rehman'
p98
aS'208'
p99
aS'Accused'
p100
aa(lp101
S'Rehman'
p102
aS'266'
p103
aS'Accused'
p104
aa(lp105
S'Maqbool'
p106
aS'299'
p107
aS'Accused'
p108
aa(lp109
S'Imran'
p110
aS'301'
p111
aS'Accused'
p112
aa(lp113
S'Maqbool'
p114
aS'316'
p115
aS'Others'
p116
aa(lp117
S'Imran'
p118
aS'318'
p119
aS'Others'
p120
aa(lp121
S'Riyaz Bhatkal'
p122
aS'371'
p123
aS'Accused'
p124
aa(lp125
S'Iqbal Bhatkal'
p126
aS'387'
p127
aS'Accused'
p128
aa(lp129
S'Mohsim Chaudhary'
p130
aS'390'
p131
aS'Accused'
p132
aa(lp133
S'Amir Reza Khan'
p134
aS'393'
p135
aS'Accused'
p136
aa(lp137
S'Shahnawaz Alam'
p138
aS'397'
p139
aS'Accused'
p140
aa(lp141
S'Asadullah Akhtar'
p142
aS'400'
p143
aS'Accused'
p144
aa(lp145
S'Ariz Khan'
p146
aS'403'
p147
aS'Accused'
p148
aa(lp149
S'Mohd Khalid'
p150
aS'406'
p151
aS'Accused'
p152
aa(lp153
S'Mirza Shadaab Beg'
p154
aS'409'
p155
aS'Accused'
p156
aa(lp157
S'Mohd Sajid'
p158
aS'413'
p159
aS'Accused'
p160
aa(lp161
S'Riyaz Bhatkal'
p162
aS'450'
p163
aS'Others'
p164
aasS'TIM'
p165
(lp166
sS'hot_setting'
p167
S''
p168
sS'DAT'
p169
(lp170
S'Friday:6'
p171
aS'February 21:32'
p172
aS'March 20:97'
p173
aS'March 13:216'
p174
aS'August 2012:332'
p175
asS'death'
p176
g168
sS'title'
p177
S'Production warrants against two IM men in connection with twin blasts'
p178
sS'det_loc'
p179
(lp180
S'India'
p181
ag168
ag168
aS'Hyderabad'
p182
aS'Hyderabad'
p183
asS'terror_group'
p184
(lp185
S'INDIAN MUJAHIDEEN'
p186
asS'content'
p187
S"Tihar Jail authorities were on Friday directed by a Delhi court to produce before it tomorrow the two arrested Indian Mujahideen operatives whose roles are under investigation in connection with the February 21 Hyderabad twin blasts case which claimed 16 lives and left 79 injured . The National Investigation Agency ( NIA ) has moved an application seeking further custodial interrogation of Syed Maqbool and Imran Khan during which they would be confronted with another alleged IM operative Obaid-Ur-Rehman , who has been brought from Bangalore Central Jail and is presently in NIA 's custody till March 20 in connection with the case . During an in-chamber hearing , District Judge I S Mehta allowed NIA 's plea and issued production warrants against Maqbool and Imran , who are currently lodged in Tihar Jail under judicial custody , the court sources said . Conflicting statements The sources said the NIA told the court that they need to confront both Maqbool and Imran with Obaid-Ur-Rehman as some conflicting statements have been given by them during their separate interrogation . Maqbool and Imran were earlier remanded to NIA 's custody for five days by the court during which they were taken to Hyderabad in connection with the blasts . Rehman was remanded to NIA 's custody on March 13 after the agency had submitted that his custodial interrogation was required to unearth the entire conspiracy which led to the bombings . He was brought from Bangalore jail after the court had issued production warrant against him . Sources had said the NIA had told the court that Rehman was a key IM operative and he may give some vital information against the banned group 's members who were involved in the blasts . The NIA had told the court that Maqbool and Imran had revealed some important facts about the blasts , the sources had said . Maqbool and Imran were lodged in Tihar Jail after their arrest by Delhi Police in the August 2012 Pune blast case . The NIA had told the court that the duo did a recce at Hyderabad 's Dilsukhnagar area where the blasts took place . The court had also issued non-bailable warrants against IM founder Riyaz Bhatkal and nine other operatives of the banned group in connection with the Hyderabad blasts Iqbal Bhatkal , Mohsim Chaudhary , Amir Reza Khan , Shahnawaz Alam , Asadullah Akhtar , Ariz Khan , Mohd Khalid , Mirza Shadaab Beg and Mohd Sajid . According to the sources , the NIA had told the judge that the conspiracy behind the Hyderabad blasts was hatched by the IM modules and the blasts took place on the alleged instructions of Riyaz Bhatkal . - PTI OPEN"
p188
sS'injured'
p189
g168
sS'org_unorg'
p190
S'ORGANISED'
p191
sS'O'
p192
(lp193
S'tihar jail:1'
p194
aS'connection:29'
p195
aS'twin:35'
p196
aS'national investigation:48'
p197
aS'investigation agency:49'
p198
aS'interrogation:61'
p199
aS'custody:95'
p200
aS'judicial custody:136'
p201
aS'conspiracy:233'
p202
aS'jail:245'
p203
aS'arrest:326'
p204
aS'blast case:335'
p205
aS'duo:346'
p206
aS'recce:349'
p207
aS'judge:426'
p208
aS'conspiracy:429'
p209
asS'unexpl'
p210
(lp211
g168
asS'ocassion'
p212
g168
sS'link'
p213
S'http://www.thehindu.com/todays-paper/tp-national/tp-andhrapradesh/production-warrants-against-two-im-men-in-connection-with-twin-blasts/article4514590.ece'
p214
sS'date'
p215
S'21-02-2013'
p216
sS'target'
p217
g168
sS'hot_spot'
p218
S'Hyderabad'
p219
sS'delivery_mod'
p220
g168
sS'delivery_met'
p221
g168
sS'expl'
p222
(lp223
g168
asS'ORG'
p224
(lp225
(lp226
S'Delhi court'
p227
aS'10'
p228
aS'Others'
p229
aa(lp230
S'Indian Mujahideen'
p231
aS'20'
p232
aS'Accused'
p233
aa(lp234
S'National Investigation Agency'
p235
aS'48'
p236
aS'Others'
p237
aa(lp238
S'NIA'
p239
aS'52'
p240
aS'Others'
p241
aa(lp242
S'IM'
p243
aS'77'
p244
aS'Accused'
p245
aa(lp246
S'Bangalore Central Jail'
p247
aS'86'
p248
aS'Others'
p249
aa(lp250
S'NIA'
p251
aS'93'
p252
aS'Others'
p253
aa(lp254
S'District Judge'
p255
aS'110'
p256
aS'Others'
p257
aa(lp258
S'NIA'
p259
aS'116'
p260
aS'Others'
p261
aa(lp262
S'NIA'
p263
aS'150'
p264
aS'Others'
p265
aa(lp266
S'NIA'
p267
aS'186'
p268
aS'Others'
p269
aa(lp270
S'NIA'
p271
aS'212'
p272
aS'Others'
p273
aa(lp274
S'NIA'
p275
aS'260'
p276
aS'Others'
p277
aa(lp278
S'IM'
p279
aS'270'
p280
aS'Accused'
p281
aa(lp282
S'NIA'
p283
aS'293'
p284
aS'Others'
p285
aa(lp286
S'Police'
p287
aS'329'
p288
aS'Others'
p289
aa(lp290
S'NIA'
p291
aS'339'
p292
aS'Others'
p293
aa(lp294
S'IM'
p295
aS'369'
p296
aS'Accused'
p297
aa(lp298
S'NIA'
p299
aS'422'
p300
aS'Others'
p301
aa(lp302
S'IM'
p303
aS'438'
p304
aS'Accused'
p305
aas.