(dp0
S'LOC'
p1
(lp2
(lp3
S'Kudankulam'
p4
aS'2'
p5
aS'Neutral'
p6
aa(lp7
S'coastal village'
p8
aS'16'
p9
aS'Neutral'
p10
aa(lp11
S'Kooththenkuzhi'
p12
aS'19'
p13
aS'Event'
p14
aa(lp15
S'Kooththenkuzhi'
p16
aS'38'
p17
aS'Event'
p18
aa(lp19
S'Kudankulam'
p20
aS'55'
p21
aS'Event'
p22
aa(lp23
S'Kudankulam'
p24
aS'109'
p25
aS'Event'
p26
aa(lp27
S'Kooththenkuzhi'
p28
aS'118'
p29
aS'Accused Location'
p30
aa(lp31
S'Thirumurugan'
p32
aS'126'
p33
aS'Accused Location'
p34
aa(lp35
S'Kooththenkuzhi'
p36
aS'151'
p37
aS'Accused Location'
p38
aasS'PER'
p39
(lp40
(lp41
S'Mr.Thirumurugan'
p42
aS'171'
p43
aS'Others'
p44
aa(lp45
S'Jesuvadiyan'
p46
aS'191'
p47
aS'Accused'
p48
aasS'TIM'
p49
(lp50
S'night : 155'
p51
asS'hot_setting'
p52
S''
p53
sS'DAT'
p54
(lp55
S'Monday:21'
p56
aS'Monday:44'
p57
aS'Sunday:154'
p58
asS'death'
p59
g53
sS'title'
p60
S'Country bomb blasts rock coastal village'
p61
sS'det_loc'
p62
(lp63
S'India'
p64
aS'Tamil Nadu'
p65
aS'Tirunelveli'
p66
ag53
aS'coastal village of Kooththenkuzhi'
p67
asS'terror_group'
p68
(lp69
g53
asS'content'
p70
S'The Kudankulam police are investigating the mysterious blasts that occurred on the outskirts of the coastal village of Kooththenkuzhi on Monday . The police said two country bombs exploded in the forest area on the outskirts of Kooththenkuzhi in the early hours of Monday . No one was injured in the incident . The Kudankulam police , who conducted an investigation , said the ongoing rivalry between two groups in the coastal hamlet could have been behind the latest explosion . The police said the country bombs made by one of the groups and concealed in the forest area might have gone off accidentally . Meanwhile , the Kudankulam police registered a case against 11 persons from Kooththenkuzhi for attempting to murder Sub-Inspector of Police Thirumurugan by running a sand-laden lorry on him . The police said the mini-lorry with the illegally quarried sand was intercepted by the police near Kooththenkuzhi intersection on Sunday night during a vehicle check . However , the illicit sand miners tried to mow down Mr.Thirumurugan and escaped . However , the police officer escaped unhurt . Subsequently , the police registered case against one Jesuvadiyan and 10 others . OPEN'
p71
sS'injured'
p72
g53
sS'org_unorg'
p73
S'ORGANISED'
p74
sS'O'
p75
(lp76
S'mysterious blasts:7'
p77
aS'outskirts:13'
p78
aS'rivalry:66'
p79
aS'coastal hamlet:72'
p80
aS'country:86'
p81
aS'forest area:98'
p82
aS'murder:122'
p83
aS'sub-inspector of police:123'
p84
aS'sand-laden lorry:130'
p85
aS'mini-lorry:139'
p86
aS'police:149'
p87
aS'illicit sand miners:164'
p88
aS'officer:179'
p89
asS'unexpl'
p90
(lp91
g53
asS'ocassion'
p92
g53
sS'link'
p93
S'http://www.thehindu.com/todays-paper/tp-national/tp-tamilnadu/country-bomb-blasts-rock-coastal-village/article4802477.ece'
p94
sS'date'
p95
S'10-06-2013'
p96
sS'target'
p97
g53
sS'hot_spot'
p98
S'coastal village of Kooththenkuzhi,forest area'
p99
sS'delivery_mod'
p100
S'FOREST AREA'
p101
sS'delivery_met'
p102
S'STORED'
p103
sS'expl'
p104
(lp105
g53
asS'ORG'
p106
(lp107
(lp108
S'police'
p109
aS'3'
p110
aS'Others'
p111
aa(lp112
S'police'
p113
aS'24'
p114
aS'Others'
p115
aa(lp116
S'police'
p117
aS'56'
p118
aS'Others'
p119
aa(lp120
S'police'
p121
aS'83'
p122
aS'Others'
p123
aa(lp124
S'police'
p125
aS'110'
p126
aS'Others'
p127
aa(lp128
S'Police'
p129
aS'125'
p130
aS'Others'
p131
aa(lp132
S'police'
p133
aS'136'
p134
aS'Others'
p135
aa(lp136
S'police'
p137
aS'149'
p138
aS'Others'
p139
aa(lp140
S'police'
p141
aS'178'
p142
aS'Others'
p143
aa(lp144
S'police'
p145
aS'186'
p146
aS'Others'
p147
aas.