(dp0
S'LOC'
p1
(lp2
(lp3
S'Dilsukhnagar'
p4
aS'12'
p5
aS'Event'
p6
aasS'PER'
p7
(lp8
(lp9
S'Mayor Mohd .'
p10
aS'27'
p11
aS'Others'
p12
aa(lp13
S'Majid Hussain'
p14
aS'30'
p15
aS'Others'
p16
aa(lp17
S'Mayor Rajkumar'
p18
aS'50'
p19
aS'Others'
p20
aa(lp21
S'M.T. Krishna Babu'
p22
aS'55'
p23
aS'Others'
p24
aa(lp25
S'V. Ramulu'
p26
aS'70'
p27
aS'Victim'
p28
aa(lp29
S'Swapna Reddy'
p30
aS'73'
p31
aS'Victim'
p32
aa(lp33
S'Mohd . Rafiuddin'
p34
aS'76'
p35
aS'Victim'
p36
aa(lp37
S'N. Venkateswarlu'
p38
aS'80'
p39
aS'Victim'
p40
aa(lp41
S'Aijaz Ahmed'
p42
aS'83'
p43
aS'Victim'
p44
aa(lp45
S'Ahmedullah Khan'
p46
aS'86'
p47
aS'Victim'
p48
aasS'TIM'
p49
(lp50
sS'hot_setting'
p51
S''
p52
sS'DAT'
p53
(lp54
S'Tuesday:44'
p55
asS'death'
p56
S'17'
p57
sS'title'
p58
S'GHMCs compensation for victims of twin blasts'
p59
sS'det_loc'
p60
(lp61
S'India'
p62
ag52
ag52
aS'HYDERABAD'
p63
aS' Dilsukhnagar'
p64
asS'terror_group'
p65
(lp66
g52
asS'content'
p67
S'Family members of six of the 17 persons killed in the Dilsukhnagar twin bomb blasts were handed over ex-gratia of Rs . 1 lakh each by Mayor Mohd . Majid Hussain at the Greater Hyderabad Municipal Corporation ( GHMC ) head office on Tuesday . Ex-gratia in phases Deputy Mayor Rajkumar and GHMC Commissioner M.T. Krishna Babu were also present when the cheques were issued to the families of V. Ramulu , Swapna Reddy , Mohd . Rafiuddin , N. Venkateswarlu , Aijaz Ahmed and Ahmedullah Khan . Ex-gratia for the rest too would be given in phases , an official spokesperson of the GHMC said . OPEN'
p68
sS'injured'
p69
g52
sS'org_unorg'
p70
S'ORGANISED'
p71
sS'O'
p72
(lp73
S'family members:1'
p74
aS'twin bomb:13'
p75
aS'handed:17'
p76
aS'ex-gratia:19'
p77
aS'head office:41'
p78
asS'unexpl'
p79
(lp80
g52
asS'ocassion'
p81
g52
sS'link'
p82
S'http://www.thehindu.com/todays-paper/tp-national/tp-andhrapradesh/ghmcs-compensation-for-victims-of-twin-blasts/article4575630.ece'
p83
sS'date'
p84
S'02-04-2013'
p85
sS'target'
p86
g52
sS'hot_spot'
p87
S'  Dilsukhnagar'
p88
sS'delivery_mod'
p89
g52
sS'delivery_met'
p90
g52
sS'expl'
p91
(lp92
g52
asS'ORG'
p93
(lp94
(lp95
S'Greater Hyderabad Municipal Corporation'
p96
aS'34'
p97
aS'Others'
p98
aa(lp99
S'GHMC'
p100
aS'39'
p101
aS'Others'
p102
aa(lp103
S'GHMC Commissioner'
p104
aS'53'
p105
aS'Others'
p106
aa(lp107
S'GHMC'
p108
aS'105'
p109
aS'Others'
p110
aas.