(dp0
S'LOC'
p1
(lp2
(lp3
S'Afghanistan'
p4
aS'9'
p5
aS'Event'
p6
aa(lp7
S'Kandahar'
p8
aS'74'
p9
aS'Event'
p10
aa(lp11
S'Helmand'
p12
aS'87'
p13
aS'Event'
p14
aa(lp15
S'Farah'
p16
aS'98'
p17
aS'Event'
p18
aa(lp19
S'Afghanistan'
p20
aS'101'
p21
aS'Event'
p22
aa(lp23
S'Kunduz'
p24
aS'115'
p25
aS'Event'
p26
aasS'PER'
p27
(lp28
sS'TIM'
p29
(lp30
S'24 hours : 11'
p31
asS'hot_setting'
p32
S''
p33
sS'DAT'
p34
(lp35
S'Sunday:17'
p36
aS'Sunday:89'
p37
asS'death'
p38
S'46'
p39
sS'title'
p40
S'Bombs kill 23 Afghan policemen'
p41
sS'org_unorg'
p42
g33
sS'terror_group'
p43
(lp44
g33
asS'content'
p45
S'Insurgents killed a total of 23 policemen across Afghanistan within 24 hours , officials said on Sunday , reflecting the increasing police role in the war before the withdrawal of NATO troops . Thirteen died in roadside bomb blasts , while 10 were killed in a suicide attack . A powerful bomb killed eight police officers along with three suspected bombers they had detained on the outskirts of the troubled southern city of Kandahar . Three other policemen were killed in another roadside bombing in neighbouring Helmand on Sunday and two died in a similar attack in Farah in western Afghanistan overnight . The incidents followed a suicide bombing in the northern city of Kunduz that killed 10 policemen . AFP OPEN'
p46
sS'injured'
p47
g33
sS'det_loc'
p48
(lp49
S'Afghanistan'
p50
ag33
ag33
ag33
ag33
asS'O'
p51
(lp52
S'Insurgents killed:1'
p53
aS'increasing police role:21'
p54
aS'war:26'
p55
aS'withdrawal:29'
p56
aS'NATO troops:31'
p57
aS'roadside bomb blasts:37'
p58
aS'suicide attack:47'
p59
aS'powerful bomb:51'
p60
aS'three suspected bombers:59'
p61
aS'detained:64'
p62
aS'outskirts:67'
p63
aS'roadside bombing:83'
p64
aS'similar attack:95'
p65
aS'incidents:105'
p66
aS'suicide bombing:108'
p67
asS'unexpl'
p68
(lp69
g33
asS'ocassion'
p70
g33
sS'link'
p71
S'http://www.thehindu.com/todays-paper/tp-international/bombs-kill-23-afghan-policemen/article4351992.ece'
p72
sS'date'
p73
S'27-01-2013'
p74
sS'target'
p75
S'MILLITARY TROOPS'
p76
sS'hot_spot'
p77
g33
sS'delivery_mod'
p78
g33
sS'delivery_met'
p79
S'PLANTED'
p80
sS'expl'
p81
(lp82
g33
asS'ORG'
p83
(lp84
(lp85
S'NATO'
p86
aS'31'
p87
aS'Others'
p88
aa(lp89
S'AFP'
p90
aS'121'
p91
aS'Others'
p92
aas.