(dp0
S'LOC'
p1
(lp2
(lp3
S'Malegaon'
p4
aS'28'
p5
aS'Event'
p6
aa(lp7
S'Bombay'
p8
aS'45'
p9
aS'Neutral'
p10
aa(lp11
S'Mumbai'
p12
aS'75'
p13
aS'Neutral'
p14
aa(lp15
S'Maharashtra'
p16
aS'81'
p17
aS'Event'
p18
aa(lp19
S'Malegaon'
p20
aS'147'
p21
aS'Event'
p22
aa(lp23
S'Nashik'
p24
aS'149'
p25
aS'Event'
p26
aa(lp27
S'Maharashtra'
p28
aS'175'
p29
aS'Event'
p30
aa(lp31
S'Malegaon'
p32
aS'335'
p33
aS'Event'
p34
aasS'PER'
p35
(lp36
(lp37
S'K.P. Raghuvanshi'
p38
aS'71'
p39
aS'Assoc Accused'
p40
aa(lp41
S'A.N. Roy'
p42
aS'77'
p43
aS'Assoc Accused'
p44
aa(lp45
S'Sanjeev Dayal'
p46
aS'83'
p47
aS'Assoc Accused'
p48
aa(lp49
S'Sayyad Ameen Mustafa'
p50
aS'89'
p51
aS'Assoc Accused'
p52
aa(lp53
S'Swami Aseemanand'
p54
aS'258'
p55
aS'Accused'
p56
aa(lp57
S'Prithvi Raj Chavan'
p58
aS'280'
p59
aS'Others'
p60
aa(lp61
S'Rajendra Chaudhary'
p62
aS'317'
p63
aS'Accused'
p64
aa(lp65
S'Dhan Singh'
p66
aS'320'
p67
aS'Accused'
p68
aa(lp69
S'Manohar'
p70
aS'323'
p71
aS'Accused'
p72
aa(lp73
S'Ramchandra Kalsangra'
p74
aS'325'
p75
aS'Accused'
p76
aa(lp77
S'Ejaz Naqvi'
p78
aS'394'
p79
aS'Others'
p80
aa(lp81
S'Mr. Naqvi'
p82
aS'450'
p83
aS'Others'
p84
aa(lp85
S'Raghuvanshi'
p86
aS'508'
p87
aS'Others'
p88
aa(lp89
S'Raghuvanshi'
p90
aS'528'
p91
aS'Others'
p92
aasS'TIM'
p93
(lp94
sS'hot_setting'
p95
S''
p96
sS'DAT'
p97
(lp98
S'2006 : 27'
p99
aS'September 8 , 2006 : 142'
p100
aS'December 21 , 2006 : 185'
p101
aS'February 11 , 2010 : 223'
p102
aS'April 2012 : 246'
p103
aS'May 22 , 2013 : 272'
p104
aS'September 8 , 2006 : 337'
p105
asS'death'
p106
g96
sS'title'
p107
S'Act against IPS officers who framed Muslims in Malegaon blasts case: PIL'
p108
sS'org_unorg'
p109
g96
sS'terror_group'
p110
(lp111
g96
asS'content'
p112
S'A month after the National Investigation Agencys ( NIA ) charge sheet exposed the flawed probe conducted by Maharashtras Anti-Terrorism Squad ( ATS ) into the 2006 Malegaon bomb blasts , a public interest litigation ( PIL ) petition has been filed in the Bombay High Court against 15 former and serving IPS officers who conducted the investigation . Among those made respondents in the PIL were former ATS chief K.P. Raghuvanshi ; former Mumbai Commissioner A.N. Roy ; and Maharashtra DGP Sanjeev Dayal . The petitioner , Sayyad Ameen Mustafa of Muslim-e-Hind , urged the court to set up an independent special investigation team ( SIT ) to probe the blasts and register an FIR against the guilty officers , who allegedly framed innocent Muslim youth in the case . The ATS which probed four explosions that took place on September 8 , 2006 at Malegaon in Nashik district arrested nine Muslim youths and alleged them to be the members of the banned Students Islamic Movement of India ( SIMI ) . The Maharashtra government transferred the blasts case to the CBI on December 21 , 2006 even as the ATS filed a charge sheet against the nine arrested and few others . The CBIs probe mirrored that of the ATS and the Central agency filed a supplementary charge sheet on February 11 , 2010 attaching forensic reports and additional witness statements . However , after taking over the investigation from the CBI in April 2012 , NIA , on the basis of confessional statements of Swami Aseemanand , reinvestigated the entire case . It filed a charge sheet on May 22 , 2013 before special NIA judge Prithvi Raj Chavan against four Hindu right-wing activists and three wanted accused . It did not even mention the names of Muslim youths arrested earlier . The PIL said : Further investigation by the NIA revealed that Rajendra Chaudhary , Dhan Singh , Manohar and Ramchandra Kalsangra had planted and caused four bomb blasts in Malegaon on September 8 , 2006 . The petitioner said the respondents were involved in anti-Muslim , anti-minority and anti-human rights acts . They had no faith in the Constitution of India . The respondents have acted in conspiracy with each other to frame innocents and worked/working in close coordination for fulfilling the same till date , Petitioners counsel Ejaz Naqvi said the court should quash the legal proceedings against the accused who are framed in the case . We have requested the court to order and register a cognisable offence against erring officers and the said investigation may be conducted under the monitoring of the two HC judges or an independent SIT , said Mr. Naqvi . He said all the police officers who were then part of the investigation and had now reached senior positions should be made accountable . They destroyed the lives of young innocent men . What right did they have to do this ? They should be punished for this , counsel said . Former ATS chief Raghuvanshi among those made respondents in PILQuash legal proceedings against accused framed in the case : petitioner Former ATS chief Raghuvanshi among those made respondents in PIL Quash legal proceedings against accused framed in the case : petitioner OPEN'
p113
sS'injured'
p114
g96
sS'det_loc'
p115
(lp116
S'India'
p117
aS'Maharashtra'
p118
aS'Nashik'
p119
aS'Malegaon'
p120
ag96
asS'O'
p121
(lp122
S'flawed probe:15'
p123
aS'malegaon bomb blasts:28'
p124
aS'public interest litigation:33'
p125
aS'pil:37'
p126
aS'petition:39'
p127
aS'filed:42'
p128
aS'bombay high court:45'
p129
aS'15 former:49'
p130
aS'ips officers:53'
p131
aS'investigation:58'
p132
aS'respondents:63'
p133
aS'PIL:66'
p134
aS'DGP:82'
p135
aS'petitioner:87'
p136
aS'blasts:112'
p137
aS'register:114'
p138
aS'FIR:116'
p139
aS'guilty officers:119'
p140
aS'innocent Muslim youth:125'
p141
aS'four explosions:136'
p142
aS'arrested nine Muslim youths:151'
p143
aS'Maharashtra government:175'
p144
aS'transferred:177'
p145
aS'blasts case:179'
p146
aS'charge sheet:195'
p147
aS'nine arrested:199'
p148
aS'probe mirrored:207'
p149
aS'Central agency:215'
p150
aS'supplementary charge sheet:219'
p151
aS'forensic reports:228'
p152
aS'witness statements:232'
p153
aS'investigation:241'
p154
aS'confessional statements:255'
p155
aS'reinvestigated:261'
p156
aS'entire case:263'
p157
aS'filed:267'
p158
aS'charge sheet:269'
p159
aS'three wanted accused:289'
p160
aS'Muslim youths:301'
p161
aS'PIL:307'
p162
aS'investigation:311'
p163
aS'bomb blasts:332'
p164
aS'petitioner:343'
p165
aS'respondents:346'
p166
aS'anti-Muslim:350'
p167
aS'anti-minority:352'
p168
aS'anti-human rights acts:354'
p169
aS'no faith:360'
p170
aS'Constitution of India:364'
p171
aS'respondents:369'
p172
aS'conspiracy:373'
p173
aS'frame innocents:378'
p174
aS'Petitioners:392'
p175
aS'quash:400'
p176
aS'legal proceedings:402'
p177
aS'accused:406'
p178
aS'cognisable offence:424'
p179
aS'erring officers:427'
p180
aS'investigation:432'
p181
aS'two HC judges:441'
p182
aS'investigation:465'
p183
aS'destroyed:478'
p184
aS'young innocent men:482'
p185
aS'punished:498'
p186
aS'ATS:506'
p187
aS'respondents:512'
p188
aS'PILQuash legal proceedings:514'
p189
aS'accused:518'
p190
aS'petitioner:524'
p191
aS'respondents:532'
p192
aS'PIL Quash legal proceedings:534'
p193
aS'petitioner:545'
p194
asS'unexpl'
p195
(lp196
g96
asS'ocassion'
p197
g96
sS'link'
p198
S'http://www.thehindu.com/todays-paper/tp-national/act-against-ips-officers-who-framed-muslims-in-malegaon-blasts-case-pil/article4848011.ece'
p199
sS'date'
p200
S'08-09-2006'
p201
sS'target'
p202
g96
sS'hot_spot'
p203
g96
sS'delivery_mod'
p204
g96
sS'delivery_met'
p205
S'PLANTED'
p206
sS'expl'
p207
(lp208
g96
asS'ORG'
p209
(lp210
(lp211
S'National Investigation Agencys'
p212
aS'5'
p213
aS'Others'
p214
aa(lp215
S'NIA'
p216
aS'9'
p217
aS'Others'
p218
aa(lp219
S'Maharashtras Anti-Terrorism Squad'
p220
aS'19'
p221
aS'Others'
p222
aa(lp223
S'ATS'
p224
aS'23'
p225
aS'Others'
p226
aa(lp227
S'ATS'
p228
aS'69'
p229
aS'Others'
p230
aa(lp231
S'Muslim-e-Hind'
p232
aS'93'
p233
aS'Others'
p234
aa(lp235
S'special investigation team'
p236
aS'103'
p237
aS'Others'
p238
aa(lp239
S'SIT'
p240
aS'107'
p241
aS'Others'
p242
aa(lp243
S'ATS'
p244
aS'133'
p245
aS'Others'
p246
aa(lp247
S'Students Islamic Movement of India'
p248
aS'165'
p249
aS'Others'
p250
aa(lp251
S'SIMI'
p252
aS'171'
p253
aS'Others'
p254
aa(lp255
S'CBI'
p256
aS'183'
p257
aS'Others'
p258
aa(lp259
S'ATS'
p260
aS'192'
p261
aS'Others'
p262
aa(lp263
S'CBIs'
p264
aS'206'
p265
aS'Others'
p266
aa(lp267
S'ATS'
p268
aS'212'
p269
aS'Others'
p270
aa(lp271
S'CBI'
p272
aS'244'
p273
aS'Others'
p274
aa(lp275
S'NIA'
p276
aS'249'
p277
aS'Others'
p278
aa(lp279
S'NIA'
p280
aS'278'
p281
aS'Others'
p282
aa(lp283
S'Hindu right-wing'
p284
aS'285'
p285
aS'Others'
p286
aa(lp287
S'NIA'
p288
aS'314'
p289
aS'Others'
p290
aa(lp291
S'SIT'
p292
aS'447'
p293
aS'Others'
p294
aa(lp295
S'ATS'
p296
aS'526'
p297
aS'Others'
p298
aas.