(dp0
S'LOC'
p1
(lp2
(lp3
S'Dimapur railway station'
p4
aS'7'
p5
aS'Neutral'
p6
aa(lp7
S'Dimapur'
p8
ag5
aS'Neutral'
p9
aa(lp10
S'Dimapur railway station'
p11
ag5
aS'Neutral'
p12
aa(lp13
S'poll-bound Nagaland'
p14
aS'12'
p15
aS'Neutral'
p16
aa(lp17
S'Nagaland'
p18
aS'13'
p19
aS'Neutral'
p20
aasS'PER'
p21
(lp22
sS'TIM'
p23
(lp24
sS'hot_setting'
p25
S''
p26
sS'DAT'
p27
(lp28
S'Wednesday morning:18'
p29
aS'Wednesday:18'
p30
asS'death'
p31
S'1'
p32
sS'title'
p33
S'Blast in Dimapur kills one'
p34
sS'det_loc'
p35
(lp36
S'India'
p37
aS'Nagaland'
p38
aS'Dimapur'
p39
ag26
ag26
asS'terror_group'
p40
(lp41
g26
asS'content'
p42
S'A bomb blast close to the Dimapur railway station in the poll-bound Nagaland killed a person on Wednesday morning . OPEN'
p43
sS'injured'
p44
g26
sS'org_unorg'
p45
S'Organized'
p46
sS'O'
p47
(lp48
S'bomb blast:2'
p49
asS'unexpl'
p50
(lp51
g26
asS'ocassion'
p52
g26
sS'link'
p53
S'http://www.thehindu.com/todays-paper/blast-in-dimapur-kills-one/article4437579.ece'
p54
sS'date'
p55
S'17-02-2010'
p56
sS'target'
p57
S'Railway Station'
p58
sS'hot_spot'
p59
g26
sS'delivery_mod'
p60
g26
sS'delivery_met'
p61
g26
sS'expl'
p62
(lp63
g26
asS'ORG'
p64
(lp65
s.