(dp0
S'LOC'
p1
(lp2
(lp3
S'Pakistan'
p4
aS'12'
p5
aS'Event'
p6
aa(lp7
S'Quetta city'
p8
aS'24'
p9
aS'Event'
p10
aa(lp11
S'northwest Pakistan'
p12
aS'67'
p13
aS'Event'
p14
aa(lp15
S'Peshawar'
p16
aS'90'
p17
aS'Event'
p18
aa(lp19
S'Kohat district'
p20
aS'92'
p21
aS'Neutral'
p22
aa(lp23
S'southwestern city of Quetta'
p24
aS'117'
p25
aS'Event'
p26
aa(lp27
S'Hazara town'
p28
aS'128'
p29
aS'Event'
p30
aasS'PER'
p31
(lp32
sS'TIM'
p33
(lp34
sS'hot_setting'
p35
S''
p36
sS'DAT'
p37
(lp38
sS'death'
p39
S'53'
p40
sS'title'
p41
S'Violence rocks Pakistan, 53 dead'
p42
sS'org_unorg'
p43
S'Organized'
p44
sS'terror_group'
p45
(lp46
g36
asS'content'
p47
S'At least 53 people were killed and nearly 140 injured in Pakistan in separate attacks , including a deadly suicide bombing in restive Quetta city . In the first of Sundays attacks , at least 17 people , including four children , were killed and nearly 50 injured when a powerful remotecontrolled bomb targeted a passing convoy of security forces near a busy market here in northwest Pakistan . The blast , believed to be an IED explosion , targeted the convoy of Frontier Corps on their way to Peshawar from Kohat district but narrowly missed it . In the deadliest attack , two bomb blasts near a Shiite mosque killed at least 29 people in southwestern city of Quetta . The suicide bombing at the Shiitemajority Hazara town also injured over 70 persons.PTI OPEN'
p48
sS'injured'
p49
S'120'
p50
sS'det_loc'
p51
(lp52
S'Pakistan'
p53
ag36
ag36
aS'Peshawar'
p54
aS'Quetta city, Siite mosque,Hazara town'
p55
asS'O'
p56
(lp57
S'53 people:3'
p58
aS'killed:6'
p59
aS'140 injured:9'
p60
aS'suicide bombing:20'
p61
aS'four children:40'
p62
aS'powerful remotecontrolled bomb:51'
p63
aS'convoy:57'
p64
aS'security:59'
p65
aS'market:64'
p66
aS'ied explosion:77'
p67
aS'deadliest:101'
p68
aS'attack:102'
p69
aS'suicide bombing:123'
p70
aS'shiitemajority:127'
p71
asS'unexpl'
p72
(lp73
g36
asS'ocassion'
p74
g36
sS'link'
p75
S'http://www.thehindu.com/todays-paper/tp-in-school/violence-rocks-pakistan-53-dead/article4871177.ece'
p76
sS'date'
p77
S'30-06-2013'
p78
sS'target'
p79
S'Police and Defence Forces'
p80
sS'hot_spot'
p81
S'Frontier Corps,Shiite mosque'
p82
sS'delivery_mod'
p83
S'Human'
p84
sS'delivery_met'
p85
S'Planted'
p86
sS'expl'
p87
(lp88
S'IED'
p89
asS'ORG'
p90
(lp91
(lp92
S'Frontier Corps'
p93
aS'84'
p94
aS'Victim'
p95
aa(lp96
S'Shiite mosque'
p97
aS'109'
p98
aS'Victim'
p99
aas.