(dp0
S'LOC'
p1
(lp2
(lp3
S'Nandlalpur'
p4
aS'21'
p5
aS'Event'
p6
aa(lp7
S'Bihars'
p8
aS'24'
p9
aS'Event'
p10
aa(lp11
S'Bhagalpur district'
p12
aS'25'
p13
aS'Event'
p14
aa(lp15
S'Nandlalpur village'
p16
aS'38'
p17
aS'Event'
p18
aa(lp19
S'Kahalgaon'
p20
aS'41'
p21
aS'Neutral'
p22
aa(lp23
S'Kahalgaon'
p24
aS'170'
p25
aS'Neutral'
p26
aasS'PER'
p27
(lp28
(lp29
S'K S Anupam'
p30
aS'75'
p31
aS'Comment'
p32
aa(lp33
S'Ankit Kumar'
p34
aS'81'
p35
aS'Victim'
p36
aa(lp37
S'Radhe Rajak'
p38
aS'119'
p39
aS'Victim'
p40
aa(lp41
S'Gulshan Mandal'
p42
aS'125'
p43
aS'Victim'
p44
aa(lp45
S'Bhojal Sav'
p46
aS'131'
p47
aS'Victim'
p48
aa(lp49
S'Amar Sah'
p50
aS'157'
p51
aS'Victim'
p52
aa(lp53
S'Anupam'
p54
aS'173'
p55
aS'Comment'
p56
aasS'TIM'
p57
(lp58
sS'hot_setting'
p59
S''
p60
sS'DAT'
p61
(lp62
S'Wednesday:19'
p63
asS'death'
p64
S'1'
p65
sS'title'
p66
S'Boy killed as bomb in farmland explodes'
p67
sS'det_loc'
p68
(lp69
S'India'
p70
aS'Bihar'
p71
aS'Bhagalpur'
p72
aS'Bhagalpur'
p73
aS'Nandlalpur'
p74
asS'terror_group'
p75
(lp76
g60
asS'content'
p77
S'A boy was killed and four injured , three of them seriously , in a bomb blast on Wednesday at Nandlalpur village in Bihars Bhagalpur district , a police officer said . The incident took place in Nandlalpur village under Kahalgaon police station as a bomb buried in a farmland with standing pulse crop exploded after some boys dug out the explosive and fiddled with it , Senior Superintendent of Police ( SSP ) K S Anupam said . Twelve-year-old Ankit Kumar died on the spot while four sustained injuries , three of them seriously , she said . The body has been sent for post-mortem in a government hospital , while the three critically injured boys -- Radhe Rajak ( 13 ) , Gulshan Mandal ( 12 ) and Bhojal Sav ( 14 ) -- have been rushed to the Jawaharlal Nehru Medical College and Hospital , the SSP said . Another injured boy , Amar Sah ( 12 ) , was admitted in a Sub-Divisional hospital at Kahalgaon . Ms. Anupam said a bomb disposal squad and forensic team have gone to the spot to investigate the blast as there could be several bombs planted underground by the criminals . -- PTI OPEN'
p78
sS'injured'
p79
S'4'
p80
sS'org_unorg'
p81
S'Unorganized'
p82
sS'O'
p83
(lp84
S'bomb buried:46'
p85
aS'farmland:50'
p86
aS'bomb disposal squad:176'
p87
aS'forensic team:180'
p88
aS'investigate:188'
p89
aS'planted:197'
p90
aS'underground:198'
p91
asS'unexpl'
p92
(lp93
g60
asS'ocassion'
p94
g60
sS'link'
p95
S'http://www.thehindu.com/todays-paper/tp-national/tp-newdelhi/boy-killed-as-bomb-in-farmland-explodes/article4314554.ece'
p96
sS'date'
p97
S'16-01-2013'
p98
sS'target'
p99
S'Farmland'
p100
sS'hot_spot'
p101
S'Farmland with standing pulse crop'
p102
sS'delivery_mod'
p103
g60
sS'delivery_met'
p104
S'Planted'
p105
sS'expl'
p106
(lp107
S'LandMine'
p108
asS'ORG'
p109
(lp110
(lp111
S'Jawaharlal Nehru Medical College and Hospital'
p112
aS'142'
p113
aS'Others'
p114
aa(lp115
S'Sub-Divisional hospital'
p116
aS'167'
p117
aS'Others'
p118
aas.