(dp0
S'LOC'
p1
(lp2
(lp3
S'Gaya'
p4
aS'11'
p5
aS'Source'
p6
aa(lp7
S'Bihar'
p8
aS'58'
p9
aS'Assoc Event Location'
p10
aa(lp11
S'Jharkhand'
p12
aS'60'
p13
aS'Neutral'
p14
aa(lp15
S'Gaya'
p16
aS'88'
p17
aS'Neutral'
p18
aa(lp19
S'Chanderia-Pichhulia'
p20
aS'100'
p21
aS'Source'
p22
aa(lp23
S'Bihar'
p24
aS'113'
p25
aS'Neutral'
p26
aa(lp27
S'Jharkhand'
p28
aS'115'
p29
aS'Assoc Event Location'
p30
aasS'PER'
p31
(lp32
(lp33
S'Nayyar Hasnain Khan'
p34
aS'80'
p35
aS'Comment'
p36
aa(lp37
S'Khan'
p38
aS'126'
p39
aS'Comment'
p40
aasS'TIM'
p41
(lp42
sS'hot_setting'
p43
S''
p44
sS'DAT'
p45
(lp46
S'Friday:14'
p47
asS'death'
p48
g44
sS'title'
p49
S'Huge cache of explosives unearthed'
p50
sS'org_unorg'
p51
S'Organized'
p52
sS'terror_group'
p53
(lp54
S'Maoist Communist Centre (MCC)'
p55
asS'content'
p56
S'In a major explosive haul , the police in Bihars Gaya district on Friday unearthed a huge cache of improvised explosive devices ( IEDs ) and pressure-cooker bombs . The police recovered a total of 76 IEDs and four pressure-cooker bombs , supposedly planted by the Maoists in preparation for their recent call for a bandh in Bihar and Jharkhand . Around 800 metres of active livewire was also found , which was connected to a battery device , Nayyar Hasnain Khan , Deputy Inspector General , Gaya told The Hindu . The explosives were planted on the main Chanderia-Pichhulia , frequently used by the police for movement to conduct operations in Bihar and Jharkhand . Calling the recovery , a big haul , Mr. Khan said : Off late we have suffered some losses due to landmine blasts . The explosives were planted to disturb the police movement . Each of the four pressure-cooker bombs weighs around two to three kilogramme . They were planted to carry out a serial bombing . OPEN'
p57
sS'injured'
p58
g44
sS'det_loc'
p59
(lp60
S'India'
p61
aS'Bihar'
p62
aS'Gaya'
p63
ag44
aS'Chanderia-Pichhulia road'
p64
asS'O'
p65
(lp66
S'explosive haul:4'
p67
aS'unearthed:15'
p68
aS'cache:18'
p69
aS'improvised explosive devices:20'
p70
aS'ieds:24'
p71
aS'pressure-cooker:27'
p72
aS'pressure-cooker bombs:40'
p73
aS'bandh:56'
p74
aS'livewire:67'
p75
aS'battery device:77'
p76
aS'landmine:138'
p77
aS'serial bombing:171'
p78
asS'unexpl'
p79
(lp80
g44
aS'Batteries'
p81
asS'ocassion'
p82
g44
sS'link'
p83
S'http://www.thehindu.com/todays-paper/tp-national/huge-cache-of-explosives-unearthed/article4586839.ece'
p84
sS'date'
p85
S'05-04-2013'
p86
sS'target'
p87
S'Police and Defence Forces'
p88
sS'hot_spot'
p89
g44
sS'delivery_mod'
p90
g44
sS'delivery_met'
p91
S'Stored'
p92
sS'expl'
p93
(lp94
S'IED'
p95
ag44
aS'LandMine'
p96
asS'ORG'
p97
(lp98
(lp99
S'Maoists'
p100
aS'47'
p101
aS'Others'
p102
aa(lp103
S'The Hindu'
p104
aS'90'
p105
aS'Others'
p106
aas.