(dp0
S'LOC'
p1
(lp2
(lp3
S'Hyderabad'
p4
aS'15'
p5
aS'Event'
p6
aa(lp7
S'Karnataka'
p8
aS'20'
p9
aS'Victim Location'
p10
aa(lp11
S'Bidar'
p12
aS'44'
p13
aS'Accused Location'
p14
aa(lp15
S'Bidar'
p16
aS'50'
p17
aS'Neutral'
p18
aa(lp19
S'Dilkushnagar'
p20
aS'76'
p21
aS'Event'
p22
aa(lp23
S'Hyderabad'
p24
aS'82'
p25
aS'Neutral'
p26
aasS'PER'
p27
(lp28
(lp29
S'Padmakar Kulkarni'
p30
aS'35'
p31
aS'Accused'
p32
aa(lp33
S'Satish Kumar'
p34
aS'47'
p35
aS'Comment'
p36
aa(lp37
S'Mr. Kulkarni'
p38
aS'69'
p39
aS'Accused'
p40
aasS'TIM'
p41
(lp42
S'one year : 86'
p43
asS'hot_setting'
p44
S''
p45
sS'DAT'
p46
(lp47
S'Thursday : 17'
p48
aS'Friday : 27'
p49
asS'death'
p50
S'16'
p51
sS'title'
p52
S'Bidar resident among dead in Hyderabad blasts'
p53
sS'det_loc'
p54
(lp55
S'India'
p56
aS'Andhra Pradesh'
p57
ag45
aS'Hydrabad'
p58
ag45
asS'terror_group'
p59
(lp60
g45
asS'content'
p61
S'One among the 16 persons who died in the twin bomb blasts that rocked Hyderabad on Thursday was from Karnataka , the police said here on Friday . The deceased has been identified as Padmakar Kulkarni ( 45 ) , a resident of Bidar , said Satish Kumar , Bidar Superintendent of Police . His charred remains were identified by some of his friends . The police said Mr. Kulkarni was a sweetmeat vendor at Dilkushnagar and had been living in Hyderabad for the last one year . PTI OPEN'
p62
sS'injured'
p63
g45
sS'org_unorg'
p64
g45
sS'O'
p65
(lp66
S'not available'
p67
aS'twin bomb blasts:10'
p68
aS'deceased:30'
p69
aS'satish kumar , bidar superintendent:47'
p70
aS'sweetmeat vendor:73'
p71
asS'unexpl'
p72
(lp73
g45
asS'ocassion'
p74
g45
sS'link'
p75
S'http://www.thehindu.com/todays-paper/tp-national/tp-karnataka/bidar-resident-among-dead-in-hyderabad-blasts/article4448239.ece'
p76
sS'date'
p77
S'21-02-2013'
p78
sS'target'
p79
g45
sS'hot_spot'
p80
g45
sS'delivery_mod'
p81
g45
sS'delivery_met'
p82
g45
sS'expl'
p83
(lp84
g45
asS'ORG'
p85
(lp86
(lp87
S'PTI'
p88
aS'89'
p89
aS'Others'
p90
aas.