(dp0
S'LOC'
p1
(lp2
(lp3
S'Bodh Gaya'
p4
aS'2'
p5
aS'Event'
p6
aa(lp7
S'Bihar'
p8
aS'26'
p9
aS'Event'
p10
aa(lp11
S'Bihar'
p12
aS'32'
p13
aS'Event'
p14
aa(lp15
S'Bihar'
p16
aS'165'
p17
aS'Event'
p18
aa(lp19
S'Patna'
p20
aS'170'
p21
aS'Neutral'
p22
aa(lp23
S'Delhi'
p24
aS'176'
p25
aS'Neutral'
p26
aa(lp27
S'Hyderabad'
p28
aS'178'
p29
aS'Neutral'
p30
aa(lp31
S'Maharashtra'
p32
aS'180'
p33
aS'Neutral'
p34
aa(lp35
S'Bihar'
p36
aS'185'
p37
aS'Event'
p38
aa(lp39
S'Bihar'
p40
aS'189'
p41
aS'Event'
p42
aa(lp43
S'Patna'
p44
aS'361'
p45
aS'Neutral'
p46
aasS'PER'
p47
(lp48
(lp49
S'Nitish Kumar'
p50
aS'35'
p51
aS'Comment'
p52
aa(lp53
S'Sushilkumar Shinde'
p54
aS'108'
p55
aS'Others'
p56
aa(lp57
S'Anil Goswami'
p58
aS'128'
p59
aS'Others'
p60
aa(lp61
S'Rahi Gaikwad'
p62
aS'166'
p63
aS'Others'
p64
aa(lp65
S'Amir Subhani'
p66
aS'333'
p67
aS'Comment'
p68
aa(lp69
S'Vinod Mistri'
p70
aS'344'
p71
aS'Others'
p72
aasS'TIM'
p73
(lp74
sS'hot_setting'
p75
S''
p76
sS'DAT'
p77
(lp78
S'Tuesday night : 8'
p79
aS'Sunday : 69'
p80
aS'Wednesday : 118'
p81
aS'Tuesday : 192'
p82
asS'death'
p83
g76
sS'title'
p84
S'NIA takes over blasts case'
p85
sS'org_unorg'
p86
g76
sS'terror_group'
p87
(lp88
g76
asS'content'
p89
S'The Bodh Gaya blasts case was on Tuesday night handed over to the National Investigation Agency ( NIA ) . It had been assisting the Bihar police in the probe . Bihar Chief Minister Nitish Kumar had asked the Centre to hand over the probe to the NIA and the security of the historic Buddhist temple complex to paramilitary forces . Soon after 10 bombs went off on Sunday , the Home Ministry had despatched a five-member NIA team including an officer of the DIG rank and two Superintendents of Police along with bomb experts of the National Security Guard and other forensic experts . Home Minister Sushilkumar Shinde is scheduled to visit the Mahabodhi temple on Wednesday . He will be accompanied by Union Home Secretary Anil Goswami and other senior officials . He will inspect the blasts site and meet injured people . He is also likely to meet the Chief Minister and hold a security review meeting . ATS teams reach Bihar Rahi Gaikwad reports from Patna : The Anti-Terrorism Squads of Delhi , Hyderabad and Maharashtra police have arrived in Bihar even as the Bihar Cabinet on Tuesday approved and sanctioned the formation of an ATS for the State . It even notified the posts . It will have 344 personnel . ATS teams have come from these three States to examine the pattern of working of the terror outfit in question . They will be examining the chemical components of the explosives and other recoveries , a police official said . Indian Mujahideen was on the radar of the investigators . With the examination of CCTVs still under way , no concrete leads have been thrown up thus far . We had a similar squad , but now we will have an ATS with multiples wings for intelligence gathering , investigations , forensic analysis and so on . It will a well-equipped and well-trained squad headed by an Inspector General-level officer , Principal Secretary ( Home ) Amir Subhani told The Hindu . The NIA has not released Vinod Mistri , a Gaya resident . There were unconfirmed reports of four persons being detained in Patna for questioning owing to their suspicious movement as seen in CCTV footage . Police officers , however , denied any fresh detentions or arrests . OPEN'
p90
sS'injured'
p91
g76
sS'det_loc'
p92
(lp93
S'India'
p94
aS'Bihar'
p95
ag76
ag76
ag76
asS'O'
p96
(lp97
S'Gaya blasts:3'
p98
aS'probe:30'
p99
aS'Bihar Chief Minister Nitish Kumar:32'
p100
aS'Centre:40'
p101
aS'probe:45'
p102
aS'Buddhist temple:55'
p103
aS'paramilitary forces:59'
p104
aS'10 bombs:64'
p105
aS'Home Ministry:72'
p106
aS'despatched:75'
p107
aS'five-member NIA:77'
p108
aS'DIG:85'
p109
aS'bomb experts:94'
p110
aS'National Security Guard:98'
p111
aS'forensic experts:103'
p112
aS'Home Minister Sushilkumar Shinde:106'
p113
aS'Mahabodhi temple:115'
p114
aS'Union Home Secretary Anil Goswami:125'
p115
aS'senior officials:132'
p116
aS'inspect the blasts site:137'
p117
aS'injured people:143'
p118
aS'Chief Minister:153'
p119
aS'security review meeting:158'
p120
aS'Bihar Cabinet:189'
p121
aS'approved and sanctioned:193'
p122
aS'State:203'
p123
aS'posts:209'
p124
aS'344 personnel:214'
p125
aS'three States:223'
p126
aS'examine:226'
p127
aS'terror outfit:233'
p128
aS'chemical components:243'
p129
aS'explosives:247'
p130
aS'recoveries:250'
p131
aS'radar:262'
p132
aS'investigators:265'
p133
aS'CCTVs:271'
p134
aS'no concrete leads:276'
p135
aS'multiples wings:300'
p136
aS'intelligence gathering:303'
p137
aS'investigations:306'
p138
aS'forensic analysis:308'
p139
aS'well-equipped:317'
p140
aS'well-trained squad:319'
p141
aS'Inspector General-level officer:324'
p142
aS'Principal Secretary ( Home ) Amir Subhani:328'
p143
aS'Gaya resident:348'
p144
aS'unconfirmed reports:353'
p145
aS'suspicious movement:367'
p146
aS'CCTV footage:372'
p147
aS'fresh detentions:382'
p148
aS'arrests:385'
p149
asS'unexpl'
p150
(lp151
g76
asS'ocassion'
p152
g76
sS'link'
p153
S'http://www.thehindu.com/todays-paper/tp-national/nia-takes-over-blasts-case/article4900005.ece'
p154
sS'date'
p155
S'09-07-2013'
p156
sS'target'
p157
S'TEMPLE'
p158
sS'hot_spot'
p159
S'Bodh Gaya'
p160
sS'delivery_mod'
p161
g76
sS'delivery_met'
p162
S'PLANTED'
p163
sS'expl'
p164
(lp165
g76
asS'ORG'
p166
(lp167
(lp168
S'National Investigation Agency'
p169
aS'14'
p170
aS'Others'
p171
aa(lp172
S'NIA'
p173
aS'18'
p174
aS'Others'
p175
aa(lp176
S'NIA'
p177
aS'48'
p178
aS'Others'
p179
aa(lp180
S'NIA'
p181
aS'78'
p182
aS'Others'
p183
aa(lp184
S'ATS'
p185
aS'162'
p186
aS'Others'
p187
aa(lp188
S'Anti-Terrorism Squads'
p189
aS'173'
p190
aS'Others'
p191
aa(lp192
S'ATS'
p193
aS'200'
p194
aS'Others'
p195
aa(lp196
S'ATS'
p197
aS'217'
p198
aS'Others'
p199
aa(lp200
S'Indian Mujahideen'
p201
aS'257'
p202
aS'Others'
p203
aa(lp204
S'ATS'
p205
aS'298'
p206
aS'Others'
p207
aa(lp208
S'The Hindu'
p209
aS'336'
p210
aS'Others'
p211
aa(lp212
S'NIA'
p213
aS'340'
p214
aS'Others'
p215
aas.