(dp0
S'LOC'
p1
(lp2
(lp3
S'Portugal'
p4
aS'60'
p5
aS'Neutral'
p6
aa(lp7
S'India'
p8
aS'71'
p9
aS'Neutral'
p10
aa(lp11
S'Portugal'
p12
aS'74'
p13
aS'Neutral'
p14
aasS'PER'
p15
(lp16
(lp17
S'Abu Salem'
p18
aS'17'
p19
aS'Accused'
p20
aa(lp21
S'Salems'
p22
aS'68'
p23
aS'Accused'
p24
aasS'TIM'
p25
(lp26
sS'hot_setting'
p27
S''
p28
sS'DAT'
p29
(lp30
S'Tuesday:6'
p31
aS'1993:23'
p32
asS'death'
p33
g28
sS'title'
p34
S'CBI to drop some charges against Salem'
p35
sS'det_loc'
p36
(lp37
S'India'
p38
aS'Maharashtra'
p39
ag28
aS'Mumbai'
p40
ag28
asS'terror_group'
p41
(lp42
g28
asS'content'
p43
S'A special TADA court on Tuesday allowed the CBI to drop certain charges against extradited gangster Abu Salem in connection with the 1993 serial bomb blasts case . The CBI had earlier told the Supreme Court that it wanted to withdraw certain charges under the TADA Act , among other Acts , in view of its commitment to the Portugal government . At the time of 45-year-old Salems extradition , India had assured Portugal that no charges entailing death penalty or imprisonment of more than 25 years would be pressed against him but such charges were later brought in . PTI OPEN'
p44
sS'injured'
p45
g28
sS'org_unorg'
p46
S'ORGANISED'
p47
sS'O'
p48
(lp49
S'serial bomb blasts:24'
p50
aS'extradition:69'
p51
aS'death penalty:79'
p52
aS'imprisonment:82'
p53
asS'unexpl'
p54
(lp55
g28
asS'ocassion'
p56
g28
sS'link'
p57
S'http://www.thehindu.com/todays-paper/tp-national/cbi-to-drop-some-charges-against-salem/article5020598.ece'
p58
sS'date'
p59
S'13-08-2013'
p60
sS'target'
p61
g28
sS'hot_spot'
p62
g28
sS'delivery_mod'
p63
g28
sS'delivery_met'
p64
g28
sS'expl'
p65
(lp66
g28
asS'ORG'
p67
(lp68
(lp69
S'TADA'
p70
aS'3'
p71
aS'Others'
p72
aa(lp73
S'CBI'
p74
aS'9'
p75
aS'Others'
p76
aa(lp77
S'CBI'
p78
aS'30'
p79
aS'Others'
p80
aa(lp81
S'Supreme Court'
p82
aS'35'
p83
aS'Others'
p84
aa(lp85
S'TADA'
p86
aS'46'
p87
aS'Others'
p88
aa(lp89
S'Portugal government'
p90
aS'60'
p91
aS'Others'
p92
aas.