(dp0
S'LOC'
p1
(lp2
(lp3
S'India'
p4
aS'34'
p5
aS'Neutral'
p6
aasS'PER'
p7
(lp8
(lp9
S'Abdul Karim Tunda'
p10
aS'1'
p11
aS'Accused'
p12
aa(lp13
S'Amit Bansal'
p14
aS'52'
p15
aS'Assoc Accused'
p16
aasS'TIM'
p17
(lp18
S'four-day : 59'
p19
asS'hot_setting'
p20
S''
p21
sS'DAT'
p22
(lp23
S'Wednesday:6'
p24
asS'death'
p25
g21
sS'title'
p26
S'Further police custody for Tunda'
p27
sS'det_loc'
p28
(lp29
S'India'
p30
aS'Delhi'
p31
aS'New Delhi'
p32
ag21
ag21
asS'terror_group'
p33
(lp34
S'LASHKAR-E-TAIBA'
p35
asS'content'
p36
S'Abdul Karim Tunda was on Wednesday remanded in police custody for seven more days by a Delhi court after investigators said those who had allegedly helped him in illegally infiltrating Pakistani nationals into India were yet to be identified . The alleged LeT bomb expert was produced before Chief Metropolitan Magistrate Amit Bansal after the expiry of a four-day police custody given in connection with various bomb blasts across the country . PTI OPEN'
p37
sS'injured'
p38
g21
sS'org_unorg'
p39
g21
sS'O'
p40
(lp41
S'police custody:9'
p42
aS'seven more days:12'
p43
aS'investigators:20'
p44
aS'illegally infiltrating Pakistani nationals:29'
p45
aS'identified:39'
p46
aS'LeT bomb expert:43'
p47
aS'Chief Metropolitan Magistrate:49'
p48
aS'expiry:56'
p49
aS'police custody:60'
p50
aS'connection:64'
p51
aS'bomb blasts:67'
p52
asS'unexpl'
p53
(lp54
g21
asS'ocassion'
p55
g21
sS'link'
p56
S'http://www.thehindu.com/todays-paper/tp-national/further-police-custody-for-tunda/article5118307.ece'
p57
sS'date'
p58
S'11-09-2013'
p59
sS'target'
p60
g21
sS'hot_spot'
p61
g21
sS'delivery_mod'
p62
g21
sS'delivery_met'
p63
g21
sS'expl'
p64
(lp65
g21
asS'ORG'
p66
(lp67
(lp68
S'Delhi court'
p69
aS'17'
p70
aS'Others'
p71
aa(lp72
S'LeT'
p73
aS'43'
p74
aS'Accused'
p75
aa(lp76
S'PTI'
p77
aS'73'
p78
aS'Others'
p79
aas.