(dp0
S'LOC'
p1
(lp2
(lp3
S'Bodh Gaya'
p4
aS'8'
p5
aS'Event'
p6
aasS'PER'
p7
(lp8
sS'TIM'
p9
(lp10
sS'hot_setting'
p11
S''
p12
sS'DAT'
p13
(lp14
S'Tuesday:16'
p15
asS'death'
p16
g12
sS'title'
p17
S'Sketches of Bodh Gaya blasts suspect released'
p18
sS'org_unorg'
p19
S'ORGANISED'
p20
sS'terror_group'
p21
(lp22
g12
asS'content'
p23
S'Two sketches of a suspect in the Bodh Gaya serial bomb blasts case were on Tuesday released by the National Investigation Agency ( NIA ) on its website . It has said he is likely to be an Indian national . Two sketches -LSB- with and without mask -RSB- of the suspect who was wearing the dress of a Buddhist monk , have been developed with the leads available , a NIA release said . In an uploaded video clip , the agency merged clips from the CCTV footage where the suspect was seen . The NIA prepared the sketches based on eyewitness accounts and the CCTV footage . ... we have relied on the witness statements . We revisited the CCTV footage based on their accounts , a source told The Hindu . OPEN'
p24
sS'injured'
p25
g12
sS'det_loc'
p26
(lp27
S'India'
p28
aS'Bihar'
p29
ag12
aS'Patna'
p30
aS'Bodh Gaya'
p31
asS'O'
p32
(lp33
S'bomb blasts:11'
p34
aS'buddhist monk:60'
p35
aS'CCTV footage:107'
p36
aS'cctv footage:122'
p37
asS'unexpl'
p38
(lp39
g12
asS'ocassion'
p40
g12
sS'link'
p41
S'http://www.thehindu.com/todays-paper/sketches-of-bodh-gaya-blasts-suspect-released/article4922314.ece'
p42
sS'date'
p43
S'16-07-2013'
p44
sS'target'
p45
S'RELIGIOUS PLACES'
p46
sS'hot_spot'
p47
S'Bodh Gaya'
p48
sS'delivery_mod'
p49
g12
sS'delivery_met'
p50
g12
sS'expl'
p51
(lp52
g12
asS'ORG'
p53
(lp54
(lp55
S'National Investigation Agency'
p56
aS'20'
p57
aS'Others'
p58
aa(lp59
S'NIA'
p60
aS'24'
p61
aS'Others'
p62
aa(lp63
S'Indian national'
p64
aS'39'
p65
aS'Others'
p66
aa(lp67
S'NIA'
p68
aS'72'
p69
aS'Others'
p70
aa(lp71
S'NIA'
p72
aS'97'
p73
aS'Others'
p74
aa(lp75
S'The Hindu'
p76
aS'132'
p77
aS'Others'
p78
aa(lp79
S'Hindu'
p80
aS'133'
p81
aS'Others'
p82
aas.