(dp0
S'LOC'
p1
(lp2
(lp3
S'Punes'
p4
aS'29'
p5
aS'Assoc Event Location'
p6
aa(lp7
S'Bakerys'
p8
aS'48'
p9
aS'Assoc Event Location'
p10
aa(lp11
S'Mumbai'
p12
aS'146'
p13
aS'Assoc Event Location'
p14
aa(lp15
S'Pune'
p16
aS'151'
p17
aS'Assoc Event Location'
p18
aa(lp19
S'Bodh Gaya'
p20
aS'156'
p21
aS'Assoc Event Location'
p22
aa(lp23
S'Pune'
p24
aS'197'
p25
aS'Assoc Event Location'
p26
aa(lp27
S'Bodhgaya'
p28
aS'213'
p29
aS'Assoc Event Location'
p30
aa(lp31
S'Maharashtra'
p32
aS'260'
p33
aS'Neutral'
p34
aa(lp35
S'Aurangabad'
p36
aS'272'
p37
aS'Neutral'
p38
aa(lp39
S'Jalna'
p40
aS'274'
p41
aS'Neutral'
p42
aa(lp43
S'Beedand Nagpur'
p44
aS'276'
p45
aS'Neutral'
p46
aa(lp47
S'Maharashtra'
p48
aS'279'
p49
aS'Neutral'
p50
aa(lp51
S'Darbhanga'
p52
aS'289'
p53
aS'Neutral'
p54
aa(lp55
S'Bihar'
p56
aS'291'
p57
aS'Neutral'
p58
aa(lp59
S'Batla House'
p60
aS'310'
p61
aS'Assoc Event Location'
p62
aa(lp63
S'Dubai'
p64
aS'392'
p65
aS'Neutral'
p66
aa(lp67
S'Delhi'
p68
aS'402'
p69
aS'Neutral'
p70
aa(lp71
S'Delhi'
p72
aS'424'
p73
aS'Assoc Event Location'
p74
aa(lp75
S'Mumbai train'
p76
aS'461'
p77
aS'Assoc Event Location'
p78
aa(lp79
S'Maharashtra'
p80
aS'499'
p81
aS'Neutral'
p82
aa(lp83
S'Mumbai'
p84
aS'516'
p85
aS'Neutral'
p86
aa(lp87
S'Mumbai'
p88
aS'541'
p89
aS'Neutral'
p90
aa(lp91
S'Pune'
p92
aS'635'
p93
aS'Event'
p94
aa(lp95
S'Beed'
p96
aS'654'
p97
aS'Victim Location'
p98
aasS'PER'
p99
(lp100
(lp101
S'Yasin'
p102
aS'3'
p103
aS'Accused'
p104
aa(lp105
S'Yasin Bhatkal'
p106
ag103
aS'Accused'
p107
aa(lp108
S'Bhatkal'
p109
aS'90'
p110
aS'Accused'
p111
aa(lp112
S'Mohammad Arif Shaikh'
p113
aS'115'
p114
aS'Assoc Accused'
p115
aa(lp116
S'Yasin'
p117
aS'119'
p118
aS'Accused'
p119
aa(lp120
S'Bhatkal'
p121
aS'229'
p122
aS'Accused'
p123
aa(lp124
S'Riyaz'
p125
aS'240'
p126
aS'Assoc Accused'
p127
aa(lp128
S'Riyaz Bhatkal'
p129
aS'240'
p130
aS'Assoc Accused'
p131
aa(lp132
S'Yasin'
p133
aS'243'
p134
aS'Accused'
p135
aa(lp136
S'Yasin'
p137
aS'333'
p138
aS'Accused'
p139
aa(lp140
S'Yasin'
p141
aS'366'
p142
aS'Accused'
p143
aa(lp144
S'Qatil Siddhique'
p145
aS'398'
p146
aS'Others'
p147
aa(lp148
S'Yasin'
p149
aS'417'
p150
aS'Accused'
p151
aa(lp152
S'Bhatkals'
p153
aS'444'
p154
aS'Accused'
p155
aa(lp156
S'Saddiq Sheikh'
p157
aS'522'
p158
aS'Assoc Accused'
p159
aa(lp160
S'Bhatkals'
p161
aS'567'
p162
aS'Accused'
p163
aa(lp164
S'Himayat Baig'
p165
aS'589'
p166
aS'Accused'
p167
aa(lp168
S'Himayat'
p169
aS'589'
p170
aS'Accused'
p171
aa(lp172
S'Baig'
p173
aS'590'
p174
aS'Accused'
p175
aa(lp176
S'Baig'
p177
aS'606'
p178
aS'Accused'
p179
aa(lp180
S'Bhatkals'
p181
aS'615'
p182
aS'Accused'
p183
aa(lp184
S'Baig'
p185
aS'624'
p186
aS'Accused'
p187
aa(lp188
S'Yasin'
p189
aS'659'
p190
aS'Accused'
p191
aasS'TIM'
p192
(lp193
sS'hot_setting'
p194
S''
p195
sS'DAT'
p196
(lp197
S'2010:33'
p198
aS'2006:68'
p199
aS'2008:100'
p200
aS'2011 : 145'
p201
aS'2012 : 150'
p202
aS'2012 : 196'
p203
aS'2008:307'
p204
aS'2007:466'
p205
aS'2010:474'
p206
asS'death'
p207
g195
sS'title'
p208
S'A big blow to Indian Mujahideens bomb-making, recruitment skills'
p209
sS'det_loc'
p210
(lp211
S'India'
p212
aS'Maharashtra'
p213
aS'Mumbai-City'
p214
aS'mumbai'
p215
ag195
asS'terror_group'
p216
(lp217
S'Indian Mujahideen'
p218
asS'content'
p219
S'Till now Yasin Bhatkal was an image captured by the CCTV but never by the police . The dreaded Indian Mujahideen ( IM ) terrorist had boldly entered Punes German Bakery in 2010 , planted a deadly bomb and melted into the crowd . Images from the Bakerys video cameras were all the police were left with . His arrest now after being on the run since 2006 is a major victory for security agencies . The immediate fallout will be a dent in the IMs bomb-making skills . Bhatkal had been entrusted with assembling the IMs bombs since 2008 . A responsibility he was given after the arrest of the terror outfits bomb-maker Mohammad Arif Shaikh . Yasin made bombs for the majority of the IMs attacks , intelligence sources told The Hindu . If you study the German bakery blast , the 2011 Mumbai blasts , the 2012 Pune blasts and the recent Bodh Gaya blasts , you can see an uncanny similarity in the way the bombs were manufactured , the sources said . With each blast , the bombs become more sophisticated . Yasin learnt from past mistakes . In the 2012 Pune blasts , the circuits were loosely assembled . This error was not repeated in the Bodhgaya blasts . The arrest will also impact the IMs recruitment and financing , in which Bhatkal also played a key role . Along with IM founder Riyaz Bhatkal , Yasin was instrumental in forming the Punemodule , among the strongest units of the outfit . Across Maharashtra , he built a network of sleeper cells in districts including Aurangabad , Jalna , Beedand Nagpur , Maharashtra ATS sources say . Later he shifted recruitment to Darbhanga in Bihar , where he had studied . After the mass arrests of the Indian Mujahideen in 2008 and the Batla House encounter , the IM could no longer recruit engineers , doctors or highly educated men . The Darbhanga module formed by Yasin mostly included uneducated youth who joined the outfit not for the ideology but for the money , said an ATS source . Master in fake currency Informed sources told The Hindu that Yasin , a master in fake currency , had arranged finances for most of the IMs bombings . The money was sourced through hawala operators in Dubai . After the arrest of Qatil Siddhique by the Delhi special cell , we learnt more about the funding operations of the group . Yasin had given him money for the Delhi blasts through hawala . One of the operators is in our custody , said an ATS source . Yet Bhatkals arrest could boomerang on two key cases in which the IM is allegedly involved : the Mumbai train blasts case of 2007 and the German Bakery blast case of 2010 . It could even derail these trials where investigators may have been on the wrong trail . In the train blasts case , the Maharashtra ATS arrested men from the LeT and the SIMI . However in his confession to the Mumbai crime branch , IM operative Saddiq Sheikh claimed that the train blasts were the handiwork of the IM . A theory supported by the Mumbai crime branch in its report to the State Home department . However , the ATS continued to maintain that the LeT operatives were guilty . Bhatkals version on the bombing could impact the trial . German Bakery case In the German Bakery case , the ATS arrested Himayat Baig , who was later awarded the death sentence . Here too , intelligence sources say Baig might have only played a minor role and Bhatkals arrest could reveal that . We suspect that Baig played the role of providing logistics and wasnt present in Pune on the day of the blasts . But the ATS claimed that he was present and escaped to Beed after the incident . Yasin , who is wanted in the case and is seen in the CCTV footage planting the bombs , will be able to reveal the exact details , intelligence sources told The Hindu . It will also impact the IMs recruitment and financingIt could boomerang on two key cases in which IM is involved It will also impact the IMs recruitment and financing It could boomerang on two key cases in which IM is involved OPEN'
p220
sS'injured'
p221
g195
sS'org_unorg'
p222
S'Organized'
p223
sS'O'
p224
(lp225
S'cctv:11'
p226
aS'terrorist:25'
p227
aS'arrest:60'
p228
aS'run:66'
p229
aS'victory:72'
p230
aS'security:74'
p231
aS'fallout:79'
p232
aS'dent:83'
p233
aS'bomb-making:87'
p234
aS'responsibility:103'
p235
aS'arrest:109'
p236
aS'terror outfits bomb-maker:112'
p237
aS'yasin:119'
p238
aS'majority:124'
p239
aS'intelligence:130'
p240
aS'study:138'
p241
aS'similarity:165'
p242
aS'way:168'
p243
aS'blast:180'
p244
aS'error:207'
p245
aS'arrest:217'
p246
aS'impact:220'
p247
aS'recruitment:223'
p248
aS'financing:225'
p249
aS'key role:233'
p250
aS'outfit:257'
p251
aS'network:265'
p252
aS'sleeper:267'
p253
aS'recruitment:287'
p254
aS'mass:300'
p255
aS'encounter:312'
p256
aS'ideology:345'
p257
aS'money:349'
p258
aS'source:354'
p259
aS'master:356'
p260
aS'fake currency:358'
p261
aS'master:369'
p262
aS'fake currency:371'
p263
aS'money:385'
p264
aS'hawala:389'
p265
aS'arrest:396'
p266
aS'cell:404'
p267
aS'funding:411'
p268
aS'group:415'
p269
aS'money:421'
p270
aS'hawala:427'
p271
aS'custody:436'
p272
aS'source:441'
p273
aS'arrest:445'
p274
aS'boomerang:447'
p275
aS'key:450'
p276
aS'case:464'
p277
aS'blast case:471'
p278
aS'trail:490'
p279
aS'train:494'
p280
aS'case:496'
p281
aS'confession:513'
p282
aS'crime branch:517'
p283
aS'train:527'
p284
aS'handiwork:531'
p285
aS'theory:537'
p286
aS'crime branch:542'
p287
aS'report:546'
p288
aS'state home department:549'
p289
aS'version:568'
p290
aS'bombing:571'
p291
aS'impact:573'
p292
aS'trial:575'
p293
aS'case:579'
p294
aS'case:584'
p295
aS'death sentence:597'
p296
aS'intelligence:603'
p297
aS'baig:606'
p298
aS'role:613'
p299
aS'arrest:616'
p300
aS'suspect:622'
p301
aS'role:627'
p302
aS'wasnt:632'
p303
aS'day:638'
p304
aS'incident:657'
p305
aS'case:666'
p306
aS'cctv:672'
p307
aS'cctv footage:672'
p308
aS'footage:673'
p309
aS'intelligence:687'
p310
aS'impact:696'
p311
aS'recruitment:699'
p312
aS'financingit:701'
p313
aS'boomerang:703'
p314
asS'unexpl'
p315
(lp316
g195
asS'ocassion'
p317
g195
sS'link'
p318
S'http://www.thehindu.com/todays-paper/tp-national/a-big-blow-to-indian-mujahideens-bombmaking-recruitment-skills/article5073794.ece'
p319
sS'date'
p320
S'29-08-2013'
p321
sS'target'
p322
S'Hotel and Restaurant'
p323
sS'hot_spot'
p324
S'Bakery'
p325
sS'delivery_mod'
p326
g195
sS'delivery_met'
p327
g195
sS'expl'
p328
(lp329
g195
asS'ORG'
p330
(lp331
(lp332
S'Indian Mujahideen'
p333
aS'20'
p334
aS'Accused'
p335
aa(lp336
S'IM'
p337
aS'23'
p338
aS'Accused'
p339
aa(lp340
S'German Bakery'
p341
aS'30'
p342
aS'Victim'
p343
aa(lp344
S'IMs'
p345
aS'86'
p346
aS'Accused'
p347
aa(lp348
S'IMs'
p349
aS'97'
p350
aS'Accused'
p351
aa(lp352
S'IMs'
p353
aS'127'
p354
aS'Accused'
p355
aa(lp356
S'The Hindu'
p357
aS'133'
p358
aS'Others'
p359
aa(lp360
S'Hindu'
p361
aS'134'
p362
aS'Others'
p363
aa(lp364
S'German bakery'
p365
aS'140'
p366
aS'Victim'
p367
aa(lp368
S'IMs'
p369
aS'222'
p370
aS'Accused'
p371
aa(lp372
S'IM'
p373
aS'238'
p374
aS'Accused'
p375
aa(lp376
S'Punemodule'
p377
aS'249'
p378
aS'Accused'
p379
aa(lp380
S'ATS'
p381
aS'280'
p382
aS'Others'
p383
aa(lp384
S'Indian Mujahideen'
p385
aS'304'
p386
aS'Accused'
p387
aa(lp388
S'IM'
p389
aS'315'
p390
aS'Accused'
p391
aa(lp392
S'Darbhanga module'
p393
aS'329'
p394
aS'Assoc Accused'
p395
aa(lp396
S'ATS'
p397
aS'353'
p398
aS'Others'
p399
aa(lp400
S'The Hindu'
p401
aS'363'
p402
aS'Others'
p403
aa(lp404
S'Hindu'
p405
aS'364'
p406
aS'Others'
p407
aa(lp408
S'IMs'
p409
aS'381'
p410
aS'Accused'
p411
aa(lp412
S'ATS'
p413
aS'440'
p414
aS'Others'
p415
aa(lp416
S'IM'
p417
aS'455'
p418
aS'Accused'
p419
aa(lp420
S'German Bakery'
p421
aS'469'
p422
aS'Victim'
p423
aa(lp424
S'ATS'
p425
aS'500'
p426
aS'Others'
p427
aa(lp428
S'LeT'
p429
aS'505'
p430
aS'Assoc Accused'
p431
aa(lp432
S'SIMI'
p433
aS'508'
p434
aS'Assoc Accused'
p435
aa(lp436
S'IM'
p437
aS'520'
p438
aS'Accused'
p439
aa(lp440
S'IM'
p441
aS'534'
p442
aS'Accused'
p443
aa(lp444
S'LeT'
p445
aS'562'
p446
aS'Assoc Accused'
p447
aa(lp448
S'German Bakery'
p449
aS'577'
p450
aS'Victim'
p451
aa(lp452
S'German Bakery'
p453
aS'582'
p454
aS'Victim'
p455
aa(lp456
S'ATS'
p457
aS'587'
p458
aS'Others'
p459
aa(lp460
S'ATS'
p461
aS'645'
p462
aS'Others'
p463
aa(lp464
S'The Hindu'
p465
aS'690'
p466
aS'Others'
p467
aa(lp468
S'Hindu'
p469
aS'691'
p470
aS'Others'
p471
aa(lp472
S'IMs'
p473
aS'698'
p474
aS'Accused'
p475
aa(lp476
S'IM'
p477
aS'710'
p478
aS'Accused'
p479
aa(lp480
S'IMs'
p481
aS'718'
p482
aS'Accused'
p483
aa(lp484
S'IM'
p485
aS'731'
p486
aS'Accused'
p487
aas.