(dp0
S'LOC'
p1
(lp2
(lp3
S'Pune'
p4
aS'17'
p5
aS'Event'
p6
aa(lp7
S'Pune'
p8
aS'42'
p9
aS'Event'
p10
aasS'PER'
p11
(lp12
(lp13
S'Sushil Kumar Shinde'
p14
aS'4'
p15
aS'Others'
p16
aa(lp17
S'Yasin Bhatkal'
p18
aS'30'
p19
aS'Assoc Accused'
p20
aa(lp21
S'Mirza Himayat Baig'
p22
aS'45'
p23
aS'Accused'
p24
aa(lp25
S'Qateel Siddiqui'
p26
aS'61'
p27
aS'Assoc Accused'
p28
aa(lp29
S'Baig'
p30
aS'64'
p31
aS'Accused'
p32
aasS'TIM'
p33
(lp34
sS'hot_setting'
p35
S''
p36
sS'DAT'
p37
(lp38
S'Thursday : 8'
p39
aS'2010 : 16'
p40
asS'death'
p41
S'17'
p42
sS'title'
p43
S'Shinde rules out fresh probe into bakery case'
p44
sS'org_unorg'
p45
g36
sS'terror_group'
p46
(lp47
S'INDIAN MUJAHIDEEN'
p48
asS'content'
p49
S'Union Home Minister Sushil Kumar Shinde on Thursday ruled out a fresh probe into the 2010 Pune German Bakery blast case . His statement comes after Indian Mujahideen co-founder Yasin Bhatkal reportedly told his interrogators that he was not accompanied by Pune blast convict Mirza Himayat Baig in planting the bomb in the bakery , but by another terrorist , Qateel Siddiqui . Baig has been awarded death sentence in connection with the blast that claimed 17 lives and left over 60 people injured . PTI OPEN'
p50
sS'injured'
p51
S'60'
p52
sS'det_loc'
p53
(lp54
S'India'
p55
aS'Maharashtra'
p56
aS'Pune'
p57
ag36
ag36
asS'O'
p58
(lp59
S'fresh probe:12'
p60
aS'German Bakery blast:18'
p61
aS'interrogators:35'
p62
aS'Pune blast:42'
p63
aS'planting the bomb:49'
p64
aS'bakery:54'
p65
aS'terrorist:59'
p66
aS'awarded death sentence:67'
p67
aS'blast:74'
p68
asS'unexpl'
p69
(lp70
g36
asS'ocassion'
p71
g36
sS'link'
p72
S'http://www.thehindu.com/todays-paper/tp-national/shinde-rules-out-fresh-probe-into-bakery-case/article5148163.ece'
p73
sS'date'
p74
S'19-09-2013'
p75
sS'target'
p76
S'BAKERY'
p77
sS'hot_spot'
p78
g36
sS'delivery_mod'
p79
g36
sS'delivery_met'
p80
S'PLANTED'
p81
sS'expl'
p82
(lp83
g36
asS'ORG'
p84
(lp85
(lp86
S'Indian Mujahideen'
p87
aS'27'
p88
aS'Accused'
p89
aS'Others'
p90
aas.