(dp0
S'LOC'
p1
(lp2
(lp3
S'Egypt'
p4
aS'8'
p5
aS'Event'
p6
aa(lp7
S'Sinai peninsula'
p8
aS'19'
p9
aS'Event'
p10
aa(lp11
S'Rafah'
p12
aS'44'
p13
aS'Event'
p14
aa(lp15
S'Gaza Strip'
p16
aS'50'
p17
aS'Event'
p18
aa(lp19
S'Rafah'
p20
aS'132'
p21
aS'Event'
p22
aa(lp23
S'Imam Ali'
p24
aS'134'
p25
aS'Event'
p26
aa(lp27
S'Rafah'
p28
aS'156'
p29
aS'Event'
p30
aasS'PER'
p31
(lp32
(lp33
S'Ahmed Aly'
p34
aS'66'
p35
aS'Comment'
p36
aa(lp37
S'Aly'
p38
aS'111'
p39
aS'Comment'
p40
aasS'TIM'
p41
(lp42
sS'hot_setting'
p43
S''
p44
sS'DAT'
p45
(lp46
S'Wednesday:6'
p47
asS'death'
p48
S'6'
p49
sS'title'
p50
S'Six Egyptian soldiers killed in attacks'
p51
sS'org_unorg'
p52
S'Organized'
p53
sS'terror_group'
p54
(lp55
g44
asS'content'
p56
S"Twin car bomb blasts on Wednesday targeting Egypt 's army killed at least six soldiers in the restive Sinai peninsula , where the military is battling Islamist militants , officials said . Security officials said an explosion targeted the military intelligence headquarters in Rafah on the border with the Gaza Strip , minutes before a second explosion hit an army checkpoint nearby . Military spokesman Ahmed Aly said in a statement the blasts were caused by car bombs . `` Islamist terrorist elements carried out a treacherous attack using two cars loaded with a large quantity of explosives ... that left six soldiers dead and 17 people injured , '' Aly said.The injured included seven civilians , he added . Witnesses said the first blast shattered the windows of buildings in Rafah 's Imam Ali area . The military intelligence headquarters is located in a high-security military zone and surrounded by checkpoints , sources in Rafah said.AFP OPEN"
p57
sS'injured'
p58
S'17'
p59
sS'det_loc'
p60
(lp61
S'Egypt'
p62
ag44
ag44
aS'Cairo'
p63
aS'Sinai peninsula'
p64
asS'O'
p65
(lp66
S'Twin car bomb:1'
p67
aS'army:10'
p68
aS'Islamist militants:27'
p69
aS'military intelligence headquarters:40'
p70
aS'army checkpoint:60'
p71
aS'car bombs:77'
p72
aS'shattered:126'
p73
aS'windows:128'
p74
asS'unexpl'
p75
(lp76
g44
asS'ocassion'
p77
g44
sS'link'
p78
S'http://www.thehindu.com/todays-paper/tp-in-school/six-egyptian-soldiers-killed-in-attacks/article5117732.ece'
p79
sS'date'
p80
g44
sS'target'
p81
S'Police and Defence Forces'
p82
sS'hot_spot'
p83
S'military intelligence headquarters,\r\narmy checkpoint'
p84
sS'delivery_mod'
p85
S'Four wheeler'
p86
sS'delivery_met'
p87
S'Planted'
p88
sS'expl'
p89
(lp90
g44
asS'ORG'
p91
(lp92
s.