(dp0
S'LOC'
p1
(lp2
(lp3
S'Baghdad province'
p4
aS'9'
p5
aS'Event'
p6
aa(lp7
S'Baghdad'
p8
aS'29'
p9
aS'Event'
p10
aa(lp11
S'Madain'
p12
aS'36'
p13
aS'Event'
p14
aasS'PER'
p15
(lp16
sS'TIM'
p17
(lp18
sS'hot_setting'
p19
S''
p20
sS'DAT'
p21
(lp22
S'Saturday night:12'
p23
asS'death'
p24
S'65'
p25
sS'title'
p26
S'Wave of bombings kills 65 in Baghdad province'
p27
sS'det_loc'
p28
(lp29
S'Iraq'
p30
ag20
ag20
aS'Baghdad'
p31
aS'Baghdad, and Madain'
p32
asS'terror_group'
p33
(lp34
g20
asS'content'
p35
S'A wave of bombings killed 65 people in Baghdad province on Saturday night , officials said . Twelve car bombs and a roadside bomb hit the city of Baghdad , while another bomb exploded in Madain to the south of the capital , a police colonel and a medical official said . The blasts also wounded 190 people.AFP OPEN'
p36
sS'injured'
p37
S'190'
p38
sS'org_unorg'
p39
S'Organized'
p40
sS'O'
p41
(lp42
S'wave of bombings:2'
p43
aS'Twelve:18'
p44
aS'car:19'
p45
aS'car bombs:19'
p46
aS'roadside bomb:23'
p47
asS'unexpl'
p48
(lp49
g20
asS'ocassion'
p50
g20
sS'link'
p51
S'http://www.thehindu.com/todays-paper/tp-in-school/wave-of-bombings-kills-65-in-baghdad-province/article4938601.ece'
p52
sS'date'
p53
S'20-07-2013'
p54
sS'target'
p55
g20
sS'hot_spot'
p56
S'Baghdad city, Madain'
p57
sS'delivery_mod'
p58
S'Four wheeler'
p59
sS'delivery_met'
p60
S'Planted'
p61
sS'expl'
p62
(lp63
g20
asS'ORG'
p64
(lp65
s.