(dp0
S'LOC'
p1
(lp2
(lp3
S'Alampatti'
p4
aS'95'
p5
aS'Event'
p6
aa(lp7
S'Tirumangalam'
p8
aS'97'
p9
aS'Accused Location'
p10
aa(lp11
S'Madurai'
p12
aS'113'
p13
aS'Neutral'
p14
aasS'PER'
p15
(lp16
(lp17
S'L. Zakir Hussain'
p18
aS'11'
p19
aS'Accused'
p20
aS'Others'
p21
aa(lp22
S'Zakir Hussain'
p23
aS'153'
p24
aS'Accused'
p25
aS'Others'
p26
aa(lp27
S'Tirunagar Zakir'
p28
aS'15'
p29
aS'Accused'
p30
aa(lp31
S'Y. John Nicholson'
p32
aS'65'
p33
aS'Comment'
p34
aa(lp35
S'Zakir Hussain'
p36
aS'73'
p37
aS'Accused'
p38
aa(lp39
S'Mr. Nicholson'
p40
aS'80'
p41
aS'Comment'
p42
aa(lp43
S'L.K. Advanis'
p44
aS'138'
p45
aS'Others'
p46
aa(lp47
S'M. Karthikeyan'
p48
aS'200'
p49
aS'Comment'
p50
aasS'TIM'
p51
(lp52
sS'hot_setting'
p53
S''
p54
sS'DAT'
p55
(lp56
S'Wednesday:9'
p57
aS'October 28 , 2011 : 148'
p58
aS'Tuesday:182'
p59
asS'death'
p60
g54
sS'title'
p61
S'Pipe bomb case: one more held'
p62
sS'det_loc'
p63
(lp64
S'India'
p65
aS'Tamil Nadu'
p66
aS'Madurai'
p67
ag54
ag54
asS'terror_group'
p68
(lp69
g54
asS'content'
p70
S'The Special Investigation Team ( SIT ) on Wednesday arrested L. Zakir Hussain alias Tirunagar Zakir ( 27 ) in connection with the pipe-bomb case . We have made a formal request for re-opening the case with the Judicial Magistrate concerned after we got evidence of involvement of more accused in the case , the Deputy Inspector General of Police ( SIT ) , Y. John Nicholson , said . Stating that Zakir Hussain had a criminal background , Mr. Nicholson said he was a conspirator in planting the bomb underneath a causeway at Alampatti near Tirumangalam . He was also involved in purchasing some materials for making the bomb . The Madurai district police found a six-foot-long PVC pipe stuffed with Power Gel 90 , an explosive used in blasting rocks , hours before BJP leader L.K. Advanis convoy was to pass through the causeway on October 28 , 2011 . Zakir Hussain , who was remanded to judicial custody after being produced before the court , is the seventh person to be arrested in the case . Only on Tuesday , the SIT had arrested three accused . The Deputy Superintendent of Police ( SIT ) , M. Karthikeyan , said seven out of the 10 accused in the case had been arrested . OPEN'
p71
sS'injured'
p72
g54
sS'org_unorg'
p73
g54
sS'O'
p74
(lp75
S'pipe-bomb case:24'
p76
aS'formal request:31'
p77
aS're-opening:34'
p78
aS'judicial magistrate:39'
p79
aS'evidence:45'
p80
aS'involvement:47'
p81
aS'accused:50'
p82
aS'deputy inspector general:56'
p83
aS'criminal:77'
p84
aS'conspirator:86'
p85
aS'bomb:90'
p86
aS'causeway:93'
p87
aS'making the bomb:108'
p88
aS'madurai district police:113'
p89
aS'six-foot-long pvc pipe:118'
p90
aS'pvc pipe:119'
p91
aS'power gel 90:123'
p92
aS'explosive:128'
p93
aS'blasting rocks:131'
p94
aS'convoy:140'
p95
aS'judicial custody:160'
p96
aS'arrested three accused:187'
p97
aS'deputy superintendent:192'
p98
asS'unexpl'
p99
(lp100
g54
asS'ocassion'
p101
g54
sS'link'
p102
S'http://www.thehindu.com/todays-paper/tp-national/tp-tamilnadu/pipe-bomb-case-one-more-held/article4560894.ece'
p103
sS'date'
p104
S'28-10-2011'
p105
sS'target'
p106
g54
sS'hot_spot'
p107
g54
sS'delivery_mod'
p108
g54
sS'delivery_met'
p109
g54
sS'expl'
p110
(lp111
S'PIPE BOMBS'
p112
asS'ORG'
p113
(lp114
(lp115
S'Special Investigation Team'
p116
aS'2'
p117
aS'Others'
p118
aa(lp119
S'SIT'
p120
aS'6'
p121
aS'Others'
p122
aa(lp123
S'SIT'
p124
aS'62'
p125
aS'Others'
p126
aa(lp127
S'BJP'
p128
aS'136'
p129
aS'Others'
p130
aa(lp131
S'SIT'
p132
aS'185'
p133
aS'Others'
p134
aa(lp135
S'SIT'
p136
aS'197'
p137
aS'Others'
p138
aas.