(dp0
S'LOC'
p1
(lp2
(lp3
S'central Damascus'
p4
aS'10'
p5
aS'Event'
p6
aa(lp7
S'Sabaa Bahrat square'
p8
aS'40'
p9
aS'Assoc Event Location'
p10
aa(lp11
S'Shahbander Street'
p12
aS'44'
p13
aS'Neutral'
p14
aa(lp15
S'Damascus'
p16
aS'94'
p17
aS'Event'
p18
aa(lp19
S'Damascus'
p20
aS'155'
p21
aS'Event'
p22
aasS'PER'
p23
(lp24
(lp25
S'Sunni cleric'
p26
aS'167'
p27
aS'Others'
p28
aasS'TIM'
p29
(lp30
sS'hot_setting'
p31
S''
p32
sS'DAT'
p33
(lp34
S'Monday:13'
p35
aS'March 21:146'
p36
asS'death'
p37
S'12'
p38
sS'title'
p39
S'Damascus bombing kills 12'
p40
sS'det_loc'
p41
(lp42
S'Syria'
p43
ag32
ag32
ag32
aS'central Damascus'
p44
asS'terror_group'
p45
(lp46
g32
asS'content'
p47
S'A powerful suicide car bomb ripped through part of central Damascus on Monday , Syrian state media reported , with medical officials saying at least 12 people had been killed and 45 wounded . Terrorists detonate car bomb between Sabaa Bahrat square and Shahbander Street , state television reported , adding preliminary information suggested the explosion was a suicide attack . An AFP correspondent said the explosion caused extensive damage and intense gunfire could be heard shortly afterwards . The force of the blast blew out the windows of the AFP bureau in Damascus , but no staff were hurt . Firefighters rushed to the area and were working to put out fires in cars set ablaze by the explosion , which one state broadcaster said took place near a school , adding children were believed to be among the dead and wounded . On March 21 , a strong explosion ripped through a Damascus mosque killing at least 49 people , including a key pro-regime Sunni cleric . AFP OPEN'
p48
sS'injured'
p49
S'45'
p50
sS'org_unorg'
p51
S'ORGANISED'
p52
sS'O'
p53
(lp54
S'suicide attack:59'
p55
aS'explosion:67'
p56
aS'extensive damage:69'
p57
aS'intense gunfire:72'
p58
aS'afp:91'
p59
aS'firefighters:102'
p60
aS'mosque:156'
p61
aS'killing:157'
p62
aS'49 people:160'
p63
aS'pro-regime:166'
p64
asS'unexpl'
p65
(lp66
S'DETONATE CAR'
p67
asS'ocassion'
p68
g32
sS'link'
p69
S'http://www.thehindu.com/todays-paper/tp-international/damascus-bombing-kills-12/article4596772.ece'
p70
sS'date'
p71
S'08-04-2013'
p72
sS'target'
p73
g32
sS'hot_spot'
p74
S'central Damascus'
p75
sS'delivery_mod'
p76
S'CAR'
p77
sS'delivery_met'
p78
S'SUICIDE ATTACKERS'
p79
sS'expl'
p80
(lp81
g32
asS'ORG'
p82
(lp83
(lp84
S'Syrian state media'
p85
aS'15'
p86
aS'Others'
p87
aa(lp88
S'medical officials'
p89
aS'21'
p90
aS'Others'
p91
aa(lp92
S'Terrorists'
p93
aS'35'
p94
aS'Accused'
p95
aa(lp96
S'state television'
p97
aS'47'
p98
aS'Others'
p99
aa(lp100
S'AFP'
p101
aS'63'
p102
aS'Others'
p103
aa(lp104
S'AFP'
p105
aS'91'
p106
aS'Others'
p107
aa(lp108
S'school'
p109
aS'131'
p110
aS'Others'
p111
aas.