(dp0
S'LOC'
p1
(lp2
(lp3
S'U.S.'
p4
aS'6'
p5
aS'Neutral'
p6
aa(lp7
S'Afghanistan'
p8
aS'10'
p9
aS'Event'
p10
aa(lp11
S'Zhari'
p12
aS'52'
p13
aS'Event'
p14
aa(lp15
S'Kandahar'
p16
aS'55'
p17
aS'Neutral'
p18
aa(lp19
S'Kandahar province'
p20
aS'55'
p21
aS'Event'
p22
aa(lp23
S'Afghanistan'
p24
aS'72'
p25
aS'Event'
p26
aa(lp27
S'Helmand province'
p28
aS'88'
p29
aS'Neutral'
p30
aasS'PER'
p31
(lp32
(lp33
S'Thomas Collins'
p34
aS'41'
p35
aS'Comment'
p36
aasS'TIM'
p37
(lp38
sS'hot_setting'
p39
S''
p40
sS'DAT'
p41
(lp42
S'Tuesday:12'
p43
asS'death'
p44
g5
sS'title'
p45
S'U.S. soldiers killed'
p46
sS'org_unorg'
p47
g40
sS'terror_group'
p48
(lp49
S'TALIBAN'
p50
asS'content'
p51
S'A roadside bomb struck a U.S. convoy in southern Afghanistan on Tuesday , killing three American troops , while a motorcycle bomb in a crowded village market killed at least three Afghan civilians , said officials . NATO spokesman Col. Thomas Collins said the blast hit the American convoy in the Zhari district of Kandahar province , the spiritual heartland of the Taliban and one of the most volatile regions in Afghanistan . The attack follows a truck bombing a day earlier on a NATO outpost in Helmand province that killed three Georgian soldiers . AP OPEN'
p52
sS'injured'
p53
g40
sS'det_loc'
p54
(lp55
S'Afghanistan'
p56
ag40
ag40
aS'Kandahar'
p57
ag40
asS'O'
p58
(lp59
S'roadside bomb struck:2'
p60
aS'u.s. convoy:6'
p61
aS'American troops:16'
p62
aS'motorcycle bomb:21'
p63
aS'crowded village market:25'
p64
aS'Afghan civilians:32'
p65
aS'blast:45'
p66
aS'American convoy:48'
p67
aS'spiritual heartland:59'
p68
aS'volatile regions:69'
p69
aS'attack:75'
p70
aS'truck bombing:78'
p71
aS'Georgian soldiers:93'
p72
asS'unexpl'
p73
(lp74
g40
asS'ocassion'
p75
g40
sS'link'
p76
S'http://www.thehindu.com/todays-paper/tp-international/us-soldiers-killed/article4716343.ece'
p77
sS'date'
p78
S'14-05-2013'
p79
sS'target'
p80
S'ROAD SIDE'
p81
sS'hot_spot'
p82
g40
sS'delivery_mod'
p83
S'FOUR WHEELER'
p84
sS'delivery_met'
p85
S'PLANTED'
p86
sS'expl'
p87
(lp88
g40
asS'ORG'
p89
(lp90
(lp91
S'NATO'
p92
aS'38'
p93
aS'Others'
p94
aa(lp95
S'Taliban'
p96
aS'63'
p97
aS'Accused'
p98
aa(lp99
S'NATO'
p100
aS'85'
p101
aS'Others'
p102
aa(lp103
S'AP'
p104
aS'96'
p105
aS'Others'
p106
aas.