(dp0
S'LOC'
p1
(lp2
(lp3
S'Hyderabad'
p4
aS'15'
p5
aS'Neutral'
p6
aa(lp7
S'Mecca Masjid'
p8
aS'75'
p9
aS'Event'
p10
aa(lp11
S'Dilsukhnagar area'
p12
aS'100'
p13
aS'Neutral'
p14
aa(lp15
S'Dilsukhnagar'
p16
aS'100'
p17
aS'Neutral'
p18
aa(lp19
S'Dilsukhnagar area'
p20
aS'100'
p21
aS'Neutral'
p22
aa(lp23
S'recceed Dilsukhnagar'
p24
aS'141'
p25
aS'Neutral'
p26
aa(lp27
S'Dilsukhnagar'
p28
aS'142'
p29
aS'Neutral'
p30
aa(lp31
S'Delhi'
p32
aS'162'
p33
aS'Neutral'
p34
aa(lp35
S'Delhi court'
p36
aS'162'
p37
aS'Neutral'
p38
aa(lp39
S'Tihar Jail'
p40
aS'175'
p41
aS'Accused Location'
p42
aa(lp43
S'Pune'
p44
aS'206'
p45
aS'Event'
p46
aa(lp47
S'Hyderabad'
p48
aS'244'
p49
aS'Event'
p50
aa(lp51
S'Cyberabad police commissionerates'
p52
aS'246'
p53
aS'Event'
p54
aasS'PER'
p55
(lp56
(lp57
S'Syed Maqbool'
p58
aS'188'
p59
aS'Assoc Accused'
p60
aa(lp61
S'Imran Khan'
p62
aS'191'
p63
aS'Assoc Accused'
p64
aasS'TIM'
p65
(lp66
sS'hot_setting'
p67
S''
p68
sS'DAT'
p69
(lp70
S'2007:74'
p71
aS'Feb 21 : 103'
p72
aS'Thursday:165'
p73
aS'2012:205'
p74
asS'death'
p75
S'16'
p76
sS'title'
p77
S'A week on, police still groping in the dark over Hyderabad blasts'
p78
sS'det_loc'
p79
(lp80
S'India'
p81
ag68
ag68
ag68
aS'Hyderabad'
p82
asS'terror_group'
p83
(lp84
g68
asS'content'
p85
S'There has been no investigative breakthrough even a week after the terrorist attack in Hyderabad that killed 16 people and injured over 100 . Despite claims by the police of obtaining many clues , it appears to be still groping in the dark . No one has been arrested so far in connection with the twin bomb blasts , though police picked up for questioning many youth including some who were acquitted in 2007 Mecca Masjid blast . The multi-agency investigators have yet to establish identity the terror group behind the blasts . The terror attack in the crowded Dilsukhnagar area on Feb 21 evening killed 16 people and left 117 others wounded . Under fire for its failure to prevent the attacks despite admission by alleged operatives of the banned terror outfit Indian Mujahideen ( IM ) that they recceed Dilsukhnagar , the Andhra Pradesh Police may hand over the probe to National Investigation Agency ( NIA ) . A Delhi court on Thursday sent two alleged operatives of IM , lodged in Tihar Jail , to NIA custody for questioning . The NIA will question Syed Maqbool and Imran Khan for five days . The two were arrested late last year in 2012 Pune blasts case . NIA , which has already spread the probe to several states , is looking to piece together the information to track down the culprits . Since the blasts took place on the border between Hyderabad and Cyberabad police commissionerates , the police of both the commissionerates are probing the attacks besides Special Investigation Team ( SIT ) , Crime Investigation Department ( CID ) CounterIntelligence and Octopus , the antiterror wing of state police . The NIA , Intelligence Bureau ( IB ) and National Security Guard ( NSG ) are also participating in the investigations.IANS OPEN'
p86
sS'injured'
p87
S'100'
p88
sS'org_unorg'
p89
S'ORGANISED'
p90
sS'O'
p91
(lp92
S'groping:40'
p93
aS'terror:95'
p94
aS'culprits:233'
p95
aS'investigations.ians:305'
p96
asS'unexpl'
p97
(lp98
g68
asS'ocassion'
p99
g68
sS'link'
p100
S'http://www.thehindu.com/todays-paper/tp-in-school/a-week-on-police-still-groping-in-the-dark-over-hyderabad-blasts/article4467339.ece'
p101
sS'date'
p102
S'21-02-2013'
p103
sS'target'
p104
g68
sS'hot_spot'
p105
S'Hyderabad'
p106
sS'delivery_mod'
p107
g68
sS'delivery_met'
p108
g68
sS'expl'
p109
(lp110
g68
asS'ORG'
p111
(lp112
(lp113
S'terrorist'
p114
aS'12'
p115
aS'Accused'
p116
aa(lp117
S'police'
p118
aS'29'
p119
aS'Others'
p120
aa(lp121
S'police'
p122
aS'61'
p123
aS'Others'
p124
aa(lp125
S'multi-agency investigators'
p126
aS'80'
p127
aS'Others'
p128
aa(lp129
S'Indian Mujahideen'
p130
aS'134'
p131
aS'Accused'
p132
aa(lp133
S'IM'
p134
aS'137'
p135
aS'Accused'
p136
aa(lp137
S'Andhra Pradesh'
p138
aS'145'
p139
aS'Others'
p140
aa(lp141
S'Police'
p142
aS'147'
p143
aS'Others'
p144
aa(lp145
S'National Investigation Agency'
p146
aS'154'
p147
aS'Others'
p148
aa(lp149
S'NIA'
p150
aS'158'
p151
aS'Others'
p152
aa(lp153
S'IM'
p154
aS'171'
p155
aS'Accused'
p156
aa(lp157
S'NIA'
p158
aS'179'
p159
aS'Others'
p160
aa(lp161
S'NIA'
p162
aS'185'
p163
aS'Others'
p164
aa(lp165
S'NIA'
p166
aS'210'
p167
aS'Others'
p168
aa(lp169
S'police'
p170
aS'251'
p171
aS'Others'
p172
aa(lp173
S'Special Investigation Team'
p174
aS'261'
p175
aS'Others'
p176
aa(lp177
S'SIT'
p178
aS'265'
p179
aS'Others'
p180
aa(lp181
S'Crime Investigation'
p182
aS'268'
p183
aS'Others'
p184
aa(lp185
S'Crime Investigation Department'
p186
aS'268'
p187
aS'Others'
p188
aa(lp189
S'CID'
p190
aS'272'
p191
aS'Others'
p192
aa(lp193
S'CounterIntelligence and Octopus'
p194
aS'274'
p195
aS'Others'
p196
aa(lp197
S'antiterror wing of state police'
p198
aS'279'
p199
aS'Others'
p200
aa(lp201
S'NIA'
p202
aS'286'
p203
aS'Others'
p204
aa(lp205
S'Intelligence Bureau'
p206
aS'288'
p207
aS'Others'
p208
aa(lp209
S'IB )'
p210
aS'291'
p211
aS'Others'
p212
aa(lp213
S'National Security Guard'
p214
aS'294'
p215
aS'Others'
p216
aa(lp217
S'NSG'
p218
aS'298'
p219
aS'Others'
p220
aas.