(dp0
S'LOC'
p1
(lp2
(lp3
S'Bodh Gayas Mahabodhi temple'
p4
aS'22'
p5
aS'Neutral'
p6
aa(lp7
S'Bihar'
p8
aS'27'
p9
aS'Neutral'
p10
aasS'PER'
p11
(lp12
sS'TIM'
p13
(lp14
sS'hot_setting'
p15
S''
p16
sS'DAT'
p17
(lp18
S'Tuesday:33'
p19
asS'death'
p20
g16
sS'title'
p21
S'Bodh Gaya blasts: Sleuths spot six suspects in CCTV clips'
p22
sS'org_unorg'
p23
S'ORGANISED'
p24
sS'terror_group'
p25
(lp26
g16
asS'content'
p27
S'Six suspects , including a woman , have been spotted in CCTV footage by investigators probing the 10 bomb explosions at Bodh Gayas Mahabodhi temple in Bihar , police officials said on Tuesday . We have detected six suspects , including a woman , since their movement close to the temple gate and wall , hours before the blasts , were captured in the CCTV footage , said a police official involved in looking at the footage . According to police officials , the CCTV footage shows three people entered the temple premises through unspecified entry points and two others stood near the gate close to the car they came in . One of them , who is the tallest , carried a bag on his shoulder . OPEN'
p28
sS'injured'
p29
g16
sS'det_loc'
p30
(lp31
S'India'
p32
aS'Bihar'
p33
ag16
aS'Bodh Gaya'
p34
aS'Mahabodhi temple'
p35
asS'O'
p36
(lp37
S'woman:6'
p38
aS'cctv footage:12'
p39
aS'cctv:12'
p40
aS'footage:13'
p41
aS'bomb:19'
p42
aS'woman:43'
p43
aS'movement:47'
p44
aS'temple gate:51'
p45
aS'wall:54'
p46
aS'cctv footage:65'
p47
aS'cctv:65'
p48
aS'footage:66'
p49
aS'official:71'
p50
aS'footage:77'
p51
aS'cctv:85'
p52
aS'cctv footage:85'
p53
aS'cctv footage shows:85'
p54
aS'footage:86'
p55
aS'temple:92'
p56
aS'entry:96'
p57
aS'gate:104'
p58
aS'car:108'
p59
aS'bag:124'
p60
aS'shoulder:127'
p61
asS'unexpl'
p62
(lp63
g16
asS'ocassion'
p64
g16
sS'link'
p65
S'http://www.thehindu.com/todays-paper/tp-in-school/bodh-gaya-blasts-sleuths-spot-six-suspects-in-cctv-clips/article4899329.ece'
p66
sS'date'
p67
S'09-07-2013'
p68
sS'target'
p69
g16
sS'hot_spot'
p70
S'Mahabodhi temple'
p71
sS'delivery_mod'
p72
g16
sS'delivery_met'
p73
g16
sS'expl'
p74
(lp75
g16
asS'ORG'
p76
(lp77
(lp78
S'police'
p79
aS'29'
p80
aS'Others'
p81
aa(lp82
S'police'
p83
aS'70'
p84
aS'Others'
p85
aa(lp86
S'police'
p87
aS'81'
p88
aS'Others'
p89
aas.