(dp0
S'LOC'
p1
(lp2
(lp3
S'Patna village'
p4
aS'18'
p5
aS'Neutral'
p6
aa(lp7
S'Patna'
p8
aS'18'
p9
aS'Neutral'
p10
aa(lp11
S'Jagatsinghpur district administration'
p12
aS'24'
p13
aS'Neutral'
p14
aa(lp15
S'Jagatsinghpur'
p16
aS'24'
p17
aS'Neutral'
p18
aa(lp19
S'Jagatsinghpur district administration'
p20
aS'24'
p21
aS'Neutral'
p22
aa(lp23
S'Gobindpur'
p24
aS'51'
p25
aS'Neutral'
p26
aa(lp27
S'Gobindpur Blast'
p28
aS'261'
p29
aS'Neutral'
p30
aa(lp31
S'Gobindpur'
p32
aS'261'
p33
aS'Neutral'
p34
aa(lp35
S'Gobindpur Blast'
p36
aS'261'
p37
aS'Neutral'
p38
aasS'PER'
p39
(lp40
(lp41
S'Satyabrata Bhoi'
p42
aS'98'
p43
aS'Comment'
p44
aa(lp45
S'Bhoi'
p46
aS'99'
p47
aS'Comment'
p48
aa(lp49
S'president Abhaya'
p50
aS'234'
p51
aS'Comment'
p52
aasS'TIM'
p53
(lp54
S'anti-POSCO : 10'
p55
asS'hot_setting'
p56
S''
p57
sS'DAT'
p58
(lp59
S'Saturday:21'
p60
aS'Sunday:31'
p61
asS'death'
p62
S'3'
p63
sS'title'
p64
S'Posco land acquisition resumes'
p65
sS'org_unorg'
p66
S'Organized'
p67
sS'terror_group'
p68
(lp69
g57
asS'content'
p70
S'As uneasy calm prevailed after the death of three anti-POSCO project activists in a bomb explosion in Patna village on Saturday , the Jagatsinghpur district administration resumed acquiring land on Sunday for the South Korean majors mega steel plant . The betel vines of three persons were torn down at Gobindpur without any resistance many residents had fled the villages fearing police action and Rs . 10.45 lakh was paid in compensation . We have destroyed three vineyards . Land acquisition will be carried out on a bigger scale in the coming days , Superintendent of Police Satyabrata Bhoi said . The administration said one person was seriously injured in Saturdays explosion . But the Posco Pratirodh Sangram Samiti , which has been spearheading the movement against land acquisition , has urged all parties and rights organisations to carry out an independent investigation , charging the police with spreading a false propaganda over the deaths . The police claim that three persons lost their lives while preparing bombs is rubbish . In the past eight years of our struggle , we have never taken up arms . In fact , bombs were hurled at the three activists , who were in hiding for fear of police action . As heavy police deployment was made prior to the resumption of land acquisition , project supporters got excited and executed the fatal attack , PPSS president Abhaya Sahoo said . Betel vines of three persons destroyed at GobindpurBlast will not stop us , say protesters Betel vines of three persons destroyed at Gobindpur Blast will not stop us , say protesters OPEN'
p71
sS'injured'
p72
S'1'
p73
sS'det_loc'
p74
(lp75
S'India'
p76
aS'Bihar'
p77
aS'Jagatsinghpur'
p78
aS'patna'
p79
aS'Patna village '
p80
asS'O'
p81
(lp82
S'As:1'
p83
aS'calm:3'
p84
aS'death:7'
p85
aS'project:11'
p86
aS'bomb explosion:15'
p87
aS'village:19'
p88
aS'district administration:25'
p89
aS'steel plant:38'
p90
aS'betel:42'
p91
aS'resistance:54'
p92
aS'action:63'
p93
aS'rs:65'
p94
aS'compensation:72'
p95
aS'land acquisition:80'
p96
aS'scale:89'
p97
aS'superintendent:95'
p98
aS'administration:103'
p99
aS'person:106'
p100
aS'saturdays explosion:111'
p101
aS'movement:126'
p102
aS'land acquisition:128'
p103
aS'investigation:143'
p104
aS'propaganda:152'
p105
aS'claim:159'
p106
aS'struggle:179'
p107
aS'fact:189'
p108
aS'hurled at the three activists:193'
p109
aS'fear:204'
p110
aS'action:207'
p111
aS'deployment:212'
p112
aS'resumption:218'
p113
aS'land acquisition:220'
p114
aS'project:223'
p115
aS'attack:231'
p116
aS'president:234'
p117
aS'betel vines:239'
p118
aS'gobindpurblast:246'
p119
aS'betel:254'
p120
aS'betel vines:254'
p121
aS'blast:262'
p122
asS'unexpl'
p123
(lp124
g57
asS'ocassion'
p125
g57
sS'link'
p126
S'http://www.thehindu.com/todays-paper/tp-national/posco-land-acquisition-resumes/article4473428.ece'
p127
sS'date'
p128
S'02-03-2013'
p129
sS'target'
p130
g57
sS'hot_spot'
p131
g57
sS'delivery_mod'
p132
g57
sS'delivery_met'
p133
g57
sS'expl'
p134
(lp135
g57
asS'ORG'
p136
(lp137
(lp138
S'anti-POSCO'
p139
aS'10'
p140
aS'Others'
p141
aa(lp142
S'Posco Pratirodh Sangram Samiti'
p143
aS'116'
p144
aS'Others'
p145
aa(lp146
S'PPSS'
p147
aS'233'
p148
aS'Others'
p149
aas.