(dp0
S'LOC'
p1
(lp2
(lp3
S'Pakistan'
p4
aS'37'
p5
aS'Event'
p6
aa(lp7
S'Peshawar'
p8
aS'62'
p9
aS'Event'
p10
aasS'PER'
p11
(lp12
(lp13
S'Chaudry Nisar Ali Khan'
p14
aS'32'
p15
aS'Comment'
p16
aa(lp17
S'Khan'
p18
aS'59'
p19
aS'Others'
p20
aasS'TIM'
p21
(lp22
sS'hot_setting'
p23
S''
p24
sS'DAT'
p25
(lp26
sS'death'
p27
S'78'
p28
sS'title'
p29
S'PAK-MINISTER'
p30
sS'org_unorg'
p31
g24
sS'terror_group'
p32
(lp33
S'TALIBAN'
p34
asS'content'
p35
S'Hours after a deadly suicide bombing killed 78 people , Pakistans Federal Interior Minister said that the government was committed to the difficult choice of pursuing negotiations with the Taliban . Chaudry Nisar Ali Khan said Pakistan has opted for talks with the militants in the quest for peace as picking war as an option was easy . Khan dashed to Peshawar to visit the victims of the church blast that killed 78 people and injured another 176 . PTI OPEN'
p36
sS'injured'
p37
S'176'
p38
sS'det_loc'
p39
(lp40
S'Pakistan'
p41
ag24
ag24
aS'Peshawar'
p42
ag24
asS'O'
p43
(lp44
S'suicide bombing:5'
p45
aS'pakistans federal interior minister:11'
p46
aS'government:18'
p47
aS'committed:20'
p48
aS'difficult choice:23'
p49
aS'pursuing negotiations:26'
p50
aS'talks:41'
p51
aS'militants:44'
p52
aS'peace:49'
p53
aS'picking war:51'
p54
aS'victims:66'
p55
aS'church blast:69'
p56
aS'176:78'
p57
asS'unexpl'
p58
(lp59
g24
asS'ocassion'
p60
g24
sS'link'
p61
S'http://www.thehindu.com/todays-paper/tp-in-school/pakminister/article5161417.ece'
p62
sS'date'
p63
S'24-09-2013'
p64
sS'target'
p65
S'CHURCH'
p66
sS'hot_spot'
p67
g24
sS'delivery_mod'
p68
g24
sS'delivery_met'
p69
g24
sS'expl'
p70
(lp71
g24
asS'ORG'
p72
(lp73
(lp74
S'Taliban'
p75
aS'30'
p76
aS'Accused'
p77
aa(lp78
S'PTI'
p79
aS'80'
p80
aS'Others'
p81
aas.