(dp0
S'LOC'
p1
(lp2
(lp3
S'Dilsukhnagar'
p4
aS'44'
p5
aS'Event'
p6
aa(lp7
S'Hyderabad'
p8
aS'72'
p9
aS'Event'
p10
aa(lp11
S'Ranga Reddy'
p12
aS'74'
p13
aS'Event'
p14
aasS'PER'
p15
(lp16
(lp17
S'Chief Minister N. Kiran Kumar Reddy'
p18
aS'1'
p19
aS'Comment'
p20
aa(lp21
S'N. Kiran Kumar Reddy'
p22
aS'3'
p23
aS'Comment'
p24
aa(lp25
S'Ranga Reddy'
p26
aS'74'
p27
aS'Comment'
p28
aasS'TIM'
p29
(lp30
sS'hot_setting'
p31
S''
p32
sS'DAT'
p33
(lp34
S'Sunday:8'
p35
asS'death'
p36
g32
sS'title'
p37
S'Ex gratia for kin of blast victims cleared: Kiran'
p38
sS'org_unorg'
p39
S'Organized'
p40
sS'terror_group'
p41
(lp42
g32
asS'content'
p43
S'Chief Minister N. Kiran Kumar Reddy on Sunday said the government had cleared payment of ex gratia of Rs . 6 lakh to the kin of each of the 16 persons who lost their lives in the recent , twin bomb blasts at Dilsukhnagar . After a review meeting , he said no effort was being spared to help the injured with medical assistance . He asked the District Collectors of Hyderabad and Ranga Reddy districts to ensure that the best of medical care was given to those who were injured and being treated at different hospitals . He said of the over 100 injured who were undergoing treatment in various hospitals in and around the State capital , 62 had fully recovered OPEN'
p44
sS'injured'
p45
S'100'
p46
sS'det_loc'
p47
(lp48
S'India'
p49
aS'Andhra Pradesh'
p50
aS'Rangareddy'
p51
aS'hyderabad'
p52
aS'Dilsukhnagar'
p53
asS'O'
p54
(lp55
S'government:11'
p56
aS'payment:14'
p57
aS'gratia:17'
p58
aS'Rs . 6 lakh:19'
p59
aS'kin:25'
p60
aS'twin bomb:40'
p61
aS'review meeting:48'
p62
aS'effort:54'
p63
aS'help:59'
p64
aS'assistance:64'
p65
aS'district collectors:69'
p66
aS'district:69'
p67
aS'care:84'
p68
aS'treatment:109'
p69
aS'state capital:117'
p70
asS'unexpl'
p71
(lp72
g32
asS'ocassion'
p73
g32
sS'link'
p74
S'http://www.thehindu.com/todays-paper/tp-national/tp-andhrapradesh/ex-gratia-for-kin-of-blast-victims-cleared-kiran/article4473520.ece'
p75
sS'date'
p76
S'21-02-2013'
p77
sS'target'
p78
g32
sS'hot_spot'
p79
g32
sS'delivery_mod'
p80
g32
sS'delivery_met'
p81
g32
sS'expl'
p82
(lp83
g32
asS'ORG'
p84
(lp85
s.