(dp0
S'LOC'
p1
(lp2
(lp3
S'NEW DELHI:'
p4
aS'0'
p5
aS'Neutral'
p6
aa(lp7
S'Delhi'
p8
aS'2'
p9
aS'Neutral'
p10
aa(lp11
S'Buddhist shrines'
p12
aS'33'
p13
aS'Event'
p14
aa(lp15
S'Bodh Gaya'
p16
aS'36'
p17
aS'Event'
p18
aa(lp19
S'Pune'
p20
aS'70'
p21
aS'Event'
p22
aa(lp23
S'Hyderabad'
p24
aS'90'
p25
aS'Victim Location'
p26
aa(lp27
S'Buddhist shrines'
p28
aS'144'
p29
aS'Event'
p30
aa(lp31
S'Bodh Gaya'
p32
aS'147'
p33
aS'Event'
p34
aa(lp35
S'Myanmar'
p36
aS'160'
p37
aS'Event'
p38
aa(lp39
S'Pune'
p40
aS'208'
p41
aS'Event'
p42
aa(lp43
S'Buddhist shrines'
p44
aS'228'
p45
aS'Event'
p46
aa(lp47
S'Bodh Gaya'
p48
aS'231'
p49
aS'Event'
p50
aa(lp51
S'Pune'
p52
aS'270'
p53
aS'Event'
p54
aa(lp55
S'Dilkushnagar'
p56
aS'285'
p57
aS'Event'
p58
aa(lp59
S'Begum Bazar'
p60
aS'287'
p61
aS'Event'
p62
aa(lp63
S'Hyderabad'
p64
aS'292'
p65
aS'Event'
p66
aa(lp67
S'Dilkushnagar'
p68
aS'308'
p69
aS'Event'
p70
aa(lp71
S'Buddhist shrines'
p72
aS'336'
p73
aS'Event'
p74
aa(lp75
S'Bodh Gaya'
p76
aS'339'
p77
aS'Event'
p78
aasS'PER'
p79
(lp80
(lp81
S'Sayed Maqbool'
p82
aS'19'
p83
aS'Accused'
p84
aa(lp85
S'Maqbools'
p86
aS'66'
p87
aS'Accused'
p88
aa(lp89
S'Asad Khan'
p90
aS'111'
p91
aS'Accused'
p92
aa(lp93
S'Imran Khan'
p94
aS'114'
p95
aS'Accused'
p96
aa(lp97
S'Sayed Feroz'
p98
aS'117'
p99
aS'Accused'
p100
aa(lp101
S'Landge Irfan Mustafa'
p102
aS'120'
p103
aS'Accused'
p104
aa(lp105
S'Maqbool'
p106
aS'132'
p107
aS'Accused'
p108
aa(lp109
S'fidayeen'
p110
aS'140'
p111
aS'Accused'
p112
aa(lp113
S'Bhatkal'
p114
aS'170'
p115
aS'Accused'
p116
aa(lp117
S'Maqbool'
p118
aS'182'
p119
aS'Accused'
p120
aa(lp121
S'Imran'
p122
aS'185'
p123
aS'Accused'
p124
aa(lp125
S'Asad'
p126
aS'187'
p127
aS'Accused'
p128
aa(lp129
S'Imran'
p130
aS'198'
p131
aS'Accused'
p132
aa(lp133
S'Bhatkal'
p134
aS'203'
p135
aS'Accused'
p136
aa(lp137
S'Maqbool'
p138
aS'215'
p139
aS'Accused'
p140
aa(lp141
S'Irfan'
p142
aS'217'
p143
aS'Accused'
p144
aa(lp145
S'Imran'
p146
aS'219'
p147
aS'Accused'
p148
aa(lp149
S'Asad'
p150
aS'221'
p151
aS'Accused'
p152
aa(lp153
S'Qateel Siddiqui'
p154
aS'249'
p155
aS'Accused'
p156
aa(lp157
S'Maqbool'
p158
aS'275'
p159
aS'Accused'
p160
aa(lp161
S'Imran'
p162
aS'279'
p163
aS'Accused'
p164
aa(lp165
S'fidayeen'
p166
aS'333'
p167
aS'Accused'
p168
aasS'TIM'
p169
(lp170
sS'hot_setting'
p171
S''
p172
sS'DAT'
p173
(lp174
S'July 8,2013 : 0'
p175
aS'October:23'
p176
aS'October 26 , 2012 : 56'
p177
aS'October 23:96'
p178
aS'April 2012:195'
p179
aS'August:212'
p180
aS'February 21:310'
p181
aS'October:329'
p182
asS'death'
p183
g172
sS'title'
p184
S'Delhi Police warning went in vain'
p185
sS'org_unorg'
p186
S'ORGANISED'
p187
sS'terror_group'
p188
(lp189
S'INDIAN MUJAHIDEEN'
p190
asS'content'
p191
S'The Delhi Police Special Cell had , on the basis of revelations made by alleged Indian Mujahideen terrorist Sayed Maqbool , last October disclosed that the banned outfit planned to target the Buddhist shrines in Bodh Gaya . The police had shared the input with the agencies concerned almost nine months ago . Through an October 26 , 2012 release , the Special Cell announced Maqbools arrest in the Pune blasts case . It said he was a trainer in improvised explosive devices . He was tracked down to Hyderabad where he was arrested on October 23 last year . Based on the purported disclosures of other suspected IM members Asad Khan , Imran Khan , Sayed Feroz and Landge Irfan Mustafa the police had said the four , along with Maqbool , had planned to carry out a fidayeen attack at the Buddhist shrines in Bodh Gaya in retaliation to the alleged atrocities being committed on Muslims in Myanmar . Their plan had the approval and support of Bhatkal brothers -LSB- alleged IM founders -RSB- . The Special Cell said Maqbool had taught Imran and Asad how to configure a bomb . In April 2012 , Imran introduced him to the Bhatkal brothers . Before the Pune serial blasts in August last , Maqbool , Irfan , Imran and Asad discussed their plan to target the Buddhist shrines in Bodh Gaya , said the release , adding that since the Bhatkals wanted to avenge the death of Qateel Siddiqui ( a terror suspect killed in Punes Yerawada Jail ) , they decided to first carry out blasts in Pune . The police said Maqbool last year helped Imran in conducting a reconnaissance of Dilkushnagar , Begum Bazar and Abids in Hyderabad on a motorcycle . Incidentally , two blasts were triggered that claimed 18 lives in Dilkushnagar on February 21 . No arrests have been made in the case so far . Special Cell had warned in October that IM plans fidayeen attack at Buddhist shrines in Bodh Gaya OPEN'
p192
sS'injured'
p193
g172
sS'det_loc'
p194
(lp195
S'India'
p196
aS'Bihar'
p197
ag172
ag172
aS'Bodh Gaya '
p198
asS'O'
p199
(lp200
S'terrorist:18'
p201
aS'target:31'
p202
aS'cell:64'
p203
aS'pune blasts case:70'
p204
aS'explosive:82'
p205
aS'muslims:158'
p206
aS'plan:163'
p207
aS'target:226'
p208
aS'terror suspect:253'
p209
aS'yerawada jail:258'
p210
aS'reconnaissance:283'
p211
aS'motorcycle:295'
p212
asS'unexpl'
p213
(lp214
g172
asS'ocassion'
p215
g172
sS'link'
p216
S'http://www.thehindu.com/todays-paper/tp-national/delhi-police-warning-went-in-vain/article4893099.ece'
p217
sS'date'
p218
S'26-10-2012'
p219
sS'target'
p220
S'RELIGIOUS PLACES'
p221
sS'hot_spot'
p222
S'Bodh Gaya '
p223
sS'delivery_mod'
p224
g172
sS'delivery_met'
p225
S'PLANTED'
p226
sS'expl'
p227
(lp228
g172
asS'ORG'
p229
(lp230
(lp231
S'Delhi Police Special Cell'
p232
ag9
aS'Others'
p233
aa(lp234
S'Indian Mujahideen'
p235
aS'16'
p236
aS'Accused'
p237
aa(lp238
S'police'
p239
aS'40'
p240
aS'Others'
p241
aa(lp242
S'Special Cell'
p243
aS'63'
p244
aS'Others'
p245
aa(lp246
S'IM'
p247
aS'109'
p248
aS'Accused'
p249
aa(lp250
S'police'
p251
aS'124'
p252
aS'Others'
p253
aa(lp254
S'IM'
p255
aS'174'
p256
aS'Accused'
p257
aa(lp258
S'Special Cell'
p259
aS'179'
p260
aS'Others'
p261
aa(lp262
S'police'
p263
aS'273'
p264
aS'Others'
p265
aa(lp266
S'IM'
p267
aS'331'
p268
aS'Accused'
p269
aas.