(dp0
S'LOC'
p1
(lp2
(lp3
S'Malleswaram'
p4
aS'20'
p5
aS'Event'
p6
aasS'PER'
p7
(lp8
(lp9
S'Leesha N.S.'
p10
aS'6'
p11
aS'Victim'
p12
aa(lp13
S'Rakshita Sujai'
p14
aS'9'
p15
aS'Victim'
p16
aa(lp17
S'S.P. Kulkarni'
p18
aS'106'
p19
aS'Others'
p20
aasS'TIM'
p21
(lp22
sS'hot_setting'
p23
S''
p24
sS'DAT'
p25
(lp26
S'April 17:22'
p27
asS'death'
p28
S'0'
p29
sS'title'
p30
S'Two blast victims to write CET in hospital'
p31
sS'det_loc'
p32
(lp33
S'India'
p34
aS'Karnataka'
p35
aS'Bangalore Urban'
p36
aS'Malleswaram'
p37
ag24
asS'terror_group'
p38
(lp39
g24
asS'content'
p40
S'All is not lost for Leesha N.S. and Rakshita Sujai , both victims of the bomb blasts that rocked Malleswaram on April 17 . The Karnataka Examinations Authority ( KEA ) , acting on the request of the two girls , has made arrangments for them to appear for the CET exam in the M.S. Ramaiah Memorial Hospital , where they are recuperating . A press note from the hospital said that a separate room will be designated for the conduct of the examination for the two patients , who are still bedridden and unable to move out of bed . A team led by S.P. Kulkarni , Administrative Officer , KEA , visited the hospital to ensure that all the arrangements are in place , the press release added . OPEN'
p41
sS'injured'
p42
g29
sS'org_unorg'
p43
S'Organized'
p44
sS'O'
p45
(lp46
S'bomb:16'
p47
aS'request:36'
p48
aS'cet:51'
p49
aS'cet exam:51'
p50
aS'exam:52'
p51
aS'press note:66'
p52
aS'hospital:70'
p53
aS'room:75'
p54
aS'conduct:81'
p55
aS'examination:84'
p56
aS'move:97'
p57
aS'bed:100'
p58
aS'team:103'
p59
aS'administrative officer:109'
p60
aS'hospital:116'
p61
aS'place:125'
p62
aS'press release:128'
p63
asS'unexpl'
p64
(lp65
g24
asS'ocassion'
p66
g24
sS'link'
p67
S'http://www.thehindu.com/todays-paper/tp-national/two-blast-victims-to-write-cet-in-hospital/article4659307.ece'
p68
sS'date'
p69
S'17-04-2013'
p70
sS'target'
p71
g24
sS'hot_spot'
p72
g24
sS'delivery_mod'
p73
g24
sS'delivery_met'
p74
g24
sS'expl'
p75
(lp76
g24
asS'ORG'
p77
(lp78
(lp79
S'Karnataka Examinations Authority'
p80
aS'26'
p81
aS'Others'
p82
aa(lp83
S'M.S. Ramaiah Memorial Hospital'
p84
aS'55'
p85
aS'Others'
p86
aas.