(dp0
S'LOC'
p1
(lp2
(lp3
S'Harijan Street'
p4
aS'9'
p5
aS'Event'
p6
aa(lp7
S'Gosaninuagaon'
p8
aS'12'
p9
aS'Event'
p10
aa(lp11
S'Berhampur'
p12
aS'15'
p13
aS'Event'
p14
aa(lp15
S'Gosaninuagaon'
p16
aS'21'
p17
aS'Neutral'
p18
aa(lp19
S'Upendra Hati'
p20
aS'51'
p21
aS'Event'
p22
aasS'PER'
p23
(lp24
sS'TIM'
p25
(lp26
S'11 a.m.:55'
p27
asS'hot_setting'
p28
S''
p29
sS'DAT'
p30
(lp31
S'Saturday : 17'
p32
asS'death'
p33
g29
sS'title'
p34
S'3 hurt in bomb blast'
p35
sS'org_unorg'
p36
g29
sS'terror_group'
p37
(lp38
g29
asS'content'
p39
S'A bomb was blasted targeting a house at Harijan Street of Gosaninuagaon area of Berhampur on Saturday . According to Gosaninuagaon police , three persons of the targeted family including two women received minor injuries . As per eyewitnesses , two youths hurled bomb at the backdoor of home of Upendra Hati at around 11 a.m. . Past rivalry between neighbours was suspected to be the reason behind this incident , police sources said . OPEN'
p40
sS'injured'
p41
S'3'
p42
sS'det_loc'
p43
(lp44
S'India'
p45
aS'Orissa'
p46
aS'Ganjam'
p47
aS'Berhampur'
p48
ag29
asS'O'
p49
(lp50
S'bomb:2'
p51
aS'blasted:4'
p52
aS'targeting a house:5'
p53
aS'targeted family:28'
p54
aS'minor injuries:34'
p55
aS'eyewitnesses:39'
p56
aS'two youths:41'
p57
aS'hurled bomb:43'
p58
aS'backdoor:47'
p59
aS'rivalry:59'
p60
aS'suspected:63'
p61
aS'reason:67'
p62
asS'unexpl'
p63
(lp64
g29
asS'ocassion'
p65
g29
sS'link'
p66
S'http://www.thehindu.com/todays-paper/tp-national/tp-otherstates/3-hurt-in-bomb-blast/article4796779.ece'
p67
sS'date'
p68
S'08-06-2013'
p69
sS'target'
p70
S'HOUSE'
p71
sS'hot_spot'
p72
g29
sS'delivery_mod'
p73
g29
sS'delivery_met'
p74
S'THROWN'
p75
sS'expl'
p76
(lp77
g29
asS'ORG'
p78
(lp79
s.