(dp0
S'LOC'
p1
(lp2
(lp3
S'Malleswaram'
p4
aS'16'
p5
aS'Event'
p6
aa(lp7
S'Satyamangalam'
p8
aS'85'
p9
aS'Event'
p10
aa(lp11
S'Coimbatore'
p12
aS'92'
p13
aS'Event'
p14
aa(lp15
S'Tamil Nadu'
p16
aS'123'
p17
aS'Neutral'
p18
aa(lp19
S'Salem'
p20
aS'179'
p21
aS'Neutral'
p22
aa(lp23
S'Siddique'
p24
aS'195'
p25
aS'Accused Location'
p26
aasS'PER'
p27
(lp28
(lp29
S'Mohammed Ali Khan Kutti'
p30
aS'1'
p31
aS'Accused'
p32
aa(lp33
S'Kutti'
p34
aS'77'
p35
aS'Accused'
p36
aa(lp37
S'Shamshuddin'
p38
aS'173'
p39
aS'Accused'
p40
aa(lp41
S'Shaheel Hameed Bagadur Shah'
p42
aS'188'
p43
aS'Accused'
p44
aa(lp45
S'Umar'
p46
aS'193'
p47
aS'Accused'
p48
aa(lp49
S'Zulfikhar Ali'
p50
aS'204'
p51
aS'Accused'
p52
aa(lp53
S'H.M. Omkaraiah'
p54
aS'261'
p55
aS'Comment'
p56
aasS'TIM'
p57
(lp58
sS'hot_setting'
p59
S''
p60
sS'DAT'
p61
(lp62
S'Monday:63'
p63
aS'April 17:216'
p64
asS'death'
p65
g60
sS'title'
p66
S'Five more suspects in blast case, court told'
p67
sS'org_unorg'
p68
S'ORGANISED'
p69
sS'terror_group'
p70
(lp71
g60
asS'content'
p72
S'Mohammed Ali Khan Kutti ( 35 ) , who has helping the families of the Malleswaram bomb blast case accused , is among the five under the scanner of the Central Crime Branch ( CCB ) sleuths investigating the case . The CCB , while seeking further custody of one of the suspects before the I Additional Metropolitan Magistrate Court here on Monday , said that there are five more suspects in the case . Mr. Kutti , a mobile phone shop owner from Satyamangalam , was an accused in the Coimbatore blast case but was acquitted by the Madras High Court . He is part of an NGO formed to provide legal assistance to other suspects languishing in various prisons across Tamil Nadu . He has been coordinating with advocates , helping the family members of the suspects by arranging for meetings in jail with court permission , and he frequently interacts with the police during every hearing , sources said . The other four suspects sought by the CCB are Shamshuddin , who is lodged in Salem jail in connection with a blast case , Shaheel Hameed Bagadur Shah , Umar and Siddique . Their names emerged during the questioning of Zulfikhar Ali , who is alleged to have provided explosives for the April 17 blast , the sources said . CCB officials said that only 11 have been arrested so far while many have been questioned . We got information about the new suspects based on the statements of the accused , said Assistant Commissioner of Police H.M. Omkaraiah , investigating officer in the case . One of them works with an NGO providing legal aid to those in custody OPEN'
p73
sS'injured'
p74
g60
sS'det_loc'
p75
(lp76
S'India'
p77
aS'Karnataka'
p78
ag60
aS'Bangalore'
p79
aS'Malleswaram'
p80
asS'O'
p81
(lp82
S'prisons:121'
p83
aS'jail:145'
p84
aS'court permission:147'
p85
aS'jail:180'
p86
aS'blast:185'
p87
aS'explosives:213'
p88
aS'assistant commissioner:257'
p89
aS'investigating officer:264'
p90
asS'unexpl'
p91
(lp92
g60
asS'ocassion'
p93
g60
sS'link'
p94
S'http://www.thehindu.com/todays-paper/tp-national/tp-karnataka/five-more-suspects-in-blast-case-court-told/article4758004.ece'
p95
sS'date'
p96
S'27-05-2013'
p97
sS'target'
p98
g60
sS'hot_spot'
p99
S'Malleswaram'
p100
sS'delivery_mod'
p101
g60
sS'delivery_met'
p102
g60
sS'expl'
p103
(lp104
g60
asS'ORG'
p105
(lp106
(lp107
S'Central Crime Branch ( CCB )'
p108
aS'31'
p109
aS'Others'
p110
aa(lp111
S'CCB'
p112
aS'43'
p113
aS'Others'
p114
aa(lp115
S'Additional Metropolitan Magistrate Court'
p116
aS'57'
p117
aS'Others'
p118
aa(lp119
S'Madras High Court'
p120
aS'100'
p121
aS'Others'
p122
aa(lp123
S'NGO'
p124
aS'109'
p125
aS'Others'
p126
aa(lp127
S'advocates'
p128
aS'131'
p129
aS'Others'
p130
aa(lp131
S'CCB'
p132
aS'171'
p133
aS'Others'
p134
aa(lp135
S'CCB'
p136
aS'224'
p137
aS'Others'
p138
aa(lp139
S'Police'
p140
aS'260'
p141
aS'Others'
p142
aa(lp143
S'NGO'
p144
aS'276'
p145
aS'Others'
p146
aas.