(dp0
S'LOC'
p1
(lp2
(lp3
S'Hazara'
p4
aS'9'
p5
aS'Event'
p6
aa(lp7
S'Quetta'
p8
aS'12'
p9
aS'Event'
p10
aa(lp11
S'Hazara'
p12
aS'53'
p13
aS'Event'
p14
aa(lp15
S'Quetta'
p16
aS'97'
p17
aS'Event'
p18
aa(lp19
S'Hazara'
p20
aS'119'
p21
aS'Event'
p22
aa(lp23
S'Hazara'
p24
aS'125'
p25
aS'Event'
p26
aa(lp27
S'Quetta'
p28
aS'132'
p29
aS'Event'
p30
aa(lp31
S'Quetta'
p32
aS'161'
p33
aS'Event'
p34
aa(lp35
S'Hazara'
p36
aS'164'
p37
aS'Event'
p38
aa(lp39
S'Balochistan'
p40
aS'179'
p41
aS'Neutral'
p42
aa(lp43
S'Hazara'
p44
aS'203'
p45
aS'Event'
p46
aa(lp47
S'Pakistan'
p48
aS'233'
p49
aS'Event'
p50
aa(lp51
S'Islamabad'
p52
aS'246'
p53
aS'Neutral'
p54
aa(lp55
S'Lahore'
p56
aS'248'
p57
aS'Neutral'
p58
aa(lp59
S'Karachi'
p60
aS'250'
p61
aS'Neutral'
p62
aa(lp63
S'Quetta'
p64
aS'256'
p65
aS'Event'
p66
aa(lp67
S'Hazara'
p68
aS'278'
p69
aS'Event'
p70
aasS'PER'
p71
(lp72
sS'TIM'
p73
(lp74
S'couple of years : 66'
p75
asS'hot_setting'
p76
S''
p77
sS'DAT'
p78
(lp79
S'Saturdays : 5'
p80
aS'Sunday : 134'
p81
aS'January : 156'
p82
asS'death'
p83
S'84'
p84
sS'title'
p85
S'Hazara Shias refuse to bury dead as blast toll reaches 84'
p86
sS'det_loc'
p87
(lp88
S'Pakistan'
p89
ag77
ag77
aS'Quetta'
p90
aS'Hazara town'
p91
asS'terror_group'
p92
(lp93
S'LASHKAR-E-JHANGVI (LEJ)'
p94
asS'content'
p95
S'The death toll in Saturdays bomb blast near Hazara Town in Quetta climbed to 84 and triggered another wave of protest across the country against sectarian violence and the inability of the powers that be to round up the terrorists unleashing such carnage with regular impunity . Most of the dead were Hazara Shias , a community that has been repeatedly targeted over the past couple of years . The dead included many women and children , some of whom were charred beyond recognition because of the fire that followed the massive explosion heard all over Quetta . The banned Lashkar-e-Jhangvi ( LeJ ) claimed responsibility for the attack and said the target was the Shia community of Hazara Town . Members of the Hazara Shia community picketed a thoroughfare of Quetta on Sunday demanding action against LeJ and refusing to bury those killed until those responsible were rounded up . A similar protest in January following serial blasts in Quetta targeting the Hazara Shias saw the federal government dismiss the provincial government and declare Governors Rule in Balochistan . Since Governors Rule and more powers to the security forces in the province have had little impact on sectarian violence , the Hazara Shias this time round have become more vocal in demanding action against LeJ despite the inherent risks in naming the organisation that wants Shias to be declared infidels in Pakistan . Even as protests spread to different parts of the country including Islamabad , Lahore and Karachi mass graves were dug in Quetta for the burial of those killed in the blast . Emotionally drained by the unrelenting attack on their community , the Hazara Shias lamented that they now had no burial space for their dead such is the rate at which they are being killed . OPEN'
p96
sS'injured'
p97
g77
sS'org_unorg'
p98
g77
sS'O'
p99
(lp100
S'death toll:2'
p101
aS'Saturdays bomb blast:5'
p102
aS'triggered:17'
p103
aS'protest:21'
p104
aS'sectarian violence:26'
p105
aS'terrorists unleashing:40'
p106
aS'carnage:43'
p107
aS'regular impunity:45'
p108
aS'Hazara Shias:53'
p109
aS'repeatedly targeted:61'
p110
aS'women and children:74'
p111
aS'charred:82'
p112
aS'massive explosion:92'
p113
aS'attack:109'
p114
aS'Shia:116'
p115
aS'Hazara Shia:125'
p116
aS'picketed a thoroughfare:128'
p117
aS'refusing to bury:140'
p118
aS'protest:154'
p119
aS'serial blasts:158'
p120
aS'Hazara Shias:164'
p121
aS'federal government:168'
p122
aS'provincial government:172'
p123
aS'Governors Rule:176'
p124
aS'Governors Rule:182'
p125
aS'security forces:189'
p126
aS'province:193'
p127
aS'sectarian violence:199'
p128
aS'Hazara Shias:203'
p129
aS'inherent risks:219'
p130
aS'Shias:227'
p131
aS'infidels:231'
p132
aS'protests spread:237'
p133
aS'blast:265'
p134
aS'Emotionally drained:267'
p135
aS'unrelenting attack:271'
p136
aS'Hazara Shias:278'
p137
aS'burial space:286'
p138
asS'unexpl'
p139
(lp140
g77
asS'ocassion'
p141
g77
sS'link'
p142
S'http://www.thehindu.com/todays-paper/tp-international/hazara-shias-refuse-to-bury-dead-as-blast-toll-reaches-84/article4426461.ece'
p143
sS'date'
p144
S'17-02-2013'
p145
sS'target'
p146
S'TOWN'
p147
sS'hot_spot'
p148
g77
sS'delivery_mod'
p149
g77
sS'delivery_met'
p150
S'PLANTED'
p151
sS'expl'
p152
(lp153
g77
asS'ORG'
p154
(lp155
(lp156
S'Lashkar-e-Jhangvi'
p157
aS'101'
p158
aS'Accused'
p159
aa(lp160
S'LeJ'
p161
aS'103'
p162
aS'Accused'
p163
aa(lp164
S'LeJ'
p165
aS'138'
p166
aS'Accused'
p167
aa(lp168
S'LeJ'
p169
aS'216'
p170
aS'Accused'
p171
aas.