(dp0
S'LOC'
p1
(lp2
(lp3
S'Bangalore'
p4
aS'9'
p5
aS'Event'
p6
aa(lp7
S'Malleswaram'
p8
aS'15'
p9
aS'Event'
p10
aa(lp11
S'Bangalore'
p12
aS'82'
p13
aS'Event'
p14
aa(lp15
S'Chennai'
p16
aS'116'
p17
aS'Accused Location'
p18
aasS'PER'
p19
(lp20
(lp21
S'Kichan Buhari'
p22
aS'33'
p23
aS'Accused'
p24
aa(lp25
S'Peer Mohideen'
p26
aS'36'
p27
aS'Accused'
p28
aa(lp29
S'Ahmed Basheer'
p30
aS'39'
p31
aS'Accused'
p32
aa(lp33
S'Raghavendra H. Auradkar'
p34
aS'47'
p35
aS'Others'
p36
aa(lp37
S'Basheer'
p38
aS'77'
p39
aS'Accused'
p40
aa(lp41
S'Peer Mohideens'
p42
aS'93'
p43
aS'Accused'
p44
aa(lp45
S'Aliyappa'
p46
aS'96'
p47
aS'Accused'
p48
aa(lp49
S'Mohideen'
p50
aS'110'
p51
aS'Accused'
p52
aa(lp53
S'Basheer'
p54
aS'112'
p55
aS'Accused'
p56
aa(lp57
S'Saleem'
p58
aS'119'
p59
aS'Accused'
p60
aa(lp61
S'Rasool'
p62
aS'121'
p63
aS'Accused'
p64
aasS'TIM'
p65
(lp66
sS'hot_setting'
p67
S''
p68
sS'DAT'
p69
(lp70
S'Thursday : 21'
p71
aS'Saturday : 56'
p72
asS'death'
p73
g68
sS'title'
p74
S'Blast suspects families cry foul'
p75
sS'org_unorg'
p76
S'ORGANISED'
p77
sS'terror_group'
p78
(lp79
g68
asS'content'
p80
S'The families of the suspects , arrested by Bangalore police in connection with the Malleswaram bomb blast case , on Thursday claimed that the three were innocent . Attempts by relatives of Kichan Buhari , Peer Mohideen and Ahmed Basheer to meet the City Police Commissioner Raghavendra H. Auradkar failed but secured an appointment on Saturday . They rejected the police claim that the trio orchestrated the blast after a recce of the area and said Basheer had never even visited Bangalore before . Meanwhile , the city police took into custody Peer Mohideens roommate Aliyappa ( 28 ) , who made a living selling biscuits to teashops . Mohideen and Basheer were arrested from Chennai along with Saleem and Rasool while they were shopping for a wedding . The latter two were released two days later . OPEN'
p81
sS'injured'
p82
g68
sS'det_loc'
p83
(lp84
S'India'
p85
aS'Karnataka'
p86
aS'Bangalore Urban'
p87
aS'Bangalore'
p88
aS'Malleswaram'
p89
asS'O'
p90
(lp91
S'suspects:5'
p92
aS'arrested:7'
p93
aS'bomb blast case:16'
p94
aS'innocent:27'
p95
aS'City Police Commissioner Raghavendra H. Auradkar:44'
p96
aS'secured:52'
p97
aS'rejected:59'
p98
aS'trio orchestrated:65'
p99
aS'arrested:114'
p100
aS'released:134'
p101
asS'unexpl'
p102
(lp103
g68
asS'ocassion'
p104
g68
sS'link'
p105
S'http://www.thehindu.com/todays-paper/tp-national/tp-karnataka/blast-suspects-families-cry-foul/article4655887.ece'
p106
sS'date'
p107
S'17-04-2013'
p108
sS'target'
p109
S'TOWN'
p110
sS'hot_spot'
p111
S'Malleswaram, a north-western district of Bangalore city'
p112
sS'delivery_mod'
p113
g68
sS'delivery_met'
p114
g68
sS'expl'
p115
(lp116
g68
asS'ORG'
p117
(lp118
s.