(dp0
S'LOC'
p1
(lp2
(lp3
S'Malleswaram'
p4
aS'17'
p5
aS'Event'
p6
aa(lp7
S'Coimbatore'
p8
aS'33'
p9
aS'Accused Location'
p10
aa(lp11
S'Thrissur'
p12
aS'38'
p13
aS'Neutral'
p14
aa(lp15
S'Kerala'
p16
aS'40'
p17
aS'Neutral'
p18
aa(lp19
S'Coimbatore'
p20
aS'63'
p21
aS'Accused Location'
p22
aasS'PER'
p23
(lp24
(lp25
S'Sulfiakar Ali'
p26
aS'26'
p27
aS'Accused'
p28
aa(lp29
S'Shabeer'
p30
aS'55'
p31
aS'Accused'
p32
aasS'TIM'
p33
(lp34
sS'hot_setting'
p35
S''
p36
sS'DAT'
p37
(lp38
S'April 17 : 19'
p39
asS'death'
p40
g36
sS'title'
p41
S'Another arrested in blast case'
p42
sS'org_unorg'
p43
g36
sS'terror_group'
p44
(lp45
g36
asS'content'
p46
S'The Special Investigation team has arrested one more suspect in connection with the bomb blast in Malleswaram on April 17 . The police said that Sulfiakar Ali ( 22 ) , from Coimbatore , was arrested in Thrissur in Kerala . He was arrested from the house of a relative of his friend , Shabeer ( 24 ) , a native of Coimbatore , who was also said to be detained . The arrest came after a tip-off . Meanwhile , the city police said that only one arrest had been made . Staff Reporter OPEN'
p47
sS'injured'
p48
g36
sS'det_loc'
p49
(lp50
S'India'
p51
aS'Karnataka'
p52
ag36
aS'Bangalore'
p53
aS'Malleswaram'
p54
asS'O'
p55
(lp56
S'arrested:6'
p57
aS'suspect:9'
p58
aS'bomb blast:14'
p59
aS'arrested:36'
p60
aS'not available'
p61
aS'detained:71'
p62
aS'tip-off:78'
p63
asS'unexpl'
p64
(lp65
g36
asS'ocassion'
p66
g36
sS'link'
p67
S'http://www.thehindu.com/todays-paper/another-arrested-in-blast-case/article4710095.ece'
p68
sS'date'
p69
S'17-04-2013'
p70
sS'target'
p71
g36
sS'hot_spot'
p72
g36
sS'delivery_mod'
p73
g36
sS'delivery_met'
p74
g36
sS'expl'
p75
(lp76
g36
asS'ORG'
p77
(lp78
(lp79
S'Special Investigation'
p80
aS'2'
p81
aS'Others'
p82
aas.