(dp0
S'LOC'
p1
(lp2
(lp3
S'Maharashtras'
p4
aS'20'
p5
aS'Event'
p6
aa(lp7
S'Latur'
p8
aS'21'
p9
aS'Event'
p10
aa(lp11
S'Latur'
p12
aS'132'
p13
aS'Event'
p14
aa(lp15
S'Maharashtra'
p16
aS'139'
p17
aS'Event'
p18
aasS'PER'
p19
(lp20
(lp21
S'R. R. Patil'
p22
aS'35'
p23
aS'Comment'
p24
aa(lp25
S'Patil'
p26
aS'130'
p27
aS'Comment'
p28
aasS'TIM'
p29
(lp30
sS'hot_setting'
p31
S''
p32
sS'DAT'
p33
(lp34
S'Sunday : 47'
p35
asS'death'
p36
g32
sS'title'
p37
S'Firecrackers caused Latur blast: R.R. Patil'
p38
sS'det_loc'
p39
(lp40
S'India'
p41
aS'Maharashtra'
p42
aS'Latur'
p43
ag32
ag32
asS'terror_group'
p44
(lp45
g32
asS'content'
p46
S'Explosive material used in making firecrackers are said to have caused the explosion in a State Transport bus in Maharashtras Latur district that left more than a dozen people injured . State Home Minister R. R. Patil , who visited the site of the incident on Sunday , said that there was no reason to suspect any terrorist hand in the blast as preliminary inquiries did not yield any splinters , wires or timer device from the spot of the incident , discounting the possibility of an Improvised Explosive Device in the explosion . The blast is clearly due to the explosive material used in manufacturing firecrackers . Further no traces of RDX or any other high-end explosive material used for making bombs have been found , said Mr. Patil in Latur , even as teams of the Maharashtra anti-terrorism squad ( ATS ) rushed to the district . OPEN'
p47
sS'injured'
p48
S'12'
p49
sS'org_unorg'
p50
g32
sS'O'
p51
(lp52
S'explosive material:1'
p53
aS'firecrackers:6'
p54
aS'explosion:13'
p55
aS'bus:18'
p56
aS'State Home Minister R. R. Patil:32'
p57
aS'terrorist:58'
p58
aS'blast:62'
p59
aS'preliminary inquiries:64'
p60
aS'splinters:70'
p61
aS'wires:72'
p62
aS'timer device:74'
p63
aS'Improvised Explosive Device:88'
p64
aS'explosion:93'
p65
aS'blast:96'
p66
aS'explosive material:102'
p67
aS'manufacturing firecrackers:106'
p68
aS'rdx:113'
p69
aS'bombs:123'
p70
aS'anti-terrorism squad:140'
p71
asS'unexpl'
p72
(lp73
g32
asS'ocassion'
p74
g32
sS'link'
p75
S'http://www.thehindu.com/todays-paper/tp-national/firecrackers-caused-latur-blast-rr-patil/article4709982.ece'
p76
sS'date'
p77
S'10-05-2013'
p78
sS'target'
p79
S'PUBLIC TRANSPORT'
p80
sS'hot_spot'
p81
S"A State Transport bus in Maharashtra's Latur district"
p82
sS'delivery_mod'
p83
S'BUS'
p84
sS'delivery_met'
p85
g32
sS'expl'
p86
(lp87
S'CRACKER BOMB'
p88
asS'ORG'
p89
(lp90
(lp91
S'State Transport'
p92
aS'16'
p93
aS'Victim'
p94
aa(lp95
S'anti-terrorism squad'
p96
aS'140'
p97
aS'Others'
p98
aa(lp99
S'ATS'
p100
aS'143'
p101
aS'Others'
p102
aas.