(dp0
S'LOC'
p1
(lp2
(lp3
S'Dilsukhnagar'
p4
aS'8'
p5
aS'Event'
p6
aa(lp7
S'Care Hospitals'
p8
aS'57'
p9
aS'Neutral'
p10
aa(lp11
S'Nampally'
p12
aS'60'
p13
aS'Neutral'
p14
aa(lp15
S'Yashoda Hospitals'
p16
aS'68'
p17
aS'Neutral'
p18
aa(lp19
S'Malakpet'
p20
aS'71'
p21
aS'Neutral'
p22
aa(lp23
S'Omni Hospitals'
p24
aS'76'
p25
aS'Neutral'
p26
aa(lp27
S'Kothapet'
p28
aS'79'
p29
aS'Neutral'
p30
aa(lp31
S'Yashoda Hospitals'
p32
aS'89'
p33
aS'Neutral'
p34
aa(lp35
S'Omni Hospitals'
p36
aS'129'
p37
aS'Neutral'
p38
aa(lp39
S'Care Hospitals'
p40
aS'154'
p41
aS'Neutral'
p42
aa(lp43
S'Gunfoundary'
p44
aS'190'
p45
aS'Neutral'
p46
aa(lp47
S'Yashoda Hospitals'
p48
aS'206'
p49
aS'Neutral'
p50
aasS'PER'
p51
(lp52
(lp53
S'Rama Murthy'
p54
aS'84'
p55
aS'Victim'
p56
aa(lp57
S'Pandu Ranga Reddy'
p58
aS'98'
p59
aS'Victim'
p60
aa(lp61
S'Rajitha'
p62
aS'102'
p63
aS'Victim'
p64
aa(lp65
S'Shiva Kumar'
p66
aS'104'
p67
aS'Victim'
p68
aa(lp69
S'Srinivas Rao'
p70
aS'107'
p71
aS'Victim'
p72
aa(lp73
S'Durga Prasad'
p74
aS'122'
p75
aS'Victim'
p76
aa(lp77
S'Rajendra Reddy'
p78
aS'125'
p79
aS'Victim'
p80
aa(lp81
S'Rajitha'
p82
aS'217'
p83
aS'Victim'
p84
aa(lp85
S'Pandu Ranga Reddy'
p86
aS'223'
p87
aS'Victim'
p88
aa(lp89
S'Shiva Kumar'
p90
aS'227'
p91
aS'Victim'
p92
aa(lp93
S'Rama Murthy'
p94
aS'230'
p95
aS'Victim'
p96
aasS'TIM'
p97
(lp98
sS'hot_setting'
p99
S''
p100
sS'DAT'
p101
(lp102
S'Wednesday : 92'
p103
aS'Wednesday : 193'
p104
asS'death'
p105
g100
sS'title'
p106
S'Between life and death, the survivors tale'
p107
sS'org_unorg'
p108
g100
sS'terror_group'
p109
(lp110
g100
asS'content'
p111
S"As many as 14 victims of the Dilsukhnagar bomb blasts continue to remain under intensive observation at three corporate hospitals in the city . Meanwhile , doctors maintained that majority of patients were likely to be discharged this week , while some were still under intensive care . Of the 14 patients , eight are at Care Hospitals , Nampally , while four are undergoing treatment at Yashoda Hospitals , Malakpet , and two at Omni Hospitals , Kothapet . A patient named Rama Murthy was discharged from Yashoda Hospitals on Wednesday , while four others , Pandu Ranga Reddy , Rajitha , Shiva Kumar and Srinivas Rao , continue to remain under observation . The condition of two patients , Durga Prasad and Rajendra Reddy , at Omni Hospitals remains stable , and they are likely to be discharged in a day or two . Close to eight patients are still at Care Hospitals , even as some of them are waiting for the governments ex gratia to be released before getting discharged . School 's gesture In a novel gesture , students of All Saints School , Gunfoundary , on Wednesday donated Rs .25,000 to the blast victims who are undergoing treatment at Yashoda Hospitals . They handed over cheques worth Rs .10,000 to Rajitha and Rs .5,000 each to Pandu Ranga Reddy , Shiva Kumar and Rama Murthy . Fourteen victims of the twin bomb blasts continue to remain under intensive medicare OPEN"
p112
sS'injured'
p113
g100
sS'det_loc'
p114
(lp115
S'India'
p116
aS'Andhra Pradesh'
p117
ag100
aS'Hydrabad'
p118
aS'Dilshuknagar'
p119
asS'O'
p120
(lp121
S'14 victims:4'
p122
aS'bomb blasts:9'
p123
aS'remain:13'
p124
aS'intensive observation:15'
p125
aS'three corporate hospitals:18'
p126
aS'majority of patients:30'
p127
aS'discharged:37'
p128
aS'intensive care:46'
p129
aS'14 patients:51'
p130
aS'undergoing treatment:65'
p131
aS'discharged:87'
p132
aS'remain:112'
p133
aS'under observation:113'
p134
aS'stable:132'
p135
aS'discharged:140'
p136
aS'eight patients:149'
p137
aS'waiting:163'
p138
aS'governments ex gratia:166'
p139
aS'released:171'
p140
aS'discharged:174'
p141
aS"School 's gesture:176"
p142
aS'novel gesture:181'
p143
aS'donated Rs .25,000:194'
p144
aS'blast victims:199'
p145
aS'undergoing treatment:203'
p146
aS'handed:210'
p147
aS'cheques:212'
p148
aS'Rs .10,000:214'
p149
aS'Rs .5,000:219'
p150
aS'Fourteen victims:233'
p151
aS'twin bomb blasts:237'
p152
aS'remain:242'
p153
aS'intensive medicare:244'
p154
asS'unexpl'
p155
(lp156
g100
asS'ocassion'
p157
g100
sS'link'
p158
S'http://www.thehindu.com/todays-paper/tp-in-school/between-life-and-death-the-survivors-tale/article4486367.ece'
p159
sS'date'
p160
S'21-02-2013'
p161
sS'target'
p162
S'PUBLIC PLACE'
p163
sS'hot_spot'
p164
g100
sS'delivery_mod'
p165
g100
sS'delivery_met'
p166
S'PLANTED'
p167
sS'expl'
p168
(lp169
g100
asS'ORG'
p170
(lp171
(lp172
S'All Saints School'
p173
aS'186'
p174
aS'Others'
p175
aas.