(dp0
S'LOC'
p1
(lp2
(lp3
S'Batlagundu'
p4
aS'9'
p5
aS'Neutral'
p6
aa(lp7
S'Dindigul'
p8
aS'11'
p9
aS'Neutral'
p10
aa(lp11
S'Madurai'
p12
aS'51'
p13
aS'Neutral'
p14
aa(lp15
S'Tenkasi'
p16
aS'84'
p17
aS'Accused Location'
p18
aa(lp19
S'Alampatti'
p20
aS'127'
p21
aS'Event'
p22
aa(lp23
S'Madurai'
p24
aS'129'
p25
aS'Event'
p26
aa(lp27
S'Tamil Nadu'
p28
aS'148'
p29
aS'Event'
p30
aa(lp31
S'Tenkasi'
p32
aS'246'
p33
aS'Assoc Event Location'
p34
aasS'PER'
p35
(lp36
(lp37
S'Nagoor Hanifa'
p38
aS'18'
p39
aS'Accused'
p40
aa(lp41
S'Mohamed Hanifa'
p42
aS'21'
p43
aS'Accused'
p44
aa(lp45
S'L.K. Advani'
p46
aS'41'
p47
aS'Victim'
p48
aa(lp49
S'John Nicholson'
p50
aS'76'
p51
aS'Others'
p52
aa(lp53
S'Hanifa'
p54
aS'79'
p55
aS'Accused'
p56
aa(lp57
S'Mr. Advani'
p58
aS'117'
p59
aS'Victim'
p60
aa(lp61
S'Hanifa'
p62
aS'212'
p63
aS'Accused'
p64
aa(lp65
S'Kumara Pandian'
p66
aS'240'
p67
aS'Assoc Victim'
p68
aa(lp69
S'Nicholson'
p70
aS'249'
p71
aS'Comment'
p72
aa(lp73
S'Hanifa'
p74
aS'276'
p75
aS'Accused'
p76
aa(lp77
S'Nicholson'
p78
aS'304'
p79
aS'Comment'
p80
aa(lp81
S'Fakruddin'
p82
aS'308'
p83
aS'Others'
p84
aa(lp85
S'Police Fakruddin'
p86
aS'310'
p87
aS'Accused'
p88
aa(lp89
S'Bilal Malik'
p90
aS'313'
p91
aS'Accused'
p92
aa(lp93
S'Hanifa'
p94
aS'316'
p95
aS'Accused'
p96
aa(lp97
S'Advani'
p98
aS'331'
p99
aS'Victim'
p100
aa(lp101
S'Hanifa'
p102
aS'375'
p103
aS'Accused'
p104
aa(lp105
S'Hanifa'
p106
aS'411'
p107
aS'Accused'
p108
aasS'TIM'
p109
(lp110
sS'hot_setting'
p111
S''
p112
sS'DAT'
p113
(lp114
S'Monday : 15'
p115
aS'October 28 , 2011 : 53'
p116
asS'death'
p117
g112
sS'title'
p118
S'SIT nabs prime suspect in plot to blow up Advanis convoy'
p119
sS'org_unorg'
p120
g112
sS'terror_group'
p121
(lp122
g112
asS'content'
p123
S'Armed police personnel stormed into a hideout at Batlagundu in Dindigul district early on Monday and apprehended Nagoor Hanifa alias Mohamed Hanifa ( 35 ) , one of the prime suspects who allegedly conspired to eliminate Bharatiya Janata Party leader L.K. Advani and attempted to blow up his convoy near Madurai on October 28 , 2011 . Acting on a specific input , plainclothesmen led by Deputy Inspector-General of Police ( Special Investigation Team ) John Nicholson arrested Hanifa , a native of Tenkasi , who was alone in the house . A powerful pipe bomb stuffed with about 7 kg of explosives , mostly nitroglycerine , was detected and defused hours before the convoy of Mr. Advani was to have passed through a culvert at Alampatti in Madurai district . The BJP leader , who is covered by the Z-Plus category of security , was in Tamil Nadu as part of his Jan Chetna Yatra . The pipe was packed with Power Gel 90 , an explosive used to blast rocks in quarries . Timely alert by a passer-by helped the district police foil the conspiracy to blow up the causeway . A long wire connected to the pipe bomb was noticed by a villager who alerted the police . Hanifa is refusing to divulge information regarding his association with any organisation . He seems to be following the Jihadi principles ... he committed the murder of one Kumara Pandian of Hindu Munnani in Tenkasi , Mr. Nicholson told The Hindu . Besides the Babri Masjid issue , he wanted to take revenge for what he says the treatment meted out to Muslims . Hanifa and his associates had planned to take revenge on BJP and Hindu Munnani leaders , he said parrying questions on the details of the hit-list . Mr. Nicholson said three persons Fakruddin alias Police Fakruddin , Bilal Malik and Hanifa were the main conspirators in the plan to blow up the convoy of Mr. Advani . They were present at the scene of crime and escaped on seeing the police . Efforts are on to apprehend the other two . We have so far arrested eight persons in the case . The source of explosives is underinvestigation . Hanifa will be produced in a court and remanded , he added . Detonators and explosive materials and two long knives and a newspaper clipping containing the photograph of a Hindu outfit functionary were recovered from Hanifa , the police said . The SIT has arrested eight persons so far in the case . The pipe was packed with Power Gel 90 , an explosive used to blast rocks in quarriesThe BJP leader was in State as part of his Jan Chetna Yatra The pipe was packed with Power Gel 90 , an explosive used to blast rocks in quarries The BJP leader was in State as part of his Jan Chetna Yatra OPEN'
p124
sS'injured'
p125
g112
sS'det_loc'
p126
(lp127
S'India'
p128
aS'Tamil Nadu'
p129
aS'Madurai'
p130
ag112
ag112
asS'O'
p131
(lp132
S'Armed police personnel:1'
p133
aS'hideout:7'
p134
aS'prime suspects:30'
p135
aS'allegedly conspired:33'
p136
aS'eliminate:36'
p137
aS'attempted to blow up:44'
p138
aS'convoy:49'
p139
aS'Deputy Inspector-General:67'
p140
aS'powerful pipe bomb:94'
p141
aS'7 kg of explosives:100'
p142
aS'nitroglycerine:106'
p143
aS'detected and defused:109'
p144
aS'convoy:115'
p145
aS'culvert:125'
p146
aS'Z-Plus category:141'
p147
aS'Jan Chetna Yatra:154'
p148
aS'pipe:159'
p149
aS'Power Gel 90:163'
p150
aS'blast rocks in quarries:171'
p151
aS'Timely alert:176'
p152
aS'passer-by:180'
p153
aS'foil the conspiracy:185'
p154
aS'blow up:189'
p155
aS'pipe bomb:200'
p156
aS'refusing to divulge information:214'
p157
aS'organisation:223'
p158
aS'Jihadi principles:231'
p159
aS'murder:237'
p160
aS'Babri Masjid:256'
p161
aS'revenge:264'
p162
aS'treatment:270'
p163
aS'Muslims:274'
p164
aS'revenge:284'
p165
aS'hit-list:301'
p166
aS'convoy:328'
p167
aS'scene of crime:338'
p168
aS'escaped:342'
p169
aS'Efforts:348'
p170
aS'arrested eight persons:361'
p171
aS'source of explosives:369'
p172
aS'underinvestigation:373'
p173
aS'Detonators and explosive materials:388'
p174
aS'two long knives:393'
p175
aS'newspaper clipping:398'
p176
aS'photograph:402'
p177
aS'Hindu outfit:405'
p178
aS'arrested eight persons:420'
p179
aS'pipe:430'
p180
aS'Power Gel 90:434'
p181
aS'blast:442'
p182
aS'Jan Chetna Yatra:455'
p183
aS'pipe:459'
p184
aS'Power Gel 90:463'
p185
aS'explosive:468'
p186
aS'blast rocks in quarries:471'
p187
aS'Jan Chetna Yatra:485'
p188
asS'unexpl'
p189
(lp190
g112
asS'ocassion'
p191
g112
sS'link'
p192
S'http://www.thehindu.com/todays-paper/tp-national/tp-tamilnadu/sit-nabs-prime-suspect-in-plot-to-blow-up-advanis-convoy/article4896629.ece'
p193
sS'date'
p194
S'08-10-2011'
p195
sS'target'
p196
S'MINISTER'
p197
sS'hot_spot'
p198
g112
sS'delivery_mod'
p199
S'PIPE'
p200
sS'delivery_met'
p201
S'PLANTED'
p202
sS'expl'
p203
(lp204
S' PIPE BOMB'
p205
asS'ORG'
p206
(lp207
(lp208
S'Bharatiya Janata Party'
p209
aS'37'
p210
aS'Others'
p211
aa(lp212
S'Special Investigation Team'
p213
aS'72'
p214
aS'Others'
p215
aa(lp216
S'BJP'
p217
aS'133'
p218
aS'Others'
p219
aa(lp220
S'Hindu Munnani'
p221
aS'243'
p222
aS'Others'
p223
aa(lp224
S'The Hindu'
p225
aS'251'
p226
aS'Others'
p227
aa(lp228
S'BJP'
p229
aS'286'
p230
aS'Others'
p231
aa(lp232
S'Hindu Munnani'
p233
aS'288'
p234
aS'Others'
p235
aa(lp236
S'SIT'
p237
aS'418'
p238
aS'Others'
p239
aa(lp240
S'BJP'
p241
aS'446'
p242
aS'Others'
p243
aa(lp244
S'BJP'
p245
aS'476'
p246
aS'Others'
p247
aas.