(dp0
S'LOC'
p1
(lp2
(lp3
S'Madhugiri'
p4
aS'18'
p5
aS'Event'
p6
aa(lp7
S'Tumkur'
p8
aS'21'
p9
aS'Event'
p10
aasS'PER'
p11
(lp12
sS'TIM'
p13
(lp14
S'6 p.m.:72'
p15
asS'hot_setting'
p16
S''
p17
sS'DAT'
p18
(lp19
S'Tuesday night:24'
p20
asS'death'
p21
g17
sS'title'
p22
S'Court blast: ballistics experts collect samples'
p23
sS'det_loc'
p24
(lp25
S'India'
p26
aS'Karnataka'
p27
aS'Tumkur'
p28
ag17
ag17
asS'terror_group'
p29
(lp30
g17
asS'content'
p31
S'A bomb disposal squad and a team of ballistics experts visited the Fifth Fast Track Court in Madhugiri town in Tumkur district on Tuesday night , hours after an explosion took place on the court premises . The teams collected various samples from the site . The court staff were disposing of old records by burning them in front of the judge of the court when the explosion took place around 6 p.m. Two people were injured in the blast . OPEN'
p32
sS'injured'
p33
S'2'
p34
sS'org_unorg'
p35
g17
sS'O'
p36
(lp37
S'bomb disposal squad:2'
p38
aS'team of ballistics:7'
p39
aS'explosion:30'
p40
aS'court premises:35'
p41
aS'collected:40'
p42
aS'samples:42'
p43
aS'court staff:48'
p44
aS'old records:53'
p45
aS'judge:62'
p46
aS'explosion:68'
p47
aS'injured:77'
p48
aS'blast:80'
p49
asS'unexpl'
p50
(lp51
g17
asS'ocassion'
p52
g17
sS'link'
p53
S'http://www.thehindu.com/todays-paper/tp-national/tp-karnataka/court-blast-ballistics-experts-collect-samples/article4741502.ece'
p54
sS'date'
p55
S'21-05-2013'
p56
sS'target'
p57
g17
sS'hot_spot'
p58
g17
sS'delivery_mod'
p59
g17
sS'delivery_met'
p60
g17
sS'expl'
p61
(lp62
g17
asS'ORG'
p63
(lp64
(lp65
S'Fifth Fast Track Court'
p66
aS'13'
p67
aS'Victim'
p68
aas.