(dp0
S'LOC'
p1
(lp2
(lp3
S'Iraq'
p4
aS'18'
p5
aS'Event'
p6
aa(lp7
S'Iraq'
p8
aS'70'
p9
aS'Event'
p10
aa(lp11
S'Hillah'
p12
aS'87'
p13
aS'Event'
p14
aa(lp15
S'Baghdad'
p16
aS'93'
p17
aS'Neutral'
p18
aasS'PER'
p19
(lp20
sS'TIM'
p21
(lp22
sS'hot_setting'
p23
S''
p24
sS'DAT'
p25
(lp26
S'Sunday:26'
p27
asS'death'
p28
S'53'
p29
sS'title'
p30
S'Iraq: 53 dead in bombings'
p31
sS'org_unorg'
p32
g24
sS'terror_group'
p33
(lp34
S'AL-QAEDA'
p35
asS'content'
p36
S'A new wave of militant attacks , mostly car bombs targeting Shia-dominated cities in central and southern Iraq , killed at least 53 people on Sunday , officials said . No one has claimed responsibility for the blasts , which targeted commercial areas and parking lots in seven cities . But systematically organised waves of bombings are used by al-Qaedas local branch , known as the Islamic State of Iraq , to undermine confidence in the Shia-led government . The deadliest was in the city of Hillah , 95 km south of Baghdad , where a car bomb killed nine civilians and wounded 15 others , a police officer said . AP OPEN'
p37
sS'injured'
p38
S'15'
p39
sS'det_loc'
p40
(lp41
S'Iraq'
p42
ag24
ag24
aS'Hillah'
p43
ag24
asS'O'
p44
(lp45
S'militant attacks:5'
p46
aS'car bombs:9'
p47
aS'Shia-dominated cities:12'
p48
aS'central and southern Iraq:15'
p49
aS'blasts:38'
p50
aS'targeted:41'
p51
aS'commercial areas:42'
p52
aS'parking lots:45'
p53
aS'seven cities:48'
p54
aS'systematically organised:52'
p55
aS'waves of bombings:54'
p56
aS'Islamic State of Iraq:67'
p57
aS'confidence:74'
p58
aS'Shia-led government:77'
p59
aS'deadliest:81'
p60
aS'car bomb:97'
p61
aS'killed nine civilians:99'
p62
aS'wounded 15 others:103'
p63
asS'unexpl'
p64
(lp65
g24
asS'ocassion'
p66
g24
sS'link'
p67
S'http://www.thehindu.com/todays-paper/tp-international/iraq-53-dead-in-bombings/article5132823.ece'
p68
sS'date'
p69
S'15-09-2013'
p70
sS'target'
p71
S'COMMERCIAL AREAS AND PARKING LOTS'
p72
sS'hot_spot'
p73
g24
sS'delivery_mod'
p74
g24
sS'delivery_met'
p75
S'PLANTED'
p76
sS'expl'
p77
(lp78
g24
asS'ORG'
p79
(lp80
(lp81
S'al-Qaedas'
p82
aS'60'
p83
aS'Accused'
p84
aas.