(dp0
S'LOC'
p1
(lp2
(lp3
S'Binshai'
p4
aS'27'
p5
aS'Event'
p6
aa(lp7
S'Khyber Pakhtunkhwa'
p8
aS'30'
p9
aS'Event'
p10
aa(lp11
S'Pakistan'
p12
aS'49'
p13
aS'Event'
p14
aa(lp15
S'Afghanistan'
p16
aS'50'
p17
aS'Neutral'
p18
aasS'PER'
p19
(lp20
sS'TIM'
p21
(lp22
sS'hot_setting'
p23
S''
p24
sS'DAT'
p25
(lp26
S'Sunday:34'
p27
asS'death'
p28
g24
sS'title'
p29
S'Two Pakistan Army officers killed in blast'
p30
sS'org_unorg'
p31
g24
sS'terror_group'
p32
(lp33
S'TALIBAN ISLAMISTS'
p34
asS'content'
p35
S'Two Pakistan Army officers , including a Major General , and a soldier were killed in a bomb attack , claimed by the Taliban , near Binshai in the Khyber Pakhtunkhwa province on Sunday . The blast occurred while the officers were returning after visiting posts along the Pakistan Afghanistan border . OPEN'
p36
sS'injured'
p37
g24
sS'det_loc'
p38
(lp39
S'Pakistan'
p40
ag24
ag24
aS'Binshai'
p41
ag24
asS'O'
p42
(lp43
S'Two Pakistan Army officers:1'
p44
aS'Major General:8'
p45
aS'a soldier:12'
p46
aS'killed:15'
p47
aS'bomb attack:18'
p48
aS'claimed:21'
p49
aS'blast:37'
p50
aS'returning:43'
p51
aS'visiting posts:45'
p52
aS'Pakistan Afghanistan border:49'
p53
asS'unexpl'
p54
(lp55
g24
asS'ocassion'
p56
g24
sS'link'
p57
S'http://www.thehindu.com/todays-paper/two-pakistan-army-officers-killed-in-blast/article5132839.ece'
p58
sS'date'
p59
S'15-09-2013'
p60
sS'target'
p61
S'ARMY OFFICERS'
p62
sS'hot_spot'
p63
g24
sS'delivery_mod'
p64
g24
sS'delivery_met'
p65
g24
sS'expl'
p66
(lp67
g24
asS'ORG'
p68
(lp69
(lp70
S'Taliban'
p71
aS'24'
p72
aS'Accused'
p73
aas.