(dp0
S'LOC'
p1
(lp2
(lp3
S'Tiruchi railway junction'
p4
aS'8'
p5
aS'Neutral'
p6
aa(lp7
S'Hyderabad'
p8
aS'37'
p9
aS'Event'
p10
aa(lp11
S'paraphernalia'
p12
aS'58'
p13
aS'Neutral'
p14
aa(lp15
S'checked platforms'
p16
aS'60'
p17
aS'Neutral'
p18
aa(lp19
S'two and four-wheeler parking areas'
p20
aS'74'
p21
aS'Neutral'
p22
aa(lp23
S'retiring rooms'
p24
aS'80'
p25
aS'Neutral'
p26
aa(lp27
S'parcel office'
p28
aS'83'
p29
aS'Neutral'
p30
aa(lp31
S'computerised passenger reservation centre'
p32
aS'86'
p33
aS'Neutral'
p34
aa(lp35
S'railway refreshment stalls'
p36
aS'92'
p37
aS'Neutral'
p38
aa(lp39
S'Ganesan'
p40
aS'129'
p41
aS'Neutral'
p42
aa(lp43
S'Tiruchi'
p44
aS'138'
p45
aS'Assoc Event Location'
p46
aa(lp47
S'A.Kalaiarasan'
p48
aS'140'
p49
aS'Assoc Event Location'
p50
aa(lp51
S'Hyderabad'
p52
aS'197'
p53
aS'Event'
p54
aasS'PER'
p55
(lp56
sS'TIM'
p57
(lp58
sS'hot_setting'
p59
S''
p60
sS'DAT'
p61
(lp62
S'Tuesday:28'
p63
asS'death'
p64
g60
sS'title'
p65
S'Joint combing operation at Tiruchi junction'
p66
sS'org_unorg'
p67
S'ORGANISED'
p68
sS'terror_group'
p69
(lp70
g60
asS'content'
p71
S'A combing operation was jointly conducted at Tiruchi railway junction by city police , Government Railway Police , and Railway Protection Force ( RPF ) personnel on Tuesday in the wake of the twin blasts in Hyderabad . During the over hour-long anti-sabotage checks , the police and RPF personnel armed with bomb detection equipment and other paraphernalia , checked platforms 2 , 3 , 4 , 5 , 6 and 7 , two and four-wheeler parking areas , retiring rooms , parcel office , computerised passenger reservation centre , and railway refreshment stalls , looking out for any suspicious objects . Around 50 personnel were involved in the operation that was headed by the Assistant Commissioner of Police ( Law and Order ) , Cantonment range , Ganesan , and RPF , Assistant Security Commissioner , Tiruchi , A.Kalaiarasan . Two empty rakes of passenger coaches halted at the station were also checked . No suspicious objects or articles were found during the sudden checks , said RPF officers adding that the operation was conducted as a precautionary measure and to enhance coordination between security agencies . In the wake of the twin blasts in Hyderabad OPEN'
p72
sS'injured'
p73
g60
sS'det_loc'
p74
(lp75
S'India'
p76
aS'Tamil Nadu'
p77
ag60
aS'TIRUCHI'
p78
aS'Hyderabad'
p79
asS'O'
p80
(lp81
S'combing operation:2'
p82
aS'anti-sabotage checks:43'
p83
aS'law and order:121'
p84
aS'Cantonment range:126'
p85
aS'twin blasts:194'
p86
asS'unexpl'
p87
(lp88
g60
asS'ocassion'
p89
g60
sS'link'
p90
S'http://www.thehindu.com/todays-paper/tp-national/tp-tamilnadu/joint-combing-operation-at-tiruchi-junction/article4457660.ece'
p91
sS'date'
p92
S'26-02-2013'
p93
sS'target'
p94
g60
sS'hot_spot'
p95
S'Hyderabad'
p96
sS'delivery_mod'
p97
g60
sS'delivery_met'
p98
g60
sS'expl'
p99
(lp100
g60
asS'ORG'
p101
(lp102
(lp103
S'city police'
p104
aS'12'
p105
aS'Others'
p106
aa(lp107
S'Government Railway Police'
p108
aS'15'
p109
aS'Others'
p110
aa(lp111
S'Railway Protection Force ( RPF )'
p112
aS'20'
p113
aS'Others'
p114
aa(lp115
S'police'
p116
aS'47'
p117
aS'Others'
p118
aa(lp119
S'RPF personnel armed'
p120
aS'49'
p121
aS'Others'
p122
aa(lp123
S'Assistant Commissioner of Police'
p124
aS'116'
p125
aS'Others'
p126
aa(lp127
S'RPF'
p128
aS'132'
p129
aS'Others'
p130
aa(lp131
S'Assistant Security Commissioner'
p132
aS'134'
p133
aS'Others'
p134
aa(lp135
S'RPF'
p136
aS'169'
p137
aS'Others'
p138
aa(lp139
S'security agencies'
p140
aS'186'
p141
aS'Others'
p142
aas.