(dp0
S'LOC'
p1
(lp2
(lp3
S'Saikhong'
p4
aS'17'
p5
aS'Event'
p6
aa(lp7
S'Churachandpur'
p8
aS'20'
p9
aS'Event'
p10
aa(lp11
S'Manipur'
p12
aS'23'
p13
aS'Event'
p14
aa(lp15
S'Lilong'
p16
aS'62'
p17
aS'Neutral'
p18
aa(lp19
S'Thoubal'
p20
aS'64'
p21
aS'Neutral'
p22
aa(lp23
S'Heirok'
p24
aS'81'
p25
aS'Neutral'
p26
aa(lp27
S'Thoubal'
p28
aS'83'
p29
aS'Neutral'
p30
aa(lp31
S'Imphal West'
p32
aS'111'
p33
aS'Neutral'
p34
aa(lp35
S'Kangleipak'
p36
aS'133'
p37
aS'Neutral'
p38
aa(lp39
S'Kwakeithel Heinou Khongnembi'
p40
aS'140'
p41
aS'Neutral'
p42
aasS'PER'
p43
(lp44
(lp45
S'Ibomcha Gurumayum'
p46
aS'116'
p47
aS'Accused'
p48
aasS'TIM'
p49
(lp50
sS'hot_setting'
p51
S''
p52
sS'DAT'
p53
(lp54
S'Sunday : 25'
p55
asS'death'
p56
g52
sS'title'
p57
S'Assam Rifles trooper injured in bomb attack'
p58
sS'org_unorg'
p59
g52
sS'terror_group'
p60
(lp61
g52
asS'content'
p62
S'A trooper of 31 Assam Rifles was injured in a bomb blast triggered by militants at Saikhong village in Churachandpur district of Manipur on Sunday . He was on foot patrol with some others . In another incident , a 12-year-old boy was injured when a bomb went off while it was being removed by the police on Highway 39 at Lilong in Thoubal district . A grenade was hurled at the camp of 116 Bn Border Security Force at Heirok in Thoubal district . In a statement , the Revolutionary Peoples Front said its military wing , the Peoples Liberation Army , was behind the bomb attacks . The Imphal West district police arrested Ibomcha Gurumayum ( 52 ) , said to be a member of the Peoples Revolutionary Party of Kangleipak ( Pro group ) , from Kwakeithel Heinou Khongnembi . Eight hand grenades were seized from him . OPEN'
p63
sS'injured'
p64
S'31'
p65
sS'det_loc'
p66
(lp67
S'India'
p68
aS'Manipur'
p69
aS'Churachandpur'
p70
aS'Saikhong'
p71
ag52
asS'O'
p72
(lp73
S'trooper:2'
p74
aS'31 Assam Rifles:4'
p75
aS'injured:8'
p76
aS'bomb blast:11'
p77
aS'triggered:13'
p78
aS'militants:15'
p79
aS'foot patrol:30'
p80
aS'incident:38'
p81
aS'12-year-old boy:41'
p82
aS'injured:44'
p83
aS'bomb went off:47'
p84
aS'removed:54'
p85
aS'Highway 39:59'
p86
aS'grenade:68'
p87
aS'hurled:70'
p88
aS'camp:73'
p89
aS'116 Bn Border Security Force:75'
p90
aS'military wing:96'
p91
aS'bomb attacks:107'
p92
aS'arrested:115'
p93
aS'Pro group:135'
p94
aS'hand grenades:145'
p95
aS'seized:148'
p96
asS'unexpl'
p97
(lp98
g52
asS'ocassion'
p99
g52
sS'link'
p100
S'http://www.thehindu.com/todays-paper/assam-rifles-trooper-injured-in-bomb-attack/article4622320.ece'
p101
sS'date'
p102
S'14-04-2013'
p103
sS'target'
p104
S'MILLITARY TROOPS'
p105
sS'hot_spot'
p106
g52
sS'delivery_mod'
p107
g52
sS'delivery_met'
p108
S'PLANTED'
p109
sS'expl'
p110
(lp111
S'GRENADE'
p112
asS'ORG'
p113
(lp114
(lp115
S'Revolutionary Peoples Front'
p116
aS'91'
p117
aS'Others'
p118
aa(lp119
S'Peoples Liberation Army'
p120
aS'100'
p121
aS'Accused'
p122
aa(lp123
S'Peoples Revolutionary Party'
p124
aS'129'
p125
aS'Others'
p126
aas.