(dp0
S'LOC'
p1
(lp2
(lp3
S'Bangalore'
p4
aS'10'
p5
aS'Event'
p6
aa(lp7
S'Tamil Nadu'
p8
aS'16'
p9
aS'Neutral'
p10
aa(lp11
S'Bangalore'
p12
aS'31'
p13
aS'Neutral'
p14
aa(lp15
S'Tirunenveli'
p16
aS'49'
p17
aS'Accused Location'
p18
aa(lp19
S'Bangalore'
p20
aS'54'
p21
aS'Accused Location'
p22
aa(lp23
S'Flower Bazaar'
p24
aS'61'
p25
aS'Neutral'
p26
aa(lp27
S'Karnataka'
p28
aS'134'
p29
aS'Event'
p30
aa(lp31
S'Tamil Nadu'
p32
aS'147'
p33
aS'Neutral'
p34
aa(lp35
S'Bangalore'
p36
aS'187'
p37
aS'Event'
p38
aa(lp39
S'Chennai'
p40
aS'191'
p41
aS'Neutral'
p42
aasS'PER'
p43
(lp44
(lp45
S'Basheer'
p46
aS'47'
p47
aS'Accused'
p48
aa(lp49
S'Peer Mohideen'
p50
aS'51'
p51
aS'Accused'
p52
aa(lp53
S'Basheer'
p54
aS'108'
p55
aS'Accused'
p56
aa(lp57
S'Mohideen'
p58
aS'110'
p59
aS'Accused'
p60
aasS'TIM'
p61
(lp62
S'Monday night : 6'
p63
asS'hot_setting'
p64
S''
p65
sS'DAT'
p66
(lp67
S'April 17 : 35'
p68
aS'Sunday : 194'
p69
asS'death'
p70
g65
sS'title'
p71
S'Two held in Chennai for Bangalore blast'
p72
sS'org_unorg'
p73
g65
sS'terror_group'
p74
(lp75
g65
asS'content'
p76
S'In a swift operation on Monday night , the Bangalore police , assisted by the Tamil Nadu state intelligence , arrested two persons here for their alleged involvement in the Bangalore bomb blast on April 17 , which left 17 persons injured . Police sources said Basheer of Tirunenveli and Peer Mohideen of Bangalore were arrested from a hideout at Flower Bazaar here . The arrest is very important as they played a vital role in the blast . Preliminary inquiries revealed that they are associated with a banned extremist organisation . An analysis of the mobile phone call records of two prime suspects led investigators to Basheer and Mohideen , a police officer said . Parrying questions whether the two persons were present at the crime scene , the officer said the Karnataka police would take the two for further interrogation . Portraits developed The Tamil Nadu police have developed two computer-aided portraits of the two prime suspects . The portraits were based on the inputs given by the seller of a motorcycle allegedly used to cause the blast . A high-level team of the Bangalore police rushed to Chennai late on Sunday to match the portraits with the photographs and video footage available with them . OPEN'
p77
sS'injured'
p78
S'17'
p79
sS'det_loc'
p80
(lp81
S'India'
p82
aS'Karnataka'
p83
aS'Bangalore Urban'
p84
ag65
ag65
asS'O'
p85
(lp86
S'swift operation:3'
p87
aS'bangalore police:10'
p88
aS'tamil nadu state intelligence:16'
p89
aS'arrested:21'
p90
aS'alleged involvement:27'
p91
aS'bangalore bomb blast:31'
p92
aS'arrested:56'
p93
aS'hideout:59'
p94
aS'arrest:66'
p95
aS'vital role:74'
p96
aS'blast:78'
p97
aS'preliminary inquiries:80'
p98
aS'extremist:90'
p99
aS'phone call records:98'
p100
aS'two prime suspects:102'
p101
aS'parrying:117'
p102
aS'crime scene:127'
p103
aS'interrogation:142'
p104
aS'portraits:144'
p105
aS'computer-aided portraits:153'
p106
aS'prime suspects:158'
p107
aS'portraits:162'
p108
aS'motorcycle:174'
p109
aS'blast:180'
p110
aS'high-level team:183'
p111
aS'portraits:198'
p112
aS'photographs:201'
p113
aS'video footage:203'
p114
asS'unexpl'
p115
(lp116
g65
asS'ocassion'
p117
g65
sS'link'
p118
S'http://www.thehindu.com/todays-paper/two-held-in-chennai-for-bangalore-blast/article4645545.ece'
p119
sS'date'
p120
S'17-04-2013'
p121
sS'target'
p122
g65
sS'hot_spot'
p123
g65
sS'delivery_mod'
p124
g65
sS'delivery_met'
p125
g65
sS'expl'
p126
(lp127
g65
asS'ORG'
p128
(lp129
s.