(dp0
S'LOC'
p1
(lp2
(lp3
S'Cherlapally'
p4
aS'37'
p5
aS'Neutral'
p6
aa(lp7
S'Dilsukhanagar'
p8
aS'57'
p9
aS'Event'
p10
aa(lp11
S'Zaheerabad'
p12
aS'103'
p13
aS'Accused Location'
p14
aa(lp15
S'Nizamabad'
p16
aS'130'
p17
aS'Accused Location'
p18
aa(lp19
S'Saidabad'
p20
aS'173'
p21
aS'Accused Location'
p22
aa(lp23
S'Malakpet'
p24
aS'175'
p25
aS'Accused Location'
p26
aa(lp27
S'Hyderabad'
p28
aS'177'
p29
aS'Accused Location'
p30
aa(lp31
S'Nellore Central Jail'
p32
aS'181'
p33
aS'Neutral'
p34
aa(lp35
S'Hyderabad'
p36
aS'189'
p37
aS'Neutral'
p38
aa(lp39
S'Saidabad'
p40
aS'314'
p41
aS'Accused Location'
p42
aa(lp43
S'Hyderabad'
p44
aS'316'
p45
aS'Accused Location'
p46
aasS'PER'
p47
(lp48
(lp49
S'Feroz Khan'
p50
aS'1'
p51
aS'Accused'
p52
aa(lp53
S'Ali Bhai'
p54
aS'4'
p55
aS'Accused'
p56
aa(lp57
S'Sayed Maqbul'
p58
aS'25'
p59
aS'Accused'
p60
aa(lp61
S'Ali Bhai'
p62
aS'95'
p63
aS'Accused'
p64
aa(lp65
S'Feroz Khan'
p66
aS'124'
p67
aS'Accused'
p68
aa(lp69
S'Afzal Khan'
p70
aS'137'
p71
aS'Others'
p72
aa(lp73
S'Maqbul'
p74
aS'145'
p75
aS'Accused'
p76
aa(lp77
S'Feroz'
p78
aS'147'
p79
aS'Accused'
p80
aa(lp81
S'M.R. Ravikiran'
p82
aS'185'
p83
aS'Others'
p84
aa(lp85
S'Maqbul'
p86
aS'292'
p87
aS'Accused'
p88
aa(lp89
S'Feroz'
p90
aS'294'
p91
aS'Accused'
p92
aasS'TIM'
p93
(lp94
sS'hot_setting'
p95
S''
p96
sS'DAT'
p97
(lp98
S'June , 2011 : 39'
p99
aS'January 4 , 2012 : 150'
p100
aS'Sunday : 191'
p101
aS'Sunday : 263'
p102
asS'death'
p103
g96
sS'title'
p104
S'Twin blasts: Nellore jail inmates under scanner'
p105
sS'det_loc'
p106
(lp107
S'India'
p108
aS'Andhra Pradesh'
p109
aS'Nellore'
p110
aS'Nellore'
p111
ag96
asS'terror_group'
p112
(lp113
S'INDIAN MUJAHIDEEN'
p114
asS'content'
p115
S'Feroz Khan and Ali Bhai , presently imprisoned at the central jail here , are suspected to have links with the Indian Mujahideen operative Sayed Maqbul . They are the two high-security prisoners shifted here from Cherlapally in June , 2011 , following an attack on the prison staff there . In the aftermath of the Dilsukhanagar twin blasts , the police officials have started scrutinising the records of these two prisoners to check their antecedents and find out details of those who called on them . As per the records , nobody met Ali Bhai , who is a native of Zaheerabad and involved in seven cases of murder , kidnap , illegal arms and so on . But the second prisoner Feroz Khan , a native of Nizamabad , was visited by his brother Afzal Khan several times . Besides , one Maqbul met Feroz here on January 4 , 2012 by providing voter card as his identity . As per the voter card , he was a resident of Saidabad , Malakpet , Hyderabad . Meanwhile , Nellore Central Jail Superintendent M.R. Ravikiran rushed to Hyderabad on Sunday , which triggered speculation that investigating officers into bomb blasts asked him to bring records and details of the two high-security prisoners . But the jail authorities described the visit as an administrative one to attend a meeting of superintendents of all central and district jails in the State . As against rumours , there was no indication of the National Investigation Agency sleuths visit to the central jail here on Sunday to interrogate the two suspects . It is learnt that the NIA sleuths have not contacted the prison authorities for this purpose so far . Suspected IM operative Maqbul met Feroz by providing voter card as his identity . As per the voter card , he is a resident of Saidabad in Hyderabad OPEN'
p116
sS'injured'
p117
g96
sS'org_unorg'
p118
g96
sS'O'
p119
(lp120
S'imprisoned:8'
p121
aS'central jail:11'
p122
aS'suspected:16'
p123
aS'two high-security prisoners:31'
p124
aS'attack:45'
p125
aS'prison staff:48'
p126
aS'Dilsukhanagar twin blasts:57'
p127
aS'scrutinising the records:66'
p128
aS'two prisoners:71'
p129
aS'antecedents:76'
p130
aS'seven cases:107'
p131
aS'murder:110'
p132
aS'kidnap:112'
p133
aS'illegal arms:114'
p134
aS'voter card:156'
p135
aS'identity:160'
p136
aS'voter card:165'
p137
aS'triggered speculation:194'
p138
aS'investigating officers:197'
p139
aS'bomb blasts:200'
p140
aS'records:206'
p141
aS'two high-security prisoners:211'
p142
aS'jail authorities:217'
p143
aS'central and district jails:234'
p144
aS'central jail:259'
p145
aS'interrogate:265'
p146
aS'two suspects:267'
p147
aS'prison authorities:281'
p148
aS'voter card:297'
p149
aS'voter card:306'
p150
asS'unexpl'
p151
(lp152
g96
asS'ocassion'
p153
g96
sS'link'
p154
S'http://www.thehindu.com/todays-paper/tp-national/tp-andhrapradesh/twin-blasts-nellore-jail-inmates-under-scanner/article4450675.ece'
p155
sS'date'
p156
g96
sS'target'
p157
S'JAIL'
p158
sS'hot_spot'
p159
g96
sS'delivery_mod'
p160
g96
sS'delivery_met'
p161
S'PLANTED'
p162
sS'expl'
p163
(lp164
g96
asS'ORG'
p165
(lp166
(lp167
S'Indian Mujahideen'
p168
aS'22'
p169
aS'Accused'
p170
aa(lp171
S'National Investigation Agency'
p172
aS'252'
p173
aS'Others'
p174
aa(lp175
S'NIA'
p176
aS'275'
p177
aS'Others'
p178
aa(lp179
S'IM'
p180
aS'290'
p181
aS'Others'
p182
aas.