(dp0
S'LOC'
p1
(lp2
(lp3
S'Mumbai'
p4
aS'12'
p5
aS'Event'
p6
aasS'PER'
p7
(lp8
(lp9
S'Altamas Kabir'
p10
aS'49'
p11
aS'Comment'
p12
aa(lp13
S'Zaibunnisa Anwar Kazi'
p14
aS'57'
p15
aS'Accused'
p16
aa(lp17
S'Ishaq Mohammed'
p18
aS'61'
p19
aS'Accused'
p20
aa(lp21
S'Sharif Abdul'
p22
aS'64'
p23
aS'Accused'
p24
aasS'TIM'
p25
(lp26
sS'hot_setting'
p27
S''
p28
sS'DAT'
p29
(lp30
S'Tuesday:5'
p31
aS'1993 : 11'
p32
asS'death'
p33
g28
sS'title'
p34
S'SC rejects Mumbai blast convicts plea for relief'
p35
sS'org_unorg'
p36
g28
sS'terror_group'
p37
(lp38
g28
asS'content'
p39
S'The Supreme Court on Tuesday rejected the plea of three 1993 Mumbai bomb blasts convicts that they may be permitted not to surrender to serve the remainder of their sentences till their clemency petitions are decided by the President . The apex court bench headed by Chief Justice Altamas Kabir while ruling on the plea of Zaibunnisa Anwar Kazi , Ishaq Mohammed and Sharif Abdul , said that if such a prayer was allowed , the Presidents Office will be flooded with clemency petitions.IANS OPEN'
p40
sS'injured'
p41
g28
sS'det_loc'
p42
(lp43
S'India'
p44
aS'Maharashtra'
p45
ag28
aS'Mumbai'
p46
ag28
asS'O'
p47
(lp48
S'rejected:6'
p49
aS'plea:8'
p50
aS'mumbai bomb blasts:12'
p51
aS'surrender:23'
p52
aS'sentences:30'
p53
aS'clemency petitions:33'
p54
aS'president:39'
p55
aS'apex court bench:42'
p56
aS'chief justice altamas kabir:47'
p57
aS'prayer:72'
p58
aS'presidents office:77'
p59
aS'flooded:81'
p60
asS'unexpl'
p61
(lp62
g28
asS'ocassion'
p63
g28
sS'link'
p64
S'http://www.thehindu.com/todays-paper/tp-in-school/sc-rejects-mumbai-blast-convicts-plea-for-relief/article4625247.ece'
p65
sS'date'
p66
S'12-03-1993'
p67
sS'target'
p68
g28
sS'hot_spot'
p69
g28
sS'delivery_mod'
p70
g28
sS'delivery_met'
p71
S'PLANTED'
p72
sS'expl'
p73
(lp74
g28
asS'ORG'
p75
(lp76
(lp77
S'Supreme Court'
p78
aS'2'
p79
aS'Others'
p80
aas.