(dp0
S'LOC'
p1
(lp2
(lp3
S'Hussainsagar Lake'
p4
aS'29'
p5
aS'Neutral'
p6
aa(lp7
S'Laserium'
p8
aS'74'
p9
aS'Event'
p10
aa(lp11
S'Lumbini Park'
p12
aS'99'
p13
aS'Event'
p14
aa(lp15
S'Secunderabad'
p16
aS'105'
p17
aS'Source'
p18
aa(lp19
S'laserium'
p20
aS'176'
p21
aS'Event'
p22
aa(lp23
S'Lumbini Park'
p24
aS'263'
p25
aS'Event'
p26
aa(lp27
S'Pune'
p28
aS'302'
p29
aS'Accused Location'
p30
aa(lp31
S'Chaderghat'
p32
aS'333'
p33
aS'Assoc Event Location'
p34
aa(lp35
S'Gokul Chat'
p36
aS'359'
p37
aS'Event'
p38
aa(lp39
S'Dilsukhnagar'
p40
aS'369'
p41
aS'Assoc Event Location'
p42
aa(lp43
S'Gokul Chat'
p44
aS'389'
p45
aS'Event'
p46
aa(lp47
S'laserium'
p48
aS'398'
p49
aS'Event'
p50
aa(lp51
S'laserium'
p52
aS'419'
p53
aS'Event'
p54
aa(lp55
S'Gokul Chat'
p56
aS'421'
p57
aS'Event'
p58
aa(lp59
S'Pune'
p60
aS'458'
p61
aS'Accused Location'
p62
aa(lp63
S'Maharashtra'
p64
aS'477'
p65
aS'Neutral'
p66
aa(lp67
S'Maharashtra'
p68
aS'500'
p69
aS'Neutral'
p70
aa(lp71
S'Maharashtra'
p72
aS'508'
p73
aS'Neutral'
p74
aa(lp75
S'Hyderabad'
p76
aS'515'
p77
aS'Neutral'
p78
aa(lp79
S'Maharashtra'
p80
aS'534'
p81
aS'Neutral'
p82
aa(lp83
S'Hyderabad'
p84
aS'540'
p85
aS'Event'
p86
aa(lp87
S'Lumbini Park'
p88
aS'547'
p89
aS'Event'
p90
aasS'PER'
p91
(lp92
(lp93
S'Anique Shafiq Syed'
p94
aS'66'
p95
aS'Accused'
p96
aa(lp97
S'Khalid'
p98
aS'70'
p99
aS'Accused'
p100
aa(lp101
S'Anique'
p102
aS'93'
p103
aS'Accused'
p104
aa(lp105
S'Anique'
p106
aS'134'
p107
aS'Accused'
p108
aa(lp109
S'Bhatkal'
p110
aS'238'
p111
aS'Accused'
p112
aa(lp113
S'Riyaz Bhatkal'
p114
aS'249'
p115
aS'Accused'
p116
aa(lp117
S'Bhatkal'
p118
aS'269'
p119
aS'Accused'
p120
aa(lp121
S'Bhatkal'
p122
aS'291'
p123
aS'Accused'
p124
aa(lp125
S'Anique'
p126
aS'304'
p127
aS'Accused'
p128
aa(lp129
S'Anique'
p130
aS'311'
p131
aS'Accused'
p132
aa(lp133
S'Bhatkal'
p134
aS'339'
p135
aS'Accused'
p136
aa(lp137
S'Anique'
p138
aS'347'
p139
aS'Accused'
p140
aa(lp141
S'Bhatkal'
p142
aS'383'
p143
aS'Accused'
p144
aa(lp145
S'Anique'
p146
aS'392'
p147
aS'Accused'
p148
aa(lp149
S'Mohammed Akbar Ismail Chaudhry'
p150
aS'400'
p151
aS'Accused'
p152
aa(lp153
S'Saeed'
p154
aS'405'
p155
aS'Accused'
p156
aa(lp157
S'Anique'
p158
aS'460'
p159
aS'Accused'
p160
aa(lp161
S'Akbar Ismail Chaudhry'
p162
aS'462'
p163
aS'Accused'
p164
aa(lp165
S'Ahmed Shaikh'
p166
aS'468'
p167
aS'Assoc Accused'
p168
aa(lp169
S'Ahmed Badhsah Shaikh'
p170
aS'471'
p171
aS'Assoc Accused'
p172
aa(lp173
S'Bhatkal'
p174
aS'483'
p175
aS'Accused'
p176
aa(lp177
S'B. Prasada Rao'
p178
aS'519'
p179
aS'Others'
p180
aa(lp181
S'Anique'
p182
aS'538'
p183
aS'Accused'
p184
aasS'TIM'
p185
(lp186
S'7 p.m.:379'
p187
asS'hot_setting'
p188
S''
p189
sS'DAT'
p190
(lp191
S'2007:9'
p192
aS'October 2008:480'
p193
asS'death'
p194
S'11'
p195
sS'title'
p196
S'Hussainsagar cruiser was 2007 terror target'
p197
sS'det_loc'
p198
(lp199
S'India'
p200
aS'Andhra Pradesh'
p201
ag189
aS'Hyderabad'
p202
aS'Laserium, Lumbini Parl, Gokul Chat'
p203
asS'terror_group'
p204
(lp205
S'Indian Mujahideen'
p206
asS'content'
p207
S'The original target of the perpetrators of the 2007 twin blasts , it has come to light , was one of the cruisers meant for joyride on the Hussainsagar Lake . It was a chance delay in securing change for a 500-rupee note that saved the day for those on the boat , the confession note of the 27-year-old Indian Mujahideen ( IM ) operative Anique Shafiq Syed alias Khalid has revealed . Laserium , by chance In his confession note , a copy of which is available with this reporter , Anique said he had come to Lumbini Park in an auto from Secunderabad , but in the delay in securing loose change to pay the driver , he missed the boat . Since the next trip was several minutes away , Anique spent time watching the laser show . Ten minutes into the show , he kept the bag stuffed with the explosive in a vacant adjacent seat and came out of the park . At least 11 people were killed in the laserium following the blast . Police said if the accused had succeeded in his attempt to bomb the cruiser , the casualties would have been very high . I would also have been difficult to trace bodies in the water . The explosion on the water would have had maximum impact and drawn worldwide attention , a senior police officer said . Bhatkal toured city Incidentally , a fortnight before the blasts , Riyaz Bhatkal , co-founder of IM , had scouted several crowded places , including Lumbini Park . In fact , Bhatkal and his associates also went on the cruiser ride around the lake before deciding to bomb it , police said . Bhatkal stayed in the city for three days before returning to Pune . Anique received parcel He had also informed Anique about a parcel being sent in three days in a State-owned bus . The accused had collected the cello-taped parcel at Chaderghat . Police sources reveal that Bhatkal was again in the city to instruct Anique to place one bomb in the cruiser and two others at Gokul Chat and the foot-over bridge ( FoB ) in Dilsukhnagar . All the bombs were to go off at 7 p.m. . While Bhatkal himself placed the bomb at Gokul Chat , Anique placed the bomb in the laserium and Mohammed Akbar Ismail Chaudhry alias Saeed placed another explosive at the FoB . While there were blasts at the laserium and Gokul Chat ; the one at the FoB was defused by the bomb squad . The trio coolly returned to their flat , watched the live coverage of explosions on various television channels and later returned to Pune . Anique , Akbar Ismail Chaudhry and their associates Ahmed Shaikh and Ahmed Badhsah Shaikh were arrested by Maharashtra police in October 2008 . Bhatkal continues to be at large . All the four were slapped with cases under the stringent Maharashtra Control of Organized Crime Act . The Maharashtra police had also intimated the then Hyderabad Commissioner of Police B. Prasada Rao about the involvement of four accused in 2007 twin blasts . The Maharashtra police had brought Anique to Hyderabad and reconstructed the crime scene at Lumbini Park . OPEN'
p208
sS'injured'
p209
g189
sS'org_unorg'
p210
S'Organized'
p211
sS'O'
p212
(lp213
S'original target:2'
p214
aS'twin blasts:10'
p215
aS'cruisers:23'
p216
aS'chance delay:35'
p217
aS'saved the day:45'
p218
aS'confession:55'
p219
aS'note:56'
p220
aS'laser show:139'
p221
aS'bag:151'
p222
aS'stuffed:152'
p223
aS'explosive:155'
p224
aS'11 people:170'
p225
aS'killed:173'
p226
aS'scouted:257'
p227
aS'crowded:259'
p228
aS'places:260'
p229
aS'received:305'
p230
aS'parcel:306'
p231
aS'cello-taped parcel:330'
p232
aS'foot-over bridge ( FoB ):363'
p233
aS'arrested:475'
p234
aS'continues to be at large:484'
p235
asS'unexpl'
p236
(lp237
g189
asS'ocassion'
p238
g189
sS'link'
p239
S'http://www.thehindu.com/todays-paper/tp-in-school/hussainsagar-cruiser-was-2007-terror-target/article4489718.ece'
p240
sS'date'
p241
S'08-03-2013'
p242
sS'target'
p243
S'Public place'
p244
sS'hot_spot'
p245
S'Laserium, Gokul Chat'
p246
sS'delivery_mod'
p247
S'Human'
p248
sS'delivery_met'
p249
S'Planted'
p250
sS'expl'
p251
(lp252
g189
asS'ORG'
p253
(lp254
(lp255
S'Indian Mujahideen'
p256
aS'60'
p257
aS'Accused'
p258
aS'Others'
p259
aa(lp260
S'IM'
p261
aS'254'
p262
aS'Accused'
p263
aS'Others'
p264
aas.