(dp0
S'LOC'
p1
(lp2
(lp3
S'Karachi'
p4
aS'23'
p5
aS'Event'
p6
aa(lp7
S'Mominabad'
p8
aS'51'
p9
aS'Neutral'
p10
aa(lp11
S'Orangi Town'
p12
aS'54'
p13
aS'Neutral'
p14
aasS'PER'
p15
(lp16
(lp17
S'Bashir Jan.'
p18
aS'59'
p19
aS'Others'
p20
aasS'TIM'
p21
(lp22
sS'hot_setting'
p23
S''
p24
sS'DAT'
p25
(lp26
S'Friday:26'
p27
asS'death'
p28
S'10'
p29
sS'title'
p30
S'10 killed in Karachi bomb attack'
p31
sS'org_unorg'
p32
S'Organized'
p33
sS'terror_group'
p34
(lp35
g24
asS'content'
p36
S'At least 10 people were feared dead in a bomb blast that targeted yet another candidate from the Awami National Party in Karachi late on Friday . Nearly 40 people , some of them children , were injured in the blast that took place near a corner meeting organised in Mominabad area of Orangi Town for ANP candidate Bashir Jan. . OPEN'
p37
sS'injured'
p38
S'40'
p39
sS'det_loc'
p40
(lp41
S'Pakistan'
p42
ag24
ag24
aS'Karachi'
p43
ag24
asS'O'
p44
(lp45
g24
asS'unexpl'
p46
(lp47
g24
asS'ocassion'
p48
g24
sS'link'
p49
S'http://www.thehindu.com/todays-paper/10-killed-in-karachi-bomb-attack/article4659357.ece'
p50
sS'date'
p51
S'26-04-2013'
p52
sS'target'
p53
g24
sS'hot_spot'
p54
g24
sS'delivery_mod'
p55
g24
sS'delivery_met'
p56
g24
sS'expl'
p57
(lp58
g24
asS'ORG'
p59
(lp60
(lp61
S'Awami National Party'
p62
aS'19'
p63
aS'Others'
p64
aa(lp65
S'ANP'
p66
aS'57'
p67
aS'Others'
p68
aas.