(dp0
S'LOC'
p1
(lp2
(lp3
S'Sangareddy'
p4
aS'12'
p5
aS'Event'
p6
aa(lp7
S'Sangareddy'
p8
aS'84'
p9
aS'Event'
p10
aasS'PER'
p11
(lp12
(lp13
S'Nagaiah'
p14
aS'58'
p15
aS'Victim'
p16
aS'Others'
p17
aa(lp18
S'K. Shivashankar Naik'
p19
aS'22'
p20
aS'Comment'
p21
aa(lp22
S'P. Nagaiah'
p23
aS'26'
p24
aS'Victim'
p25
aa(lp26
S'Raju'
p27
aS'34'
p28
aS'Assoc Victim'
p29
aasS'TIM'
p30
(lp31
sS'hot_setting'
p32
S''
p33
sS'DAT'
p34
(lp35
S'Monday afternoon : 14'
p36
asS'death'
p37
g33
sS'title'
p38
S'One injured in explosion'
p39
sS'org_unorg'
p40
g33
sS'terror_group'
p41
(lp42
g33
asS'content'
p43
S'One person was injured in an explosion that took place in Sangareddy on Monday afternoon . According to town Circle Inspector K. Shivashankar Naik , P. Nagaiah ( 50 ) and his son Raju were preparing explosives to scare away wild boars . While doing so , one of the bombs blasted resulting in serious injuries to Nagaiah . It was stated that all fingers were cut off from the hand . He was immediately shifted to the government hospital for treatment . Sangareddy police have registered a case and are investigating . OPEN'
p44
sS'injured'
p45
S'1'
p46
sS'det_loc'
p47
(lp48
S'India'
p49
aS'Andhra Pradesh'
p50
ag33
aS'Sangareddy'
p51
ag33
asS'O'
p52
(lp53
S'injured:4'
p54
aS'not available'
p55
aS'explosion:7'
p56
aS'town circle inspector k. shivashankar naik:19'
p57
aS'preparing explosives:36'
p58
aS'scare:39'
p59
aS'wild boars:41'
p60
aS'bombs blasted:51'
p61
aS'injuries:56'
p62
aS'fingers:65'
p63
aS'treatment:82'
p64
aS'registered a case:87'
p65
asS'unexpl'
p66
(lp67
g33
asS'ocassion'
p68
g33
sS'link'
p69
S'http://www.thehindu.com/todays-paper/tp-national/tp-andhrapradesh/one-injured-in-explosion/article4524606.ece'
p70
sS'date'
p71
S'18-03-2013'
p72
sS'target'
p73
g33
sS'hot_spot'
p74
g33
sS'delivery_mod'
p75
g33
sS'delivery_met'
p76
S'ACCIDENTAL'
p77
sS'expl'
p78
(lp79
g33
asS'ORG'
p80
(lp81
s.