(dp0
S'LOC'
p1
(lp2
(lp3
S'Tamil Nadu'
p4
aS'2'
p5
aS'Event'
p6
aa(lp7
S'Karnataka'
p8
aS'8'
p9
aS'Neutral'
p10
aa(lp11
S'Malleswaram'
p12
aS'34'
p13
aS'Assoc Event Location'
p14
aa(lp15
S'Salem'
p16
aS'74'
p17
aS'Assoc Event Location'
p18
aa(lp19
S'Vellore'
p20
aS'83'
p21
aS'Assoc Event Location'
p22
aa(lp23
S'Tirunelveli'
p24
aS'90'
p25
aS'Accused Location'
p26
aa(lp27
S'Melappalayam'
p28
aS'110'
p29
aS'Assoc Event Location'
p30
aa(lp31
S'Bangalore'
p32
aS'128'
p33
aS'Neutral'
p34
aa(lp35
S'Chennai'
p36
aS'150'
p37
aS'Assoc Event Location'
p38
aa(lp39
S'Coimbatore'
p40
aS'152'
p41
aS'Assoc Event Location'
p42
aa(lp43
S'Madurai'
p44
aS'158'
p45
aS'Accused Location'
p46
aa(lp47
S'Vellore'
p48
aS'174'
p49
aS'Assoc Event Location'
p50
aa(lp51
S'Malleswaram'
p52
aS'250'
p53
aS'Assoc Event Location'
p54
aa(lp55
S'Bangalore'
p56
aS'252'
p57
aS'Assoc Event Location'
p58
aa(lp59
S'Bangalore'
p60
aS'282'
p61
aS'Neutral'
p62
aa(lp63
S'Malleswaram'
p64
aS'319'
p65
aS'Accused Location'
p66
aa(lp67
S'Malleswaram'
p68
aS'334'
p69
aS'Accused Location'
p70
aasS'PER'
p71
(lp72
(lp73
S'Buhari'
p74
aS'154'
p75
aS'Assoc Accused'
p76
aS'Others'
p77
aa(lp78
S'Kichan Buhari'
p79
aS'23'
p80
aS'Accused'
p81
aa(lp82
S'Ramesh'
p83
aS'72'
p84
aS'Victim'
p85
aa(lp86
S'S. Vellaiyappan'
p87
aS'80'
p88
aS'Victim'
p89
aa(lp90
S'Bilal Hussain'
p91
aS'87'
p92
aS'Accused'
p93
aa(lp94
S'Bilal'
p95
aS'115'
p96
aS'Accused'
p97
aa(lp98
S'Thasim'
p99
aS'121'
p100
aS'Accused'
p101
aa(lp102
S'Ismail'
p103
aS'123'
p104
aS'Accused'
p105
aa(lp106
S'Buhari'
p107
aS'125'
p108
aS'Assoc Accused'
p109
aa(lp110
S'L.K. Advani'
p111
aS'216'
p112
aS'Others'
p113
aa(lp114
S'Fakruddin'
p115
aS'261'
p116
aS'Assoc Accused'
p117
aa(lp118
S'Hussain'
p119
aS'303'
p120
aS'Assoc Accused'
p121
aa(lp122
S'Vellaiyappan'
p123
aS'330'
p124
aS'Assoc Accused'
p125
aa(lp126
S'Vellaiyappan'
p127
aS'346'
p128
aS'Assoc Accused'
p129
aasS'TIM'
p130
(lp131
sS'hot_setting'
p132
S''
p133
sS'DAT'
p134
(lp135
S'Wednesday:49'
p136
aS'April 23:160'
p137
asS'death'
p138
g133
sS'title'
p139
S'TN, Karnataka police on trail of explosives consignment'
p140
sS'det_loc'
p141
(lp142
S'India'
p143
aS'Karnataka'
p144
ag133
aS'Bangalore'
p145
aS'Malleswaram'
p146
asS'terror_group'
p147
(lp148
g133
asS'content'
p149
S'The Tamil Nadu police along with their Karnataka counterpart have launched an intensive probe to unearth an explosives consignment allegedly delivered by Kichan Buhari , one of the prime suspects arrested in the Malleswaram blast case , to a couple of his associates , police sources said on Wednesday . Sleuths of the Special Investigation Division , tracking suspects involved in the murder of Bharatiya Janata Party state general secretary Auditor Ramesh in Salem and Hindu Munnani State secretary S. Vellaiyappan in Vellore , apprehended one Bilal Hussain near Tirunelveli . His involvement is suspected in the seizure of 17 kg of explosives concealed in a locked house in Melappalayam . On interrogation , Bilal revealed that he along with Thasim and Ismail met Buhari in the Bangalore prison recently and came to know that the latter had delivered a consignment of 40 kg explosives to some associates in Chennai and Coimbatore . Buhari was arrested in Madurai on April 23 this year . A portion of the consignment was used in the Vellore murder . The gangs motive behind keeping the stock of explosives is not clear . Forensic analysis indicates the same substance was used in pipe bombs planted under a culvert in the plot to blow up the convoy of BJP leader L.K. Advani , a police official said . While the source and supply network of the explosives was under investigation , police were trying to check whether it matched with the bombs triggered at Malleswaram in Bangalore . At least four suspects , including Police Fakruddin , seem to have the expertise in handling and making explosives . We are working in close coordination with the Bangalore police in this case . A joint search is on to locate the consignment of explosives , he said . Hussain was produced in a Tirunelveli court and remanded in judicial custody . Prime suspect in Malleswaram blast delivered it to aidesConsignment portion used for murder of Vellaiyappan Prime suspect in Malleswaram blast delivered it to aides Consignment portion used for murder of Vellaiyappan OPEN'
p150
sS'injured'
p151
g133
sS'org_unorg'
p152
g133
sS'O'
p153
(lp154
S'counterpart:9'
p155
aS'launched:11'
p156
aS'intensive probe:13'
p157
aS'explosives consignment:18'
p158
aS'prime suspects:29'
p159
aS'malleswaram blast case:34'
p160
aS'sleuths:51'
p161
aS'investigation division:55'
p162
aS'tracking:58'
p163
aS'murder:63'
p164
aS'secretary auditor:70'
p165
aS'hindu munnani state secretary:76'
p166
aS'suspected:95'
p167
aS'seizure of 17 kg:98'
p168
aS'explosives:103'
p169
aS'locked house:107'
p170
aS'interrogation:113'
p171
aS'bangalore prison:128'
p172
aS'consignment of 40 kg explosives:141'
p173
aS'arrested:156'
p174
aS'consignment:169'
p175
aS'gangs:178'
p176
aS'stock:183'
p177
aS'explosives:185'
p178
aS'forensic analysis:190'
p179
aS'pipe bombs:199'
p180
aS'culvert:204'
p181
aS'plot:207'
p182
aS'convoy:212'
p183
aS'police official:220'
p184
aS'source:226'
p185
aS'supply network:228'
p186
aS'explosives:232'
p187
aS'investigation:235'
p188
aS'bombs triggered:247'
p189
aS'four suspects:256'
p190
aS'expertise:267'
p191
aS'explosives:272'
p192
aS'joint search:289'
p193
aS'consignment:296'
p194
aS'explosives:298'
p195
aS'judicial custody:313'
p196
aS'prime suspect:316'
p197
aS'murder:328'
p198
aS'vellaiyappan prime suspect:330'
p199
aS'Malleswaram blast:334'
p200
aS'consignment portion:340'
p201
aS'murder:344'
p202
asS'unexpl'
p203
(lp204
g133
asS'ocassion'
p205
g133
sS'link'
p206
S'http://www.thehindu.com/todays-paper/tp-national/tp-tamilnadu/tn-karnataka-police-on-trail-of-explosives-consignment/article5001749.ece'
p207
sS'date'
p208
S'07-08-2013'
p209
sS'target'
p210
S'POLITICAL LEADER/GROUP'
p211
sS'hot_spot'
p212
g133
sS'delivery_mod'
p213
S'PIPE BOMB'
p214
sS'delivery_met'
p215
S'PLANTED'
p216
sS'expl'
p217
(lp218
S'PIPE BOMBS'
p219
asS'ORG'
p220
(lp221
(lp222
S'Bharatiya Janata Party'
p223
aS'65'
p224
aS'Victim'
p225
aS'Others'
p226
aa(lp227
S'Hindu Munnani'
p228
aS'76'
p229
aS'Others'
p230
aa(lp231
S'BJP'
p232
aS'214'
p233
aS'Others'
p234
aa(lp235
S'Tirunelveli court'
p236
aS'308'
p237
aS'Others'
p238
aas.