(dp0
S'LOC'
p1
(lp2
(lp3
S'Baghdad'
p4
aS'9'
p5
aS'Event'
p6
aa(lp7
S'Iraq'
p8
aS'51'
p9
aS'Event'
p10
aasS'PER'
p11
(lp12
sS'TIM'
p13
(lp14
sS'hot_setting'
p15
S''
p16
sS'DAT'
p17
(lp18
S'Tuesday:11'
p19
aS'2006:76'
p20
aS'2007:78'
p21
asS'death'
p22
S'29'
p23
sS'title'
p24
S'Iraq blasts kill 29'
p25
sS'org_unorg'
p26
g16
sS'terror_group'
p27
(lp28
g16
asS'content'
p29
S'Two suicide bombers targeted a Shia mosque in Baghdad on Tuesday , one blowing himself up at a nearby checkpoint while the other slipped inside during prayers . The blasts killed 29 people , Iraqi officials said . The bombings were the latest in a string of attacks to hit Iraq , reviving fears that the country is headed back toward the widespread sectarian bloodshed that pushed it to the brink of civil war in 2006 and 2007 . AP OPEN'
p30
sS'injured'
p31
g16
sS'det_loc'
p32
(lp33
S'Iraq'
p34
ag16
ag16
aS'baghdad'
p35
ag16
asS'O'
p36
(lp37
S'two suicide bombers:1'
p38
aS'shia mosque:6'
p39
aS'blowing himself:14'
p40
aS'checkpoint:20'
p41
aS'prayers:27'
p42
aS'blasts:30'
p43
aS'iraqi officials:35'
p44
aS'bombings:40'
p45
aS'string:46'
p46
aS'attacks:48'
p47
aS'reviving fears:53'
p48
aS'sectarian bloodshed:64'
p49
aS'brink of civil war:71'
p50
asS'unexpl'
p51
(lp52
g16
asS'ocassion'
p53
g16
sS'link'
p54
S'http://www.thehindu.com/todays-paper/tp-international/iraq-blasts-kill-29/article4828497.ece'
p55
sS'date'
p56
S'18-06-2013'
p57
sS'target'
p58
S'SHIA ISLAM'
p59
sS'hot_spot'
p60
g16
sS'delivery_mod'
p61
g16
sS'delivery_met'
p62
g16
sS'expl'
p63
(lp64
g16
asS'ORG'
p65
(lp66
(lp67
S'AP'
p68
aS'80'
p69
aS'Others'
p70
aas.