(dp0
S'LOC'
p1
(lp2
(lp3
S'India'
p4
aS'10'
p5
aS'Neutral'
p6
aa(lp7
S'Ranchi'
p8
aS'41'
p9
aS'Neutral'
p10
aa(lp11
S'Jharkhand'
p12
aS'43'
p13
aS'Neutral'
p14
aa(lp15
S'Bariatu'
p16
aS'58'
p17
aS'Neutral'
p18
aa(lp19
S'Hyderabad'
p20
aS'90'
p21
aS'Neutral'
p22
aa(lp23
S'Dilsukhnagar'
p24
aS'119'
p25
aS'Event'
p26
aa(lp27
S'Wagamon'
p28
aS'163'
p29
aS'Neutral'
p30
aa(lp31
S'Kochi'
p32
aS'165'
p33
aS'Neutral'
p34
aa(lp35
S'Kochi'
p36
aS'218'
p37
aS'Neutral'
p38
aa(lp39
S'Ernakulam'
p40
aS'234'
p41
aS'Neutral'
p42
aa(lp43
S'Hyderabad'
p44
aS'249'
p45
aS'Event'
p46
aa(lp47
S'Hyderabad'
p48
aS'265'
p49
aS'Event'
p50
aasS'PER'
p51
(lp52
(lp53
S'Manzar Imam'
p54
aS'15'
p55
aS'Others'
p56
aa(lp57
S'Danish Iqbal'
p58
aS'134'
p59
aS'Others'
p60
aa(lp61
S'Imam'
p62
aS'158'
p63
aS'Others'
p64
aa(lp65
S'Danish Iqbal'
p66
aS'200'
p67
aS'Victim'
p68
aS'Others'
p69
aa(lp70
S'Imam'
p71
aS'208'
p72
aS'Others'
p73
aa(lp74
S'Imam'
p75
aS'224'
p76
aS'Others'
p77
aasS'TIM'
p78
(lp79
sS'hot_setting'
p80
S''
p81
sS'DAT'
p82
(lp83
S'Monday:69'
p84
aS'2010:168'
p85
asS'death'
p86
g81
sS'title'
p87
S'NIA arrests former SIMI activist'
p88
sS'det_loc'
p89
(lp90
S'India'
p91
ag81
ag81
aS'HYDERABAD'
p92
ag81
asS'terror_group'
p93
(lp94
g81
asS'content'
p95
S'An ex-activist of the outlawed Students Islamic Movement of India ( SIMI ) , Manzar Imam , who had been evading the police for over two years , was arrested by the National Investigation Agency ( NIA ) officials in Ranchi in Jharkhand , when he was on his way to his house near Joda Talab in Bariatu . He was produced in the Judicial Magistrates Court on Monday afternoon . Initially , a news agency put out a report stating that he was held in connection with the Hyderabad blasts , sending everyone into a tizzy here . But , the NIA officials later clarified that his arrest had no connection with the recent twin explosions at Dilsukhnagar . However , there is a connection to the city in the sense that Danish Iqbal , who was working for an IT company here , took part in a militant training camp organised by SIMI along with Imam and 50 others at Wagamon near Kochi , in 2010 . They underwent firing practice , handling of explosives and detonation of bombs , a NIA officer said . They were taught on ways to escape from a police raid . Danish Iqbal is currently lodged in prison and Imam is the 24th accused in the case reported in Kochi . Police officials said that Imam has been sent to a five-day transit remand to Ernakulam . He had been evading arrest for two yearsHis arrest is not connected to Hyderabad blasts He had been evading arrest for two years His arrest is not connected to Hyderabad blasts OPEN'
p96
sS'injured'
p97
g81
sS'org_unorg'
p98
S'ORGANISED'
p99
sS'O'
p100
(lp101
S'ex-activist:2'
p102
aS'islamic movement:7'
p103
aS'tizzy:97'
p104
aS'firing practice:172'
p105
aS'detonation:179'
p106
aS'prison:206'
p107
aS'arrest:255'
p108
asS'unexpl'
p109
(lp110
g81
asS'ocassion'
p111
g81
sS'link'
p112
S'http://www.thehindu.com/todays-paper/tp-national/tp-newdelhi/nia-arrests-former-simi-activist/article4477193.ece'
p113
sS'date'
p114
g81
sS'target'
p115
g81
sS'hot_spot'
p116
g81
sS'delivery_mod'
p117
g81
sS'delivery_met'
p118
g81
sS'expl'
p119
(lp120
g81
asS'ORG'
p121
(lp122
(lp123
S'Islamic Movement of India ( SIMI )'
p124
aS'7'
p125
aS'Others'
p126
aa(lp127
S'police'
p128
aS'23'
p129
aS'Others'
p130
aa(lp131
S'National'
p132
aS'33'
p133
aS'Others'
p134
aa(lp135
S'National Investigation'
p136
aS'33'
p137
aS'Others'
p138
aa(lp139
S'National Investigation Agency'
p140
aS'33'
p141
aS'Others'
p142
aa(lp143
S'National Investigation'
p144
aS'33'
p145
aS'Others'
p146
aa(lp147
S'Investigation Agency'
p148
aS'34'
p149
aS'Others'
p150
aa(lp151
S'Investigation'
p152
aS'34'
p153
aS'Others'
p154
aa(lp155
S'Agency'
p156
aS'35'
p157
aS'Others'
p158
aa(lp159
S'NIA'
p160
aS'37'
p161
aS'Others'
p162
aa(lp163
S'Joda Talab in Bariatu'
p164
aS'55'
p165
aS'Others'
p166
aa(lp167
S'Judicial'
p168
aS'65'
p169
aS'Others'
p170
aa(lp171
S'Judicial Magistrates'
p172
aS'65'
p173
aS'Others'
p174
aa(lp175
S'Judicial Magistrates Court'
p176
aS'65'
p177
aS'Others'
p178
aa(lp179
S'Court'
p180
aS'67'
p181
aS'Others'
p182
aa(lp183
S'Court on Monday'
p184
aS'67'
p185
aS'Others'
p186
aa(lp187
S'NIA'
p188
aS'103'
p189
aS'Others'
p190
aa(lp191
S'IT company'
p192
aS'142'
p193
aS'Others'
p194
aa(lp195
S'militant training'
p196
aS'150'
p197
aS'Others'
p198
aa(lp199
S'SIMI'
p200
aS'155'
p201
aS'Others'
p202
aa(lp203
S'NIA officer'
p204
aS'184'
p205
aS'Others'
p206
aa(lp207
S'NIA'
p208
aS'184'
p209
aS'Others'
p210
aa(lp211
S'police'
p212
aS'197'
p213
aS'Others'
p214
aa(lp215
S'Police'
p216
aS'220'
p217
aS'Others'
p218
aas.