(dp0
S'LOC'
p1
(lp2
(lp3
S'Malegaon'
p4
aS'29'
p5
aS'Event'
p6
aa(lp7
S'Mecca Masjid'
p8
aS'103'
p9
aS'Assoc Event Location'
p10
aa(lp11
S'Malleswaram'
p12
aS'315'
p13
aS'Assoc Event Location'
p14
aa(lp15
S'Hubli'
p16
aS'354'
p17
aS'Assoc Event Location'
p18
aa(lp19
S'Malegaon'
p20
aS'436'
p21
aS'Event'
p22
aa(lp23
S'Malegaon'
p24
aS'469'
p25
aS'Event'
p26
aasS'PER'
p27
(lp28
(lp29
S'Subhash Gatade'
p30
aS'21'
p31
aS'Comment'
p32
aa(lp33
S'Abhinav Bharat'
p34
aS'39'
p35
aS'Accused'
p36
aa(lp37
S'Gatade'
p38
aS'68'
p39
aS'Comment'
p40
aa(lp41
S'Devender Gupta'
p42
aS'114'
p43
aS'Others'
p44
aa(lp45
S'Lokesh Sharma'
p46
aS'117'
p47
aS'Others'
p48
aa(lp49
S'Ramji Kalasangra'
p50
aS'120'
p51
aS'Others'
p52
aa(lp53
S'Sandeed Dange'
p54
aS'123'
p55
aS'Others'
p56
aa(lp57
S'Sunil Joshi'
p58
aS'126'
p59
aS'Others'
p60
aa(lp61
S'Gatade'
p62
aS'205'
p63
aS'Others'
p64
aa(lp65
S'Mutaliks'
p66
aS'243'
p67
aS'Others'
p68
aa(lp69
S'Rama Sene'
p70
aS'257'
p71
aS'Others'
p72
aa(lp73
S'Pramod Muthalik'
p74
aS'260'
p75
aS'Others'
p76
aa(lp77
S'Nagraj Jambhagi'
p78
aS'364'
p79
aS'Comment'
p80
aa(lp81
S'Ram Sena'
p82
aS'393'
p83
aS'Others'
p84
aasS'TIM'
p85
(lp86
sS'hot_setting'
p87
S''
p88
sS'DAT'
p89
(lp90
S'2008 : 353'
p91
asS'death'
p92
g88
sS'title'
p93
S'Media, police ducking the question of Hindutva terror'
p94
sS'det_loc'
p95
(lp96
g88
ag88
ag88
ag88
ag88
asS'terror_group'
p97
(lp98
g88
asS'content'
p99
S'Accusing sections of the media and the police of deliberately ignoring the issue of Hindutva extremism , journalist and author Subhash Gatade said in cases such as the Malegaon blast , which was attributed to the Hindutva outfit Abhinav Bharat , the police never tried to get to the masterminds . Addressing a gathering of journalists and activists at the Alternative Law Forum here recently , Mr. Gatade said : While dealing with issues of Hindutva terrorism , investigating agencies are reluctant to name organisations whose activists are found to be involved in terror acts . He gave the example of the Mecca Masjid blasts where Rashtriya Swayamsevak Sangh ( RSS ) activists Devender Gupta , Lokesh Sharma , Ramji Kalasangra , Sandeed Dange and Sunil Joshi were mentioned as accused in the CBI chargesheet . Yet , the investigating agency never named the organisation to which they were affiliated . Obfuscation Every time a Hindutva terror module is uncovered , there is a concerted effort by the police and the media to project the accused as fringe or rogue elements who have strayed away from the Hindutva ideology . Drawing from his latest book , Godses Children Hindutva Terror in India , Mr. Gatade alleged that Hindu extremist groups are slowly moving away from the terror of the riot to the terror of the bomb . It costs less , the risk is also less but the impact is huge . Mutaliks claim Speaking of Karnataka , he expressed shock at the fact that Sri Rama Sene chief Pramod Muthalik continues to enjoy freedom despite openly admitting ( in an interview to a news portal ) that his organisation runs arms and ammunition training camps for Hindu youth . Quoting a more recent example , he said that the police had not properly investigated the blast outside the Bharatiya Janata Party office in Malleswaram . Quoting from articles that appeared in the media , he said that the RSS leader whose SIM card was used to trigger the blast was never properly investigated by the police . He also mentioned the 2008 Hubli blast case which the police traced to Hindutva activist Nagraj Jambhagi and said : Of course , although the police did not divulge the political connections of the group and share the important information about its alleged Sri Ram Sena connections , anyone familiar with the Hubli-Dharwad region would have many other details about the gang of criminals , their political affiliations and their other deeds . The police never tried to get to the masterminds in cases such as the Malegaon blastHindu extremist groups are moving away from the terror of the riot to the terror of the bomb The police never tried to get to the masterminds in cases such as the Malegaon blast Hindu extremist groups are moving away from the terror of the riot to the terror of the bomb OPEN'
p100
sS'injured'
p101
g88
sS'org_unorg'
p102
g88
sS'O'
p103
(lp104
S'Accusing sections:1'
p105
aS'media:5'
p106
aS'deliberately ignoring:10'
p107
aS'issue:13'
p108
aS'Hindutva extremism:15'
p109
aS'journalist:18'
p110
aS'Malegaon blast:29'
p111
aS'attributed:34'
p112
aS'Hindutva outfit:37'
p113
aS'tried:45'
p114
aS'masterminds:50'
p115
aS'gathering:54'
p116
aS'journalists:56'
p117
aS'activists:58'
p118
aS'Alternative Law Forum:61'
p119
aS'issues:74'
p120
aS'Hindutva terrorism:76'
p121
aS'investigating agencies:79'
p122
aS'reluctant:82'
p123
aS'organisations:85'
p124
aS'activists:87'
p125
aS'terror acts:94'
p126
aS'Mecca Masjid blasts:103'
p127
aS'mentioned:129'
p128
aS'accused:131'
p129
aS'chargesheet:135'
p130
aS'investigating agency:140'
p131
aS'organisation:145'
p132
aS'affiliated:150'
p133
aS'Obfuscation:152'
p134
aS'Hindutva terror module:156'
p135
aS'uncovered:160'
p136
aS'concerted effort:165'
p137
aS'media:172'
p138
aS'project:174'
p139
aS'accused:176'
p140
aS'fringe:178'
p141
aS'rogue elements:180'
p142
aS'Hindutva ideology:188'
p143
aS'latest book:194'
p144
aS'Godses Children Hindutva Terror in India:197'
p145
aS'Hindu extremist groups:208'
p146
aS'terror:217'
p147
aS'riot:220'
p148
aS'terror:223'
p149
aS'bomb:226'
p150
aS'risk:233'
p151
aS'impact:239'
p152
aS'Speaking of Karnataka:245'
p153
aS'expressed shock:250'
p154
aS'freedom:265'
p155
aS'openly admitting:267'
p156
aS'interview:272'
p157
aS'news portal:275'
p158
aS'organisation runs:280'
p159
aS'arms and ammunition training camps:282'
p160
aS'Hindu youth:288'
p161
aS'investigated:305'
p162
aS'blast:307'
p163
aS'articles:319'
p164
aS'media:324'
p165
aS'SIM card:333'
p166
aS'trigger:338'
p167
aS'blast:340'
p168
aS'investigated:344'
p169
aS'Hubli blast case:354'
p170
aS'Hindutva activist:362'
p171
aS'divulge:377'
p172
aS'political connections:379'
p173
aS'important information:387'
p174
aS'familiar:398'
p175
aS'Hubli-Dharwad region:401'
p176
aS'details:407'
p177
aS'gang of criminals:410'
p178
aS'political affiliations:415'
p179
aS'deeds:420'
p180
aS'masterminds:430'
p181
aS'Malegaon blastHindu extremist groups:436'
p182
aS'terror:445'
p183
aS'riot:448'
p184
aS'terror:451'
p185
aS'bomb:454'
p186
aS'masterminds:463'
p187
aS'Malegaon blast Hindu extremist groups:469'
p188
aS'terror:479'
p189
aS'riot:482'
p190
aS'terror:485'
p191
aS'bomb:488'
p192
asS'unexpl'
p193
(lp194
g88
asS'ocassion'
p195
g88
sS'link'
p196
S'http://www.thehindu.com/todays-paper/tp-national/tp-karnataka/media-police-ducking-the-question-of-hindutva-terror/article4798862.ece'
p197
sS'date'
p198
S'10-06-2013'
p199
sS'target'
p200
g88
sS'hot_spot'
p201
g88
sS'delivery_mod'
p202
g88
sS'delivery_met'
p203
g88
sS'expl'
p204
(lp205
g88
asS'ORG'
p206
(lp207
(lp208
S'Rashtriya Swayamsevak Sangh'
p209
aS'107'
p210
aS'Others'
p211
aa(lp212
S'RSS'
p213
aS'111'
p214
aS'Others'
p215
aa(lp216
S'CBI'
p217
aS'134'
p218
aS'Others'
p219
aa(lp220
S'Bharatiya Janata Party'
p221
aS'310'
p222
aS'Others'
p223
aa(lp224
S'RSS'
p225
aS'330'
p226
aS'Others'
p227
aas.