(dp0
S'LOC'
p1
(lp2
(lp3
S'Bardhaman'
p4
aS'22'
p5
aS'Event'
p6
aa(lp7
S'West Bengal'
p8
aS'25'
p9
aS'Neutral'
p10
aa(lp11
S'New Delhi'
p12
aS'64'
p13
aS'Neutral'
p14
aa(lp15
S'Bardhaman'
p16
aS'76'
p17
aS'Event'
p18
aa(lp19
S'Bangladesh'
p20
aS'87'
p21
aS'Neutral'
p22
aa(lp23
S'Dhaka'
p24
aS'102'
p25
aS'Neutral'
p26
aa(lp27
S'Bangladesh'
p28
aS'111'
p29
aS'Neutral'
p30
aa(lp31
S'Khagragarh'
p32
aS'139'
p33
aS'Neutral'
p34
aa(lp35
S'Bardhaman'
p36
aS'141'
p37
aS'Event'
p38
aa(lp39
S'Dhaka'
p40
aS'164'
p41
aS'Neutral'
p42
aa(lp43
S'India'
p44
aS'184'
p45
aS'Neutral'
p46
aa(lp47
S'Bangladesh'
p48
aS'186'
p49
aS'Neutral'
p50
aasS'PER'
p51
(lp52
(lp53
S'Asaduzzaman Khan Kamal'
p54
aS'94'
p55
aS'Comment'
p56
aa(lp57
S'Kamal'
p58
aS'211'
p59
aS'Comment'
p60
aasS'TIM'
p61
(lp62
sS'hot_setting'
p63
S''
p64
sS'DAT'
p65
(lp66
S'Oct 2 : 20'
p67
aS'Thursday : 46'
p68
asS'death'
p69
g64
sS'title'
p70
S'Bardhaman blast: Bangladeshi sleuths to visit India'
p71
sS'det_loc'
p72
(lp73
S'India'
p74
aS'West Bengal'
p75
aS'Bardhaman'
p76
aS'Kolkata'
p77
ag64
asS'terror_group'
p78
(lp79
S'Jamiat-ul-Mujahideen'
p80
asS'content'
p81
S"A team of Bangladeshi intelligence officials will visit India and talk to investigators including the NIA , regarding the Oct 2 Bardhaman blast in West Bengal in which terror group Jamaat-ul-Mujahideen Bangladesh ( JMB ) is suspected to be involved , a Bangladeshi minister said Thursday . `` A delegation of seven officials from intelligence and law enforcement agencies will be leaving for New Delhi today ( Thursday ) . They are expected to visit Bardhaman and talk to the investigators including NIA officers , '' Bangladesh 's Minister of State for Home Asaduzzaman Khan Kamal told IANS over phone from Dhaka . The team comprising high ranking officials of Bangladesh 's Directorate General of Forces Intelligence , the National Security Intelligence and the Detective Branch and other agencies . The blast took place in a house in Khagragarh in Bardhaman left two JMB militants dead and another injured . A team of the National Investigation Agency ( NIA ) officials recently visited Dhaka and shared information about it for which several people , including Bangladeshi nationals have been arrested . `` Both India and Bangladesh are committed to fight against terrorism . The delegation will share information with the NIA to help it locate more suspects , '' said Kamal . OPEN"
p82
sS'injured'
p83
g64
sS'org_unorg'
p84
S'Unorganized'
p85
sS'O'
p86
(lp87
S'burdwan blast:9'
p88
asS'unexpl'
p89
(lp90
g64
asS'ocassion'
p91
g64
sS'link'
p92
S'http://timesofindia.indiatimes.com/india/Bardhaman-blast-Bangladeshi-sleuths-to-visit-India/articleshow/45298495.cms'
p93
sS'date'
p94
S'02-10-2014'
p95
sS'target'
p96
g64
sS'hot_spot'
p97
g64
sS'delivery_mod'
p98
g64
sS'delivery_met'
p99
g64
sS'expl'
p100
(lp101
S'RDX'
p102
asS'ORG'
p103
(lp104
(lp105
S'NIA'
p106
aS'16'
p107
aS'Others'
p108
aa(lp109
S'Jamaat-ul-Mujahideen Bangladesh'
p110
aS'31'
p111
aS'Accused'
p112
aa(lp113
S'NIA'
p114
aS'83'
p115
aS'Others'
p116
aa(lp117
S'National Security Intelligence'
p118
aS'120'
p119
aS'Others'
p120
aa(lp121
S'JMB'
p122
aS'144'
p123
aS'Accused'
p124
aa(lp125
S'National Investigation Agency'
p126
aS'155'
p127
aS'Others'
p128
aa(lp129
S'NIA'
p130
aS'201'
p131
aS'Others'
p132
aas.