(dp0
S'LOC'
p1
(lp2
(lp3
S'Burdwan'
p4
aS'7'
p5
aS'Event'
p6
aa(lp7
S'Birbhum'
p8
aS'92'
p9
aS'Accused Location'
p10
aa(lp11
S'West Bengal'
p12
aS'95'
p13
aS'Neutral'
p14
aasS'PER'
p15
(lp16
(lp17
S'Amjad Sheikh'
p18
aS'10'
p19
aS'Accused'
p20
aa(lp21
S'Md Mumtaz Khan'
p22
aS'33'
p23
aS'Others'
p24
aa(lp25
S'Amjad'
p26
aS'44'
p27
aS'Accused'
p28
aa(lp29
S'Sheikh'
p30
aS'84'
p31
aS'Accused'
p32
aa(lp33
S'Kajal'
p34
aS'87'
p35
aS'Accused'
p36
aa(lp37
S'Sheikh'
p38
aS'138'
p39
aS'Accused'
p40
aasS'TIM'
p41
(lp42
sS'hot_setting'
p43
S''
p44
sS'DAT'
p45
(lp46
S'20 November : 30'
p47
asS'death'
p48
g44
sS'title'
p49
S'Burdwan blast: Accused Amjad Sheikh remanded to NIA custody till 20 November'
p50
sS'org_unorg'
p51
S'Unorganized'
p52
sS'terror_group'
p53
(lp54
S'Jamiat-ul-Mujahideen'
p55
asS'content'
p56
S"A city court on Tuesday remanded Burdwan blast accused Amjad Sheikh , an alleged key member of Jamaat-ul-Mujahideen Bangladesh ( JMB ) terror group , to NIA custody till 20 November . Md Mumtaz Khan , Chief judge in Bankshall Court , remanded Amjad to 10 days ' NIA custody on a prayer by the agency 's counsel . He was produced before the court under tight security with a large number of both Kolkata Police and paramilitary personnel guarding the premises . Sheikh , alias Kajal , a resident of Birbhum district of West Bengal , was arrested yesterday and is alleged to be the main person who used to procure material from open market meant for making improvised explosive devices . NIA had announced a cash reward of Rs five lakh for information leading to Sheikh 's arrest but had later doubled the amount . OPEN"
p57
sS'injured'
p58
g44
sS'det_loc'
p59
(lp60
S'India'
p61
aS'West Bengal'
p62
aS'Bardhaman'
p63
aS'Kolkata'
p64
ag44
asS'O'
p65
(lp66
S'burdwan blast:9'
p67
aS'improvised explosive devices:120'
p68
asS'unexpl'
p69
(lp70
g44
asS'ocassion'
p71
g44
sS'link'
p72
S'http://www.firstpost.com/india/burdwan-blast-accused-amjad-sheikh-remanded-nia-custody-till-20-november-1797927.html'
p73
sS'date'
p74
S'02-10-2014'
p75
sS'target'
p76
g44
sS'hot_spot'
p77
g44
sS'delivery_mod'
p78
g44
sS'delivery_met'
p79
g44
sS'expl'
p80
(lp81
S'IED'
p82
asS'ORG'
p83
(lp84
(lp85
S'Jamaat-ul-Mujahideen Bangladesh'
p86
aS'18'
p87
aS'Accused'
p88
aa(lp89
S'NIA'
p90
aS'49'
p91
aS'Others'
p92
aa(lp93
S'Kolkata Police'
p94
aS'75'
p95
aS'Others'
p96
aa(lp97
S'NIA'
p98
aS'124'
p99
aS'Others'
p100
aas.