(dp0
S'LOC'
p1
(lp2
(lp3
S'Bardhaman'
p4
aS'20'
p5
aS'Event'
p6
aa(lp7
S'Purbasthali'
p8
aS'58'
p9
aS'Neutral'
p10
aa(lp11
S'Bardhaman'
p12
aS'61'
p13
aS'Neutral'
p14
aasS'PER'
p15
(lp16
(lp17
S'Gulsana Bibi'
p18
aS'41'
p19
aS'Accused'
p20
aa(lp21
S'Alima Bibi'
p22
aS'44'
p23
aS'Accused'
p24
aa(lp25
S'Hashem Molla'
p26
aS'52'
p27
aS'Accused'
p28
aa(lp29
S'Molla'
p30
aS'69'
p31
aS'Accused'
p32
aa(lp33
S'Dilip Adak'
p34
aS'89'
p35
aS'Comment'
p36
aasS'TIM'
p37
(lp38
sS'hot_setting'
p39
S''
p40
sS'DAT'
p41
(lp42
S'Monday : 11'
p43
aS'Sunday : 50'
p44
aS'Monday : 67'
p45
asS'death'
p46
g40
sS'title'
p47
S'One more held in Bardhaman case'
p48
sS'det_loc'
p49
(lp50
S'India'
p51
aS'West Bengal'
p52
aS'Bardhaman'
p53
aS'Kolkata'
p54
ag40
asS'terror_group'
p55
(lp56
S'Jamiat-ul-Mujahideen'
p57
asS'content'
p58
S'The West Bengal Criminal Investigation Department ( CID ) on Monday held one more person for the blast at Bardhaman , taking the number of arrests to three . While the spouses of the two accused in the blast , Gulsana Bibi and Alima Bibi , were arrested on Sunday , Hashem Molla , a resident of Purbasthali town in Bardhaman district , was nabbed on Monday . Molla was produced in court and was remanded in 12-day police custody , Deputy Inspector of General ( CID ) Dilip Adak said . OPEN'
p59
sS'injured'
p60
g40
sS'org_unorg'
p61
S'Unorganized'
p62
sS'O'
p63
(lp64
g40
asS'unexpl'
p65
(lp66
g40
asS'ocassion'
p67
g40
sS'link'
p68
S'http://www.thehindu.com/news/national/other-states/one-more-held-in-bardhaman-case/article6476559.ece'
p69
sS'date'
p70
S'02-10-2014'
p71
sS'target'
p72
g40
sS'hot_spot'
p73
g40
sS'delivery_mod'
p74
g40
sS'delivery_met'
p75
g40
sS'expl'
p76
(lp77
S'IED'
p78
asS'ORG'
p79
(lp80
(lp81
S'West Bengal Criminal Investigation Department'
p82
aS'2'
p83
aS'Others'
p84
aas.