(dp0
S'LOC'
p1
(lp2
(lp3
S'West Bengal'
p4
aS'21'
p5
aS'Event'
p6
aa(lp7
S'Burdwan'
p8
aS'24'
p9
aS'Event'
p10
aa(lp11
S'Bangladesh'
p12
aS'36'
p13
aS'Accused Location'
p14
aa(lp15
S'Bangladesh'
p16
aS'60'
p17
aS'Accused Location'
p18
aa(lp19
S'Bangladesh'
p20
aS'85'
p21
aS'Accused Location'
p22
aa(lp23
S'Bangladesh'
p24
aS'95'
p25
aS'Accused Location'
p26
aa(lp27
S'Bangladesh'
p28
aS'106'
p29
aS'Accused Location'
p30
aa(lp31
S'Bangladesh'
p32
aS'133'
p33
aS'Victim Location'
p34
aa(lp35
S'Khagragarh'
p36
aS'146'
p37
aS'Event'
p38
aa(lp39
S'Burdwan'
p40
aS'148'
p41
aS'Event'
p42
aa(lp43
S'Burdwan'
p44
aS'199'
p45
aS'Event'
p46
aa(lp47
S'Mathpara'
p48
aS'216'
p49
aS'Accused Location'
p50
aa(lp51
S'Burdwan'
p52
aS'218'
p53
aS'Event'
p54
aa(lp55
S'Bangladesh'
p56
aS'318'
p57
aS'Accused Location'
p58
aa(lp59
S'Burdwan'
p60
aS'330'
p61
aS'Event'
p62
aa(lp63
S'Bangladesh'
p64
aS'351'
p65
aS'Accused Location'
p66
aasS'PER'
p67
(lp68
(lp69
S'Shakil Ahmed'
p70
aS'121'
p71
aS'Victim'
p72
aS'Others'
p73
aa(lp74
S'Suvon Mandal'
p75
aS'124'
p76
aS'Victim'
p77
aS'Others'
p78
aa(lp79
S'Subhan'
p80
aS'127'
p81
aS'Victim'
p82
aS'Others'
p83
aa(lp84
S'Abdul Hakim'
p85
aS'153'
p86
aS'Assoc Victim'
p87
aa(lp88
S'Hassan'
p89
aS'156'
p90
aS'Assoc Victim'
p91
aa(lp92
S'Sharad Kumar'
p93
aS'196'
p94
aS'Others'
p95
aa(lp96
S'Kumar'
p97
aS'286'
p98
aS'Comment'
p99
aa(lp100
S'Ajit Doval'
p101
aS'324'
p102
aS'Others'
p103
aasS'TIM'
p104
(lp105
S'eight days : 251'
p106
asS'hot_setting'
p107
S''
p108
sS'DAT'
p109
(lp110
S'October 2 : 26'
p111
aS'Friday : 116'
p112
aS'Friday : 192'
p113
aS'October 17 : 225'
p114
aS'Monday : 332'
p115
asS'death'
p116
g108
sS'title'
p117
S'Burdwan Blast Accused Members of Bangladesh Terror Group: National Investigation Agency'
p118
sS'org_unorg'
p119
g108
sS'terror_group'
p120
(lp121
S'JAMIAT-UL-MUJAHIDEEN'
p122
asS'content'
p123
S"The National Investigation Agency ( NIA ) has said that all four persons arrested in connection with the blast in West Bengal 's Burdwan on October 2 are members of the terror group , Jamaat-ul-Mujahideen Bangladesh ( JMB ) . The agency also said that the accused were preparing improvised explosive devices ( IEDs ) for transporting them to Bangladesh for possible terror attacks . `` Investigation so far has revealed that the accused persons and their associates were the members of Jamaat-ul-Mujahideen , Bangladesh ( JMB ) , a terrorist organisation proscribed in Bangladesh and they were preparing IEDs which were being transported to Bangladesh , '' the NIA said in a statement on Friday . Two men , Shakil Ahmed and Suvon Mandal alias Subhan - both allegedly residents of Bangladesh - were killed while making the IEDs in a rented house in Khagragarh in Burdwan . A third , Abdul Hakim alias Hassan was injured . He was arrested by the NIA along with three others , including two women - one of them is the widow of a terror suspect who died in the blast . On Friday , NIA chief Sharad Kumar visited Burdwan and inspected the house where the blast occurred . He also visited another house at nearby Mathpara in Burdwan where 39 IEDs were found on October 17 by the NIA ; 37 of them were detonated . The house , incidentally , had been searched and sealed by the state police eight days before the NIA recovered the IEDs . `` We have evolved strategies regarding arrests of absconding accused persons . I ca n't reveal anything because it will affect the investigation , '' Mr Kumar told reporters . The NIA is also considering announcing cash rewards for any information leading to the `` arrest of those absconding accused of this case which include JMB members from Bangladesh '' . National Security Advisor Ajit Doval is likely to visit Burdwan on Monday to take stock of the investigation . The government is preparing a dossier which will be shared with Bangladesh which had sought details on the case . OPEN"
p124
sS'injured'
p125
g108
sS'det_loc'
p126
(lp127
S'India'
p128
aS'West Bengal'
p129
aS'Bardhaman'
p130
aS'Budwan'
p131
ag108
asS'O'
p132
(lp133
S'four persons arrested:12'
p134
aS'blast:19'
p135
aS'terror group:32'
p136
aS'accused:47'
p137
aS'improvised explosive devices:50'
p138
aS'ieds:54'
p139
aS'terror attacks:63'
p140
aS'investigation:67'
p141
aS'accused persons:74'
p142
aS'terrorist organisation:91'
p143
aS'ieds:100'
p144
aS'ieds:140'
p145
aS'terror suspect:183'
p146
aS'blast:189'
p147
aS'blast:206'
p148
aS'39 ieds:220'
p149
aS'ieds:258'
p150
aS'strategies:264'
p151
aS'arrests:266'
p152
aS'absconding accused persons:268'
p153
aS'investigation:282'
p154
aS'cash rewards:296'
p155
aS'absconding accused:308'
p156
aS'national security advisor:321'
p157
aS'investigation:338'
p158
aS'dossier:345'
p159
asS'unexpl'
p160
(lp161
g108
asS'ocassion'
p162
g108
sS'link'
p163
S'http://www.ndtv.com/india-news/burdwan-blast-accused-members-of-bangladesh-terror-group-national-investigation-agency-683861'
p164
sS'date'
p165
S'02-10-2014'
p166
sS'target'
p167
S'TOWN'
p168
sS'hot_spot'
p169
g108
sS'delivery_mod'
p170
g108
sS'delivery_met'
p171
S'PLANTED'
p172
sS'expl'
p173
(lp174
S'IED'
p175
asS'ORG'
p176
(lp177
(lp178
S'National Investigation Agency'
p179
aS'2'
p180
aS'Others'
p181
aa(lp182
S'NIA'
p183
aS'6'
p184
aS'Others'
p185
aa(lp186
S'Jamaat-ul-Mujahideen'
p187
aS'35'
p188
aS'Accused'
p189
aa(lp190
S'JMB'
p191
aS'38'
p192
aS'Accused'
p193
aa(lp194
S'Jamaat-ul-Mujahideen'
p195
aS'83'
p196
aS'Accused'
p197
aa(lp198
S'JMB'
p199
aS'87'
p200
aS'Accused'
p201
aa(lp202
S'NIA'
p203
aS'110'
p204
aS'Others'
p205
aa(lp206
S'NIA'
p207
aS'165'
p208
aS'Others'
p209
aa(lp210
S'NIA'
p211
aS'194'
p212
aS'Others'
p213
aa(lp214
S'NIA'
p215
aS'229'
p216
aS'Others'
p217
aa(lp218
S'NIA'
p219
aS'255'
p220
aS'Others'
p221
aa(lp222
S'NIA'
p223
aS'291'
p224
aS'Others'
p225
aa(lp226
S'JMB'
p227
aS'315'
p228
aS'Others'
p229
aas.