(dp0
S'LOC'
p1
(lp2
(lp3
S'Burdwan'
p4
aS'9'
p5
aS'Event'
p6
aa(lp7
S'Nalbari'
p8
aS'49'
p9
aS'Assoc Event Location'
p10
aa(lp11
S'Assam'
p12
aS'52'
p13
aS'Accused Location'
p14
aa(lp15
S'Khagragarh'
p16
aS'95'
p17
aS'Event'
p18
aa(lp19
S'Bengal'
p20
aS'97'
p21
aS'Neutral'
p22
aa(lp23
S'Burdwan'
p24
aS'99'
p25
aS'Assoc Event Location'
p26
aa(lp27
S'Chatala'
p28
aS'149'
p29
aS'Accused Location'
p30
aa(lp31
S'Assam'
p32
aS'152'
p33
aS'Neutral'
p34
aa(lp35
S'Barpeta'
p36
aS'154'
p37
aS'Accused Location'
p38
aa(lp39
S'Bengal'
p40
aS'236'
p41
aS'Neutral'
p42
aasS'PER'
p43
(lp44
(lp45
S'Sahanur Alam'
p46
aS'1'
p47
aS'Accused'
p48
aa(lp49
S'Alam'
p50
aS'25'
p51
aS'Accused'
p52
aa(lp53
S'Alam'
p54
aS'73'
p55
aS'Accused'
p56
aa(lp57
S'Sajid'
p58
aS'85'
p59
aS'Accused'
p60
aa(lp61
S'Alam'
p62
aS'113'
p63
aS'Accused'
p64
aa(lp65
S'Alam'
p66
aS'142'
p67
aS'Accused'
p68
aasS'TIM'
p69
(lp70
sS'hot_setting'
p71
S''
p72
sS'DAT'
p73
(lp74
S'Friday : 22'
p75
aS'October 2 : 91'
p76
asS'death'
p77
g72
sS'title'
p78
S'Burdwan Blast Accused Shahnoor Alam Arrested From Assam'
p79
sS'det_loc'
p80
(lp81
S'India'
p82
aS'West Bengal'
p83
aS'Bardhaman'
p84
aS'Kolkata'
p85
ag72
asS'terror_group'
p86
(lp87
S'Jamiat-ul-Mujahideen'
p88
asS'content'
p89
S"Sahanur Alam , a key accused in the Burdwan blast case , was arrested by the National Investigation Agency late on Friday night . Alam , who is alleged to be the financial brain of the terror group Jamaat-ul-Mujahideen Bangladesh ( JMB ) , was arrested in the Nalbari district of Assam in a joint operation by Assam Police and the National Investigation Agency or NIA . The NIA had been tailing Alam since his name surfaced in the call records and interrogation of Sajid , another accused in the October 2 blast at Khagragarh in Bengal 's Burdwan district . Although the investigating agency had last month arrested his wife , Alam had been on the run since the blast . NIA had also declared a reward of Rs . 5 lakh for anyone providing any information about him . Alam , alias Doctor , hails from Chatala village in Assam 's Barpeta district and is alleged to have arranged the money for the Indian modules of JMB . Two people were killed in the blast which was initially assumed to be a gas cylinder blast or explosion of crude bombs . However , investigations revealed that the two people who were killed were using fairly sophisticated improvised explosive devices or IEDs . Interrogation of two women arrested from the blast site revealed that a network of terror was spread across several districts in Bengal . OPEN"
p90
sS'injured'
p91
g72
sS'org_unorg'
p92
S'Organized'
p93
sS'O'
p94
(lp95
S'Burdwan blast:9'
p96
asS'unexpl'
p97
(lp98
g72
asS'ocassion'
p99
g72
sS'link'
p100
S'http://www.ndtv.com/india-news/burdwan-blast-accused-shahnoor-alam-arrested-from-assam-709231'
p101
sS'date'
p102
S'02-10-2014'
p103
sS'target'
p104
g72
sS'hot_spot'
p105
g72
sS'delivery_mod'
p106
g72
sS'delivery_met'
p107
g72
sS'expl'
p108
(lp109
S'IED'
p110
asS'ORG'
p111
(lp112
(lp113
S'National Investigation Agency'
p114
aS'17'
p115
aS'Others'
p116
aa(lp117
S'Jamaat-ul-Mujahideen Bangladesh'
p118
aS'39'
p119
aS'Accused'
p120
aa(lp121
S'Assam Police'
p122
aS'58'
p123
aS'Others'
p124
aa(lp125
S'National Investigation Agency'
p126
aS'62'
p127
aS'Others'
p128
aa(lp129
S'NIA'
p130
aS'66'
p131
aS'Others'
p132
aa(lp133
S'NIA'
p134
aS'69'
p135
aS'Others'
p136
aa(lp137
S'NIA'
p138
aS'123'
p139
aS'Others'
p140
aa(lp141
S'JMB'
p142
aS'169'
p143
aS'Accused'
p144
aas.