(dp0
S'LOC'
p1
(lp2
(lp3
S'Bardhaman'
p4
aS'9'
p5
aS'Source'
p6
aS'Neutral'
p7
aa(lp8
S'Bardhaman'
p9
aS'36'
p10
aS'Source'
p11
aa(lp12
S'Jessore Road'
p13
aS'41'
p14
aS'Accused Location'
p15
aasS'PER'
p16
(lp17
(lp18
S'Sajid'
p19
aS'18'
p20
aS'Others'
p21
aasS'TIM'
p22
(lp23
sS'hot_setting'
p24
S''
p25
sS'DAT'
p26
(lp27
S'Saturday : 48'
p28
asS'death'
p29
g25
sS'title'
p30
S'Bardhaman blast kingpin arrested'
p31
sS'det_loc'
p32
(lp33
S'India'
p34
aS'West Bengal'
p35
aS'Bardhaman'
p36
aS'Kolkata'
p37
ag25
asS'terror_group'
p38
(lp39
S'Jamiat-ul-Mujahideen'
p40
asS'content'
p41
S"In a major breakthrough in investigations in the Bardhaman blast case , the West Bengal Police arrested Sajid , who the National Investigation Agency ( NIA ) has described as the `` chief of the Bardhaman module , '' on Jessore Road near the airport here on Saturday . OPEN"
p42
sS'injured'
p43
g25
sS'org_unorg'
p44
S'Unorganized'
p45
sS'O'
p46
(lp47
S'burdwan blast:9'
p48
asS'unexpl'
p49
(lp50
g25
asS'ocassion'
p51
g25
sS'link'
p52
S'http://www.thehindu.com/todays-paper/bardhaman-blast-kingpin-arrested/article6579377.ece'
p53
sS'date'
p54
S'02-10-2014'
p55
sS'target'
p56
g25
sS'hot_spot'
p57
g25
sS'delivery_mod'
p58
g25
sS'delivery_met'
p59
g25
sS'expl'
p60
(lp61
S'IED'
p62
asS'ORG'
p63
(lp64
(lp65
S'West Bengal Police'
p66
aS'14'
p67
aS'Others'
p68
aa(lp69
S'National Investigation Agency'
p70
aS'22'
p71
aS'Others'
p72
aas.