(dp0
S'LOC'
p1
(lp2
(lp3
S'Burdwan'
p4
aS'5'
p5
aS'Event'
p6
aa(lp7
S'Burdwan'
p8
aS'41'
p9
aS'Event'
p10
aa(lp11
S'Kafirpur'
p12
aS'93'
p13
aS'Accused Location'
p14
aa(lp15
S'Kinnahar'
p16
aS'96'
p17
aS'Accused Location'
p18
aa(lp19
S'Birbhum'
p20
aS'99'
p21
aS'Accused Location'
p22
aa(lp23
S'Khagragarh'
p24
aS'109'
p25
aS'Assoc Event Location'
p26
aa(lp27
S'Kerala'
p28
aS'119'
p29
aS'Neutral'
p30
aa(lp31
S'Kafirpur : 143'
p32
aS'Accused Location'
p33
aS'Neutral'
p34
aa(lp35
S'Burdwan'
p36
aS'164'
p37
aS'Event'
p38
aa(lp39
S'Bangladesh'
p40
aS'232'
p41
aS'Accused Location'
p42
aasS'PER'
p43
(lp44
(lp45
S'Abdul Karim'
p46
aS'8'
p47
aS'Accused'
p48
aa(lp49
S'Karim'
p50
aS'49'
p51
aS'Accused'
p52
aa(lp53
S'Amirul Hossain'
p54
aS'55'
p55
aS'Others'
p56
aa(lp57
S'Karim'
p58
aS'78'
p59
aS'Accused'
p60
aa(lp61
S'Karim'
p62
aS'87'
p63
aS'Accused'
p64
aa(lp65
S'Hossain'
p66
aS'134'
p67
aS'Comment'
p68
aa(lp69
S'Hossain'
p70
aS'152'
p71
aS'Comment'
p72
aa(lp73
S'Abdul Gaffar'
p74
aS'168'
p75
aS'Others'
p76
aa(lp77
S'Akash Munshi'
p78
aS'180'
p79
aS'Others'
p80
aa(lp81
S'Shakil Gazi'
p82
aS'199'
p83
aS'Accused'
p84
aa(lp85
S'Shakil Ahmed'
p86
aS'202'
p87
aS'Accused'
p88
aasS'TIM'
p89
(lp90
S'two and a half months : 102'
p91
asS'hot_setting'
p92
S''
p93
sS'DAT'
p94
(lp95
S'Wednesday : 12'
p96
aS'2 October : 112'
p97
asS'death'
p98
g93
sS'title'
p99
S'Body of Burdwan blast accused handed over to family in presence of NIA'
p100
sS'det_loc'
p101
(lp102
S'India'
p103
aS'West Bengal'
p104
aS'Bardhaman'
p105
aS'Burdwan'
p106
ag93
asS'terror_group'
p107
(lp108
S'JAMIAT-UL-MUJAHIDEEN'
p109
asS'content'
p110
S"The body of the Burdwan blast accused Abdul Karim was on Wednesday handed over to his family in the presence of NIA officials and local police officers . The body , which was kept in the police morgue at the Burdwan Medical College , was handed over to Karim 's father and his cousin Amirul Hossain after identification , police sources said.Hossain told media present at the hospital that they had identified the blast accused to be Karim from his photos published in the papers . Karim had left his home in Kafirpur village in Kinnahar in neighbouring Birbhum district about two and a half months before the Khagragarh blast on 2 October and had gone off to Kerala . He had not maintained any relations with his family since his departure , Hossain added . The body would be taken to Kafirpur where the last rites would be performed , Hossain said . Apart from the four member NIA team , the Burdwan police station Inspector-in-charge Abdul Gaffar and Sub-Inspector , who was the first Investigating Officer , Akash Munshi was present during the handing over of the body . The body of the other accused , Shakil Gazi alias Shakil Ahmed , who was also killed in the blast is yet to be claimed , police said . It is suspected both had links with banned terror group Jamaat-ul-Mujahideen Bangladesh ( JMB ) . OPEN"
p111
sS'injured'
p112
g93
sS'org_unorg'
p113
g93
sS'O'
p114
(lp115
S'Burdwan blast:5'
p116
aS'police morgue:37'
p117
aS'identification:58'
p118
aS'blast accused:74'
p119
aS'photos:81'
p120
aS'Khagragarh blast:109'
p121
aS'Inspector-in-charge Abdul Gaffar:167'
p122
aS'blast:211'
p123
aS'banned terror group:228'
p124
asS'unexpl'
p125
(lp126
g93
asS'ocassion'
p127
g93
sS'link'
p128
S'http://www.firstpost.com/india/body-burdwan-blast-accused-handed-family-presence-nia-1799377.html'
p129
sS'date'
p130
S'02-10-2014'
p131
sS'target'
p132
S'TOWN'
p133
sS'hot_spot'
p134
g93
sS'delivery_mod'
p135
g93
sS'delivery_met'
p136
S'PLANTED'
p137
sS'expl'
p138
(lp139
g93
asS'ORG'
p140
(lp141
(lp142
S'NIA'
p143
aS'22'
p144
aS'Others'
p145
aa(lp146
S'Burdwan Medical College'
p147
aS'41'
p148
aS'Others'
p149
aa(lp150
S'NIA'
p151
aS'160'
p152
aS'Others'
p153
aa(lp154
S'Jamaat-ul-Mujahideen'
p155
aS'231'
p156
aS'Accused'
p157
aa(lp158
S'JMB'
p159
aS'234'
p160
aS'Accused'
p161
aas.