(dp0
S'LOC'
p1
(lp2
(lp3
S'Bardhaman'
p4
aS'8'
p5
aS'Event'
p6
aa(lp7
S'West Bengal'
p8
aS'18'
p9
aS'Neutral'
p10
aa(lp11
S'Bardhaman'
p12
aS'197'
p13
aS'Event'
p14
aa(lp15
S'Bangladesh'
p16
aS'203'
p17
aS'Neutral'
p18
aasS'PER'
p19
(lp20
(lp21
S'Asaduzzaman Khan Kamal'
p22
aS'76'
p23
aS'Comment'
p24
aa(lp25
S'Shakil Ahmed'
p26
aS'95'
p27
aS'Accused'
p28
aa(lp29
S'Sobhan Mandal'
p30
aS'98'
p31
aS'Accused'
p32
aa(lp33
S'Hasan Saheb'
p34
aS'145'
p35
aS'Accused'
p36
aa(lp37
S'Rajira Bibi'
p38
aS'156'
p39
aS'Accused'
p40
aa(lp41
S'Rumi'
p42
aS'159'
p43
aS'Accused'
p44
aa(lp45
S'Amina Bibi'
p46
aS'161'
p47
aS'Accused'
p48
aa(lp49
S'Hafez Mollah'
p50
aS'164'
p51
aS'Accused'
p52
aa(lp53
S'Hasan'
p54
aS'167'
p55
aS'Accused'
p56
aa(lp57
S'Syed Akbaruddin'
p58
aS'181'
p59
aS'Comment'
p60
aasS'TIM'
p61
(lp62
S'October 2 : 4'
p63
asS'hot_setting'
p64
S''
p65
sS'DAT'
p66
(lp67
sS'death'
p68
g65
sS'title'
p69
S'Bangladesh extremists finding shelter in West Bengal?'
p70
sS'org_unorg'
p71
S'Unorganized'
p72
sS'terror_group'
p73
(lp74
S'Jamiat-ul-Mujahideen'
p75
asS'content'
p76
S"Investigations of the October 2 explosion in Bardhaman have indicated that extremists may be taking shelter in West Bengal . One of those arrested - suspected of belonging to the banned Jama'atul Mujahideen Bangladesh - allegedly confessed that bombs were being assembled for terror strikes across the border . Bangladesh 's elite anti-terror Rapid Action Battalion is currently verifying names and identities that have emerged from the Indian probe . Bangladesh Minister for Home Affairs Asaduzzaman Khan Kamal said India had not yet officially provided the nationality of the two persons - suspected militants Shakil Ahmed and Sobhan Mandal - killed in the blast . `` We are always against terrorism . We will not allow anyone to use our land to conduct militant or terrorist activities against our country or neighbouring India , '' he said . Besides the two killed , one Hasan Saheb was injured in the blast ; three persons - Rajira Bibi alias Rumi , Amina Bibi and Hafez Mollah alias Hasan - have been arrested . According to Indian Ministry of External Affairs spokesperson Syed Akbaruddin , Indian investigating agencies have been asked to collate and tabulate information on the Bardhaman blast to be shared with Bangladesh . OPEN"
p77
sS'injured'
p78
g65
sS'det_loc'
p79
(lp80
S'India'
p81
aS'West Bengal'
p82
aS'Bardhaman'
p83
aS'Kolkata'
p84
ag65
asS'O'
p85
(lp86
S'burdwan blast:9'
p87
asS'unexpl'
p88
(lp89
g65
asS'ocassion'
p90
g65
sS'link'
p91
S'http://www.thehindu.com/news/international/south-asia/bardhaman-blast-bangladesh-extremists-finding-shelter-in-west-bengal/article6494569.ece'
p92
sS'date'
p93
S'02-10-2014'
p94
sS'target'
p95
g65
sS'hot_spot'
p96
g65
sS'delivery_mod'
p97
g65
sS'delivery_met'
p98
g65
sS'expl'
p99
(lp100
S'IED'
p101
asS'ORG'
p102
(lp103
(lp104
S"Jama'atul Mujahideen Bangladesh"
p105
aS'32'
p106
aS'Accused'
p107
aa(lp108
S"Bangladesh 's elite anti-terror Rapid Action Battalion"
p109
aS'50'
p110
aS'Others'
p111
aas.