(dp0
S'LOC'
p1
(lp2
(lp3
S'Ranchi-Ramgarh'
p4
aS'34'
p5
aS'Accused Location'
p6
aa(lp7
S'Ramgarh'
p8
aS'37'
p9
aS'Accused Location'
p10
aa(lp11
S'Bardhaman'
p12
aS'69'
p13
aS'Event'
p14
aa(lp15
S'Bangladesh'
p16
aS'78'
p17
aS'Accused Location'
p18
aa(lp19
S'Barharwa'
p20
aS'83'
p21
aS'Accused Location'
p22
aa(lp23
S'Sahebganj'
p24
aS'85'
p25
aS'Accused Location'
p26
aa(lp27
S'Ramgarh'
p28
aS'92'
p29
aS'Neutral'
p30
aa(lp31
S'Sahebganj'
p32
aS'103'
p33
aS'Neutral'
p34
aa(lp35
S'Sahebganj'
p36
aS'105'
p37
aS'Neutral'
p38
aa(lp39
S'Bengal'
p40
aS'113'
p41
aS'Event'
p42
aa(lp43
S'Bangladesh'
p44
aS'115'
p45
aS'Neutral'
p46
aa(lp47
S'Bardhaman'
p48
aS'125'
p49
aS'Event'
p50
aa(lp51
S'Jharkhand'
p52
aS'128'
p53
aS'Assoc Event Location'
p54
aa(lp55
S'Bardhaman'
p56
aS'144'
p57
aS'Event'
p58
aa(lp59
S'Bardhaman'
p60
aS'198'
p61
aS'Event'
p62
aa(lp63
S'Jharkhand'
p64
aS'235'
p65
aS'Neutral'
p66
aa(lp67
S'Jharkhand'
p68
aS'260'
p69
aS'Neutral'
p70
aasS'PER'
p71
(lp72
(lp73
S'Tariqul Islam'
p74
aS'27'
p75
aS'Accused'
p76
aa(lp77
S'Sadiq'
p78
aS'30'
p79
aS'Accused'
p80
aa(lp81
S'Sumon'
p82
aS'32'
p83
aS'Accused'
p84
aa(lp85
S'Tariqul Islam'
p86
aS'47'
p87
aS'Accused'
p88
aa(lp89
S'Tariqul Islam'
p90
aS'74'
p91
aS'Accused'
p92
aa(lp93
S'SN Pradhan'
p94
aS'132'
p95
aS'Comment'
p96
aa(lp97
S'Pradhan'
p98
aS'184'
p99
aS'Comment'
p100
aa(lp101
S'Pradhan'
p102
aS'251'
p103
aS'Comment'
p104
aa(lp105
S'Pradhan'
p106
aS'262'
p107
aS'Comment'
p108
aasS'TIM'
p109
(lp110
sS'hot_setting'
p111
S''
p112
sS'DAT'
p113
(lp114
S'Tuesday afternoon : 40'
p115
aS'October 2014 : 67'
p116
aS'October 2014 : 188'
p117
aS'Wednesday : 287'
p118
asS'death'
p119
g112
sS'title'
p120
S'Terrorist wanted in Bardhaman blast held in Jharkhand'
p121
sS'org_unorg'
p122
g112
sS'terror_group'
p123
(lp124
g112
asS'content'
p125
S"The anti-terrorist squad of the state police with the help of National Investigation Agency ( NIA ) arrested a key Jamaat-ul-Mujahideen Bangladesh ( JMB ) terrorist Tariqul Islam alias Sadiq alias Sumon from Ranchi-Ramgarh border in Ramgarh district on Tuesday afternoon . According to NIA , Tariqul Islam carries a cash reward of Rs 5 lakh on his head and NIA was looking for him after October 2014 Bardhaman blast . Around 30-year-old Tariqul Islam is a Bangladesh national and lived at Barharwa in Sahebganj district . He was hiding in Ramgarh district after police mounted a search operation for him in Sahebganj . Sahebganj is situated on the tri-junction of Jharkhand-West Bengal and Bangladesh . Several terrorists have been arrested in connection with Bardhaman blast in Jharkhand . Police spokesperson SN Pradhan said he was wanted as a proclaimed warrantee in the Bardhaman blast case . `` The information was given to ATS recently by NIA . ATS developed the information and tracked him down . A team of NIA came to coordinate the operation which resulted into the arrest , '' Pradhan said . In October 2014 an explosion took place in a house at Bardhaman revealing the hideout of the JMB . In subsequent raids police had found several IEDs , and explosive substance from the house . `` He is one of the top terrorist of JMB and handled its Jharkhand structure . He is a bigger catch than what we had initially thought , '' Pradhan said . ATS has been newly formed in Jharkhand and Pradhan said it was the first major success of the anti terrorist squad . NIA is likely to produce him in the local court on Wednesday to seek his transit remand . OPEN"
p126
sS'injured'
p127
g112
sS'det_loc'
p128
(lp129
S'India'
p130
aS'West Bengal'
p131
aS'Bardhaman'
p132
ag112
ag112
asS'O'
p133
(lp134
S'arrested:18'
p135
aS'terrorist:26'
p136
aS'cash reward of Rs 5 lakh:51'
p137
aS'Bardhaman blast:69'
p138
aS'hiding:90'
p139
aS'mounted:96'
p140
aS'tri-junction of Jharkhand-West Bengal and Bangladesh:110'
p141
aS'terrorists:118'
p142
aS'arrested:121'
p143
aS'Bardhaman blast:125'
p144
aS'proclaimed warrantee:140'
p145
aS'Bardhaman blast:144'
p146
aS'information:162'
p147
aS'tracked:164'
p148
aS'coordinate:174'
p149
aS'arrest:181'
p150
aS'explosion:191'
p151
aS'hideout:201'
p152
aS'IEDs:213'
p153
aS'explosive substance:216'
p154
aS'top terrorist:228'
p155
aS'Jharkhand structure:235'
p156
aS'first major success:267'
p157
aS'local court:284'
p158
aS'transit:291'
p159
asS'unexpl'
p160
(lp161
g112
asS'ocassion'
p162
g112
sS'link'
p163
S'http://timesofindia.indiatimes.com/india/Terrorist-wanted-in-Bardhaman-blast-held-in-Jharkhand/articleshow/49156635.cms'
p164
sS'date'
p165
S'02-10-2014'
p166
sS'target'
p167
g112
sS'hot_spot'
p168
g112
sS'delivery_mod'
p169
g112
sS'delivery_met'
p170
g112
sS'expl'
p171
(lp172
g112
asS'ORG'
p173
(lp174
(lp175
S'anti-terrorist squad'
p176
aS'2'
p177
aS'Others'
p178
aa(lp179
S'National Investigation Agency'
p180
aS'12'
p181
aS'Others'
p182
aa(lp183
S'NIA'
p184
aS'16'
p185
aS'Others'
p186
aa(lp187
S'Jamaat-ul-Mujahideen Bangladesh'
p188
aS'21'
p189
aS'Accused'
p190
aa(lp191
S'JMB'
p192
aS'24'
p193
aS'Accused'
p194
aa(lp195
S'NIA'
p196
aS'45'
p197
aS'Others'
p198
aa(lp199
S'NIA'
p200
aS'61'
p201
aS'Others'
p202
aa(lp203
S'ATS'
p204
aS'154'
p205
aS'Others'
p206
aa(lp207
S'NIA'
p208
aS'157'
p209
aS'Others'
p210
aa(lp211
S'ATS'
p212
aS'159'
p213
aS'Others'
p214
aa(lp215
S'NIA'
p216
aS'171'
p217
aS'Others'
p218
aa(lp219
S'JMB'
p220
aS'204'
p221
aS'Accused'
p222
aa(lp223
S'JMB'
p224
aS'231'
p225
aS'Accused'
p226
aa(lp227
S'ATS'
p228
aS'254'
p229
aS'Others'
p230
aa(lp231
S'anti terrorist squad'
p232
aS'272'
p233
aS'Others'
p234
aa(lp235
S'NIA'
p236
aS'276'
p237
aS'Others'
p238
aas.