(dp0
S'LOC'
p1
(lp2
(lp3
S'NEW DELHI'
p4
aS'5'
p5
aS'Event'
p6
aa(lp7
S'Islamabad'
p8
aS'203'
p9
aS'Neutral'
p10
aa(lp11
S'Pakistan'
p12
aS'207'
p13
aS'Neutral'
p14
aa(lp15
S'Delhi'
p16
aS'213'
p17
aS'Event'
p18
aa(lp19
S'Pakistan'
p20
aS'238'
p21
aS'Neutral'
p22
aa(lp23
S'Pakistan'
p24
aS'261'
p25
aS'Neutral'
p26
aa(lp27
S'Dubai'
p28
aS'332'
p29
aS'Neutral'
p30
aa(lp31
S'U.K.'
p32
aS'335'
p33
aS'Neutral'
p34
aasS'PER'
p35
(lp36
(lp37
S'Manmohan Singh'
p38
aS'58'
p39
aS'Comment'
p40
aa(lp41
S'Somnath Chatterjee'
p42
aS'79'
p43
aS'Comment'
p44
aa(lp45
S'Sonia Gandhi'
p46
aS'100'
p47
aS'Comment'
p48
aa(lp49
S'M. Veerappa Moily'
p50
aS'137'
p51
aS'Comment'
p52
aa(lp53
S'D. Raja'
p54
aS'165'
p55
aS'Comment'
p56
aa(lp57
S'Gilani'
p58
aS'194'
p59
aS'Comment'
p60
aa(lp61
S'Nirupama Subramanian'
p62
aS'199'
p63
aS'Comment'
p64
aa(lp65
S'Yousuf Raza Gilani'
p66
aS'251'
p67
aS'Comment'
p68
aa(lp69
S'Sherry Rehman'
p70
aS'279'
p71
aS'Comment'
p72
aa(lp73
S'Fehmida Mirza'
p74
aS'309'
p75
aS'Comment'
p76
aa(lp77
S'Asif Ali Zardari'
p78
aS'317'
p79
aasS'TIM'
p80
(lp81
S'night : 18'
p82
asS'hot_setting'
p83
S''
p84
sS'DAT'
p85
(lp86
S'Saturday:17'
p87
aS'Saturday:215'
p88
aS'Saturday:282'
p89
asS'death'
p90
g84
sS'title'
p91
S'PM appeals for calm'
p92
sS'det_loc'
p93
(lp94
S'India'
p95
aS'Delhi'
p96
aS'New Delhi'
p97
aS'Delhi'
p98
aS'Delhi'
p99
asS'terror_group'
p100
(lp101
g84
asS'content'
p102
VSpecial Correspondent . . NEW DELHI : The Union Home Ministry issued a nationwide alert on Saturday night after serial blasts rocked the Capital . All States and Union Territories have been asked to remain vigilant and beef up security . . . Meanwhile , the blasts drew instant condemnation . Condemning the blasts , Prime Minister Manmohan Singh urged people to remain calm while expressing grief over the loss of life . . . Lok Sabha Speaker Somnath Chatterjee extended sympathy to the families of the dead and injured . . . In a statement , Congress president Sonia Gandhi described the blasts as an act of cowardice . Stating that those responsible would not be spared , she said such people had no place in Indian society . . . Earlier , AICC spokesman M. Veerappa Moily condemned the blasts which took place around the time he was briefing mediapersons about the extended Congress Working Committee . . . CPI national secretary D. Raja urged the government to step up security across the country . He noted that targeting innocent people had become the modus operandi of terrorists . . . Gilani condemns blasts . . Nirupama Subramanian reports from Islamabad : . . Pakistan condemned the bomb attacks in Delhi on Saturday as a barbaric act of cowardice and said the perpetrators were enemies of humanity . . . The people and government of Pakistan share the pain of the victims and bereaved families , Prime Minister Yousuf Raza Gilani said in a statement , adding that Pakistan condemns all terrorist acts perpetrated in any part of the world . . . Information and Broadcasting Sherry Rehman on Saturday condemned the blasts as a barbaric act of cowardice . She said those behind the attacks were enemies of humanity . . . National Assembly Speaker Fehmida Mirza , who is standing in for Asif Ali Zardari as the acting President he is away on a private visit to Dubai and the U.K. also condemned the blasts .
p103
sS'injured'
p104
g84
sS'org_unorg'
p105
S'ORGANISED'
p106
sS'O'
p107
(lp108
S'Union Home Ministry:9'
p109
aS'Lok Sabha Speaker:76'
p110
aS'government:236'
p111
aS'Prime Minister:249'
p112
aS'President:323'
p113
asS'unexpl'
p114
(lp115
g84
asS'ocassion'
p116
g84
sS'link'
p117
S'http://www.thehindu.com/todays-paper/pm-appeals-for-calm/article1338080.ece'
p118
sS'date'
p119
S'13-09-2008'
p120
sS'target'
p121
g84
sS'hot_spot'
p122
S'Delhi'
p123
sS'delivery_mod'
p124
g84
sS'delivery_met'
p125
S'PLANTED'
p126
sS'expl'
p127
(lp128
g84
asS'ORG'
p129
(lp130
(lp131
S'Congress'
p132
aS'98'
p133
aS'Others'
p134
aa(lp135
S'AICC'
p136
aS'135'
p137
aS'Others'
p138
aa(lp139
S'Congress Working Committee'
p140
aS'156'
p141
aS'Others'
p142
aa(lp143
S'CPI'
p144
aS'162'
p145
aS'Others'
p146
aa(lp147
S'National Assembly Speaker'
p148
aS'306'
p149
aS'Others'
p150
aas.