(dp0
S'LOC'
p1
(lp2
(lp3
S'Jammu and Kashmir'
p4
aS'5'
p5
aS'Neutral'
p6
aa(lp7
S'Maulana Azad stadium'
p8
aS'16'
p9
aS'Neutral'
p10
aa(lp11
S'Jammu'
p12
aS'20'
p13
aS'Neutral'
p14
aa(lp15
S'Kashmir'
p16
aS'50'
p17
aS'Neutral'
p18
aa(lp19
S'Bakshi stadium'
p20
aS'65'
p21
aS'Neutral'
p22
aa(lp23
S'Srinagar'
p24
aS'68'
p25
aS'Neutral'
p26
aa(lp27
S'Jammu and Kashmir'
p28
aS'97'
p29
aS'Neutral'
p30
aa(lp31
S'Pakistan'
p32
aS'108'
p33
aS'Neutral'
p34
aa(lp35
S'Digboi'
p36
aS'116'
p37
aS'Event'
p38
aa(lp39
S'Tinsukia'
p40
aS'120'
p41
aS'Event'
p42
aa(lp43
S'India'
p44
aS'184'
p45
aS'Neutral'
p46
aasS'PER'
p47
(lp48
(lp49
S'NN Vohra'
p50
aS'9'
p51
aS'Others'
p52
aa(lp53
S'AP Tiwari'
p54
aS'161'
p55
aS'Comment'
p56
aa(lp57
S'J-K'
p58
aS'233'
p59
aS'Comment'
p60
aasS'TIM'
p61
(lp62
sS'hot_setting'
p63
S''
p64
sS'DAT'
p65
(lp66
S'1950 : 183'
p67
aS'march : 213'
p68
asS'death'
p69
g64
sS'title'
p70
S'R-Day relatively peaceful barring minor blasts'
p71
sS'org_unorg'
p72
S'ORGANISED'
p73
sS'terror_group'
p74
(lp75
g64
asS'content'
p76
VAmid multi-tier security , Jammu and Kashmir Governor NN Vohra took the salute at the Maulana Azad stadium in Jammu with no untoward incident being reported from any part of the state.For the first time in a decade , mobile phone and Internet services were not disrupted in the Kashmir Valley as part of the security drill for the celebrations which took place at Bakshi stadium in Srinagar and other district headquarters.At three points along the Line of Control ( LoC ) , Indian and Pakistani troops exchanged sweets even though areas along the border in Jammu and Kashmir witnessed regular ceasefire violations and infiltration bids from Pakistan . In the oil town of of Digboi in upper Assams Tinsukia district , two low-intensity bombs exploded but no damage or casualty was reported.While one blast took place under dumped garbage near a railway track , the other occurred in a drain under the garbage there , Senior Superintendent of Police AP Tiwari said.In the state capitals , Governors took the salute at traditional parades marking the occasion when on this day in 1950 India became a republic . Chief Ministers unfurled the national flag as the states showcased the countrys cultural diversity at parades where smartly dressed contingents of security forces held march pasts . Colourfully decorated tableaux also displayed the rich cultural traditions . In his Republic Day speech , the J-K Governor said that cross-border factors were responsible for the hurdles in development of the state , even as he stressed on the need for maintenance of peace and public order for sustained growth .
p77
sS'injured'
p78
g64
sS'det_loc'
p79
(lp80
S'India'
p81
aS'Assam'
p82
aS'Tinsukia'
p83
ag64
aS'oil town ,Digboi'
p84
asS'O'
p85
(lp86
S'oil town:112'
p87
aS'low-intensity bombs:124'
p88
aS'garbage:140'
p89
aS'railway track:143'
p90
aS'Senior Superintendent of Police:157'
p91
aS'Republic Day:228'
p92
asS'unexpl'
p93
(lp94
g64
asS'ocassion'
p95
S'REPULBIC DAY'
p96
sS'link'
p97
S'http://millenniumpost.in/NewsContent.aspx?NID=93342'
p98
sS'date'
p99
S'26-01-2015'
p100
sS'target'
p101
g64
sS'hot_spot'
p102
S'oil town ,Digboi'
p103
sS'delivery_mod'
p104
g64
sS'delivery_met'
p105
S'PLANTED'
p106
sS'expl'
p107
(lp108
g64
asS'ORG'
p109
(lp110
(lp111
S'Line of Control'
p112
aS'77'
p113
aS'Others'
p114
aa(lp115
S'LoC'
p116
aS'81'
p117
aS'Others'
p118
aas.