(dp0
S'LOC'
p1
(lp2
(lp3
S'US'
p4
aS'1'
p5
aS'Neutral'
p6
aa(lp7
S'US'
p8
aS'7'
p9
aS'Neutral'
p10
aa(lp11
S'Mumbai'
p12
aS'15'
p13
aS'Event'
p14
aa(lp15
S'India'
p16
aS'21'
p17
aS'Neutral'
p18
aa(lp19
S'United States'
p20
aS'30'
p21
aS'Neutral'
p22
aa(lp23
S'India'
p24
aS'53'
p25
aS'Neutral'
p26
aa(lp27
S'Mumbai'
p28
aS'85'
p29
aS'Event'
p30
aa(lp31
S'Pakistan'
p32
aS'115'
p33
aS'Neutral'
p34
aa(lp35
S'Mumbai'
p36
aS'124'
p37
aS'Event'
p38
aa(lp39
S'Pakistan'
p40
aS'146'
p41
aS'Neutral'
p42
aa(lp43
S'Mumbai'
p44
aS'153'
p45
aS'Event'
p46
aa(lp47
S'Mumbai'
p48
aS'192'
p49
aS'Event'
p50
aa(lp51
S'Mumbai'
p52
aS'204'
p53
aS'Neutral'
p54
aa(lp55
S'Dadar'
p56
aS'284'
p57
aS'Neutral'
p58
aa(lp59
S'Mumbai'
p60
aS'302'
p61
aS'Neutral'
p62
aa(lp63
S'Mumbai'
p64
aS'413'
p65
aS'Neutral'
p66
aa(lp67
S'JaveriBazar'
p68
aS'415'
p69
aS'Neutral'
p70
aa(lp71
S', Dadar'
p72
aS'416'
p73
aS'Neutral'
p74
aa(lp75
S'Dadar'
p76
aS'417'
p77
aS'Neutral'
p78
aa(lp79
S'Mumbai'
p80
aS'420'
p81
aS'Neutral'
p82
aa(lp83
S'Opera House'
p84
aS'423'
p85
aS'Neutral'
p86
aa(lp87
S'Charni Road'
p88
aS'426'
p89
aS'Neutral'
p90
aa(lp91
S'Maharashtra'
p92
aS'433'
p93
aS'Neutral'
p94
aasS'PER'
p95
(lp96
(lp97
S'Barack Obama'
p98
aS'3'
p99
aS'Others'
p100
aa(lp101
S'Manmohan Singh'
p102
aS'75'
p103
aS'Comment'
p104
aa(lp105
S'Sonia Gandhi'
p106
aS'93'
p107
aa(lp108
S'Asif Ali Zardari'
p109
aS'129'
p110
aS'Others'
p111
aa(lp112
S'Syed Yousaf Raza Gilani'
p113
aS'135'
p114
aS'Others'
p115
aa(lp116
S'Hamid Ansari'
p117
aS'200'
p118
aS'Others'
p119
aa(lp120
S'Manohar Joshi'
p121
aS'331'
p122
aS'Comment'
p123
aa(lp124
S'Joshi'
p125
aS'367'
p126
aS'Comment'
p127
aa(lp128
S'Javed Akhtar'
p129
aS'369'
p130
aS'Comment'
p131
aasS'TIM'
p132
(lp133
sS'hot_setting'
p134
S''
p135
sS'DAT'
p136
(lp137
sS'death'
p138
g135
sS'title'
p139
S'Blast reax: Obama, Sonia Gandhi condemn attacks'
p140
sS'det_loc'
p141
(lp142
S'India'
p143
aS'Maharashtra'
p144
aS'Mumbai-City'
p145
aS'Mumbai'
p146
aS'Mumbai'
p147
asS'terror_group'
p148
(lp149
g135
asS'content'
p150
VUS President Barack Obama has offered US help in bringing the perpetrators of the Mumbai blasts to justice . `` India is a close friend and partner of the United States . The American people will stand with the Indian people in times of trial , and we will offer support to India 's efforts to bring the perpetrators of these terrible crimes to justice , '' he said . . . Indian PM Manmohan Singh condemned the attacks and asked the people of Mumbai to stay calm , while Congress President Sonia Gandhi offered condolences to the families of those dead and injured and condemned the blasts . . . The state of Pakistan has expressed its shock and disbelief at the Mumbai blasts . `` President Asif Ali Zardari , Prime Minister Syed Yousaf Raza Gilani , the Government and the people of Pakistan , have condemned the blasts in Mumbai and expressed distress on the loss of lives and injuries . The President and the Prime Minister have expressed their deepest sympathies to the Indian leadership on the loss of lives , injuries and damage to property in Mumbai . '' . . India 's Vice-President Hamid Ansari on the Mumbai blasts : `` He expressed deep shock at the scale of the attacks targeted against innocent people that have caused numerous fatalities and casualties . He said that such terrorist acts are aimed at destabilizing the nation and urged all citizens to unite in this critical hour . He expressed deepest condolences to the families of those killed and injured in the attacks , '' said a statement from his office . . . Shops near the blast in Dadar . Parag Shinde/Firstpost . . The government should find out thosebehind this evening 's serial blasts in Mumbai , the Shiv Sena said . `` There is chaos everywhere . This must be a terrorist actas it happened in three places , '' senior Sena leader Manohar Joshi said after reaching Dadar , one of the three sites of theblasts . . . `` I want that the government take immediate steps and findout who are people behind the blasts , '' Joshi said.Lyricist Javed Akhtar said `` No words are strong enough tocondemn the attacks . '' `` This menace called terrorism ... something has to be done . . . Something drastic . This is not acceptable , '' he said.Explosions have been reported in south Mumbai 's JaveriBazar , Dadar in Central Mumbai , and Opera House in Charni Road . . . Also watch Maharashtra Chief Minister 's reaction .
p151
sS'injured'
p152
g135
sS'org_unorg'
p153
S'ORGANISED'
p154
sS'O'
p155
(lp156
S'American people:34'
p157
aS'Indian people:40'
p158
aS'Government:141'
p159
aS'Prime Minister:169'
p160
aS'Dadar:336'
p161
asS'unexpl'
p162
(lp163
g135
asS'ocassion'
p164
g135
sS'link'
p165
S'http://www.firstpost.com/politics/blast-reax-obama-sonia-gandhi-condemn-attacks-41021.html'
p166
sS'date'
p167
S'13-07-2011'
p168
sS'target'
p169
g135
sS'hot_spot'
p170
S'Mumbai'
p171
sS'delivery_mod'
p172
g135
sS'delivery_met'
p173
S'PLANTED'
p174
sS'expl'
p175
(lp176
g135
asS'ORG'
p177
(lp178
(lp179
S'Congress'
p180
aS'91'
p181
aS'Others'
p182
aa(lp183
S'Shiv Sena'
p184
aS'305'
p185
aS'Others'
p186
aa(lp187
S'Sena'
p188
aS'329'
p189
aS'Others'
p190
aas.