(dp0
S'LOC'
p1
(lp2
(lp3
S'Umrangsho'
p4
aS'13'
p5
aS'Event'
p6
aa(lp7
S'Assam'
p8
aS'15'
p9
aS'Neutral'
p10
aa(lp11
S'Dima Hasao'
p12
aS'17'
p13
aS'Event'
p14
aa(lp15
S'Sivsagar'
p16
aS'28'
p17
aS'Event'
p18
aa(lp19
S'Umrangsho'
p20
aS'60'
p21
aS'Event'
p22
aa(lp23
S'Guwahati'
p24
aS'69'
p25
aS'Neutral'
p26
aa(lp27
S'Sivsagar'
p28
aS'154'
p29
aS'Event'
p30
aa(lp31
S'Upper Assam'
p32
aS'157'
p33
aS'Neutral'
p34
aasS'PER'
p35
(lp36
(lp37
S'Paresh Baruah'
p38
aS'146'
p39
aS'Others'
p40
aasS'TIM'
p41
(lp42
S'1.30 : 54'
p43
aS'night : 132'
p44
asS'hot_setting'
p45
S''
p46
sS'DAT'
p47
(lp48
S'Monday:131'
p49
asS'death'
p50
S'1'
p51
sS'title'
p52
S'Midnight blast in Assam, one killed'
p53
sS'org_unorg'
p54
S'ORGANISED'
p55
sS'terror_group'
p56
(lp57
g46
asS'content'
p58
VGuwahati : One person was killed as a bomb went off at Umrangsho in Assam 's Dima Hasao district early today , hours after an explosion in Sivsagar town , police said . . . A powerful bomb , suspected to be an improvised explosive device ( IED ) , went off around 1.30 am near the market in Umrangsho , a hill station about 220 km from Guwahati . . . Stepping up vigil . PTI . . `` The blast ripped apart the body of the person and this indicates that he was carrying the bomb , '' said a senior police official . The man is yet to be identified and investigations are on to find out which militant outfit he worked for . . . On Monday night , suspected militants belonging to the anti-talk faction of the Ulfa led by Paresh Baruah had triggered another powerful blast at Sivsagar town in Upper Assam , killing one and injuring eight others .
p59
sS'injured'
p60
g46
sS'det_loc'
p61
(lp62
S'India'
p63
aS'Assam'
p64
ag46
aS'guwahati'
p65
aS'Umrangsho'
p66
asS'O'
p67
(lp68
S'police:31'
p69
aS'explosive device:45'
p70
asS'unexpl'
p71
(lp72
g46
asS'ocassion'
p73
g46
sS'link'
p74
S'http://www.firstpost.com/fwire/midnight-blast-in-assam-one-killed-467610.html'
p75
sS'date'
p76
S'25-09-2012'
p77
sS'target'
p78
g46
sS'hot_spot'
p79
S'Umrangsho'
p80
sS'delivery_mod'
p81
g46
sS'delivery_met'
p82
S'PLANTED'
p83
sS'expl'
p84
(lp85
S'IED'
p86
asS'ORG'
p87
(lp88
(lp89
S'PTI'
p90
aS'77'
p91
aS'Others'
p92
aa(lp93
S'Ulfa'
p94
aS'143'
p95
aS'Accused'
p96
aas.