(dp0
S'LOC'
p1
(lp2
(lp3
S'New Delhi'
p4
aS'1'
p5
aS'Neutral'
p6
aa(lp7
S'Indo-Nepal'
p8
aS'18'
p9
aS'Neutral'
p10
aa(lp11
S'Bihar'
p12
aS'21'
p13
aS'Neutral'
p14
aa(lp15
S'cinema hall'
p16
aS'31'
p17
aS'Event'
p18
aa(lp19
S'Ludhiana'
p20
aS'34'
p21
aS'Neutral'
p22
aa(lp23
S'Punjab'
p24
aS'36'
p25
aS'Neutral'
p26
aasS'PER'
p27
(lp28
sS'TIM'
p29
(lp30
sS'hot_setting'
p31
S''
p32
sS'DAT'
p33
(lp34
S'Tuesday:7'
p35
aS'October:39'
p36
asS'death'
p37
g32
sS'title'
p38
S'3 Sikh militants arrested'
p39
sS'org_unorg'
p40
S'ORGANISED'
p41
sS'terror_group'
p42
(lp43
g32
asS'content'
p44
VNew Delhi : The police on Tuesday arrested three suspected members of a Sikh militant group near Indo-Nepal border in Bihar in connection with a bomb blast at in a cinema hall in Ludhiana , Punjab , in October this year .
p45
sS'injured'
p46
g32
sS'det_loc'
p47
(lp48
S'India'
p49
aS'Punjab'
p50
aS'Ludhiana'
p51
ag32
aS'cinema hall in Ludhiana'
p52
asS'O'
p53
(lp54
g32
asS'unexpl'
p55
(lp56
g32
asS'ocassion'
p57
g32
sS'link'
p58
S'http://www.thehindu.com/todays-paper/3-sikh-militants-arrested/article1974813.ece'
p59
sS'date'
p60
S'14-10-2007'
p61
sS'target'
p62
g32
sS'hot_spot'
p63
S'cinema hall in Ludhiana'
p64
sS'delivery_mod'
p65
g32
sS'delivery_met'
p66
S'PLANTED'
p67
sS'expl'
p68
(lp69
g32
asS'ORG'
p70
(lp71
(lp72
S'Sikh militant group'
p73
aS'14'
p74
aS'Others'
p75
aas.