(dp0
S'LOC'
p1
(lp2
(lp3
S'Pakistan'
p4
aS'49'
p5
aS'Accused Location'
p6
aa(lp7
S'Darbanga'
p8
aS'252'
p9
aS'Accused Location'
p10
aa(lp11
S'Bihar'
p12
aS'254'
p13
aS'Neutral'
p14
aa(lp15
S'Mumbai'
p16
aS'259'
p17
aS'Neutral'
p18
aa(lp19
S'Pakistan'
p20
aS'327'
p21
aS'Neutral'
p22
aasS'PER'
p23
(lp24
(lp25
S'Riyaz Bhatkal'
p26
aS'41'
p27
aS'Accused'
p28
aa(lp29
S'Naquee Ahmed'
p30
aS'76'
p31
aS'Accused'
p32
aa(lp33
S'Shaikh'
p34
aS'80'
p35
aS'Accused'
p36
aa(lp37
S'Kanwar Pathrija'
p38
aS'82'
p39
aS'Accused'
p40
aa(lp41
S'Haroon Naik'
p42
aS'85'
p43
aS'Accused'
p44
aa(lp45
S'Riyaz Bhatkal'
p46
aS'94'
p47
aS'Accused'
p48
aa(lp49
S'Riyaz Bhatkal'
p50
aS'109'
p51
aS'Others'
p52
aa(lp53
S'Ujjwal Nikam'
p54
aS'125'
p55
aS'Others'
p56
aa(lp57
S'Riyaz Bhatkal'
p58
aS'174'
p59
aS'Accused'
p60
aa(lp61
S'Yasin Bhatkal'
p62
aS'177'
p63
aS'Accused'
p64
aa(lp65
S'Waqas Ibrahim Sad'
p66
aS'180'
p67
aS'Accused'
p68
aa(lp69
S'Danish'
p70
aS'184'
p71
aS'Accused'
p72
aa(lp73
S'Tarbez'
p74
aS'186'
p75
aS'Accused'
p76
aa(lp77
S'Dubai'
p78
aS'188'
p79
aS'Accused'
p80
aa(lp81
S'Muzaffar Kolah'
p82
aS'190'
p83
aS'Accused'
p84
aa(lp85
S'Tehseen Akhtar Shaikh'
p86
aS'193'
p87
aS'Accused'
p88
aa(lp89
S'Rakesh Maria'
p90
aS'201'
p91
aS'Others'
p92
aa(lp93
S'Mohammed Qafeel Ansari'
p94
aS'225'
p95
aS'Accused'
p96
aa(lp97
S'Ansari'
p98
aS'248'
p99
aS'Accused'
p100
aa(lp101
S'Maria'
p102
aS'275'
p103
aS'Comment'
p104
aa(lp105
S'Ansari'
p106
aS'296'
p107
aS'Accused'
p108
aa(lp109
S'Riyaz'
p110
aS'319'
p111
aS'Accused'
p112
aa(lp113
S'Yasin'
p114
aS'335'
p115
aS'Accused'
p116
aa(lp117
S'Maria'
p118
aS'370'
p119
aS'Comment'
p120
aasS'TIM'
p121
(lp122
sS'hot_setting'
p123
S''
p124
sS'DAT'
p125
(lp126
S'May 19 : 263'
p127
asS'death'
p128
S'27'
p129
sS'title'
p130
S'13/7 blasts case: ATS files charge sheet, names Riyaz Bhatkal'
p131
sS'det_loc'
p132
(lp133
S'India'
p134
aS'Maharashtra'
p135
aS'Mumbai-City'
p136
aS'Mumbai'
p137
aS'Mumbai'
p138
asS'terror_group'
p139
(lp140
S'INDIAN MUJAHIDEEN'
p141
asS'content'
p142
VNearly a year after triple bomb blasts shook the city killing 27 people and wounding many others , Maharashtra ATS today filed 4700-page charge sheet in a special court against 10 members of Indian Mujahideen , including its top operative Riyaz Bhatkal , believed to be hiding in Pakistan . . . Of the 10 members of the home terror group , six are absconding while four have been arrested . Those facing trial are Naquee Ahmed , Nadeem Shaikh , Kanwar Pathrija and Haroon Naik . . . The new face of Riyaz Bhatkal , a top operative of Indian Mujahideen ( IM ) . Inset : Riyaz Bhatkal 's old avatar . . . The chargesheet was filed by special public prosecutor Ujjwal Nikam against the 10 under the stringent Maharashtra Control of Organised Crime Act ( MCOCA ) , IPC , Explosives Act , Explosives Substances Act , Prevention of Damage to Public Properties Act and Unlawful Prevention of Activities Act . . . `` Among the wanted accused are Riyaz Bhatkal , Yasin Bhatkal , Waqas Ibrahim Sad , Danish alias Tarbez , Dubai based Muzaffar Kolah and Tehseen Akhtar Shaikh , '' said ATS chief Rakesh Maria . . . In an another development , ATS claimed to have arrested one more accused in the 13/7 blast case , Mohammed Qafeel Ansari ( 55 ) , who was already in the custody of Delhi Police in a terror-related case . . . Ansari , hailing from Darbanga in Bihar , was arrested in Mumbai blasts case on May 19 , taking the total number of arrests to five , Maria said , adding his transit remand was sought and a supplementary charge sheet would be filed soon . . . Ansari was involved in criminal conspiracy and also provided logistical support in executing the crime , ATS officials said . . . `` Riyaz , who is suspected to be in Pakistan now , was in coordination with absconding Yasin , who looks after the IM 's operations in India , had conspired and executed the blasts at business hubs with an intention to destroy economic structure ( of the city ) , '' Maria said . . . .
p143
sS'injured'
p144
g124
sS'org_unorg'
p145
S'ORGANISED'
p146
sS'O'
p147
(lp148
S'special court:28'
p149
aS'IPC:143'
p150
aS'Explosives Act:145'
p151
aS'Explosives Substances Act:148'
p152
aS'Prevention of Damage to Public Properties Act and Unlawful Prevention of Activities Act:152'
p153
asS'unexpl'
p154
(lp155
g124
asS'ocassion'
p156
g124
sS'link'
p157
S'http://archive.mid-day.com/news/2012/may/250512-13-7-blasts-case-ATS-files-chargesheet.htm'
p158
sS'date'
p159
S'25-05-2012'
p160
sS'target'
p161
g124
sS'hot_spot'
p162
S'Mumbai'
p163
sS'delivery_mod'
p164
g124
sS'delivery_met'
p165
S'PLANTED'
p166
sS'expl'
p167
(lp168
g124
asS'ORG'
p169
(lp170
(lp171
S'Maharashtra ATS'
p172
aS'19'
p173
aS'Others'
p174
aa(lp175
S'Indian Mujahideen'
p176
aS'34'
p177
aS'Accused'
p178
aa(lp179
S'Indian Mujahideen'
p180
aS'101'
p181
aS'Accused'
p182
aa(lp183
S'IM'
p184
aS'104'
p185
aS'Accused'
p186
aa(lp187
S'Maharashtra Control of Organised Crime Act'
p188
aS'133'
p189
aS'Others'
p190
aa(lp191
S'MCOCA'
p192
aS'140'
p193
aS'Others'
p194
aa(lp195
S'ATS'
p196
aS'199'
p197
aS'Others'
p198
aa(lp199
S'ATS'
p200
aS'211'
p201
aS'Others'
p202
aa(lp203
S'Delhi Police'
p204
aS'239'
p205
aS'Others'
p206
aa(lp207
S'ATS'
p208
aS'312'
p209
aS'Others'
p210
aa(lp211
S'IM'
p212
aS'341'
p213
aS'Accused'
p214
aa(lp215
S'India'
p216
aS'345'
p217
aS'Others'
p218
aas.