(dp0
S'LOC'
p1
(lp2
(lp3
S'Chennai'
p4
aS'1'
p5
aS'Neutral'
p6
aa(lp7
S'Jammu and Kashmir'
p8
aS'32'
p9
aS'Event'
p10
aa(lp11
S'Srinagar'
p12
aS'49'
p13
aS'Neutral'
p14
aa(lp15
S'Thummanayakkanpatti'
p16
aS'68'
p17
aS'Neutral'
p18
aa(lp19
S'Madurai'
p20
aS'70'
p21
aS'Neutral'
p22
aa(lp23
S'Madurai'
p24
aS'148'
p25
aS'Neutral'
p26
aasS'PER'
p27
(lp28
(lp29
S'J Jayalalithaa'
p30
aS'57'
p31
aS'Comment'
p32
aa(lp33
S'Perumal'
p34
aS'63'
p35
aS'Victim'
p36
aa(lp37
S'Perumal'
p38
aS'116'
p39
aS'Victim'
p40
aa(lp41
S'Sellur K Raju'
p42
aS'129'
p43
aS'Comment'
p44
aasS'TIM'
p45
(lp46
sS'hot_setting'
p47
S''
p48
sS'DAT'
p49
(lp50
sS'death'
p51
S'5'
p52
sS'title'
p53
S"Srinagar CRPF deaths: TN to give Rs 5 lakh to jawan's family"
p54
sS'det_loc'
p55
(lp56
S'India'
p57
aS'Jammu & Kashmir'
p58
aS'Srinagar'
p59
ag48
aS'Jammu and Kashmir'
p60
asS'terror_group'
p61
(lp62
g48
asS'content'
p63
VChennai : The Tamil Nadu government today announced a cash relief of Rs 5 lakh to the family of a CRPF jawan , who was killed in a suicide attack in Jammu and Kashmir . . . A CRPF jawan injured during the exchange with the terrorists in Srinagar . PTI . . . Chief Minister J Jayalalithaa condoled the death of Perumal , who hails from Thummanayakkanpatti in Madurai district . In a statement here , she expressed grief over the yesterday '' s incident and sympathised with the family members of the martyred soldier . . . `` I have directed that all government assistance be rendered in bringing back the body of Perumal , '' the Chief Minister said , adding , she had deputed Sellur K Raju , Minister for Cooperation , to console the family in person . She also instructed the Madurai District Collector to pay last respects to the deceased . . . Five CRPF jawans were killed after militants carried out a suicide attack on their post in the valley yesterday .
p64
sS'injured'
p65
g48
sS'org_unorg'
p66
S'ORGANISED'
p67
sS'O'
p68
(lp69
S'Chief Minister:55'
p70
aS'Minister for Cooperation:133'
p71
aS'District Collector:149'
p72
asS'unexpl'
p73
(lp74
g48
asS'ocassion'
p75
g48
sS'link'
p76
S'http://www.firstpost.com/india/srinagar-crpf-deaths-tn-to-give-rs-5-lakh-to-jawans-family-661201.html'
p77
sS'date'
p78
S'14-03-2013'
p79
sS'target'
p80
g48
sS'hot_spot'
p81
S'Jammu and Kashmir'
p82
sS'delivery_mod'
p83
g48
sS'delivery_met'
p84
S'PLANTED'
p85
sS'expl'
p86
(lp87
g48
asS'ORG'
p88
(lp89
(lp90
S'Tamil Nadu government'
p91
aS'4'
p92
aS'Others'
p93
aa(lp94
S'CRPF'
p95
aS'21'
p96
aS'Others'
p97
aa(lp98
S'CRPF'
p99
aS'39'
p100
aS'Others'
p101
aa(lp102
S'PTI'
p103
aS'51'
p104
aS'Others'
p105
aa(lp106
S'CRPF'
p107
aS'162'
p108
aS'Others'
p109
aas.