(dp0
S'LOC'
p1
(lp2
(lp3
S'Tangmarg'
p4
aS'52'
p5
aS'Neutral'
p6
aa(lp7
S'Baramulla'
p8
aS'54'
p9
aS'Neutral'
p10
aa(lp11
S'north Kashmir'
p12
aS'57'
p13
aS'Neutral'
p14
aasS'PER'
p15
(lp16
(lp17
S'Ghulam Hassan Mir'
p18
aS'48'
p19
aS'Others'
p20
aa(lp21
S'Hashim Qureshi'
p22
aS'81'
p23
aS'Others'
p24
aasS'TIM'
p25
(lp26
sS'hot_setting'
p27
S''
p28
sS'DAT'
p29
(lp30
S'Tuesday:60'
p31
asS'death'
p32
S'6'
p33
sS'title'
p34
VHizb condemns Srinagar car bomb blast
p35
sS'det_loc'
p36
(lp37
S'India'
p38
aS'Jammu & Kashmir'
p39
aS'Srinagar'
p40
aS'Sri nagar'
p41
aS'Sri nagar'
p42
asS'terror_group'
p43
(lp44
g28
asS'content'
p45
V`` We condemn the incident . We are against such incidents in which civilians are killed , '' a spokesman of the outfit told a local news agency . . . The outfit also condemned the grenade attack on the rally of PDP leader and former minister Ghulam Hassan Mir at Tangmarg in Baramulla district of north Kashmir on Tuesday in which six persons were killed and dozens injured . . . Meanwhnile , Jammu Kashmir Democratic Liberation party chairman Hashim Qureshi condemned the act saying `` the killers of humanity are baying for the blood of innocent Kashmiris and killing them every day to sabotage their greater interest and peace process . . . .
p46
sS'injured'
p47
S'12'
p48
sS'org_unorg'
p49
S'ORGANISED'
p50
sS'O'
p51
(lp52
g28
asS'unexpl'
p53
(lp54
g28
asS'ocassion'
p55
g28
sS'link'
p56
S'http://www.outlookindia.com/newswire/story/hizb-condemns-srinagar-car-bomb-blast/335602'
p57
sS'date'
p58
S'29-10-2005'
p59
sS'target'
p60
g28
sS'hot_spot'
p61
S'Sri nagar'
p62
sS'delivery_mod'
p63
g28
sS'delivery_met'
p64
S'PLANTED'
p65
sS'expl'
p66
(lp67
S'GRENADE'
p68
asS'ORG'
p69
(lp70
(lp71
S'local news agency'
p72
aS'26'
p73
aS'Others'
p74
aa(lp75
S'PDP'
p76
aS'43'
p77
aS'Others'
p78
aa(lp79
S'Jammu Kashmir Democratic Liberation party'
p80
aS'75'
p81
aS'Others'
p82
aas.