(dp0
S'LOC'
p1
(lp2
(lp3
S'LUCKNOW'
p4
aS'20'
p5
aS'Neutral'
p6
aa(lp7
S'Uttar Pradesh'
p8
aS'31'
p9
aS'Event'
p10
aa(lp11
S'Malegaon'
p12
aS'44'
p13
aS'Event'
p14
aa(lp15
S'Maharashtra'
p16
aS'46'
p17
aS'Event'
p18
aa(lp19
S'Uttar Pradesh'
p20
aS'114'
p21
aS'Event'
p22
aa(lp23
S'Mumbai'
p24
aS'164'
p25
aS'Neutral'
p26
aa(lp27
S'Delhi'
p28
aS'251'
p29
aS'Assoc Event Location'
p30
aa(lp31
S'Varanasi'
p32
aS'253'
p33
aS'Assoc Event Location'
p34
aa(lp35
S'Mumbai'
p36
aS'255'
p37
aS'Assoc Event Location'
p38
aa(lp39
S'Lucknow'
p40
aS'291'
p41
aS'Neutral'
p42
aa(lp43
S'Aishbagh Idgah'
p44
aS'293'
p45
aS'Neutral'
p46
aasS'PER'
p47
(lp48
(lp49
S'R.M. Srivastava'
p50
aS'54'
p51
aS'Comment'
p52
aa(lp53
S'Srivastava'
p54
aS'82'
p55
aS'Comment'
p56
aa(lp57
S'Maulana Kalbe Sadiq'
p58
aS'209'
p59
aS'Comment'
p60
aa(lp61
S'Maulana'
p62
aS'226'
p63
aS'Comment'
p64
aa(lp65
S'Naib Imam'
p66
aS'288'
p67
aS'Others'
p68
aa(lp69
S'Maulana Khalid Rasheed Firangi Mahali'
p70
aS'299'
p71
aS'Comment'
p72
aa(lp73
S'Shab-e-Barat'
p74
aS'317'
p75
aS'Others'
p76
aa(lp77
S'Maulana Rasheed'
p78
aS'353'
p79
aS'Comment'
p80
aa(lp81
S'Zafaryab Jilani'
p82
aS'371'
p83
aS'Others'
p84
aasS'TIM'
p85
(lp86
S'hour : 283'
p87
aS'today : 314'
p88
asS'hot_setting'
p89
S''
p90
sS'DAT'
p91
(lp92
S'Friday : 48'
p93
asS'death'
p94
g90
sS'title'
p95
S'High alert in U.P. after Malegaon blast'
p96
sS'org_unorg'
p97
g90
sS'terror_group'
p98
(lp99
g90
asS'content'
p100
VSpecial Correspondent . . Possibility of some of the victims belonging to the State not ruled out . . LUCKNOW : A state of high alert has been sounded in Uttar Pradesh in the wake of the bomb blast in a mosque in Malegaon in Maharashtra on Friday . . . Home Secretary R.M. Srivastava told newsmen that the intelligence agencies have been geared up and the securitymen asked to keep a close watch on rumour mongers . . . Mr Srivastava said vigil had been stepped up at religious places , communally sensitive towns , vital installations , airports , railway stations and bus terminuses . . . The security concerns in Uttar Pradesh have another dimension . Though the identity of the victims was not known the intelligence and security agencies have not ruled out the possibility of some of the victims belonging to the State , considering that large number of people , particularly from eastern districts , went to Mumbai for earning their livelihood . . . The Home Secretary said there were no reports of any untoward incident in the light of the bomb blast . . . Reacting to the incident , the Vice-Chairman of All India Muslim Personal Law Board , Maulana Kalbe Sadiq , said the incident was a test of the Muslims ' patience . The Maulana said the Muslims should display the same restraint as was exhibited by the majority community in the aftermath of the serial bomb blasts in Delhi , Varanasi and Mumbai . . . The Law Board Vice-Chairman said the incident was the handiwork of a few persons , adding that communal harmony is the need of the hour . . . The Naib Imam of Lucknow 's Aishbagh Idgah and AIMPLB member , Maulana Khalid Rasheed Firangi Mahali said security ought to have been stepped up considering that today was ` Shab-e-Barat ' when large numbers of Muslims congregate in the mosques and visit the graveyards to offer ` Fateha ' for their departed ones . . . Stating that both the communities should exercise restraint , Maulana Rasheed said the government should do some introspection into some of its past actions . . . Zafaryab Jilani , legal convenor of AIMPLB and Babri Masjid Action Committee , assailed the government for a one-sided view of the recent developments .
p101
sS'injured'
p102
g90
sS'det_loc'
p103
(lp104
S'India'
p105
aS'Uttar Pradesh'
p106
ag90
aS'Maharashtra'
p107
ag90
asS'O'
p108
(lp109
S'special correspondent:1'
p110
aS'Special:1'
p111
aS'victims:10'
p112
aS'state:14'
p113
aS'high alert:25'
p114
aS'bomb blast:38'
p115
aS'mosque:42'
p116
aS'intelligence agencies:60'
p117
aS'securitymen:68'
p118
aS'rumour mongers:76'
p119
aS'vigil:84'
p120
aS'religious places:90'
p121
aS'communally sensitive towns:93'
p122
aS'vital installations:97'
p123
aS'airports:100'
p124
aS'railway stations:102'
p125
aS'bus terminuses:105'
p126
aS'security concerns:111'
p127
aS'victims:125'
p128
aS'intelligence:130'
p129
aS'security agencies:132'
p130
aS'victims:144'
p131
aS'state:148'
p132
aS'eastern districts:159'
p133
aS'livelihood:168'
p134
aS'home secretary:173'
p135
aS'no reports:178'
p136
aS'untoward incident:182'
p137
aS'bomb blast:189'
p138
aS'incident:197'
p139
aS'all india muslim personal law board:202'
p140
aS'incident:215'
p141
aS'majority community:240'
p142
aS'serial bomb blasts:247'
p143
aS'the law board vice-chairman:259'
p144
aS'handiwork:268'
p145
aS'communal harmony:276'
p146
aS'security:305'
p147
aS'muslims congregate:323'
p148
aS'mosques:327'
p149
aS'visit:329'
p150
aS'graveyards:331'
p151
aS'departed ones:339'
p152
aS'government:357'
p153
aS'introspection:361'
p154
aS'legal convenor:374'
p155
aS'recent developments:393'
p156
asS'unexpl'
p157
(lp158
g90
asS'ocassion'
p159
g90
sS'link'
p160
S'http://www.thehindu.com/todays-paper/tp-national/tp-otherstates/high-alert-in-up-after-malegaon-blast/article3072980.ece'
p161
sS'date'
p162
S'08-09-2006'
p163
sS'target'
p164
S'MOSQUE'
p165
sS'hot_spot'
p166
g90
sS'delivery_mod'
p167
g90
sS'delivery_met'
p168
S'PLANTED'
p169
sS'expl'
p170
(lp171
g90
asS'ORG'
p172
(lp173
(lp174
S'AIMPLB'
p175
aS'296'
p176
aS'Others'
p177
aa(lp178
S'AIMPLB'
p179
aS'377'
p180
aS'Others'
p181
aa(lp182
S'Babri Masjid Action Committee'
p183
aS'379'
p184
aS'Others'
p185
aa(lp186
S'government'
p187
aS'386'
p188
aS'Others'
p189
aas.