(dp0
S'LOC'
p1
(lp2
(lp3
S'New Delhi'
p4
aS'1'
p5
aS'Neutral'
p6
aa(lp7
S'Pune German Bakery'
p8
aS'60'
p9
aS'Event'
p10
aa(lp11
S'Pune'
p12
aS'60'
p13
aS'Neutral'
p14
aa(lp15
S'German'
p16
aS'61'
p17
aS'Neutral'
p18
aa(lp19
S'Bangalore'
p20
aS'78'
p21
aS'Event'
p22
aa(lp23
S'Chinnaswamy Stadium'
p24
aS'80'
p25
aS'Event'
p26
aa(lp27
S'German Bakery'
p28
aS'149'
p29
aS'Event'
p30
aa(lp31
S'Delhi'
p32
aS'154'
p33
aS'Neutral'
p34
aa(lp35
S'Delhi Police'
p36
aS'154'
p37
aS'Neutral'
p38
aasS'PER'
p39
(lp40
(lp41
S'Imran'
p42
aS'120'
p43
aS'Accused'
p44
aa(lp45
S'Yaseen Bhatkal'
p46
aS'122'
p47
aS'Accused'
p48
aasS'TIM'
p49
(lp50
sS'hot_setting'
p51
S''
p52
sS'DAT'
p53
(lp54
S'2010:31'
p55
aS'February:65'
p56
aS'April 2010:87'
p57
aS'September:101'
p58
asS'death'
p59
S'17'
p60
sS'title'
p61
S'Police releases photo of mastermind of German Bakery blast'
p62
sS'det_loc'
p63
(lp64
S'India'
p65
ag52
ag52
ag52
aS'Pune German Bakery'
p66
asS'terror_group'
p67
(lp68
S'INDIAN MUJAHIDEEN'
p69
asS'content'
p70
VNew Delhi : The government says that six men who have been arrested are allegedly members of Indian Mujahideen terror group and are responsible for attacks in three cities in 2010 . The men , who include one Pakistani , were arrested from different parts of the country . Investigators claimed the arrested persons were allegedly involved in the Pune German Bakery blast in February last year in which 17 people were killed ; an explosion at Bangalore 's Chinnaswamy Stadium during an IPL match in April 2010 ; and a blast in car outside the Jama Masjid mosque in September last year ahead of the Commonwealth Games . Police sources said the mastermind of the attacks is named Imran or Yaseen Bhatkal and is missing . A photo released of him today purportedly shows him leaving behind a bag with the bomb that would explode at the German Bakery . -LRB- Read Delhi Police on arrests of alleged terrorists -RRB- .
p71
sS'injured'
p72
g52
sS'org_unorg'
p73
S'ORGANISED'
p74
sS'O'
p75
(lp76
S'IPL match:84'
p77
aS'car:94'
p78
aS'Jama Masjid mosque:97'
p79
aS'Commonwealth Games:107'
p80
asS'unexpl'
p81
(lp82
g52
asS'ocassion'
p83
g52
sS'link'
p84
S'http://www.ndtv.com/india-news/police-releases-photo-of-mastermind-of-german-bakery-blast-573033'
p85
sS'date'
p86
S'13-02-2010'
p87
sS'target'
p88
g52
sS'hot_spot'
p89
S'Pune German Bakery'
p90
sS'delivery_mod'
p91
g52
sS'delivery_met'
p92
S'PLANTED'
p93
sS'expl'
p94
(lp95
g52
asS'ORG'
p96
(lp97
(lp98
S'Indian Mujahideen'
p99
aS'18'
p100
aS'Accused'
p101
aas.