(dp0
S'LOC'
p1
(lp2
(lp3
S'Uttar Pradesh'
p4
aS'10'
p5
aS'Event'
p6
aa(lp7
S'Allahabad'
p8
aS'33'
p9
aS'Neutral'
p10
aa(lp11
S'Varanasi'
p12
aS'35'
p13
aS'Neutral'
p14
aa(lp15
S'Kanpur'
p16
aS'37'
p17
aS'Neutral'
p18
aa(lp19
S'Ayodhaya'
p20
aS'39'
p21
aS'Neutral'
p22
aa(lp23
S'Uttar Pradesh'
p24
aS'53'
p25
aS'Event'
p26
aa(lp27
S'Varanasi'
p28
aS'77'
p29
aS'Neutral'
p30
aa(lp31
S'Allahabad'
p32
aS'197'
p33
aS'Neutral'
p34
aa(lp35
S'Kanpur'
p36
aS'234'
p37
aS'Neutral'
p38
aa(lp39
S'Uttar Pradesh'
p40
aS'238'
p41
aS'Event'
p42
aa(lp43
S'Varanasi'
p44
aS'342'
p45
aS'Neutral'
p46
aa(lp47
S'Ayodhya'
p48
aS'403'
p49
aS'Neutral'
p50
aa(lp51
S'Uttar Pradesh'
p52
aS'444'
p53
aS'Event'
p54
aa(lp55
S'Varanasi'
p56
aS'457'
p57
aS'Event'
p58
aa(lp59
S'Faizabad'
p60
aS'459'
p61
aS'Event'
p62
aa(lp63
S'Lucknow'
p64
aS'461'
p65
aS'Event'
p66
aa(lp67
S'Varansi'
p68
aS'483'
p69
aS'Event'
p70
aa(lp71
S'Faizabad'
p72
aS'487'
p73
aS'Event'
p74
aa(lp75
S'Lucknow'
p76
aS'491'
p77
aS'Event'
p78
aa(lp79
S'Uttar Pradesh'
p80
aS'516'
p81
aS'Event'
p82
aasS'PER'
p83
(lp84
(lp85
S'Bajrang Dal'
p86
aS'91'
p87
aS'Others'
p88
aa(lp89
S'Ashok Singhal'
p90
aS'139'
p91
aS'Others'
p92
aa(lp93
S'Singhal'
p94
aS'192'
p95
aS'Comment'
p96
aa(lp97
S'Mayawati'
p98
aS'218'
p99
aS'Others'
p100
aa(lp101
S'Sriprakash Jaiswal'
p102
aS'228'
p103
aS'Others'
p104
aa(lp105
S'Jaiswal'
p106
aS'313'
p107
aS'Comment'
p108
aa(lp109
S'Mridul Mishra'
p110
aS'390'
p111
aS'Comment'
p112
aa(lp113
S'Sachidanand Pandey'
p114
aS'434'
p115
aS'Comment'
p116
aa(lp117
S'Rahul Gandhi'
p118
aS'533'
p119
aS'Others'
p120
aasS'TIM'
p121
(lp122
S'15 minutes : 504'
p123
asS'hot_setting'
p124
S''
p125
sS'DAT'
p126
(lp127
S'Nov 24 : 41'
p128
aS'Friday : 87'
p129
aS'Friday : 411'
p130
aS'Friday : 447'
p131
asS'death'
p132
S'9'
p133
sS'title'
p134
S'Blasts in Uttar Pradesh evoke protests'
p135
sS'det_loc'
p136
(lp137
S'India'
p138
aS'Uttar Pradesh'
p139
aS'Varanasi'
p140
ag125
ag125
asS'terror_group'
p141
(lp142
S'JAISH-E-MOHAMMED / TAHRIK-E-FURQAN'
p143
asS'content'
p144
VThe simultaneous bomb blasts that rocked three cities in Uttar Pradesh have angered the people who blame the State as well as the Centre for inaction against terrorist threat . . . Allahabad / Varanasi / Kanpur / Ayodhaya , Nov 24 : The simultaneous bomb blasts that rocked three cities in Uttar Pradesh have angered the people who blame the State as well as the Centre for inaction against terrorist threat . . . In Varanasi , where at least nine people were killed in Friday 's blasts , Bajrang Dal activists took to the street after Bharatiya Janata Party ( BJP ) and Vishwa Hindu Parishad ( VHP ) called for a shutdown in the state . . . The activists forced the shopkeepers to close their shops in the city . . . VHP Chief Ashok Singhal said the attack was the result of Congress-led ruling coalition 's soft attitude towards terrorists . . . `` The reason behind the increase in such incidents is that the Congress-led coalition government at the Centre is rather lax in curbing terrorist activities and has even repealed POTA , '' said Singhal . . . In Allahabad , Samajwadi Party workers halted a train in protest against the state Government and demanded the resignation of Chief Minister Mayawati . . . Union Minister of State for Home Sriprakash Jaiswal , who is in Kanpur , criticised the Uttar Pradesh State Government for not taking the terrorist threat seriously . . . `` This is not the time to resort to politics . We should assuage people 's fears and work towards ensuring that such events are not repeated . As far as the blast is concerned , our central intelligence agency had warned all the states in our country that any crowded place is a potential target of terrorists , '' said Jaiswal . . . But the attacks could n't deter the faith of thousands of devotees who turned out in large numbers on the banks of Ganges River in Varanasi to take a holy dip on the occasion of Kartik Purnima , the full moon day . . . `` Terrorism can never affect the faith of people . History reveals that devout Hindus are always ready to sacrifice their life for their faith , '' said Mridul Mishra , a devotee . . . Similar scenes were visible in Ayodhya , where four people were killed in Friday 's blast . . . `` Security arrangements are very good here . We are not scared at all , '' said Sachidanand Pandey , a devotee . . . Terror struck Uttar Pradesh on Friday when militants triggered near-simultaneous blasts in court premises at Varanasi , Faizabad and Lucknow killing 15 people , four of them lawyers , and injuring over 80 . . . Six bombs - three in Varansi , two in Faizabad and one in Lucknow - some planted on cycles , went off within a span of 15 minutes . . . The blasts came a week after the Uttar Pradesh police along with central security agencies busted a Jaish-e-Mohammed module , which wanted to target Rahul Gandhi . . . addthis_url = location.href ; addthis_title = document.title ; addthis_pub = ` vijaytech ' ; . . a36 ( ) ; . . .
p145
sS'injured'
p146
g125
sS'org_unorg'
p147
g125
sS'O'
p148
(lp149
S'bomb blasts:3'
p150
aS'terrorist threat:28'
p151
aS'bomb blasts:46'
p152
aS'terrorist threat:71'
p153
aS'killed:85'
p154
aS'activists:93'
p155
aS'activists:123'
p156
aS'attack:143'
p157
aS'terrorists:155'
p158
aS'terrorist activities:182'
p159
aS'POTA:188'
p160
aS'protest:206'
p161
aS'terrorist:246'
p162
aS'blast:284'
p163
aS'intelligence agency:290'
p164
aS'terrorists:309'
p165
aS'ganges river:339'
p166
aS'kartik purnima:352'
p167
aS'terrorism:363'
p168
aS'hindus:376'
p169
aS'blast:413'
p170
aS'terror struck:442'
p171
aS'militants:449'
p172
aS'blasts:452'
p173
aS'six bombs:478'
p174
aS'blasts:510'
p175
aS'central security agencies:521'
p176
asS'unexpl'
p177
(lp178
g125
asS'ocassion'
p179
g125
sS'link'
p180
S'http://www.andhranews.net/India/2007/November/24-Blasts-Uttar-23551.asp'
p181
sS'date'
p182
S'23-11-2007'
p183
sS'target'
p184
S'PUBLIC PLACES'
p185
sS'hot_spot'
p186
g125
sS'delivery_mod'
p187
S'BYCICLE'
p188
sS'delivery_met'
p189
S'PLANTED'
p190
sS'expl'
p191
(lp192
g125
asS'ORG'
p193
(lp194
(lp195
S'State'
p196
aS'19'
p197
aS'Others'
p198
aa(lp199
S'Centre'
p200
aS'24'
p201
aS'Others'
p202
aa(lp203
S'State'
p204
aS'62'
p205
aS'Others'
p206
aa(lp207
S'Centre'
p208
aS'67'
p209
aS'Others'
p210
aa(lp211
S'Bharatiya Janata Party'
p212
aS'99'
p213
aS'Others'
p214
aa(lp215
S'BJP'
p216
aS'103'
p217
aS'Others'
p218
aa(lp219
S'Vishwa Hindu Parishad'
p220
aS'106'
p221
aS'Others'
p222
aa(lp223
S'VHP'
p224
aS'110'
p225
aS'Others'
p226
aa(lp227
S'VHP'
p228
aS'137'
p229
aS'Others'
p230
aa(lp231
S'Centre'
p232
aS'176'
p233
aS'Others'
p234
aa(lp235
S'Samajwadi Party'
p236
aS'199'
p237
aS'Others'
p238
aa(lp239
S'state Government'
p240
aS'209'
p241
aS'Others'
p242
aa(lp243
S'State Government'
p244
aS'240'
p245
aS'Others'
p246
aa(lp247
S'Jaish-e-Mohammed'
p248
aS'526'
p249
aS'Accused'
p250
aas.