(dp0
S'LOC'
p1
(lp2
(lp3
S'Guwahati'
p4
aS'5'
p5
aS'Neutral'
p6
aa(lp7
S'upper Assam'
p8
aS'38'
p9
aS'Event'
p10
aa(lp11
S'Assam'
p12
aS'39'
p13
aS'Neutral'
p14
aa(lp15
S'Tinsukia'
p16
aS'41'
p17
aS'Event'
p18
aa(lp19
S'Chambers Road'
p20
aS'57'
p21
aS'Event'
p22
aa(lp23
S'Tinsukia'
p24
aS'60'
p25
aS'Event'
p26
aa(lp27
S'lower Assam'
p28
aS'110'
p29
aS'Event'
p30
aa(lp31
S'Nalbari'
p32
aS'113'
p33
aS'Neutral'
p34
aa(lp35
S'Barkhanajan'
p36
aS'121'
p37
aS'Event'
p38
aa(lp39
S'Nalbari'
p40
aS'127'
p41
aS'Neutral'
p42
aasS'PER'
p43
(lp44
(lp45
S'Sushanta Talukdar'
p46
aS'1'
p47
aS'Others'
p48
aasS'TIM'
p49
(lp50
S'7 . 20 a.m. : 73'
p51
aS'night : 96'
p52
asS'hot_setting'
p53
S''
p54
sS'DAT'
p55
(lp56
S'Friday:44'
p57
aS'Thursday:95'
p58
asS'death'
p59
g54
sS'title'
p60
S'Seven injured in Assam car bomb blast'
p61
sS'org_unorg'
p62
S'ORGANISED'
p63
sS'terror_group'
p64
(lp65
S'UNITED LIBERATION FRONT OF ASSAM (ULFA)'
p66
asS'content'
p67
VSushanta Talukdar . . Guwahati : Seven persons were injured , two of them critically , in a car bomb explosion suspected to have been triggered by the United Liberation Front of Asom -LRB- ULFA -RRB- in upper Assam 's Tinsukia town on Friday . . . Police said that the blast occurred on the busy Chambers Road in Tinsukia when a bomb hidden in a Maruti gypsy vehicle went off around 7 . 20 a.m. . . The police arrested five persons in this connection with the blast . . . Earlier on Thursday night three suspected ULFA militants were killed in an encounter with the Army in lower Assam 's Nalbari district . The encounter took place at Barkhanajan , about 3 km of Nalbari town .
p68
sS'injured'
p69
S'7'
p70
sS'det_loc'
p71
(lp72
S'India'
p73
aS'Assam'
p74
aS'Tinsukia'
p75
aS'guwahati'
p76
aS"upper Assam 's Tinsukia town"
p77
asS'O'
p78
(lp79
S'Maruti gypsy vehicle:67'
p80
aS'police:80'
p81
asS'unexpl'
p82
(lp83
g54
asS'ocassion'
p84
g54
sS'link'
p85
S'http://www.thehindu.com/todays-paper/seven-injured-in-assam-car-bomb-blast/article1838317.ece'
p86
sS'date'
p87
S'04-05-2007'
p88
sS'target'
p89
g54
sS'hot_spot'
p90
S"upper Assam 's Tinsukia town"
p91
sS'delivery_mod'
p92
S'CAR'
p93
sS'delivery_met'
p94
S'PLANTED'
p95
sS'expl'
p96
(lp97
g54
asS'ORG'
p98
(lp99
(lp100
S'United Liberation Front of Asom'
p101
aS'29'
p102
aS'Accused'
p103
aa(lp104
S'ULFA'
p105
aS'35'
p106
aS'Accused'
p107
aS'Others'
p108
aa(lp109
S'ULFA'
p110
aS'99'
p111
aS'Accused'
p112
aas.