(dp0
S'LOC'
p1
(lp2
(lp3
S'Guwahati'
p4
aS'19'
p5
aS'Event'
p6
aa(lp7
S'Guwahati'
p8
aS'27'
p9
aS'Event'
p10
aa(lp11
S'Ganeshguri'
p12
aS'116'
p13
aS'Event'
p14
aa(lp15
S'Dhing'
p16
aS'222'
p17
aS'Neutral'
p18
aa(lp19
S'Nagaon'
p20
aS'224'
p21
aS'Neutral'
p22
aa(lp23
S'Nagaon'
p24
aS'248'
p25
aS'Neutral'
p26
aa(lp27
S'Chief Judicial Magistrate Court'
p28
aS'265'
p29
aS'Event'
p30
aa(lp31
S'Bongaigaon'
p32
aS'292'
p33
aS'Event'
p34
aa(lp35
S'Nagaon'
p36
aS'298'
p37
aS'Neutral'
p38
aa(lp39
S'Dispur'
p40
aS'336'
p41
aS'Neutral'
p42
aa(lp43
S'Assam'
p44
aS'455'
p45
aS'Event'
p46
aa(lp47
S'Assam'
p48
aS'497'
p49
aS'Event'
p50
aasS'PER'
p51
(lp52
(lp53
S'Sushanta Talukdar'
p54
aS'1'
p55
aS'Others'
p56
aa(lp57
S'Bhaskarjyoti Mahanta'
p58
aS'134'
p59
aS'Comment'
p60
aa(lp61
S'Nazir Ahmed'
p62
aS'186'
p63
aS'Accused'
p64
aa(lp65
S'Nazir'
p66
aS'227'
p67
aS'Accused'
p68
aa(lp69
S'Pradip Konwar'
p70
aS'368'
p71
aS'Others'
p72
aa(lp73
S'Konwar'
p74
aS'408'
p75
aS'Comment'
p76
aa(lp77
S'R. Chandranathan'
p78
aS'440'
p79
aS'Others'
p80
aa(lp81
S'Chandranathan'
p82
aS'441'
p83
aS'Others'
p84
aa(lp85
S'Bajrang Dal'
p86
aS'478'
p87
aS'Others'
p88
aasS'TIM'
p89
(lp90
sS'hot_setting'
p91
S''
p92
sS'DAT'
p93
(lp94
S'Saturday:139'
p95
aS'Saturday:236'
p96
aS'2006:320'
p97
aS'October 22:345'
p98
aS'Monday:574'
p99
asS'death'
p100
g92
sS'title'
p101
S'Police verifying identity of Islamic Security Force'
p102
sS'det_loc'
p103
(lp104
S'India'
p105
aS'Assam'
p106
ag92
aS'guwahati'
p107
aS'guwahati'
p108
asS'terror_group'
p109
(lp110
S'INDIAN MUJAHIDEEN'
p111
asS'content'
p112
VSushanta Talukdar . . Unconfirmed reports of formation of an outfit by this name in 2000-2001 . . Guwahati : Police investigating the serial blasts in Guwahati have found that the SIM card used in the mobile phone to send an SMS in the name of the Islamic Security Force -LRB- Indian Mujahideen -RRB- , owning responsibility for the blasts , was used in two other hand sets . They are now on the look out for the owners of these . . . The police have established that car bombs were used in the blasts in the city . A forensic team has found remnants of a Programme Time Delay device switch from the Ganeshguri blast site . . . Assam police spokesman and Inspector-General of Police -LRB- Law and Order -RRB- Bhaskarjyoti Mahanta told reporters on Saturday that there were unconfirmed reports of some people claiming formation of an outfit in the name and style of the Islamic Security Force in 2000-2001 . It needed to be ascertained whether it was the same group that triggered the serial blasts . He alleged that Nazir Ahmed , from whose cell phone the SMS was sent , had used false identity proof documents to obtain a SIM card . At the time of sending the SMS the cell phone was at Dhing in Nagaon district . Nazir was among three persons taken into custody on Saturday . . . The second person taken into custody resides in Nagaon and owned the Maruti car that was used as bomb to trigger the blast on the Chief Judicial Magistrate Court premises . The third person , who resides in the city , owned the motorbike that was used to trigger the blast at Bongaigaon . The man apprehended in Nagaon is reported to have told the police that he sold the car to a used car dealer in the city in 2006 . The IGP said the owner of the motorbike had lodged an FIR at the Dispur police station that his bike was stolen on October 22 . The police have formed a special team to look into the theft case . . . A city lawyer , Pradip Konwar , claims to have seen two persons loitering near his car kept parked on the premises of the CJM Court minutes before the blast . Police said sketches would be prepared of the suspects . . . Mr. Konwar said that his car was next to the car that was used as bomb . . . The police have formed a Special Investigation Team headed by IGP -LRB- STF -RRB- R. Chandranathan to probe into all aspects of the blasts . . . Bandh in Assam . . A 12-hour Assam Bandh called by the Bhariatya Janata Party , the Viswa Hindu Parishad -LRB- VHP -RRB- and the Bajrang Dal to protest against the alleged failure of the Central and State governments to prevent terror attacks in Assam and protests by the All-Assam Students Union -LRB- AASU -RRB- in different parts of the State were observed during Dr. Singhs visit to the State . . . Normal life came to a halt in the State during the bandh ; a large number of bandh supporters was arrested . Sporadic incidents of violence , torching of rickshaws and damaging of buses were reported from different parts . The AASU has called a 24-hour bandh on Monday to protest against the governments failure .
p113
sS'injured'
p114
g92
sS'org_unorg'
p115
S'ORGANISED'
p116
sS'O'
p117
(lp118
S'Programme Time Delay device:109'
p119
aS'Police:128'
p120
asS'unexpl'
p121
(lp122
g92
asS'ocassion'
p123
g92
sS'link'
p124
S'http://www.thehindu.com/todays-paper/police-verifying-identity-of-islamic-security-force/article1368145.ece'
p125
sS'date'
p126
S'02-11-2008'
p127
sS'target'
p128
g92
sS'hot_spot'
p129
S'guwahati'
p130
sS'delivery_mod'
p131
g92
sS'delivery_met'
p132
S'PLANTED'
p133
sS'expl'
p134
(lp135
g92
asS'ORG'
p136
(lp137
(lp138
S'Islamic Security Force'
p139
aS'48'
p140
aS'Others'
p141
aa(lp142
S'Indian Mujahideen'
p143
aS'52'
p144
aS'Others'
p145
aa(lp146
S'forensic'
p147
aS'102'
p148
aS'Others'
p149
aa(lp150
S'Assam police'
p151
aS'122'
p152
aS'Others'
p153
aa(lp154
S'Islamic Security Force'
p155
aS'160'
p156
aS'Others'
p157
aa(lp158
S'CJM Court'
p159
aS'388'
p160
aS'Others'
p161
aa(lp162
S'Special Investigation Team'
p163
aS'431'
p164
aS'Others'
p165
aa(lp166
S'Bhariatya Janata Party'
p167
aS'465'
p168
aS'Others'
p169
aa(lp170
S'Viswa Hindu Parishad'
p171
aS'470'
p172
aS'Others'
p173
aa(lp174
S'AASU'
p175
aS'506'
p176
aS'Others'
p177
aa(lp178
S'AASU'
p179
aS'567'
p180
aS'Others'
p181
aas.