(dp0
S'LOC'
p1
(lp2
(lp3
S'Dispur'
p4
aS'27'
p5
aS'Event'
p6
aa(lp7
S'Guwahati'
p8
aS'31'
p9
aS'Event'
p10
aa(lp11
S'Ganeshguri'
p12
aS'43'
p13
aS'Source'
p14
aasS'PER'
p15
(lp16
(lp17
S'Manmohan Singh'
p18
aS'105'
p19
aS'Comment'
p20
aasS'TIM'
p21
(lp22
S'6.50 pm .:51'
p23
asS'hot_setting'
p24
S''
p25
sS'DAT'
p26
(lp27
S'Wednesday:33'
p28
asS'death'
p29
S'1'
p30
sS'title'
p31
S'One killed in Guwahati bomb blast'
p32
sS'org_unorg'
p33
g25
sS'terror_group'
p34
(lp35
S'UNITED LIBERATION FRONT OF ASSAM (ULFA)'
p36
asS'content'
p37
VOne person was killed and 10 others critically injured in a bomb attack by suspected United Liberation Front of Assam cadres in a market near the Dispur capital complex in Guwahati on Wednesday . Police said the bomb , kept in the Ganeshguri wholesale vegetable market , exploded at around 6.50 pm . The injuredhave beenrushed to a nearby hospital . The market is located near the Indian Airlines office adjacent to a high-security complex where the offices of the chief minister and his cabinet colleagues as well as the state secretariat are located . The blast took place a day after Prime Minister Manmohan Singh sent a tough message to the ULFA that there would be no compromise if it resorted to violence . .
p38
sS'injured'
p39
S'10'
p40
sS'det_loc'
p41
(lp42
S'India'
p43
aS'Assam'
p44
aS'Kamrup Metropolitan'
p45
ag25
aS'Dispur capital complex'
p46
asS'O'
p47
(lp48
S'Dispur capital complex:27'
p49
aS'wholesale vegetable market:44'
p50
aS'near the Indian Airlines office:66'
p51
aS'high-security complex:74'
p52
aS'no compromise:118'
p53
asS'unexpl'
p54
(lp55
g25
asS'ocassion'
p56
g25
sS'link'
p57
S'http://www.rediff.com/news/2007/jan/17assam.htm'
p58
sS'date'
p59
S'17-01-2007'
p60
sS'target'
p61
g25
sS'hot_spot'
p62
g25
sS'delivery_mod'
p63
g25
sS'delivery_met'
p64
g25
sS'expl'
p65
(lp66
g25
asS'ORG'
p67
(lp68
(lp69
S'United Liberation Front of Assam'
p70
aS'16'
p71
aS'Accused'
p72
aa(lp73
S'Indian Airlines'
p74
aS'68'
p75
aS'Others'
p76
aa(lp77
S'state secretariat'
p78
aS'91'
p79
aS'Others'
p80
aa(lp81
S'ULFA'
p82
aS'113'
p83
aS'Accused'
p84
aas.