(dp0
S'LOC'
p1
(lp2
(lp3
S'Srirampur town'
p4
aS'11'
p5
aS'Neutral'
p6
aa(lp7
S'Srirampur town'
p8
aS'11'
p9
aS'Neutral'
p10
aa(lp11
S'Srirampur'
p12
aS'60'
p13
aS'Neutral'
p14
aa(lp15
S'Assam'
p16
aS'68'
p17
aS'Neutral'
p18
aa(lp19
S'India'
p20
aS'92'
p21
aS'Event'
p22
aa(lp23
S'Northeast'
p24
aS'106'
p25
aS'Event'
p26
aa(lp27
S'Western Assam'
p28
aS'116'
p29
aS'Event'
p30
aa(lp31
S'Assam'
p32
aS'117'
p33
aS'Event'
p34
aa(lp35
S'North Bengal'
p36
aS'119'
p37
aS'Event'
p38
aa(lp39
S'Raidang village'
p40
aS'153'
p41
aS'Event'
p42
aa(lp43
S'Raidang'
p44
aS'153'
p45
aS'Event'
p46
aa(lp47
S'Raidang village'
p48
aS'153'
p49
aS'Event'
p50
aa(lp51
S'Assam'
p52
aS'157'
p53
aS'Event'
p54
aa(lp55
S'Tinsukia'
p56
aS'159'
p57
aS'Accused Location'
p58
aasS'PER'
p59
(lp60
sS'TIM'
p61
(lp62
S'11.30 am : 19'
p63
asS'hot_setting'
p64
S''
p65
sS'DAT'
p66
(lp67
S'Tuesday:22'
p68
aS'January 26:138'
p69
aS'Tuesday:162'
p70
asS'death'
p71
S'1'
p72
sS'title'
p73
S'Assam: 8 injured in blast; militant killed'
p74
sS'org_unorg'
p75
S'ORGANISED'
p76
sS'terror_group'
p77
(lp78
S'UNITED LIBERATION FRONT OF ASSAM (ULFA)'
p79
asS'content'
p80
VEight persons were injured when a bomb went off at Srirampur town on the western border ofAssam at 11.30 am on Tuesday . The police later recovered another bomb from near the blast . . . The police said unidentified militants planted a bomb on a bicycle parked near Assam State Transport Department check-gate near Assam-West Bengal boundary at Srirampur . An alert has been sounded in Assam apprehending possible strikes of insurgents including the banned United Liberation Front of Asom in the run up to the 58th Republic Day of India . . . The ULFA along with three other militant groups from the Northeast including Kamatapur Liberation Organisation , which is active in Western Assam and North Bengal area have called for boycott of ` Indian Republic Day celebrations ' and a general strike on January 26 . . . Meanwhile , the army shot dead a ULFA militant at Raidang village in eastern Assam 's Tinsukia district on Tuesday and recovered some arms , ammunition and explosives from the possession of the militant , police sources informed . .
p81
sS'injured'
p82
S'8'
p83
sS'det_loc'
p84
(lp85
S'India'
p86
aS'Assam'
p87
aS'Tinsukia'
p88
aS'Guwahati'
p89
aS'Srirampur town'
p90
asS'O'
p91
(lp92
S'western border ofassam:15'
p93
aS'recovered another bomb:27'
p94
aS'unidentified militants planted a bomb:40'
p95
aS'assam-west bengal boundary:56'
p96
aS'58th republic day:88'
p97
aS'boycott of ` indian republic day celebrations:125'
p98
aS'general strike:135'
p99
aS'army shot dead:146'
p100
aS'recovered some arms:164'
p101
asS'unexpl'
p102
(lp103
g65
asS'ocassion'
p104
S'REPULBIC DAY'
p105
sS'link'
p106
S'http://www.rediff.com/news/2008/jan/22assam.htm'
p107
sS'date'
p108
S'22-01-2008'
p109
sS'target'
p110
S'TOWN'
p111
sS'hot_spot'
p112
g65
sS'delivery_mod'
p113
S'BYCICLE'
p114
sS'delivery_met'
p115
S'PLANTED'
p116
sS'expl'
p117
(lp118
g65
asS'ORG'
p119
(lp120
(lp121
S'Assam State Transport Department'
p122
aS'50'
p123
aS'Others'
p124
aa(lp125
S'United Liberation Front of Asom'
p126
aS'77'
p127
aS'Accused'
p128
aa(lp129
S'ULFA'
p130
aS'97'
p131
aS'Accused'
p132
aa(lp133
S'Kamatapur Liberation Organisation'
p134
aS'108'
p135
aS'Assoc Accused'
p136
aa(lp137
S'ULFA'
p138
aS'150'
p139
aS'Accused'
p140
aas.