(dp0
S'LOC'
p1
(lp2
(lp3
S'Agartala'
p4
aS'1'
p5
aS'Event'
p6
aa(lp7
S'Agartala'
p8
aS'10'
p9
aS'Event'
p10
aa(lp11
S'markets'
p12
aS'31'
p13
aS'Event'
p14
aa(lp15
S'bus stands'
p16
aS'33'
p17
aS'Event'
p18
aa(lp19
S'Agartala'
p20
aS'53'
p21
aS'Event'
p22
aa(lp23
S'Maharaja Ganju Bazar'
p24
aS'58'
p25
aS'Event'
p26
aa(lp27
S'Gobind Ballah Pant market'
p28
aS'62'
p29
aS'Event'
p30
aa(lp31
S'Radhanagar bus stand'
p32
aS'68'
p33
aS'Event'
p34
aa(lp35
S'Agartala Motorstand'
p36
aS'72'
p37
aS'Event'
p38
aa(lp39
S'Abhay Nagar'
p40
aS'75'
p41
aS'Event'
p42
aa(lp43
S'Radhanagar bus stand'
p44
aS'86'
p45
aS'Event'
p46
aa(lp47
S'G B Market'
p48
aS'123'
p49
aS'Event'
p50
aa(lp51
S'Agartala'
p52
aS'156'
p53
aS'Event'
p54
aa(lp55
S'Radhanagar bus stand'
p56
aS'199'
p57
aS'Event'
p58
aa(lp59
S'Tripura'
p60
aS'240'
p61
aS'Neutral'
p62
aa(lp63
S'Agartala'
p64
aS'267'
p65
aS'Event'
p66
aasS'PER'
p67
(lp68
sS'TIM'
p69
(lp70
S'October 1 : 3'
p71
aS'five minutes : 40'
p72
aS'7.30 pm : 91'
p73
aS'three minutes : 210'
p74
asS'hot_setting'
p75
S''
p76
sS'DAT'
p77
(lp78
S'evening : 43'
p79
aS'September 25 : 281'
p80
asS'death'
p81
S'2'
p82
sS'title'
p83
VTwo killed, 76 injured in serial blasts in Agartala
p84
sS'det_loc'
p85
(lp86
S'India'
p87
aS'Tripura'
p88
ag76
aS'Agartala'
p89
aS'Agartala'
p90
asS'terror_group'
p91
(lp92
S'HUJI'
p93
asS'content'
p94
VAgartala , October 1 ( PTI ) Terrorists struck Agartala for the first time as two persons were killed and 76 injured in a string of five blasts at crowded markets and bus stands in a span of approximately five minutes this evening . . . The low-intensity blasts took place at Agartala 's main shopping area Maharaja Ganju Bazar , Gobind Ballah Pant market , busy Radhanagar bus stand , Agartala Motorstand and Abhay Nagar localities . . . The first blast occured at Radhanagar bus stand at around 7.30 pm and it was followed by the explosions in the other places in quick succession , police sources said . . . An unidentified man was killed in the blast at G B Market while another person succumbed to injuries . . . The condition of five of the injured was stated to be critical . . . Panic gripped the entire capital of Agartala and people ran helter and skelter soon after the blasts . . . Bomb squads and forensic experts examined the blast sites . . . Police sources , quoting eyewitnesses , said two persons riding a motorcycle were seen moving suspiciously at Radhanagar bus stand and the blast took place there two to three minutes after they left the area . . . Police sources suspect the involvement of Bangladesh-based terror group Hizbul Mujaheedin Islamia ( HuJI ) which has of late used Tripura as a transit route as the state shares a pourous 856-km border with the neighbouring country . . . Three suspected HuJI members were arrested in Agartala in the last two months . . . Central intelligence agencies had on September 25 warned the northeastern states of an impending terror attack and BSF officials here confirmed having received the input . . . .
p95
sS'injured'
p96
S'76'
p97
sS'org_unorg'
p98
S'ORGANISED'
p99
sS'O'
p100
(lp101
S'low-intensity:48'
p102
aS'Police:220'
p103
asS'unexpl'
p104
(lp105
g76
asS'ocassion'
p106
g76
sS'link'
p107
S'http://www.outlookindia.com/newswire/story/two-killed-76-injured-in-serial-blasts-in-agartala/615156'
p108
sS'date'
p109
S'01-10-2008'
p110
sS'target'
p111
g76
sS'hot_spot'
p112
S'Agartala'
p113
sS'delivery_mod'
p114
g76
sS'delivery_met'
p115
S'PLANTED'
p116
sS'expl'
p117
(lp118
g76
asS'ORG'
p119
(lp120
(lp121
S'PTI'
p122
aS'6'
p123
aS'Others'
p124
aa(lp125
S'Bomb squads'
p126
aS'170'
p127
aS'Others'
p128
aa(lp129
S'forensic'
p130
aS'173'
p131
aS'Others'
p132
aa(lp133
S'Hizbul Mujaheedin Islamia'
p134
aS'229'
p135
aS'Accused'
p136
aa(lp137
S'HuJI'
p138
aS'233'
p139
aS'Accused'
p140
aa(lp141
S'HuJI'
p142
aS'262'
p143
aS'Accused'
p144
aa(lp145
S'Central intelligence agencies'
p146
aS'276'
p147
aS'Others'
p148
aa(lp149
S'BSF'
p150
aS'293'
p151
aS'Others'
p152
aas.