(dp0
S'LOC'
p1
(lp2
(lp3
S'Assams'
p4
aS'25'
p5
aS'Event'
p6
aa(lp7
S'Bongaigaon'
p8
aS'26'
p9
aS'Event'
p10
aa(lp11
S'Guwahati'
p12
aS'33'
p13
aS'Event'
p14
aa(lp15
S'Assam'
p16
aS'62'
p17
aS'Event'
p18
aa(lp19
S'Bongaigaon'
p20
aS'64'
p21
aS'Event'
p22
aa(lp23
S'Paglathan Bazar'
p24
aS'100'
p25
aS'Event'
p26
aa(lp27
S'Jorhat'
p28
aS'146'
p29
aS'Neutral'
p30
aa(lp31
S'Guwahati'
p32
aS'155'
p33
aS'Neutral'
p34
aa(lp35
S'Assam'
p36
aS'191'
p37
aS'Neutral'
p38
aasS'PER'
p39
(lp40
sS'TIM'
p41
(lp42
S'morning : 29'
p43
aS'morning : 67'
p44
aS'day : 193'
p45
asS'hot_setting'
p46
S''
p47
sS'DAT'
p48
(lp49
S'May 21 : 35'
p50
aS'Yesterday : 124'
p51
aS'May 18 : 151'
p52
aS'May 14 : 171'
p53
asS'death'
p54
g47
sS'title'
p55
S'ULFA blast wounds 13'
p56
sS'det_loc'
p57
(lp58
S'India'
p59
aS'Assam'
p60
aS'Bongaigaon'
p61
aS'Guwahati'
p62
ag47
asS'terror_group'
p63
(lp64
S'UNITED LIBERATION FRONT OF ASSAM (ULFA)'
p65
asS'content'
p66
VAt least 13 people were injured in a bomb blast triggered off by the United Liberation Front of Asom ( ULFA ) in Lower Assams Bongaigaon district this morning . . . Guwahati , May 21 : At least 13 people were injured in a bomb blast triggered off by the United Liberation Front of Asom ( ULFA ) in Lower Assam 's Bongaigaon district this morning . . . The injured have been admitted to a nearby hospital . According to preliminary reports , the Programmable Time Device ( PTD ) was kept in a bicycle in the Paglathan Bazar , police said . . . Assam Police have cordoned off the area and are investigating into the matter . . . Yesterday , a terror attack was averted when police recovered a one kilogram RDX ( Research and Development Explosive ) bomb in Jorhat . . . On May 18 , in Guwahati , five persons were injured in a ULFA bomb blast . . . Earlier on May 14 , two persons were killed and eight injured by a bomb blast that followed ethnic clashes in eastern Assam the day before . . . addthis_url = location.href ; addthis_title = document.title ; addthis_pub = ` vijaytech ' ; . . a36 ( ) ; . . .
p67
sS'injured'
p68
S'13'
p69
sS'org_unorg'
p70
g47
sS'O'
p71
(lp72
S'injured:6'
p73
aS'bomb blast:9'
p74
aS'bomb blast:46'
p75
aS'injured:72'
p76
aS'Programmable Time Device:87'
p77
aS'PTD:91'
p78
aS'bicycle:97'
p79
aS'terror attack:127'
p80
aS'RDX:137'
p81
aS'Research and Development Explosive:139'
p82
aS'injured:160'
p83
aS'bomb blast:164'
p84
aS'killed:177'
p85
aS'injured:180'
p86
aS'bomb blast:183'
p87
aS'ethnic clashes:187'
p88
asS'unexpl'
p89
(lp90
g47
asS'ocassion'
p91
g47
sS'link'
p92
S'http://www.andhranews.net/India/2007/May/21-ULFA-blast-wounds-2024.asp'
p93
sS'date'
p94
S'21-05-2007'
p95
sS'target'
p96
S'MARKET PLACE'
p97
sS'hot_spot'
p98
g47
sS'delivery_mod'
p99
g47
sS'delivery_met'
p100
S'PLANTED'
p101
sS'expl'
p102
(lp103
g47
asS'ORG'
p104
(lp105
(lp106
S'United Liberation Front of Asom'
p107
aS'15'
p108
aS'Accused'
p109
aa(lp110
S'ULFA'
p111
aS'21'
p112
aS'Accused'
p113
aa(lp114
S'United Liberation Front of Asom'
p115
aS'52'
p116
aS'Accused'
p117
aa(lp118
S'ULFA'
p119
aS'58'
p120
aS'Accused'
p121
aa(lp122
S'Assam Police'
p123
aS'108'
p124
aS'Others'
p125
aa(lp126
S'ULFA'
p127
aS'163'
p128
aS'Accused'
p129
aas.