(dp0
S'LOC'
p1
(lp2
(lp3
S'New Delhi'
p4
aS'1'
p5
aS'Neutral'
p6
aa(lp7
S'NEW DELHI'
p8
aS'11'
p9
aS'Neutral'
p10
aa(lp11
S'West Delhi'
p12
aS'31'
p13
aS'Event'
p14
aa(lp15
S'Satyam'
p16
aS'142'
p17
aS'Event'
p18
aa(lp19
S'Patel Nagar'
p20
aS'144'
p21
aS'Neutral'
p22
aa(lp23
S'Liberty'
p24
aS'147'
p25
aS'Event'
p26
aa(lp27
S'Karol Bagh'
p28
aS'149'
p29
aS'Neutral'
p30
aa(lp31
S'Delhi'
p32
aS'280'
p33
aS'Neutral'
p34
aa(lp35
S'Ranthambore'
p36
aS'332'
p37
aS'Neutral'
p38
aasS'PER'
p39
(lp40
(lp41
S'K K Paul'
p42
aS'73'
p43
aS'Others'
p44
aa(lp45
S'Manmohan Singh'
p46
aS'266'
p47
aS'Others'
p48
aa(lp49
S'Sanjaya Baru'
p50
aS'303'
p51
aS'Comment'
p52
aa(lp53
S'Singh'
p54
aS'310'
p55
aS'Others'
p56
aa(lp57
S'Baru'
p58
aS'337'
p59
aS'Comment'
p60
aa(lp61
S'Sonia'
p62
aS'342'
p63
aS'Comment'
p64
aa(lp65
S'Sonia Gandhi'
p66
aS'360'
p67
aS'Comment'
p68
aa(lp69
S'Sheila Dikshit'
p70
aS'367'
p71
aS'Others'
p72
aa(lp73
S'Dikshit'
p74
aS'368'
p75
aS'Others'
p76
aa(lp77
S'B L Joshi'
p78
aS'374'
p79
aS'Others'
p80
aa(lp81
S'Tom Vaddakkan'
p82
aS'412'
p83
aS'Comment'
p84
aasS'TIM'
p85
(lp86
S'morning : 328'
p87
asS'hot_setting'
p88
S''
p89
sS'DAT'
p90
(lp91
S'Sunday:270'
p92
asS'death'
p93
g5
sS'title'
p94
S'Inquiry handed over to Special Branch'
p95
sS'org_unorg'
p96
S'ORGANISED'
p97
sS'terror_group'
p98
(lp99
g89
asS'content'
p100
VNew Delhi Inquiry handed over to Special Branch . . NEW DELHI : A high-level inquiry has been ordered into the two powerful blasts that rocked two cinema halls in West Delhi , killing one person and injuring over 50 people . . . The investigation of the case has been handed over to the Special Cell of the Delhi police . . . After the blasts , Delhi Police Commissioner , K K Paul , who visited the sites , held a meeting at the Police Headquarters , where it was decided to hand over the case to the Special Cell , trained to deal with terrorist activities . Meanwhile , a bomb disposal squad , the elite National Security Guards and forensic teams reached both the cinema halls to collect clues . . . Both the cinema halls - Satyam in Patel Nagar and Liberty in Karol Bagh - were screening ` Jo Bole So Nihal , ' a film that provoked protests from a section of Sikhs . . . However , the police , not immediately relating the blasts to the film , said they were the `` handiwork of an organised group . '' It has not identified any definite group as responsible for the incident . . . According to eyewitnesses , the blasts were of a very high intensity but the explosive devices had no splinter elements . They caused considerable damage to the two cinema halls , which are situated quite close to each other . . . PM condemns blasts . . The Prime Minister , Manmohan Singh , on Sunday night condemned the blasts and asked the people of Delhi to remain calm . He has assured all steps to ensure peace and security in the national Capital , his media advisor Sanjaya Baru said . . . Dr. Singh will be visiting the hospitals , where those injured in the explosions were admitted , early tomorrow morning before travelling to Ranthambore tiger reserve , Mr. Baru said . . . Sonia expresses concern . . Expressing concern over the explosion in cinema theatres , the Congress president , Sonia Gandhi asked the Chief Minister , Sheila Dikshit , and Lt. Governor , B L Joshi , to take all measures to maintain law and order and provide relief to the injured . She said immediate steps should be taken to provide the injured relief , AICC Secretary , Media , Tom Vaddakkan said . - UNI & PTI .
p101
sS'injured'
p102
S'50'
p103
sS'det_loc'
p104
(lp105
S'India'
p106
aS'Delhi'
p107
aS'New Delhi'
p108
aS'Delhi'
p109
aS'cinema halls'
p110
asS'O'
p111
(lp112
S'police headquarters:87'
p113
aS'jo bole so nihal:155'
p114
aS'police:177'
p115
aS'pm:257'
p116
aS'chief minister:364'
p117
aS'lt. governor:371'
p118
asS'unexpl'
p119
(lp120
g89
asS'ocassion'
p121
g89
sS'link'
p122
S'http://www.thehindu.com/2005/05/23/stories/2005052314940300.htm'
p123
sS'date'
p124
S'23-05-2005'
p125
sS'target'
p126
S'CINEMA HALL'
p127
sS'hot_spot'
p128
S'cinema halls'
p129
sS'delivery_mod'
p130
g89
sS'delivery_met'
p131
S'PLANTED'
p132
sS'expl'
p133
(lp134
g89
asS'ORG'
p135
(lp136
(lp137
S'Delhi police'
p138
aS'60'
p139
aS'Others'
p140
aa(lp141
S'Delhi Police'
p142
aS'69'
p143
aS'Others'
p144
aa(lp145
S'National Security Guards'
p146
aS'120'
p147
aS'Others'
p148
aa(lp149
S'Congress'
p150
aS'357'
p151
aS'Others'
p152
aa(lp153
S'AICC'
p154
aS'407'
p155
aS'Others'
p156
aa(lp157
S'UNI'
p158
aS'417'
p159
aS'Others'
p160
aa(lp161
S'PTI'
p162
aS'419'
p163
aS'Others'
p164
aas.