(dp0
S'LOC'
p1
(lp2
(lp3
S'Malegaon'
p4
aS'127'
p5
aS'Event'
p6
aa(lp7
S'Malegaon:138'
p8
aS'Event'
p9
aS'Event'
p10
aa(lp11
S'Maharashtra'
p12
aS'22'
p13
aS'Neutral'
p14
aa(lp15
S'Mumbai'
p16
aS'43'
p17
aS'Assoc Event Location'
p18
aa(lp19
S'Mumbai'
p20
aS'69'
p21
aS'Assoc Event Location'
p22
aa(lp23
S'Malegaon'
p24
aS'71'
p25
aS'Event'
p26
aa(lp27
S'Malegaon'
p28
aS'88'
p29
aS'Event'
p30
aa(lp31
S'Malegaon'
p32
aS'138'
p33
aS'Event'
p34
aa(lp35
S'Chandigarh'
p36
aS'179'
p37
aS'Neutral'
p38
aa(lp39
S'Hyderabad'
p40
aS'181'
p41
aS'Neutral'
p42
aa(lp43
S'Malegaon'
p44
aS'203'
p45
aS'Event'
p46
aa(lp47
S'Parbani'
p48
aS'241'
p49
aS'Assoc Event Location'
p50
aa(lp51
S'Malegaon'
p52
aS'252'
p53
aS'Event'
p54
aa(lp55
S'north Maharashtra'
p56
aS'296'
p57
aS'Neutral'
p58
aa(lp59
S'Malegaon'
p60
aS'333'
p61
aS'Neutral'
p62
aa(lp63
S'Ahmednagar'
p64
aS'344'
p65
aS'Neutral'
p66
aa(lp67
S'Aurangabad'
p68
aS'346'
p69
aS'Assoc Event Location'
p70
aa(lp71
S'Nanded'
p72
aS'348'
p73
aS'Assoc Event Location'
p74
aa(lp75
S'Maharashtra'
p76
aS'362'
p77
aS'Neutral'
p78
aa(lp79
S'Nasik'
p80
aS'385'
p81
aS'Neutral'
p82
aasS'PER'
p83
(lp84
(lp85
S'P S Pasricha'
p86
aS'77'
p87
aS'Comment'
p88
aa(lp89
S'P K Jain'
p90
aS'378'
p91
aS'Comment'
p92
aasS'TIM'
p93
(lp94
sS'hot_setting'
p95
S''
p96
sS'DAT'
p97
(lp98
S'Monday : 28'
p99
aS'Sunday.The : 165'
p100
aS'May:287'
p101
aS'May : 303'
p102
aS'Monday : 307'
p103
asS'death'
p104
g96
sS'title'
p105
S'Malegaon, 7/11: Same Lethal cocktail used'
p106
sS'det_loc'
p107
(lp108
S'India'
p109
aS'Maharashtra'
p110
aS'Nashik'
p111
aS'Malegaon'
p112
ag96
asS'terror_group'
p113
(lp114
S'ISLAMIC TERRORIST OUTFITS'
p115
asS'content'
p116
VMUMBAI/MALEGAON : In the first indication that the deadly blasts in Malegaon could have links with the 7/11 terror attacks , Maharashtra 's top police officer on Monday claimed there were vital leads in the powerloom town that could help crack the Mumbai train serial blasts . ` From the modus operandi , it is assumed that the same set of militants have carried out the blasts in Mumbai and Malegaon , ' director-general of police P S Pasricha said.At least two people from a village near Malegaon , who had given the perpetrators logistical support have been identified and will be picked up soon , a top police officer said . They were identified from sketches of the two men who bought cycles from a Malegaon shop three hours before the blasts.Police said explosives used in Malegaon were a cocktail of RDX , ammonium nitrate and fuel oil the same mixture used in 7/11 . TOI was the first to report this on Sunday.The Anti-Terrorist Squad has sent samples of the lethal cocktail to forensic labs at Chandigarh and Hyderabad as well as a military forensic lab.The ATS has prima facie ruled out the involvement of Hindu fundamentalist groups in the Malegaon blasts citing two reasons . To begin with , RDX is only available to Islamic terrorist outfits . Secondly , Bajrang Dal activists so far have used only crude bombs , as seen in the blasts at Parbani and Nanded.The use of RDX confirmed the worst fears of Malegaon , which has been in the news for all the wrong reasons . Police had seized a major haul of RDX and other arms and ammunition including AK-47 rifles after a search operation on May 12 . Tension has been simmering in the north Maharashtra town since the seizure in May . Investigators on Monday also released a third sketch , which is the artist 's image of the second accused based on descriptions provided by various witnesses.Police sources at Malegaon said four teams of five men each were sent to Ahmednagar , Aurangabad and Nanded in connection with the case . ` We have sent our teams within Maharashtra but do n't want to reveal much since it could hamper our investigation , ' P K Jain , inspector general -LRB- Nasik range -RRB- told TOI .
p117
sS'injured'
p118
g96
sS'org_unorg'
p119
g96
sS'O'
p120
(lp121
S'terror:19'
p122
aS'police officer:25'
p123
aS'powerloom town:36'
p124
aS'modus operandi:51'
p125
aS'director-general:74'
p126
aS'cycles:124'
p127
aS'rdx:143'
p128
aS'ammonium nitrate:145'
p129
aS'fuel oil:148'
p130
aS'7/11:155'
p131
aS'prima facie:191'
p132
aS'hindu:198'
p133
aS'Malegaon blasts:203'
p134
aS'RDX:213'
p135
aS'crude bombs:232'
p136
aS'rdx:246'
p137
aS'news:259'
p138
aS'RDX:273'
p139
aS'ammunition:278'
p140
aS'ak-47 rifles:280'
p141
aS'tension:290'
p142
aS'seizure:301'
p143
aS'sketch:312'
p144
aS'investigation:375'
p145
aS'inspector general:382'
p146
asS'unexpl'
p147
(lp148
g96
asS'ocassion'
p149
g96
sS'link'
p150
S'http://timesofindia.indiatimes.com/india/Malegaon-7/11-Same-Lethal-cocktail-used/articleshow/1980270.cms?referral=PM'
p151
sS'date'
p152
S'08-09-2006'
p153
sS'target'
p154
S'TOWN'
p155
sS'hot_spot'
p156
g96
sS'delivery_mod'
p157
S'BYCICLE'
p158
sS'delivery_met'
p159
S'PLACED'
p160
sS'expl'
p161
(lp162
S'RDX'
p163
aS'AMMONIUM NITRATE'
p164
aS'FUEL OIL'
p165
asS'ORG'
p166
(lp167
(lp168
S'TOI'
p169
aS'157'
p170
aS'Others'
p171
aa(lp172
S'Anti-Terrorist Squad'
p173
aS'166'
p174
aS'Others'
p175
aa(lp176
S'ATS'
p177
aS'189'
p178
aS'Others'
p179
aa(lp180
S'Islamic terrorist outfits'
p181
aS'218'
p182
aS'Assoc Accused'
p183
aa(lp184
S'Bajrang Dal'
p185
aS'224'
p186
aS'Others'
p187
aas.