(dp0
S'LOC'
p1
(lp2
(lp3
S'NEW DELHI'
p4
aS'6'
p5
aS'Neutral'
p6
aa(lp7
S'Jaipur'
p8
aS'22'
p9
aS'Event'
p10
aa(lp11
S'Sahibabad'
p12
aS'33'
p13
aS'Event'
p14
aa(lp15
S'Ghaziabad'
p16
aS'35'
p17
aS'Neutral'
p18
aa(lp19
S'Uttar Pradesh'
p20
aS'74'
p21
aS'Neutral'
p22
aa(lp23
S'Kotwali Police Station'
p24
aS'171'
p25
aS'Event'
p26
aasS'PER'
p27
(lp28
(lp29
S'Devesh K. Pandey'
p30
aS'1'
p31
aS'Others'
p32
aa(lp33
S'Madhukar Mishra'
p34
aS'86'
p35
aS'Comment'
p36
aasS'TIM'
p37
(lp38
S'night : 79'
p39
asS'hot_setting'
p40
S''
p41
sS'DAT'
p42
(lp43
S'Wednesday:16'
p44
aS'Wednesday:78'
p45
asS'death'
p46
g41
sS'title'
p47
S'E-mail sent from Ghaziabad'
p48
sS'org_unorg'
p49
S'ORGANISED'
p50
sS'terror_group'
p51
(lp52
S'INDIAN MUJAHIDEEN'
p53
asS'content'
p54
VDevesh K. Pandey . . NEW DELHI : An e-mail sent to the media on Wednesday , claiming responsibility for the Jaipur blasts , has been traced to a cyber cafe at Sahibabad in Ghaziabad . The mail sender has threatened to carry out more such strikes in different parts of the country . . . The cafe owner and an employee were picked up for questioning by the Anti-Terrorist Squad of the Uttar Pradesh police on Wednesday night . During questioning , cafe owner Madhukar Mishra said the e-mail sender brought a compact disc along with him . He , however , could not give details about that persons identity . . . The police seized the computers hard disk . . . The mail , sent through the ID guru_alhindi_jaipur . . @yahoo . co.uk by an outfit identifying itself as Indian Mujahideen , had a video attachment . It showed a bag , purportedly containing a bomb , kept on the carrier of a cycle near the Kotwali Police Station .
p55
sS'injured'
p56
g41
sS'det_loc'
p57
(lp58
S'India'
p59
aS'Rajasthan'
p60
aS'Jaipur'
p61
aS'Jaipur'
p62
aS'Jaipur'
p63
asS'O'
p64
(lp65
S'police:116'
p66
aS'ID guru_alhindi_jaipur . . @yahoo . co.uk:131'
p67
asS'unexpl'
p68
(lp69
g41
asS'ocassion'
p70
g41
sS'link'
p71
S'http://www.thehindu.com/todays-paper/email-sent-from-ghaziabad/article1259264.ece'
p72
sS'date'
p73
S'14-05-2008'
p74
sS'target'
p75
g41
sS'hot_spot'
p76
S'Jaipur'
p77
sS'delivery_mod'
p78
S'BICYCLE'
p79
sS'delivery_met'
p80
S'PLANTED'
p81
sS'expl'
p82
(lp83
g41
asS'ORG'
p84
(lp85
(lp86
S'e-mail'
p87
aS'10'
p88
aS'Others'
p89
aa(lp90
S'Anti-Terrorist Squad'
p91
aS'70'
p92
aS'Others'
p93
aa(lp94
S'e-mail'
p95
aS'90'
p96
aS'Others'
p97
aa(lp98
S'Indian Mujahideen'
p99
aS'144'
p100
aS'Others'
p101
aas.