(dp0
S'LOC'
p1
(lp2
(lp3
S'Mumbai'
p4
aS'9'
p5
aS'Event'
p6
aa(lp7
S'Ayodhya'
p8
aS'40'
p9
aS'Event'
p10
aa(lp11
S'Kashmir'
p12
aS'53'
p13
aS'Event'
p14
aa(lp15
S'Mumbai'
p16
aS'57'
p17
aS'Assoc Event Location'
p18
aa(lp19
S'Kashmir'
p20
aS'78'
p21
aS'Event'
p22
aa(lp23
S'Mumbai'
p24
aS'82'
p25
aS'Assoc Event Location'
p26
aa(lp27
S'Mumbai --'
p28
aS'131'
p29
aS'Assoc Event Location'
p30
aa(lp31
S'Mumbai'
p32
aS'131'
p33
aS'Neutral'
p34
aa(lp35
S'Pakistan-based'
p36
aS'135'
p37
aS'Accused Location'
p38
aa(lp39
S'Mumbai'
p40
aS'145'
p41
aS'Neutral'
p42
aasS'PER'
p43
(lp44
(lp45
S'B Raman'
p46
aS'74'
p47
aS'Comment'
p48
aa(lp49
S'Raman'
p50
aS'95'
p51
aS'Comment'
p52
aa(lp53
S'Dawood Ibrahim'
p54
aS'118'
p55
aS'Assoc Accused'
p56
aasS'TIM'
p57
(lp58
sS'hot_setting'
p59
S''
p60
sS'DAT'
p61
(lp62
S'Tuesday:11'
p63
aS'March:125'
p64
aS'1993:128'
p65
aS'1993:155'
p66
asS'death'
p67
g60
sS'title'
p68
S'Blasts aimed at disrupting communal harmony: Intelligence Bureau'
p69
sS'org_unorg'
p70
S'ORGANISED'
p71
sS'terror_group'
p72
(lp73
S'LASHKAR-E-TAIBA'
p74
aS'AL-QAEDA'
p75
asS'content'
p76
VIntelligence Bureau sources say the massive attack on Mumbai on Tuesday -- seven serial blasts on local trains when traffic was at its peak -- was to disturb communal harmony , just like last year 's attack at the Ayodhya shrine was . . . One top source said the blasts in Kashmir and those in Mumbai certainly seem corelated , though all possible angles were being probed . . . Terrorism expert B Raman said the Kashmir blasts and the Mumbai blasts seem orchestrated by the same command and control . . . Raman believes there is a strong possibility of Al Qaeda being behind the blasts and they could have been executed by fugitive gangster Dawood Ibrahim -- who was behind the March 12 , 1993 blasts in Mumbai -- or the Pakistan-based terrorist group Lashkar-e - Tayiba . . . A Mumbai special court is likely to deliver judgment on the 1993 blasts soon . .
p77
sS'injured'
p78
g60
sS'det_loc'
p79
(lp80
S'India'
p81
aS'Maharashtra'
p82
aS'Mumbai-City'
p83
ag60
ag60
asS'O'
p84
(lp85
S'communal harmony:29'
p86
aS'harmony:30'
p87
aS'shrine:41'
p88
aS'probed:68'
p89
aS'Terrorism:72'
p90
aS'orchestrated:85'
p91
aS'fugitive:116'
p92
asS'unexpl'
p93
(lp94
g60
asS'ocassion'
p95
g60
sS'link'
p96
S'http://www.rediff.com/news/2006/jul/11sheela.htm'
p97
sS'date'
p98
S'11-07-2006'
p99
sS'target'
p100
S'RAILWAY STATION'
p101
sS'hot_spot'
p102
g60
sS'delivery_mod'
p103
g60
sS'delivery_met'
p104
S'PLANTED'
p105
sS'expl'
p106
(lp107
S'BOMB'
p108
asS'ORG'
p109
(lp110
(lp111
S'Intelligence Bureau'
p112
aS'1'
p113
aS'Others'
p114
aa(lp115
S'Al Qaeda'
p116
aS'103'
p117
aS'Accused'
p118
aa(lp119
S'Lashkar-e - Tayiba'
p120
aS'138'
p121
aS'Accused'
p122
aas.