(dp0
S'LOC'
p1
(lp2
(lp3
S'Bardhaman'
p4
aS'17'
p5
aS'Event'
p6
aa(lp7
S'West Bengal'
p8
aS'20'
p9
aS'Neutral'
p10
aa(lp11
S'Kolkata'
p12
aS'63'
p13
aS'Neutral'
p14
aa(lp15
S'Barpeta'
p16
aS'102'
p17
aS'Neutral'
p18
aa(lp19
S'Assam'
p20
aS'104'
p21
aS'Neutral'
p22
aa(lp23
S'Bangladesh'
p24
aS'130'
p25
aS'Neutral'
p26
aasS'PER'
p27
(lp28
sS'TIM'
p29
(lp30
sS'hot_setting'
p31
S''
p32
sS'DAT'
p33
(lp34
S'Friday:12'
p35
aS'October 2:43'
p36
aS'Friday:226'
p37
asS'death'
p38
g32
sS'title'
p39
S'NIA files case in Bardhaman blast'
p40
sS'org_unorg'
p41
S'ORGANISED'
p42
sS'terror_group'
p43
(lp44
S'JAMAATUL MUJAHIDEEN BANGLADESH (JMB)'
p45
asS'content'
p46
VThe National Investigation Agency -LRB- NIA -RRB- registered a case on Friday in connection with the Bardhaman blast in West Bengal and sent a team for examining the crime scene . . . The NIA says the two persons killed in the October 2 explosion are believed to be Jamaat-ul-Mujahideen Bangladesh members . While the case will be investigated by the agencys Kolkata branch , two senior officials have been sent for supervision . . . Ten persons , two of them women , have been held in connection with the blast . Six of the suspects were tracked down to Barpeta in Assam . The NIA will take the suspects into custody for questioning . . . There is evidence to suggest that those involved had links in Bangladesh . If necessary , we will also contact Bangladeshi authorities seeking cooperation in the probe . The material evidence will be sent for forensic examination and analysis . The case papers are being handed over to us , an official said . . . The NIA team will examine the data in the mobile phones seized from the suspects . The call records will be retrieved to ascertain if they had links in other States . . . It is learnt that the West Bengal Police collected more physical evidence from the blast site on Friday .
p47
sS'injured'
p48
g32
sS'det_loc'
p49
(lp50
S'India'
p51
aS'West Bengal'
p52
aS'Bardhaman'
p53
aS'Bardhaman'
p54
aS'Bardhaman'
p55
asS'O'
p56
(lp57
g32
asS'unexpl'
p58
(lp59
g32
asS'ocassion'
p60
g32
sS'link'
p61
S'http://www.thehindu.com/todays-paper/tp-national/tp-otherstates/nia-files-case-in-bardhaman-blast/article6490865.ece'
p62
sS'date'
p63
S'02-10-2014'
p64
sS'target'
p65
g32
sS'hot_spot'
p66
S'Bardhaman'
p67
sS'delivery_mod'
p68
g32
sS'delivery_met'
p69
S'PLANTED'
p70
sS'expl'
p71
(lp72
g32
asS'ORG'
p73
(lp74
(lp75
S'National Investigation Agency'
p76
aS'2'
p77
aS'Others'
p78
aa(lp79
S'NIA'
p80
aS'6'
p81
aS'Others'
p82
aa(lp83
S'NIA'
p84
aS'35'
p85
aS'Others'
p86
aa(lp87
S'Jamaat-ul-Mujahideen Bangladesh'
p88
aS'50'
p89
aS'Accused'
p90
aa(lp91
S'NIA'
p92
aS'107'
p93
aS'Others'
p94
aa(lp95
S'Bangladeshi authorities'
p96
aS'139'
p97
aS'Others'
p98
aa(lp99
S'NIA'
p100
aS'176'
p101
aS'Others'
p102
aa(lp103
S'West Bengal Police'
p104
aS'214'
p105
aS'Others'
p106
aas.