(dp0
S'LOC'
p1
(lp2
(lp3
S'Guwahati'
p4
aS'5'
p5
aS'Neutral'
p6
aa(lp7
S'Bangladesh'
p8
aS'35'
p9
aS'Neutral'
p10
aa(lp11
S'Bangladesh'
p12
aS'114'
p13
aS'Neutral'
p14
aa(lp15
S'Dawki'
p16
aS'124'
p17
aS'Event'
p18
aa(lp19
S'Assam'
p20
aS'132'
p21
aS'Event'
p22
aa(lp23
S'Assam'
p24
aS'156'
p25
aS'Event'
p26
aa(lp27
S'Guwahati'
p28
aS'233'
p29
aS'Neutral'
p30
aa(lp31
S'Barpeta Road'
p32
aS'235'
p33
aS'Neutral'
p34
aa(lp35
S'Bongaigaon'
p36
aS'238'
p37
aS'Neutral'
p38
aa(lp39
S'Kokrajhar'
p40
aS'240'
p41
aS'Neutral'
p42
aa(lp43
S'India'
p44
aS'395'
p45
aS'Neutral'
p46
aa(lp47
S'Bangladesh'
p48
aS'447'
p49
aS'Neutral'
p50
aasS'PER'
p51
(lp52
(lp53
S'Sushanta Talukdar'
p54
aS'1'
p55
aS'Others'
p56
aa(lp57
S'Ransaigra Nabla Daimary'
p58
aS'20'
p59
aS'Accused'
p60
aa(lp61
S'D.R. Nabla'
p62
aS'25'
p63
aS'Accused'
p64
aa(lp65
S'Ranjan Daimary'
p66
aS'28'
p67
aS'Accused'
p68
aa(lp69
S'Subhash Ch . Das'
p70
aS'89'
p71
aS'Others'
p72
aa(lp73
S'Daimary'
p74
aS'107'
p75
aS'Accused'
p76
aa(lp77
S'Daimary'
p78
aS'219'
p79
aS'Accused'
p80
aa(lp81
S'Daimary'
p82
aS'249'
p83
aS'Others'
p84
aa(lp85
S'B. Sungthagra'
p86
aS'298'
p87
aS'Others'
p88
aa(lp89
S'Dhiren'
p90
aS'302'
p91
aS'Others'
p92
aa(lp93
S'Dhiren Boro'
p94
aS'302'
p95
aS'Accused'
p96
aa(lp97
S'Daimary'
p98
aS'314'
p99
aS'Accused'
p100
aa(lp101
S'Daimary'
p102
aS'332'
p103
aS'Accused'
p104
aa(lp105
S'Sungthagra'
p106
aS'357'
p107
aS'Others'
p108
aa(lp109
S'Ranjan Daimary'
p110
aS'372'
p111
aS'Others'
p112
aa(lp113
S'Daimary'
p114
aS'378'
p115
aS'Accused'
p116
aasS'TIM'
p117
(lp118
S'night : 47'
p119
asS'hot_setting'
p120
S''
p121
sS'DAT'
p122
(lp123
S'Friday:46'
p124
aS'Saturday:72'
p125
aS'Sunday:84'
p126
aS'October:149'
p127
aS'October 30:149'
p128
aS'2008:152'
p129
aS'May 25 , 2009 : 203'
p130
aS'October 3 , 1986 : 260'
p131
aS'1993:280'
p132
aS'December 15 , 2008 : 291'
p133
aS'January 1 , 2009 : 325'
p134
aS'October 30 , 2008 : 339'
p135
aS'October 8 , 2004 : 397'
p136
aS'May 25 , 2005 : 427'
p137
asS'death'
p138
S'88'
p139
sS'title'
p140
S'Daimary held, handed over to BSF'
p141
sS'det_loc'
p142
(lp143
S'India'
p144
aS'Assam'
p145
ag121
aS'Guwahati'
p146
aS'Assam'
p147
asS'terror_group'
p148
(lp149
S'NATIONAL DEMOCRATIC FRONT OF BODOLAND (NDFB)'
p150
asS'content'
p151
VSushanta Talukdar . . Guwahati : The founder-chief of the militant outfit , National Democratic Front of Boroland , Ransaigra Nabla Daimary -LRB- alias D.R. Nabla or Ranjan Daimary -RRB- , was held in Bangladesh and handed over to the Border Security Force late on Friday night . . . BSF authorities , in turn , handed him over to the Assam police and he was brought to the city on Saturday . He is likely to be produced in court here on Sunday . When contacted , Subhash Ch . Das , Principal Secretary , Home , did not divulge where and under what circumstances Daimary was arrested and details of the Bangladesh Rifles handing him over to the BSF in the Dawki sector of the border . . . Assam blasts . . The 51-year-old insurgent leader was wanted in a number of cases including the October 30 , 2008 serial blasts in Assam in which 88 persons were killed , at least 540 were injured and public property worth Rs .2.99 crore was damaged . Interpol also issued a Red Corner notice against him . . . The Central Bureau of Investigation , in its charge sheet filed on May 25 , 2009 in connection with the serial blasts , named 19 persons , including Daimary , accused . Its investigation revealed that the nine serial bomb blasts in Guwahati , Barpeta Road , Bongaigaon and Kokrajhar were triggered by the NDFB . . . Daimary had been president of the NDFB since its inception on October 3 , 1986 . The outfit was originally known as the Boro Security Force and re-christened the NDFB in 1993 . . . However , the NDFB general assembly on December 15 , 2008 replaced him by B. Sungthagra -LRB- alias Dhiren Boro -RRB- . But , 12 days after his removal , Daimary claimed that he was still president . . . On January 1 , 2009 the NDFB expelled Daimary for his alleged involvement in the October 30 , 2008 blasts . This split the outfit into two , with one faction led by Sungthagra known as the NDFB -LRB- ceasefire -RRB- and the other as the NDFB -LRB- Ranjan Daimary -RRB- . . . Daimary earlier initiated the NDFB 's peace process , declaring a unilateral ceasefire with the government of India on October 8 , 2004 , for six months and it was extended for another 3 months . He signed a bilateral agreement on Suspension of Operation with the Centre on May 25 , 2005 . . . However , he later went underground and operated out of his bases in Bangladesh along with armed cadres of the third battalion of the outfit .
p152
sS'injured'
p153
S'540'
p154
sS'org_unorg'
p155
S'ORGANISED'
p156
sS'O'
p157
(lp158
S'border security force:41'
p159
aS'bsf:51'
p160
aS'principal secretary , home:94'
p161
aS'government:393'
p162
asS'unexpl'
p163
(lp164
g121
asS'ocassion'
p165
g121
sS'link'
p166
S'http://www.thehindu.com/todays-paper/daimary-held-handed-over-to-bsf/article760088.ece'
p167
sS'date'
p168
S'30-10-2008'
p169
sS'target'
p170
g121
sS'hot_spot'
p171
S'Assam'
p172
sS'delivery_mod'
p173
g121
sS'delivery_met'
p174
S'PLANTED'
p175
sS'expl'
p176
(lp177
g121
asS'ORG'
p178
(lp179
(lp180
S'National Democratic Front of Boroland'
p181
aS'14'
p182
aS'Accused'
p183
aa(lp184
S'Assam police'
p185
aS'62'
p186
aS'Others'
p187
aa(lp188
S'BSF'
p189
aS'121'
p190
aS'Others'
p191
aa(lp192
S'Central Bureau of Investigation'
p193
aS'192'
p194
aS'Others'
p195
aa(lp196
S'NDFB'
p197
aS'245'
p198
aS'Accused'
p199
aa(lp200
S'NDFB'
p201
aS'255'
p202
aS'Accused'
p203
aa(lp204
S'Boro Security Force'
p205
aS'272'
p206
aS'Others'
p207
aa(lp208
S'NDFB'
p209
aS'278'
p210
aS'Accused'
p211
aa(lp212
S'NDFB'
p213
aS'287'
p214
aS'Accused'
p215
aa(lp216
S'NDFB'
p217
aS'330'
p218
aS'Accused'
p219
aa(lp220
S'NDFB'
p221
aS'361'
p222
aS'Accused'
p223
aa(lp224
S'NDFB'
p225
aS'370'
p226
aS'Accused'
p227
aa(lp228
S'NDFB'
p229
aS'382'
p230
aS'Accused'
p231
aas.