(dp0
S'LOC'
p1
(lp2
(lp3
S'Thanarpara'
p4
aS'8'
p5
aS'Neutral'
p6
aa(lp7
S'Nadia'
p8
aS'11'
p9
aS'Neutral'
p10
aa(lp11
S'West Bengal'
p12
aS'14'
p13
aS'Neutral'
p14
aa(lp15
S'Bardhaman'
p16
aS'30'
p17
aS'Event'
p18
aa(lp19
S'Bardhaman'
p20
aS'64'
p21
aS'Event'
p22
aa(lp23
S'Sheikhs house'
p24
aS'87'
p25
aS'Source'
p26
aa(lp27
S'Sealdah'
p28
aS'115'
p29
aS'Event'
p30
aa(lp31
S'Kolkata'
p32
aS'118'
p33
aS'Neutral'
p34
aa(lp35
S'Bangladesh'
p36
aS'172'
p37
aS'Neutral'
p38
aa(lp39
S'Murshidabad'
p40
aS'197'
p41
aS'Accused Location'
p42
aa(lp43
S'Nadia'
p44
aS'199'
p45
aS'Accused Location'
p46
aa(lp47
S'Malda'
p48
aS'201'
p49
aS'Event'
p50
aa(lp51
S'Birbhum'
p52
aS'203'
p53
aS'Accused Location'
p54
aa(lp55
S'Bardhaman'
p56
aS'205'
p57
aS'Accused Location'
p58
aa(lp59
S'West Bengal'
p60
aS'207'
p61
aS'Neutral'
p62
aa(lp63
S'Barpeta'
p64
aS'210'
p65
aS'Accused Location'
p66
aa(lp67
S'Assam'
p68
aS'212'
p69
aS'Neutral'
p70
aa(lp71
S'Sahibganj'
p72
aS'214'
p73
aS'Accused Location'
p74
aa(lp75
S'Pakur'
p76
aS'216'
p77
aS'Accused Location'
p78
aa(lp79
S'Jharkhand'
p80
aS'218'
p81
aS'Neutral'
p82
aa(lp83
S'in Beldanga and'
p84
aS'239'
p85
aS'Neutral'
p86
aa(lp87
S'Beldanga'
p88
aS'240'
p89
aS'Neutral'
p90
aa(lp91
S'and Mukim'
p92
aS'241'
p93
aS'Neutral'
p94
aa(lp95
S'and Mukim'
p96
aS'241'
p97
aS'Neutral'
p98
aa(lp99
S'Mukim Nagar'
p100
aS'242'
p101
aS'Neutral'
p102
aa(lp103
S'Mukim'
p104
aS'242'
p105
aS'Neutral'
p106
aa(lp107
S'Murshidabad'
p108
aS'245'
p109
aS'Neutral'
p110
aa(lp111
S'Nanur'
p112
aS'247'
p113
aS'Neutral'
p114
aa(lp115
S'Birbhum'
p116
aS'249'
p117
aS'Neutral'
p118
aa(lp119
S'Khagragarh'
p120
aS'251'
p121
aS'Neutral'
p122
aa(lp123
S'Simulia'
p124
aS'253'
p125
aS'Neutral'
p126
aa(lp127
S'Bardhaman'
p128
aS'255'
p129
aS'Neutral'
p130
aasS'PER'
p131
(lp132
(lp133
S'Jahir-ul Sheikh'
p134
aS'26'
p135
aS'Accused'
p136
aa(lp137
S'Sheikh'
p138
aS'46'
p139
aS'Accused'
p140
aa(lp141
S'Abdul Mazeed Momin'
p142
aS'106'
p143
aS'Accused'
p144
aasS'TIM'
p145
(lp146
sS'hot_setting'
p147
S''
p148
sS'DAT'
p149
(lp150
S'Monday:6'
p151
aS'October 2:67'
p152
aS'March 21:102'
p153
asS'death'
p154
g148
sS'title'
p155
S'NIA team visits Nadia in search of Bardhaman blast case accused'
p156
sS'org_unorg'
p157
S'ORGANISED'
p158
sS'terror_group'
p159
(lp160
S'JAMAATUL MUJAHIDEEN BANGLADESH (JMB)'
p161
asS'content'
p162
V: An NIA team on Monday visited Thanarpara area in Nadia district of West Bengal , close to the Indo-Bangla border , in search of Jahir-ul Sheikh , a Bardhaman blast case accused . . . The team gave the Thanarpara police a warrant against Sheikh . It also went to his house and enquired about his whereabouts . . . After the Bardhaman blast on October 2 last year , which left two people dead , the NIA team had recovered 41 gelatin sticks from Sheikhs house , who has been absconding since then . . . The NIA on March 21 had arrested Abdul Mazeed Momin in connection with the blast from Sealdah area of Kolkata , taking the total number of persons arrested to 17 . . . The agency had taken over the case from the West Bengal police a few days after the explosion . . . Investigators have found that Improvised Explosive Devices -LRB- IED -RRB- were being fabricated in the house and smuggled to Bangladesh . . . The NIA has so far found that members of the JMB terror group had established their network in different places like Murshidabad , Nadia , Malda , Birbhum , Bardhaman in West Bengal and Barpeta in Assam , Sahibganj and Pakur in Jharkhand . . . The NIA also claimed that senior members of JMB had established terrorist training centres and bomb-making units in Beldanga and Mukim Nagar of Murshidabad , Nanur of Birbhum and Khagragarh and Simulia of Bardhaman district . PTI .
p163
sS'injured'
p164
g148
sS'det_loc'
p165
(lp166
S'India'
p167
aS'West Bengal'
p168
aS'Bardhaman'
p169
aS'Bardhaman'
p170
aS'Bardhaman'
p171
asS'O'
p172
(lp173
S'41 gelatin:83'
p174
aS'explosive devices:158'
p175
aS'ied:161'
p176
asS'unexpl'
p177
(lp178
g148
asS'ocassion'
p179
g148
sS'link'
p180
S'http://www.thehindu.com/todays-paper/tp-national/tp-otherstates/nia-team-visits-nadia-in-search-of-bardhaman-blast-case-accused/article7025644.ece'
p181
sS'date'
p182
S'02-10-2014'
p183
sS'target'
p184
g148
sS'hot_spot'
p185
S'Bardhaman'
p186
sS'delivery_mod'
p187
g148
sS'delivery_met'
p188
S'PLANTED'
p189
sS'expl'
p190
(lp191
S'GELATINE STICKS'
p192
asS'ORG'
p193
(lp194
(lp195
S'NIA team'
p196
aS'3'
p197
aS'Others'
p198
aa(lp199
S'NIA team'
p200
ag197
aS'Others'
p201
aa(lp202
S'NIA'
p203
ag197
aS'Others'
p204
aa(lp205
S'Thanarpara police'
p206
aS'41'
p207
aS'Others'
p208
aa(lp209
S'NIA'
p210
aS'79'
p211
aS'Others'
p212
aa(lp213
S'NIA'
p214
aS'100'
p215
aS'Others'
p216
aa(lp217
S'West Bengal police'
p218
aS'141'
p219
aS'Others'
p220
aa(lp221
S'NIA'
p222
aS'177'
p223
aS'Others'
p224
aa(lp225
S'JMB'
p226
aS'186'
p227
aS'Accused'
p228
aa(lp229
S'NIA'
p230
aS'223'
p231
aS'Others'
p232
aa(lp233
S'JMB'
p234
aS'230'
p235
aS'Accused'
p236
aa(lp237
S'PTI'
p238
aS'258'
p239
aS'Others'
p240
aas.