(dp0
S'LOC'
p1
(lp2
(lp3
S'Mumbai'
p4
aS'1'
p5
aS'Neutral'
p6
aa(lp7
S'Mumbai'
p8
aS'10'
p9
aS'Neutral'
p10
aa(lp11
S'Mumbai'
p12
aS'33'
p13
aS'Neutral'
p14
aa(lp15
S'Mumbai'
p16
aS'63'
p17
aS'Neutral'
p18
aa(lp19
S'Mumbai'
p20
aS'66'
p21
aS'Neutral'
p22
aa(lp23
S'Delhi'
p24
aS'77'
p25
aS'Neutral'
p26
aa(lp27
S'Chennai'
p28
aS'79'
p29
aS'Neutral'
p30
aa(lp31
S'Kolkata'
p32
aS'81'
p33
aS'Neutral'
p34
aa(lp35
S'Bangalore'
p36
aS'83'
p37
aS'Neutral'
p38
aa(lp39
S'India'
p40
aS'93'
p41
aS'Neutral'
p42
aa(lp43
S'Zaveri Bazaar'
p44
aS'104'
p45
aS'Event'
p46
aa(lp47
S'South Mumbai'
p48
aS'107'
p49
aS'Neutral'
p50
aa(lp51
S'Opera House'
p52
aS'135'
p53
aS'Event'
p54
aa(lp55
S'South Mumbai'
p56
aS'140'
p57
aS'Neutral'
p58
aa(lp59
S'Kabutarkhana'
p60
aS'151'
p61
aS'Event'
p62
aa(lp63
S'Dadar West'
p64
aS'153'
p65
aS'Event'
p66
aa(lp67
S'Central Mumbai'
p68
aS'156'
p69
aS'Neutral'
p70
aa(lp71
S'Mumbai'
p72
aS'157'
p73
aS'Neutral'
p74
aa(lp75
S'Mumbai'
p76
aS'182'
p77
aS'Neutral'
p78
aa(lp79
S'Maharashtra'
p80
aS'185'
p81
aS'Neutral'
p82
aa(lp83
S'India'
p84
aS'202'
p85
aS'Neutral'
p86
aa(lp87
S'Opera House'
p88
aS'208'
p89
aS'Event'
p90
aa(lp91
S'India'
p92
aS'226'
p93
aS'Neutral'
p94
aa(lp95
S'Maharashtra'
p96
aS'229'
p97
aS'Neutral'
p98
aa(lp99
S'Mumbai'
p100
aS'234'
p101
aS'Neutral'
p102
aa(lp103
S'Karachi'
p104
aS'262'
p105
aS'Neutral'
p106
aa(lp107
S'Mumbai'
p108
aS'267'
p109
aS'Neutral'
p110
aa(lp111
S'Mumbai'
p112
aS'283'
p113
aS'Neutral'
p114
aa(lp115
S'Mumbai'
p116
aS'331'
p117
aS'Neutral'
p118
aa(lp119
S'Mumbai'
p120
aS'352'
p121
aS'Neutral'
p122
aa(lp123
S'Mumbai'
p124
aS'376'
p125
aS'Neutral'
p126
aa(lp127
S'Delhi'
p128
aS'398'
p129
aS'Neutral'
p130
aa(lp131
S'Mumbai'
p132
aS'402'
p133
aS'Neutral'
p134
aa(lp135
S'South Mumbai'
p136
aS'450'
p137
aS'Neutral'
p138
aa(lp139
S'South Mumbai'
p140
aS'474'
p141
aS'Neutral'
p142
aa(lp143
S'Dadar'
p144
aS'495'
p145
aS'Event'
p146
aa(lp147
S'Opera House'
p148
aS'498'
p149
aS'Event'
p150
aa(lp151
S'Zaveri Bazaar'
p152
aS'526'
p153
aS'Event'
p154
aa(lp155
S'Kahu Gali'
p156
aS'538'
p157
aS'Event'
p158
aa(lp159
S'Dadar West'
p160
aS'559'
p161
aS'Event'
p162
aa(lp163
S'Opera House'
p164
aS'578'
p165
aS'Event'
p166
aa(lp167
S'Prasad Chamber building'
p168
aS'584'
p169
aS'Event'
p170
aa(lp171
S'Dadar'
p172
aS'615'
p173
aS'Event'
p174
aa(lp175
S'Zaveri Bazaar'
p176
aS'619'
p177
aS'Event'
p178
aa(lp179
S'Zaveri Bazaar'
p180
aS'658'
p181
aS'Event'
p182
aa(lp183
S'Zaveri Bazaar'
p184
aS'661'
p185
aS'Event'
p186
aa(lp187
S'KEM'
p188
aS'685'
p189
aS'Neutral'
p190
aa(lp191
S'Nair'
p192
aS'690'
p193
aS'Neutral'
p194
aa(lp195
S'Harkishandas'
p196
aS'695'
p197
aS'Neutral'
p198
aa(lp199
S'Saifee'
p200
aS'702'
p201
aS'Neutral'
p202
aasS'PER'
p203
(lp204
(lp205
S'P Chidambaram'
p206
aS'28'
p207
aS'Comment'
p208
aa(lp209
S'Chidambaram'
p210
aS'50'
p211
aS'Comment'
p212
aa(lp213
S'Chidambaram'
p214
aS'61'
p215
aS'Comment'
p216
aa(lp217
S'Prithviraj Chavan'
p218
aS'188'
p219
aS'Comment'
p220
aasS'TIM'
p221
(lp222
S'night : 36'
p223
aS'6.56 pm:101'
p224
aS'7.06 pm : 148'
p225
aS'evening : 280'
p226
aS'evening : 454'
p227
asS'hot_setting'
p228
S''
p229
sS'DAT'
p230
(lp231
S'26/11 : 240'
p232
aS'2008:242'
p233
aS'2008:307'
p234
aS'Wednesday:453'
p235
aS'2002:677'
p236
asS'death'
p237
S'18'
p238
sS'title'
p239
S'Three bomb blasts in Mumbai, 18 dead, over 130 injured'
p240
sS'det_loc'
p241
(lp242
S'India'
p243
aS'Maharashtra'
p244
ag229
aS'Mumbai'
p245
aS'Kahu Gali,Zaveri Bazaar'
p246
asS'terror_group'
p247
(lp248
g229
asS'content'
p249
VMumbai : Three bomb blasts within twelve minutes during Mumbai 's rush hour have left at least 18 people dead and over 130 injured . Home Minister P Chidambaram , who reached Mumbai late at night , described the blast as `` a coordinated terror attack '' . Mr Chidambaram inspected all the three blast sites . -LRB- Read : Chidambaram on Mumbai blasts -RRB- Mumbai has been sealed and is on high-alert ; so are Delhi , Chennai , Kolkata and Bangalore . -LRB- Read : High alert in cities across India -RRB- The first blast took place at 6.56 pm in Zaveri Bazaar in South Mumbai , a crowded market named for the many small jewelry stores that fill its narrow streets . A minute later , there was an explosion at Opera House , also in South Mumbai ; the final strike was at 7.06 pm near Kabutarkhana at Dadar West in Central Mumbai . The Home Minister said Improvised Explosive Devices -LRB- IED -RRB- were used in all three blasts . -LRB- Watch : YouTube videos on Mumbai blasts -RRB- Maharashtra Chief Minister Prithviraj Chavan who described the blasts as `` an attack on the heart of India '' said the blast at Opera House was the most powerful . -LRB- Watch : This is an attack on the heart of India , says Maharashtra CM -RRB- This is Mumbai 's first terror attack after 26/11 in 2008 - when 166 people were killed in 72 hours by ten young men who sailed into the city from Karachi and attacked some of Mumbai 's most famous landmarks . The city wore a steely clam this evening . The Mumbai Police sent an SMS to all cellphone users in the city minutes after the blast , asking them to stay indoors . In 2008 , the police had been criticised for failing to share basic information with the city . -LRB- Read : Police 's SMS after Mumbai blasts -RRB- The Home Minister said that the National Security Guard -LRB- NSG -RRB- , which has a hub in Mumbai , was on standby . The National Investigation Agency or NIA has reached the site of the blasts and is working with the Mumbai Police to collect and analyse forensic evidence . A seven-member team from the Central Forensic Science Laboratory -LRB- CFSL -RRB- from Delhi is also in Mumbai . Sources have told NDTV that preliminary inspections by the forensic teams and bomb disposal squads have hinted at the use of ammonium nitrate in the IEDs . Traces of ammonium nitrate have been found at the blast sites , sources added.Heavy rain was pouring down over South Mumbai on Wednesday evening triggering fears that crucial evidence may be washed away . -LRB- Read : Concerns about evidence as rain lashes South Mumbai -RRB- Police sources say close circuit TV -LRB- CCTV -RRB- footage from security cameras opposite the bus stop at Dadar and at Opera House could provide them with leads in the post-blast investigations . The blasts were designed to disrupt the city when it is at its busiest . The Zaveri Bazaar blast took place in an umbrella kept at the crowded Kahu Gali , a street of eateries where many commuters stop to snack before catching their local trains home . The Dadar West explosion took place in a meter box on an electric pole near a bus stop . The Opera House blast took place at Prasad Chamber building . `` I heard a loud explosion . And then I saw people with serious injuries lying in pools of blood , '' said an eyewitness to the Dadar explosion.Datatray Jadhav from Zaveri Bazaar said , `` A girl and another man were seriously injured . We put them both in a police van and sent them to the hospital . '' -LRB- Watch : Eyewitness accounts of the blast in Zaveri Bazaar -RRB- Zaveri Bazaar has been hit before - over 50 people were killed in twin blasts in 2002 . The injured are being treated at KEM -LRB- 022-24136051 -RRB- , Nair -LRB- 022-23085379 -RRB- , Harkishandas -LRB- 022-23855555 / 30095555 -RRB- , Saifee -LRB- 022-67570111 -RRB- . .
p250
sS'injured'
p251
S'130'
p252
sS'org_unorg'
p253
S'ORGANISED'
p254
sS'O'
p255
(lp256
S'Three bomb blasts:3'
p257
aS'Home Minister:26'
p258
aS'a coordinated terror attack:43'
p259
aS'crowded market:111'
p260
aS'Home Minister:160'
p261
aS'Explosive Devices:164'
p262
aS'Chief Minister:186'
p263
aS'police:310'
p264
aS'Police:327'
p265
aS'Home Minister:335'
p266
aS'forensic evidence:382'
p267
aS'Central Forensic Science Laboratory:390'
p268
aS'forensic teams:413'
p269
aS'squads:418'
p270
aS'Police:477'
p271
aS'CCTV:484'
p272
aS'bus stop:492'
p273
aS'post-blast:507'
p274
aS'local trains:554'
p275
aS'meter box:566'
p276
aS'electric pole:570'
p277
aS'bus stop:574'
p278
aS'police:639'
p279
aS'hospital:646'
p280
asS'unexpl'
p281
(lp282
g229
asS'ocassion'
p283
g229
sS'link'
p284
S'http://www.ndtv.com/india-news/three-bomb-blasts-in-mumbai-18-dead-over-130-injured-461430'
p285
sS'date'
p286
S'13-07-2011'
p287
sS'target'
p288
g229
sS'hot_spot'
p289
S'Kahu Gali,Zaveri Bazaar'
p290
sS'delivery_mod'
p291
S'UMBRELLA'
p292
sS'delivery_met'
p293
S'PLANTED'
p294
sS'expl'
p295
(lp296
S'AMMONIUM NITRATE'
p297
aS'IED'
p298
asS'ORG'
p299
(lp300
(lp301
S'Mumbai Police'
p302
aS'283'
p303
aS'Others'
p304
aa(lp305
S'National Security Guard'
p306
aS'340'
p307
aS'Others'
p308
aa(lp309
S'National Investigation Agency'
p310
aS'359'
p311
aS'Others'
p312
aa(lp313
S'NIA'
p314
aS'363'
p315
aS'Others'
p316
aa(lp317
S'Mumbai Police'
p318
aS'376'
p319
aS'Others'
p320
aa(lp321
S'CFSL'
p322
aS'395'
p323
aS'Others'
p324
aas.