(dp0
S'LOC'
p1
(lp2
(lp3
S'Chennai'
p4
aS'44'
p5
aS'Event'
p6
aa(lp7
S'Bangalore Junction'
p8
aS'60'
p9
aS'Neutral'
p10
aa(lp11
S'Chennai Junction'
p12
aS'72'
p13
aS'Neutral'
p14
aa(lp15
S'Central station'
p16
aS'82'
p17
aS'Event'
p18
aa(lp19
S'Andhra Pradesh'
p20
aS'145'
p21
aS'Neutral'
p22
aa(lp23
S'Nellore'
p24
aS'164'
p25
aS'Neutral'
p26
aa(lp27
S'Central station'
p28
aS'205'
p29
aS'Event'
p30
aa(lp31
S'Hyderabad'
p32
aS'277'
p33
aS'Neutral'
p34
aa(lp35
S'Bangalore'
p36
aS'280'
p37
aS'Neutral'
p38
aa(lp39
S'Vijayawada'
p40
aS'291'
p41
aS'Neutral'
p42
aa(lp43
S'Central station'
p44
aS'448'
p45
aS'Event'
p46
aa(lp47
S'Chennai Central'
p48
aS'709'
p49
aS'Event'
p50
aa(lp51
S'Central'
p52
aS'714'
p53
aS'Event'
p54
aa(lp55
S'Chennai'
p56
aS'784'
p57
aS'Event'
p58
aa(lp59
S'Chennai'
p60
aS'863'
p61
aS'Event'
p62
aa(lp63
S'Bangalore'
p64
aS'865'
p65
aS'Neutral'
p66
aa(lp67
S'Chennai'
p68
aS'946'
p69
aS'Event'
p70
aa(lp71
S'Chennai'
p72
aS'957'
p73
aS'Event'
p74
aa(lp75
S'Bangalore'
p76
aS'966'
p77
aS'Neutral'
p78
aasS'PER'
p79
(lp80
(lp81
S'Narendra Modi'
p82
aS'155'
p83
aS'Others'
p84
aa(lp85
S'Swati'
p86
aS'270'
p87
aS'Victim'
p88
aa(lp89
S'Sumantho Devnath'
p90
aS'308'
p91
aS'Victim'
p92
aa(lp93
S'Shaiful Haque'
p94
aS'323'
p95
aS'Victim'
p96
aa(lp97
S'Anjanedu'
p98
aS'329'
p99
aS'Victim'
p100
aa(lp101
S'Vimal Kumar Das'
p102
aS'334'
p103
aS'Victim'
p104
aa(lp105
S'Shagun Kumar Rai'
p106
aS'341'
p107
aS'Victim'
p108
aa(lp109
S'Altaf Khan'
p110
aS'348'
p111
aS'Victim'
p112
aa(lp113
S'Uma'
p114
aS'354'
p115
aS'Victim'
p116
aa(lp117
S'Jitendra Mohanto Deka'
p118
aS'359'
p119
aS'Victim'
p120
aa(lp121
S'Sari'
p122
aS'366'
p123
aS'Victim'
p124
aa(lp125
S'Murali'
p126
aS'371'
p127
aS'Victim'
p128
aa(lp129
S'Bijoy Kumar'
p130
aS'376'
p131
aS'Victim'
p132
aa(lp133
S'Sudanchand Debnath'
p134
aS'382'
p135
aS'Victim'
p136
aa(lp137
S'Surendra Varma'
p138
aS'388'
p139
aS'Victim'
p140
aa(lp141
S'Bagal Singh'
p142
aS'584'
p143
aS'Comment'
p144
aa(lp145
S'K. Ramanujam'
p146
aS'637'
p147
aS'Others'
p148
aa(lp149
S'Anoop Jaiswal'
p150
aS'644'
p151
aS'Others'
p152
aa(lp153
S'T.K. Rajendran'
p154
aS'656'
p155
aS'Others'
p156
aa(lp157
S'J.K. Tripathy'
p158
aS'663'
p159
aS'Others'
p160
aa(lp161
S'Seema Agarwal'
p162
aS'672'
p163
aS'Others'
p164
aa(lp165
S'V.K. Dhaka'
p166
aS'682'
p167
aS'Others'
p168
aa(lp169
S'Rakesh Misra'
p170
aS'798'
p171
aS'Comment'
p172
aa(lp173
S'S. Vijayakumaran'
p174
aS'808'
p175
aS'Others'
p176
aa(lp177
S'S. Vijay Kumar'
p178
aS'993'
p179
aS'Others'
p180
aasS'TIM'
p181
(lp182
S'22-year : 2'
p183
aS'minutes : 34'
p184
aS'7.15 a.m.:48'
p185
aS'10.30 pm : 63'
p186
aS'5.40 a.m. : 75'
p187
aS'7.10 a.m. : 85'
p188
aS'few minutes : 88'
p189
aS'22-year : 268'
p190
aS'four hours : 421'
p191
aS'11.30 a.m.:454'
p192
aS'one hour : 760'
p193
asS'hot_setting'
p194
S''
p195
sS'DAT'
p196
(lp197
S'Thursday:28'
p198
aS'Thursday:51'
p199
aS'Wednesday:66'
p200
aS'Thursday evening : 166'
p201
asS'death'
p202
S'1'
p203
sS'title'
p204
S'Woman killed in twin blasts at Chennai Central station'
p205
sS'org_unorg'
p206
g195
sS'terror_group'
p207
(lp208
g195
asS'content'
p209
S"A 22-year old woman was killed and 14 others injured , two of them grievously , when two bombs exploded in the BangaloreGuwahati tri-weekly express here on Thursday . The explosions took place minutes after the train reached Platform No. 9 at the Chennai Central Station at 7.15 a.m. on Thursday . . . Train No 12509 that left Bangalore Junction at 10.30 pm on Wednesday was scheduled to arrive at Chennai Junction at 5.40 a.m. However , the train reached Central station around 7.10 a.m. Within few minutes , bombs exploded one after the other in reserved second sleeper coaches , S 4 and S 5 . . . Explosives were kept under the seat number 28 in Coach S 4 and under seat number 69 in coach S 5 . If the train had been on time , it would have entered Andhra Pradesh , where the BJP 's prime ministerial candidate Narendra Modi is scheduled to address a rally near Nellore on Thursday evening . . . A multi-agency probe has been launched to investigate the source and nature of the bombs . . . As soon as the news of blast started spreading , there was commotion in the busy Central station , the main gateway to the city , and traffic congestion on all roads leading to it . . . Police and railway officials on emerging out of both the coaches in which the blast took place said that it was a low intensity explosion caused by suspected objects kept beneath the seats . . . The deceased was identified as 22-year old Swati , a post-graduate in M.Tech from Hyderabad working in Bangalore who was on her way to meet her parents at Vijayawada . . . Injured list . . Grievously injured persons included ; one unidentified male and Sumantho Devnath -LRB- 37 -RRB- . Names of those who sustained minor injuries include ; Shaiful Haque -LRB- 27-M -RRB- , Anjanedu -LRB- 29-M -RRB- , Vimal Kumar Das -LRB- 43-M -RRB- , Shagun Kumar Rai -LRB- 23-M -RRB- , Altaf Khan -LRB- 17-M -RRB- , Uma -LRB- 35-F -RRB- , Jitendra Mohanto Deka -LRB- 58-M -RRB- , Sari -LRB- 21-M -RRB- , Murali -LRB- 27-M -RRB- , Bijoy Kumar -LRB- 14-M -RRB- , Sudanchand Debnath -LRB- 64-M -RRB- , Surendra Varma -LRB- 31-M -RRB- . In the panic that followed the explosion , passengers who ran for safety resulting in a stampede-like situation . . . The train was detained for nearly four hours . After detaching both the coaches -LRB- S 4 and S 5 -RRB- , the rest of the composition of the train was dispatched from Central station for onward journey around 11.30 a.m. . In the impact of the collision , there were minor damages to the three adjacent coaches - S 3 , S 4 and S 5 . . . Sniffer dogs were pressed into service and Anti-Sabotage Teams -LRB- AST -RRB- of the Bomb Detection and Disposal Squad of the City Police carried out searches . The three damaged coaches were detached for detailed forensic analysis . . . Passengers from these coaches were accommodated in other coaches . Railway Protection Force , Government Railway Police and Chennai City Police cordoned off the Platform No 9 . Passengers in other coaches who disembarked for enabling the police to search the coaches complained that miscreants had looted their belongings , making use of their temporary absence . . . Bagal Singh -LRB- 55 -RRB- who was travelling along with his family on the train said there was a noise and soon the train came to a halt and it took a few minutes for those in the nearby coaches to realise that it was an explosion . . . Director-General of Police K. Ramanujam , DGP -LRB- elections -RRB- Anoop Jaiswal , Additional Director-General of Police -LRB- Law and Order -RRB- T.K. Rajendran , Chennai City Police Commissioner J.K. Tripathy , Inspector-General of Police Railway Police , Seema Agarwal , Chief Security Commissioner of RPF Southern Railway V.K. Dhaka and other officials visited the scene of crime . . . Main lines unaffected . . As a result of the explosion , trains towards Chennai Central were detained outside Central and were accommodated in other platforms after a brief delay . However , Southern Railway said there was no cancellation or rescheduling of trains as the main lines were unaffected , . . . Southern Railway has asked the passengers to report at the station one hour in advance to go through security checks such as frisking and scanning of baggage before boarding the train . Many trains approaching Chennai were detained at various stations . . . General Manager of Southern Railway Rakesh Misra , who was accompanied by Additional General Manager S. Vijayakumaran , said that a compensation of Rs 50,000 would be paid to the family of the deceased as an immediate measure , Rs 25,000 would be paid to those who sustained serious injuries and Rs 5,000 to those who sustained minor injuries . . . The investigators were perusing the CCTV footage in Chennai and Bangalore to look for clues . Meanwhile police sources said that a Special Investigation Team of the CB-CID will be formed and the case will be transferred to them for further investigations . Police sources also said that the Ministry of Home Affairs had asked the State Police for a report on the blast . Meanwhile , unconfirmed reports said that a team from National Investigation Agency -LRB- NIA -RRB- and National Security Guards -LRB- NSG -RRB- are likely to visit Chennai . . . The Railways has opened two helplines in Chennai 044 25357398 and 044 64502416 and one in Bangalore 080 22876288 . . . PTI adds that one person has been detained in connection with the blast . . . -LRB- With additional reporting by S. Vijay Kumar -RRB- ."
p210
sS'injured'
p211
S'14'
p212
sS'det_loc'
p213
(lp214
S'India'
p215
aS'Tamil Nadu'
p216
aS'Chennai'
p217
ag195
aS'Chennai Central Station'
p218
asS'O'
p219
(lp220
S'two bombs exploded:18'
p221
aS'BangaloreGuwahati tri-weekly express:23'
p222
aS'explosions:31'
p223
aS'Platform No. 9:39'
p224
aS'Chennai Central Station:44'
p225
aS'Train No 12509:55'
p226
aS'bombs exploded:91'
p227
aS'second sleeper coaches:99'
p228
aS'4 and S:104'
p229
aS'Explosives:111'
p230
aS'seat number 28:116'
p231
aS'Coach S 4:120'
p232
aS'seat number 69:125'
p233
aS'coach S 5:129'
p234
aS'rally:162'
p235
aS'multi-agency probe:172'
p236
aS'launched:176'
p237
aS'investigate:178'
p238
aS'source and nature of the bombs:180'
p239
aS'blast:195'
p240
aS'commotion:201'
p241
aS'traffic congestion:216'
p242
aS'Police and railway officials:227'
p243
aS'blast:241'
p244
aS'low intensity explosion:249'
p245
aS'deceased:264'
p246
aS'M.Tech:275'
p247
aS'minor injuries:319'
p248
aS'panic:396'
p249
aS'explosion:400'
p250
aS'passengers:402'
p251
aS'stampede-like situation:410'
p252
aS'S 4 and S 5:430'
p253
aS'collision:462'
p254
aS'minor damages:466'
p255
aS'three adjacent coaches:470'
p256
aS'S 3 , S 4 and S:474'
p257
aS'Sniffer dogs:485'
p258
aS'Bomb Detection and Disposal Squad:499'
p259
aS'searches:510'
p260
aS'three damaged coaches:513'
p261
aS'forensic analysis:520'
p262
aS'Passengers:525'
p263
aS'coaches:528'
p264
aS'accommodated:530'
p265
aS'Platform No 9:549'
p266
aS'disembarked:558'
p267
aS'coaches complained:566'
p268
aS'miscreants:569'
p269
aS'temporary absence:579'
p270
aS'explosion:630'
p271
aS'Law and Order:652'
p272
aS'crime:691'
p273
aS'Main lines unaffected:695'
p274
aS'explosion:705'
p275
aS'accommodated:717'
p276
aS'no cancellation or rescheduling of trains:733'
p277
aS'unaffected:744'
p278
aS'frisking and scanning of baggage:771'
p279
aS'compensation of Rs 50,000:814'
p280
aS'deceased:826'
p281
aS'immediate measure:829'
p282
aS'Rs 25,000:832'
p283
aS'sustained serious injuries:840'
p284
aS'Rs 5,000:844'
p285
aS'sustained minor injuries:849'
p286
aS'investigators:856'
p287
aS'CCTV footage:860'
p288
aS'clues:869'
p289
aS'investigations:896'
p290
aS'blast:918'
p291
aS'unconfirmed reports:922'
p292
aS'The Railways:950'
p293
aS'two helplines:954'
p294
aS'044 25357398:958'
p295
aS'044 64502416:961'
p296
aS'080 22876288:967'
p297
asS'unexpl'
p298
(lp299
g195
asS'ocassion'
p300
g195
sS'link'
p301
S'http://www.thehindu.com/news/cities/chennai/woman-killed-in-twin-blasts-at-chennai-central-station/article5965170.ece'
p302
sS'date'
p303
S'01-05-2014'
p304
sS'target'
p305
S'RAILWAY'
p306
sS'hot_spot'
p307
g195
sS'delivery_mod'
p308
S'TRAIN'
p309
sS'delivery_met'
p310
S'PLACED'
p311
sS'expl'
p312
(lp313
g195
asS'ORG'
p314
(lp315
(lp316
S'BJP'
p317
aS'150'
p318
aS'Others'
p319
aa(lp320
S'Anti-Sabotage Teams'
p321
aS'492'
p322
aS'Others'
p323
aa(lp324
S'AST'
p325
aS'495'
p326
aS'Others'
p327
aa(lp328
S'Railway Protection Force'
p329
aS'535'
p330
aS'Others'
p331
aa(lp332
S'Government Railway Police'
p333
aS'539'
p334
aS'Others'
p335
aa(lp336
S'Chennai City Police'
p337
aS'543'
p338
aS'Others'
p339
aa(lp340
S'Special Investigation Team'
p341
aS'877'
p342
aS'Others'
p343
aa(lp344
S'CB-CID'
p345
aS'882'
p346
aS'Others'
p347
aa(lp348
S'Ministry of Home Affairs'
p349
aS'904'
p350
aS'Others'
p351
aa(lp352
S'National Investigation Agency'
p353
aS'929'
p354
aS'Others'
p355
aa(lp356
S'NIA'
p357
aS'933'
p358
aS'Others'
p359
aa(lp360
S'National Security Guards'
p361
aS'936'
p362
aS'Others'
p363
aa(lp364
S'NSG'
p365
aS'940'
p366
aS'Others'
p367
aa(lp368
S'PTI'
p369
aS'972'
p370
aS'Others'
p371
aas.