(dp0
S'LOC'
p1
(lp2
(lp3
S'Assam'
p4
aS'10'
p5
aS'Neutral'
p6
aa(lp7
S'Assam'
p8
aS'33'
p9
aS'Neutral'
p10
aa(lp11
S'Dhekijuli'
p12
aS'74'
p13
aS'Event'
p14
aa(lp15
S'Dibrugarh'
p16
aS'97'
p17
aS'Neutral'
p18
aa(lp19
S'Assam'
p20
aS'145'
p21
aS'Neutral'
p22
aa(lp23
S'Guwahati'
p24
aS'251'
p25
aS'Neutral'
p26
aa(lp27
S'Maligaon'
p28
aS'254'
p29
aS'Event'
p30
aa(lp31
S'Dhekiajuli'
p32
aS'262'
p33
aS'Event'
p34
aa(lp35
S'northern Sonitpur'
p36
aS'265'
p37
aS'Neutral'
p38
aa(lp39
S'eastern Karbi Anglong'
p40
aS'283'
p41
aS'Event'
p42
aa(lp43
S'northern Udalguri'
p44
aS'296'
p45
aS'Event'
p46
aa(lp47
S'Mancachar'
p48
aS'317'
p49
aS'Event'
p50
aa(lp51
S'Dhurbi'
p52
aS'320'
p53
aS'Neutral'
p54
aasS'PER'
p55
(lp56
(lp57
S'Manmohan Singh'
p58
aS'28'
p59
aS'Others'
p60
aa(lp61
S'Tarun Gogoi'
p62
aS'148'
p63
aS'Comment'
p64
aasS'TIM'
p65
(lp66
S'morning : 79'
p67
aS'afternoon : 100'
p68
asS'hot_setting'
p69
S''
p70
sS'DAT'
p71
(lp72
S'Tuesday:12'
p73
aS'Tuesday:78'
p74
aS'Monday:99'
p75
aS'Monday:182'
p76
aS'Monday:256'
p77
aS'Monday:315'
p78
asS'death'
p79
g70
sS'title'
p80
S'Assam on maximum alert, toll in blasts rises to 10'
p81
sS'det_loc'
p82
(lp83
S'India'
p84
aS'Assam'
p85
ag70
ag70
aS'Dhekijuli'
p86
asS'terror_group'
p87
(lp88
S'UNITED LIBERATION FRONT OF ASSAM (ULFA)'
p89
asS'content'
p90
VGuwahati : A maximum security alert was sounded in Assam on Tuesday , a day after a series of explosions rocked the state ahead of Prime Minister Manmohan Singh 's arrival in Assam for poll campaigning . . . The toll in the blasts rose to 10 with two of the 61 injured succumbing to their injuries . . . A woman injured in the explosion here and a youth injured in the Dhekijuli blast died on Tuesday morning , police said . . . The prime minister arrives in the eastern tea growing town of Dibrugarh on Monday afternoon to campaign for the Congress party . . . `` Security forces have been put on a state of high alert to prevent any further rebel attacks . Police , army and paramilitary troopers have been deployed in strength across the state , '' Assam Chief Minister Tarun Gogoi told IANS . . . Security forces have launched a massive hunt to nab the bombers . The government has blamed the outlawed United Liberation Front of Asom ( ULFA ) for Monday 's four explosions and two grenade attacks . . . `` The ULFA is behind the attacks and I would say such senseless killings of innocent civilians would achieve nothing . We all should stand up against such barbaric terror attacks . I have asked the security agencies to make sure the bombers are captured , '' the chief minister said . . . A powerful explosion rocked Guwahati 's busy Maligaon area Monday , while another explosion shook Dhekiajuli town in northern Sonitpur district , about 150 km from here . . . The third explosion took place in eastern Karbi Anglong district injuring two people , while another grenade attack in northern Udalguri district had no casualties . . . There was another grenade attack at a police station late Monday in Mancachar in western Dhurbi district in which one policeman was killed and two injured . . . .
p91
sS'injured'
p92
S'61'
p93
sS'org_unorg'
p94
S'ORGANISED'
p95
sS'O'
p96
(lp97
S'Prime Minister:26'
p98
aS'eastern tea growing town:92'
p99
aS'grenade:293'
p100
asS'unexpl'
p101
(lp102
g70
asS'ocassion'
p103
g70
sS'link'
p104
S'http://www.ibnlive.com/news/india/assam-on-maximum-alert-toll-in-blasts-rises-to-10-313124.html'
p105
sS'date'
p106
S'07-04-2009'
p107
sS'target'
p108
g70
sS'hot_spot'
p109
S'Dhekijuli'
p110
sS'delivery_mod'
p111
g70
sS'delivery_met'
p112
g70
sS'expl'
p113
(lp114
g70
asS'ORG'
p115
(lp116
(lp117
S'Congress'
p118
aS'105'
p119
aS'Others'
p120
aa(lp121
S'United Liberation Front of Asom'
p122
aS'173'
p123
aS'Others'
p124
aa(lp125
S'ULFA'
p126
aS'179'
p127
aS'Accused'
p128
aa(lp129
S'ULFA'
p130
aS'195'
p131
aS'Accused'
p132
aas.
