(dp0
S'LOC'
p1
(lp2
(lp3
S'Delhi'
p4
aS'13'
p5
aS'Event'
p6
aa(lp7
S'U.S.'
p8
aS'24'
p9
aS'Neutral'
p10
aa(lp11
S'India'
p12
aS'30'
p13
aS'Neutral'
p14
aa(lp15
S'New Delhi'
p16
aS'61'
p17
aS'Event'
p18
aa(lp19
S'U.S.'
p20
aS'94'
p21
aS'Neutral'
p22
aa(lp23
S'U.S.'
p24
aS'109'
p25
aS'Neutral'
p26
aa(lp27
S'India'
p28
aS'113'
p29
aS'Neutral'
p30
aa(lp31
S'Delhi'
p32
aS'167'
p33
aS'Event'
p34
aa(lp35
S'UK'
p36
aS'198'
p37
aS'Neutral'
p38
aa(lp39
S'India'
p40
aS'205'
p41
aS'Neutral'
p42
aa(lp43
S'India'
p44
aS'303'
p45
aS'Neutral'
p46
aa(lp47
S'India'
p48
aS'415'
p49
aS'Neutral'
p50
aa(lp51
S'Islamabad'
p52
aS'442'
p53
aS'Neutral'
p54
aa(lp55
S'Bangladesh'
p56
aS'446'
p57
aS'Neutral'
p58
aa(lp59
S'Dhaka'
p60
aS'504'
p61
aS'Neutral'
p62
aa(lp63
S'India'
p64
aS'528'
p65
aS'Neutral'
p66
aasS'PER'
p67
(lp68
(lp69
S'Peter Burleigh'
p70
aS'97'
p71
aS'Comment'
p72
aa(lp73
S'William Hague'
p74
aS'150'
p75
aS'Comment'
p76
aa(lp77
S'Israel'
p78
aS'351'
p79
aS'Others'
p80
aa(lp81
S'Stas Misezhnikov'
p82
aS'361'
p83
aS'Others'
p84
aa(lp85
S'Asif Ali Zardari'
p86
aS'386'
p87
aS'Comment'
p88
aa(lp89
S'Yousuf Raza Gilani'
p90
aS'392'
p91
aS'Comment'
p92
aa(lp93
S'Sheikh Hasina'
p94
aS'449'
p95
aS'Others'
p96
aasS'TIM'
p97
(lp98
S'mornings : 57'
p99
aS'todays : 79'
p100
aS'today : 168'
p101
asS'hot_setting'
p102
S''
p103
sS'DAT'
p104
(lp105
S'Wednesday : 6'
p106
asS'death'
p107
g103
sS'title'
p108
S'World condemns Delhi terror attack'
p109
sS'org_unorg'
p110
g103
sS'terror_group'
p111
(lp112
g103
asS'content'
p113
VNations across the world on Wednesday condemned the bomb blast outside the Delhi High Court , that caused heavy casualties , with the U.S. offering every possible assistance to India . . . On behalf of all Americans , I extend deep condolences to the Government of India and the families of those harmed in this mornings attack on the New Delhi High Court . . . Terrorism is a crime that affects us all . Bombings like todays demonstrate that our shared struggle continues against those who would commit such atrocities , U.S. Charge dAffaires Peter Burleigh said in a statement . . . He said the U.S. remains shoulder-to-shoulder with India in the fight against terror , and will provide whatever assistance possible to help bring the perpetrators of this heinous crime to justice . . . Calling the blast a cowardly attack , British Foreign Secretary William Hague said I was appalled to hear of the bomb blast outside the High Court in Delhi today . . . I condemn this cowardly attack and send my deepest condolences to those who have lost loved ones or who have been injured . . . The UK is committed to standing together with India in the fight against terrorism in all its forms and we will continue to work together to counter this threat . . . Unreservedly condemning the bombing , a statement from the Australian Prime Ministers office , issued by Australian High Commission here , said , This act of senseless violence , directed at one of the institutions of government , appears to have been planned to cause a high number of casualties among the general public . . . The Australian statement added , We extend our sympathy and concern to the government and people of India at this time . Our thoughts are with the families of the innocent people who have been killed , and with those injured by the blast . . . The Indian government and people have Australias full support as they continue to combat terrorism . . . Israel also condemned the blast with its visiting Tourism Minister Stas Misezhnikov expressing shock and dismay over the vicious terror attack and conveyed his countrys condolences to the bereaved families . . . Pakistan President Asif Ali Zardari and Prime Minister Yousuf Raza Gilani expressed their deepest sympathies to the families of the victims of the bombing , to the Government and people of India . . . They expressed the hope that the perpetrators of this heinous act will be brought to justice , a Foreign Ministry statement said in Islamabad . . . Bangladesh Prime Minister Sheikh Hasina expressed profound shock and outrage over the bomb blast , saying that any act of terrorism is unacceptable and unjustifiable . . . She condemned the heinous act and stated that any act of terrorism is unacceptable , criminal and unjustifiable , regardless of their motivation , a Foreign Office statement said in Dhaka . . . She also offered prayers for the eternal peace of those who have passed away , and for the people of India to bear this shock with fortitude , it said .
p114
sS'injured'
p115
g103
sS'det_loc'
p116
(lp117
S'India'
p118
aS'Delhi'
p119
aS'New Delhi'
p120
aS'New Derlhi'
p121
aS'High court'
p122
asS'O'
p123
(lp124
S'Nations:1'
p125
aS'condemned:7'
p126
aS'bomb blast:9'
p127
aS'heavy casualties:19'
p128
aS'assistance:28'
p129
aS'Americans:38'
p130
aS'deep condolences:42'
p131
aS'harmed:54'
p132
aS'attack:58'
p133
aS'Terrorism:68'
p134
aS'crime:71'
p135
aS'affects:73'
p136
aS'Bombings:77'
p137
aS'struggle:84'
p138
aS'commit:90'
p139
aS'atrocities:92'
p140
aS'statement:102'
p141
aS'shoulder-to-shoulder:111'
p142
aS'fight against terror:116'
p143
aS'assistance:124'
p144
aS'perpetrators:130'
p145
aS'heinous crime:133'
p146
aS'justice:136'
p147
aS'blast:142'
p148
aS'cowardly attack:144'
p149
aS'British Foreign Secretary William Hague:147'
p150
aS'appalled:155'
p151
aS'bomb blast:160'
p152
aS'High Court:164'
p153
aS'condemn:173'
p154
aS'cowardly attack:175'
p155
aS'deepest condolences:180'
p156
aS'injured:193'
p157
aS'committed:200'
p158
aS'terrorism:210'
p159
aS'counter:223'
p160
aS'threat:225'
p161
aS'bombing:232'
p162
aS'Australian Prime Ministers office:238'
p163
aS'Australian High Commission:245'
p164
aS'senseless violence:255'
p165
aS'institutions of government:263'
p166
aS'planned:271'
p167
aS'high number:275'
p168
aS'casualties:278'
p169
aS'general public:281'
p170
aS'Australian statement:287'
p171
aS'extend:292'
p172
aS'sympathy:294'
p173
aS'concern:296'
p174
aS'government:299'
p175
aS'innocent people:316'
p176
aS'killed:321'
p177
aS'injured:326'
p178
aS'blast:329'
p179
aS'Australias full support:339'
p180
aS'combat terrorism:346'
p181
aS'condemned:353'
p182
aS'blast:355'
p183
aS'Tourism Minister Stas Misezhnikov:359'
p184
aS'expressing:363'
p185
aS'shock and dismay:364'
p186
aS'vicious terror attack:369'
p187
aS'conveyed:373'
p188
aS'condolences:376'
p189
aS'bereaved families:379'
p190
aS'deepest sympathies:397'
p191
aS'victims:404'
p192
aS'bombing:407'
p193
aS'Government:411'
p194
aS'expressed:420'
p195
aS'perpetrators:425'
p196
aS'heinous act:428'
p197
aS'justice:434'
p198
aS'expressed:451'
p199
aS'profound shock:452'
p200
aS'outrage:455'
p201
aS'bomb blast:458'
p202
aS'act of terrorism:464'
p203
aS'unacceptable:468'
p204
aS'unjustifiable:470'
p205
aS'condemned:475'
p206
aS'heinous act:477'
p207
aS'act of terrorism:483'
p208
aS'unacceptable:487'
p209
aS'criminal:489'
p210
aS'unjustifiable:491'
p211
aS'regardless:493'
p212
aS'motivation:496'
p213
aS'Foreign Office statement:499'
p214
aS'prayers:511'
p215
aS'eternal peace:514'
p216
aS'shock:532'
p217
aS'fortitude:534'
p218
asS'unexpl'
p219
(lp220
g103
asS'ocassion'
p221
g103
sS'link'
p222
S'http://www.thehindu.com/news/national/article2432949.ece'
p223
sS'date'
p224
S'07-09-2011'
p225
sS'target'
p226
S'HIGH COURT'
p227
sS'hot_spot'
p228
S'Delhi High Court'
p229
sS'delivery_mod'
p230
g103
sS'delivery_met'
p231
S'PLANTED'
p232
sS'expl'
p233
(lp234
g103
asS'ORG'
p235
(lp236
(lp237
S'Delhi High Court'
p238
aS'13'
p239
aS'Victim'
p240
aa(lp241
S'Government of India'
p242
aS'46'
p243
aS'Others'
p244
aa(lp245
S'New Delhi High Court'
p246
aS'61'
p247
aS'Victim'
p248
aa(lp249
S'Indian government'
p250
aS'334'
p251
aS'Others'
p252
aas.