(dp0
S'LOC'
p1
(lp2
(lp3
S'Mumbai'
p4
aS'1'
p5
aS'Neutral'
p6
aa(lp7
S'MUMBAI'
p8
aS'14'
p9
aS'Neutral'
p10
aa(lp11
S'Mumbai'
p12
aS'29'
p13
aS'Neutral'
p14
aa(lp15
S'German Bakery on North Main Avenue'
p16
aS'54'
p17
aS'Event'
p18
aa(lp19
S'Punes Koregaon Park'
p20
aS'61'
p21
aS'Neutral'
p22
aa(lp23
S'Osho Ashram'
p24
aS'66'
p25
aS'Neutral'
p26
aa(lp27
S'Jewish Chabad House'
p28
aS'257'
p29
aS'Neutral'
p30
aa(lp31
S'Osho Ashram'
p32
aS'303'
p33
aS'Neutral'
p34
aa(lp35
S'Pune'
p36
aS'349'
p37
aS'Event'
p38
aa(lp39
S'Pune'
p40
aS'377'
p41
aS'Event'
p42
aa(lp43
S'Mumbai'
p44
aS'384'
p45
aS'Neutral'
p46
aa(lp47
S'Maharashtra'
p48
aS'389'
p49
aS'Neutral'
p50
aa(lp51
S'Maharashtra .'
p52
aS'389'
p53
aS'Neutral'
p54
aa(lp55
S'Ruby Hall'
p56
aS'461'
p57
aS'Neutral'
p58
aa(lp59
S'Jehangir'
p60
aS'464'
p61
aS'Neutral'
p62
aa(lp63
S'Budhrani'
p64
aS'466'
p65
aS'Neutral'
p66
aa(lp67
S'Sassoon hospitals'
p68
aS'468'
p69
aS'Neutral'
p70
aa(lp71
S'Kolkata'
p72
aS'551'
p73
aS'Neutral'
p74
aa(lp75
S'Pune'
p76
aS'557'
p77
aS'Event'
p78
aa(lp79
S'Pune'
p80
aS'569'
p81
aS'Event'
p82
aasS'PER'
p83
(lp84
(lp85
S'Ashok Chavan'
p86
aS'148'
p87
aS'Others'
p88
aa(lp89
S'David Headley'
p90
aS'297'
p91
aS'Accused'
p92
aa(lp93
S'Headley'
p94
aS'308'
p95
aS'Accused'
p96
aa(lp97
S'Rajendra Sonawane'
p98
aS'409'
p99
aS'Others'
p100
aa(lp101
S'Abhay Chhajed'
p102
aS'427'
p103
aS'Others'
p104
aa(lp105
S'Chavan'
p106
aS'502'
p107
aS'Comment'
p108
aa(lp109
S'Suresh Kalmadi'
p110
aS'559'
p111
aS'Comment'
p112
aa(lp113
S'Ramesh Bagwe'
p114
aS'579'
p115
aS'Comment'
p116
aa(lp117
S'Sharad Pawar'
p118
aS'608'
p119
aS'Others'
p120
aasS'TIM'
p121
(lp122
S'7.30 p.m.:69'
p123
asS'hot_setting'
p124
S''
p125
sS'DAT'
p126
(lp127
S'November 26 , 2008 : 23'
p128
aS'Saturday:72'
p129
aS'Sunday:367'
p130
aS'Sunday:553'
p131
asS'death'
p132
S'9'
p133
sS'title'
p134
S'9 killed, 40 injured in Pune bomb blast'
p135
sS'org_unorg'
p136
S'ORGANISED'
p137
sS'terror_group'
p138
(lp139
S'LASHKAR-E-TAIBA'
p140
asS'content'
p141
VMumbai Bureau . . Explosives planted in bakery frequented by foreigners . . MUMBAI : In a major terror strike after the November 26 , 2008 carnage in Mumbai , nine persons including four foreigners , all women , were killed and over 40 injured in a bomb blast which ravaged the famous German Bakery on North Main Avenue in Punes Koregaon Park near the Osho Ashram around 7.30 p.m. on Saturday . Unofficial figures put the number of injured at 50 . . . Initially the police said it was a gas cylinder blast , but the explosion is now suspected to be an improvised explosive device -LRB- IED -RRB- using an ammonium nitrate fuel oil mix , with RDX as a booster , police sources said . About 7 kg explosives may have been used . The bodies were charred beyond recognition . Chief Minister Ashok Chavan said preliminary reports indicated that it was a bomb blast . . . An eyewitness who was travelling in an autorickshaw said he heard a loud explosion and blacked out . Another eyewitness said bodies were scattered and more than 10 were seen at the site . Four shops were damaged near the bakery , which has been there for 22 years . . . The bag containing the bomb was said to be under a table , according to one account , and a waiter is said to have tried to open it . This caused the explosion which devastated the bakery , located near the Jewish Chabad House . A customer said he heard the blast , but escaped unhurt . There were bodies lying all around , he said . . . Sources said the bakery was close to a hotel where Lashkar-e-Taiba operative David Headley had stayed while visiting Osho Ashram . However , Headley did not recce this bakery . . . Soon after the blast , an unidentified bag was found in an autorickshaw . It contained 7 kg of explosives . . . The Anti-Terrorism Squad -LRB- ATS -RRB- has also reached Pune , apart from forensic experts . The National Investigation Agency -LRB- NIA -RRB- will reach there by Sunday . . . The blast has sent shockwaves in Pune , prompting a high alert in Mumbai and other cities in Maharashtra . The police have been asked to look out for unattended baggage . . . Joint Commissioner of Police Rajendra Sonawane said that prima facie it looked like a bomb blast . . . Congress city president Abhay Chhajed confirmed the number of deaths . I myself have seen six bodies at the Sassoon Hospital . There are more at other hospitals . He said the injured had been taken to Ruby Hall , Jehangir , Budhrani and Sassoon hospitals in the city . . . The bakery is a popular spot with foreign tourists . Six or eight of the injured are said to be foreign nationals . . . Mr. Chavan has announced ex gratia payment of Rs . 1 lakh to each of the families of the deceased and Rs . 50,000 for the injured . . . Security for the Indian and South African cricket teams has been tightened . The second test match is beginning in Kolkata on Sunday . . . Pune MP Suresh Kalmadi said : I appeal to the people of Pune to be calm . Minister of State for Home Ramesh Bagwe , who is at the site , has confirmed to me that it was bomb blast . Further details are awaited . . . Union Agriculture Minister Sharad Pawar and other leaders have appealed for calm after the incident .
p142
sS'injured'
p143
S'40'
p144
sS'det_loc'
p145
(lp146
S'India'
p147
aS'Maharashtra'
p148
aS'Pune'
p149
ag125
aS'German Bakery on North Main Avenue'
p150
asS'O'
p151
(lp152
S'7 kg explosives:131'
p153
aS'Joint Commissioner of Police:405'
p154
aS'Minister of State for Home:574'
p155
aS'Union Agriculture Minister:605'
p156
asS'unexpl'
p157
(lp158
g125
asS'ocassion'
p159
g125
sS'link'
p160
S'http://www.thehindu.com/todays-paper/article710019.ece'
p161
sS'date'
p162
S'09-02-2008'
p163
sS'target'
p164
g125
sS'hot_spot'
p165
S'German Bakery on North Main Avenue'
p166
sS'delivery_mod'
p167
g125
sS'delivery_met'
p168
S'PLANTED'
p169
sS'expl'
p170
(lp171
S'IED'
p172
aS'LPG CYLINDER'
p173
asS'ORG'
p174
(lp175
(lp176
S'Lashkar-e-Taiba'
p177
aS'295'
p178
aS'Accused'
p179
aa(lp180
S'Anti-Terrorism Squad'
p181
aS'341'
p182
aS'Others'
p183
aa(lp184
S'ATS'
p185
aS'344'
p186
aS'Others'
p187
aa(lp188
S'forensic'
p189
aS'353'
p190
aS'Others'
p191
aa(lp192
S'National Investigation Agency'
p193
aS'357'
p194
aS'Others'
p195
aa(lp196
S'NIA'
p197
aS'361'
p198
aS'Others'
p199
aa(lp200
S'Congress'
p201
aS'424'
p202
aS'Others'
p203
aa(lp204
S'Sassoon Hospital'
p205
aS'443'
p206
aS'Others'
p207
aas.