(dp0
S'LOC'
p1
(lp2
(lp3
S'Digboi'
p4
aS'10'
p5
aS'Neutral'
p6
aa(lp7
S'upper Assam'
p8
aS'12'
p9
aS'Event'
p10
aa(lp11
S'Tinsukia'
p12
aS'15'
p13
aS'Neutral'
p14
aa(lp15
S'railway track'
p16
aS'59'
p17
aS'Source'
p18
aasS'PER'
p19
(lp20
(lp21
S'A P Tiwari'
p22
aS'45'
p23
aS'Comment'
p24
aa(lp25
S'Tiwari'
p26
aS'86'
p27
aS'Comment'
p28
aasS'TIM'
p29
(lp30
sS'hot_setting'
p31
S''
p32
sS'DAT'
p33
(lp34
sS'death'
p35
g32
sS'title'
p36
S"Two bombs explode in Assam's Digboi on Republic Day"
p37
sS'org_unorg'
p38
S'ORGANISED'
p39
sS'terror_group'
p40
(lp41
g32
asS'content'
p42
VTwo low-intensity bombs exploded at the oil town of Digboi in upper Assam 's Tinsukia district today as the state celebrated the 66th Republic Day.No damage or casualty has been reported so far from the very low intensity blasts , Senior Superintendent of Police A P Tiwari said.One of the explosions took place under dumped garbage near a railway track and another in a drain under the garbage there , he said.It seems from the impact that the bombs were handmade with no impact , Tiwari said.Investigations are on , he said . .
p43
sS'injured'
p44
g32
sS'det_loc'
p45
(lp46
S'India'
p47
aS'Assam'
p48
aS'Tinsukia'
p49
aS' Guwahati'
p50
aS'upper Assam'
p51
asS'O'
p52
(lp53
S'Senior Superintendent of Police:41'
p54
asS'unexpl'
p55
(lp56
g32
asS'ocassion'
p57
g32
sS'link'
p58
S'http://indiatoday.intoday.in/story/two-bombs-explode-on-republic-day-in-assam/1/415384.html'
p59
sS'date'
p60
S'26-01-2015'
p61
sS'target'
p62
g32
sS'hot_spot'
p63
S'upper Assam'
p64
sS'delivery_mod'
p65
S'GARBAGE'
p66
sS'delivery_met'
p67
S'PLANTED'
p68
sS'expl'
p69
(lp70
g32
asS'ORG'
p71
(lp72
s.