(dp0
S'LOC'
p1
(lp2
(lp3
S'Panchmahal'
p4
aS'1'
p5
aS'Event'
p6
aa(lp7
S'Godhra'
p8
aS'141'
p9
aS'Neutral'
p10
aa(lp11
S'Vadodara'
p12
aS'145'
p13
aS'Neutral'
p14
aa(lp15
S'Ahmedabad'
p16
aS'182'
p17
aS'Neutral'
p18
aa(lp19
S'Godhra'
p20
aS'195'
p21
aS'Neutral'
p22
aa(lp23
S'Lunavada'
p24
aS'229'
p25
aS'Event'
p26
aa(lp27
S'Gujarat'
p28
aS'252'
p29
aS'Event'
p30
aa(lp31
S'Gujarat'
p32
aS'258'
p33
aS'Event'
p34
aasS'PER'
p35
(lp36
(lp37
S'Narsimha Kumar'
p38
aS'6'
p39
aS'Comment'
p40
aa(lp41
S'Kumar'
p42
aS'128'
p43
aS'Comment'
p44
aa(lp45
S'Bhupatsinh Solanki'
p46
aS'196'
p47
aS'Comment'
p48
aa(lp49
S'Narendra Modi'
p50
aS'218'
p51
aS'Others'
p52
aasS'TIM'
p53
(lp54
S'1945 IST : 16'
p55
asS'hot_setting'
p56
S''
p57
sS'DAT'
p58
(lp59
S'Tuesday:101'
p60
aS'Tuesday:156'
p61
aS'October 19:231'
p62
aS'2002:260'
p63
asS'death'
p64
g57
sS'title'
p65
S'Explosion in Lunavada bus terminus in Gujarat, eight injured'
p66
sS'det_loc'
p67
(lp68
S'India'
p69
aS'Gujarat'
p70
aS'Panchmahals'
p71
ag57
aS'Lunavada Bus terminus'
p72
asS'terror_group'
p73
(lp74
g57
asS'content'
p75
VPanchmahal district Superintendent of Police Narsimha Kumar told PTI that the explosion took place around 1945 IST inside the bus terminus complex . . . Two of the injured are employees of the Gujarat State Road Transport Corporation , he said . . . Two persons with leg injuries have been rushed to the Godhra civil hospital , while others were taken to the village primary health centre , he said . . . Police applied force to disperse the crowd , which had gathered at the site of blast , after they damaged two vehicles . . . In Tuesday 's blast inside an Adadra-Godhra bus , four persons were injured . . . ` There was a marked similarity between the two explosions , ' Kumar said . . . A team of the anti-dacoity unit of the Godhra police has reached Vadodara to record the statement of the person critically injured in Tuesday 's blast . . . The material evidence collected from the spot has been sent to the state Forensic Science Laboratory -LRB- FSL -RRB- at Ahmedabad , police sources said . . . Meanwhile , BJP MP from Godhra Bhupatsinh Solanki told PTI that there would be no change in the schedule of the Gujarat Gaurav Yatra led by Chief Minister Narendra Modi . . . The yatra is scheduled to reach Lunavada on October 19 , he said . . . EARLIER REPORTSeven held in Godhra bus blast . . ALSO READFifth phase of Gujarat Gaurav Yatra begins . . Gujarat Elections 2002 : The complete coverage . . Back to top . . Tell us what you think of this report .
p76
sS'injured'
p77
S'4'
p78
sS'org_unorg'
p79
g57
sS'O'
p80
(lp81
S'damaged two vehicles:94'
p82
aS'Adadra-Godhra bus:106'
p83
aS'anti-dacoity unit:137'
p84
aS'critically injured:153'
p85
aS'Gujarat Gaurav Yatra:211'
p86
aS'Godhra bus blast:243'
p87
asS'unexpl'
p88
(lp89
g57
asS'ocassion'
p90
g57
sS'link'
p91
S'http://www.rediff.com/news/2002/oct/16guj2.htm'
p92
sS'date'
p93
S'16-10-2002'
p94
sS'target'
p95
g57
sS'hot_spot'
p96
g57
sS'delivery_mod'
p97
g57
sS'delivery_met'
p98
g57
sS'expl'
p99
(lp100
g57
asS'ORG'
p101
(lp102
(lp103
S'PTI'
p104
aS'9'
p105
aS'Others'
p106
aa(lp107
S'Gujarat State Road Transport Corporation'
p108
aS'34'
p109
aS'Victim'
p110
aa(lp111
S'Godhra civil hospital'
p112
aS'55'
p113
aS'Others'
p114
aa(lp115
S'Forensic Science Laboratory'
p116
aS'175'
p117
aS'Others'
p118
aa(lp119
S'FSL'
p120
aS'179'
p121
aS'Others'
p122
aa(lp123
S'BJP'
p124
aS'192'
p125
aS'Others'
p126
aa(lp127
S'PTI'
p128
aS'199'
p129
aS'Others'
p130
aas.