(dp0
S'LOC'
p1
(lp2
(lp3
S'Bardhaman'
p4
aS'32'
p5
aS'Event'
p6
aa(lp7
S'India'
p8
aS'60'
p9
aS'Neutral'
p10
aa(lp11
S'Simulia Madrasa'
p12
aS'121'
p13
aS'Event'
p14
aa(lp15
S'Bardhaman'
p16
aS'126'
p17
aS'Event'
p18
aa(lp19
S'Kolkata'
p20
aS'142'
p21
aS'Neutral'
p22
aa(lp23
S'Nadia'
p24
aS'144'
p25
aS'Neutral'
p26
aa(lp27
S'Assam'
p28
aS'146'
p29
aS'Neutral'
p30
aasS'PER'
p31
(lp32
(lp33
S'Razia'
p34
aS'170'
p35
aS'Accused'
p36
aa(lp37
S'Amina'
p38
aS'172'
p39
aS'Accused'
p40
aa(lp41
S'Badrul Alam Molla'
p42
aS'174'
p43
aS'Accused'
p44
aasS'TIM'
p45
(lp46
sS'hot_setting'
p47
S''
p48
sS'DAT'
p49
(lp50
S'Sunday : 107'
p51
asS'death'
p52
g48
sS'title'
p53
S'Accused had links in several States: NIA'
p54
sS'org_unorg'
p55
g48
sS'terror_group'
p56
(lp57
g48
asS'content'
p58
VThe National Investigation Agency teams stationed in different parts of the country have been alerted to pursue leads , obtained from mobile phone records , suggesting that those arrested in the Bardhaman blast case had links in several States . . . Phone records reveal that they had contacts in almost all the major megacities , also in South India . We will have to verify the antecedents of each and every contact . Six of the Assam-based suspects who were in touch with the two men killed in the blast have already been arrested , said an official . . . An NIA team on Sunday visited the blast site along with explosives experts . We also went to Simulia Madrasa , located in Bardhaman , where the accused were purportedly radicalised . The NIA teams are also camping in Kolkata , Nadia and Assam . A number of key players in the conspiracy have been identified , said an NIA statement . . . Three suspects , Razia , Amina and Badrul Alam Molla , are being interrogated . The NIA suspects that those involved were members of the Jamaatul Mujahideen Bangladesh .
p59
sS'injured'
p60
g48
sS'det_loc'
p61
(lp62
S'India'
p63
aS'West Bengal'
p64
aS'Bardhaman'
p65
ag48
ag48
asS'O'
p66
(lp67
S'stationed:6'
p68
aS'alerted:15'
p69
aS'pursue leads:17'
p70
aS'mobile phone records:22'
p71
aS'arrested:29'
p72
aS'Bardhaman blast case:32'
p73
aS'links:36'
p74
aS'Phone records:43'
p75
aS'reveal:45'
p76
aS'contacts:49'
p77
aS'megacities:55'
p78
aS'South India:59'
p79
aS'verify:66'
p80
aS'antecedents:68'
p81
aS'contact:73'
p82
aS'Six:75'
p83
aS'Assam-based suspects:78'
p84
aS'touch:83'
p85
aS'two men killed:86'
p86
aS'blast:91'
p87
aS'arrested:95'
p88
aS'visited:108'
p89
aS'blast site:110'
p90
aS'explosives experts:114'
p91
aS'accused:130'
p92
aS'radicalised:133'
p93
aS'camping:140'
p94
aS'key players:151'
p95
aS'conspiracy:155'
p96
aS'identified:158'
p97
aS'Three suspects:167'
p98
aS'interrogated:180'
p99
aS'suspects:184'
p100
aS'involved:187'
p101
asS'unexpl'
p102
(lp103
g48
asS'ocassion'
p104
g48
sS'link'
p105
S'http://www.thehindu.com/todays-paper/tp-national/accused-had-links-in-several-states-nia/article6494828.ece'
p106
sS'date'
p107
S'13-10-2014'
p108
sS'target'
p109
g48
sS'hot_spot'
p110
g48
sS'delivery_mod'
p111
g48
sS'delivery_met'
p112
g48
sS'expl'
p113
(lp114
g48
asS'ORG'
p115
(lp116
(lp117
S'National Investigation Agency'
p118
aS'2'
p119
aS'Others'
p120
aa(lp121
S'NIA'
p122
aS'104'
p123
aS'Others'
p124
aa(lp125
S'NIA'
p126
aS'136'
p127
aS'Others'
p128
aa(lp129
S'NIA'
p130
aS'162'
p131
aS'Others'
p132
aa(lp133
S'NIA'
p134
aS'183'
p135
aS'Others'
p136
aa(lp137
S'Jamaatul Mujahideen Bangladesh'
p138
aS'192'
p139
aS'Accused'
p140
aas.