(dp0
S'LOC'
p1
(lp2
(lp3
S'Mumbai'
p4
aS'21'
p5
aS'Neutral'
p6
aa(lp7
S'Srinagar'
p8
aS'23'
p9
aS'Event'
p10
aa(lp11
S'Race Course Road'
p12
aS'35'
p13
aS'Neutral'
p14
aa(lp15
S'Jammu and Kashmir'
p16
aS'73'
p17
aS'Event'
p18
aa(lp19
S'Srinagar'
p20
aS'92'
p21
aS'Event'
p22
aa(lp23
S'West Bengal'
p24
aS'102'
p25
aS'Victim Location'
p26
aa(lp27
S'Delhi'
p28
aS'128'
p29
aS'Neutral'
p30
aa(lp31
S'Srinagar'
p32
aS'139'
p33
aS'Event'
p34
aa(lp35
S'Mumbai'
p36
aS'142'
p37
aS'Event'
p38
aa(lp39
S'Delhi'
p40
aS'152'
p41
aS'Neutral'
p42
aa(lp43
S'Delhi'
p44
aS'196'
p45
aS'Neutral'
p46
aa(lp47
S'Delhi'
p48
aS'219'
p49
aS'Neutral'
p50
aasS'PER'
p51
(lp52
(lp53
S'Manmohan Singh'
p54
aS'3'
p55
aS'Others'
p56
aa(lp57
S'Shivraj Patil'
p58
aS'44'
p59
aS'Others'
p60
aa(lp61
S'M K Narayanan'
p62
aS'50'
p63
aS'Others'
p64
aa(lp65
S'V K Duggal'
p66
aS'56'
p67
aS'Others'
p68
aa(lp69
S'Deependra Pathak'
p70
aS'214'
p71
aS'Comment'
p72
aa(lp73
S'K K Paul'
p74
aS'226'
p75
aS'Comment'
p76
aasS'TIM'
p77
(lp78
sS'hot_setting'
p79
S''
p80
sS'DAT'
p81
(lp82
S'Tuesday:6'
p83
aS'Tuesday:130'
p84
asS'death'
p85
S'8'
p86
sS'title'
p87
S'PM reviews security situation after blasts'
p88
sS'org_unorg'
p89
g80
sS'terror_group'
p90
(lp91
g80
asS'content'
p92
VPrime Minister Manmohan Singh on Tuesday reviewed the security situation in the wake of the series of bomb blasts in Mumbai and Srinagar . . . The specially-convened meeting at the prime minister 's Race Course Road residence was attended by Home Minister Shivraj Patil , National Security Adviser M K Narayanan and Home Secretary V K Duggal . . . The meeting is also understood to have reviewed the situation in Jammu and Kashmir where militants carried out a string of grenade attacks within the space of three hours in Srinagar , killing eight persons , including six tourists from West Bengal , and injuring 35 others . . . A high alert has been sounded and security beefed up in public places and markets across Delhi on Tuesday in the wake of serial grenade attacks in Srinagar andblasts in Mumbai . . . Besides deploying additional police personnel across Delhi , check posts have been set up at all major points in the city , including railway and bus stations , cinema halls and busy market places . . . Barricades have also been put up at all entry and exit points of Delhi to keep a vigil and checking of vehicles has been stepped up , Additional Commissioner of Police Deependra Pathak told PTI in Delhi . . . City Police Commissioner K K Paul has also asked the public at large to be careful and to inform the police immediately in case of finding any suspicious object . .
p93
sS'injured'
p94
S'35'
p95
sS'det_loc'
p96
(lp97
S'India'
p98
aS'Jammu & Kashmir'
p99
aS'Srinagar'
p100
ag80
ag80
asS'O'
p101
(lp102
S'prime minister:1'
p103
aS'security situation:9'
p104
aS'wake of the series of bomb blasts:13'
p105
aS'series of bomb blasts in mumbai:16'
p106
aS'race course road residence:35'
p107
aS'national security adviser:47'
p108
aS'home secretary:54'
p109
aS'militants carried out a string of grenade attacks:77'
p110
aS'six tourists:99'
p111
aS'deploying additional police personnel:147'
p112
asS'unexpl'
p113
(lp114
g80
asS'ocassion'
p115
g80
sS'link'
p116
S'http://www.rediff.com/news/2006/jul/11delhi.htm'
p117
sS'date'
p118
S'11-07-2006'
p119
sS'target'
p120
g80
sS'hot_spot'
p121
g80
sS'delivery_mod'
p122
g80
sS'delivery_met'
p123
g80
sS'expl'
p124
(lp125
S'GRENADE'
p126
asS'ORG'
p127
(lp128
(lp129
S'PTI'
p130
aS'217'
p131
aS'Others'
p132
aas.