(dp0
S'LOC'
p1
(lp2
(lp3
S'Assam'
p4
aS'10'
p5
aS'Event'
p6
aa(lp7
S'Dhekiajuli'
p8
aS'92'
p9
aS'Event'
p10
aa(lp11
S'Sonitpur'
p12
aS'96'
p13
aS'Event'
p14
aa(lp15
S'Gossaigaon'
p16
aS'121'
p17
aS'Event'
p18
aa(lp19
S'Kokrajhar'
p20
aS'123'
p21
aS'Event'
p22
aa(lp23
S'Diphu'
p24
aS'157'
p25
aS'Neutral'
p26
aa(lp27
S'Karbi Anglong'
p28
aS'159'
p29
aS'Neutral'
p30
aa(lp31
S'Dimapur'
p32
aS'246'
p33
aS'Neutral'
p34
aa(lp35
S'Nagaland'
p36
aS'248'
p37
aS'Neutral'
p38
aasS'PER'
p39
(lp40
(lp41
S'Shivraj Patil'
p42
aS'32'
p43
aS'Others'
p44
aa(lp45
S'Tarun Gogoi'
p46
aS'233'
p47
aS'Others'
p48
aasS'TIM'
p49
(lp50
S'today : 15'
p51
aS'morning : 99'
p52
aS'yesterday : 259'
p53
asS'hot_setting'
p54
S''
p55
sS'DAT'
p56
(lp57
S'yesterday : 64'
p58
asS'death'
p59
g55
sS'title'
p60
S'Blasts rock Assam for the second day'
p61
sS'org_unorg'
p62
g55
sS'terror_group'
p63
(lp64
S'NATIONAL DEMOCRATIC FRONT OF BODOLAND (NDFB)'
p65
asS'content'
p66
VGUWAHATI : Attacks by NDFB militants continued to rock Assam for the second day today with two bomb blasts and a firing incident injuring eight persons even as Union Home Minister Shivraj Patil arrived here to review the security situation . . . The attacks took place amidst maximum alert in NDFB dominated areas in view of the outfit 's raising day and yesterday 's terror strikes , the toll in which rose to 26 with a CRPF personnel succumbing to injuries . A bomb exploded in a cloth shop at Dhekiajuli weekly market in Sonitpur district this morning injuring five persons . . . Two persons were seriously injured when militants opened indiscriminate fire in another weekly market at Gossaigaon in Kokrajhar district , police said . . . A crude bomb exploded in Nalbari town , where NDFB is active , seriously injured a 12 year-old girl . A CRPF jawan , injured at Diphu in Karbi Anglong district , succumbed to injuries and the condition of his nine colleagues was critical . . . Director General of Police P V Sumant told that '' maximum alert '' was sounded in the areas where NDFB is active . Additional security forces have been deployed and security along railway tracks intensified following apprehensions that the ultras may target trains . The Union Home Minister reviewed the security situation with Chief Minister Tarun Gogoi and other senior officials here . He would later leave for Dimapur in Nagaland where twin blasts killed 26 people and injured over 100 yesterday .
p67
sS'injured'
p68
S'8'
p69
sS'det_loc'
p70
(lp71
S'India'
p72
aS'Assam'
p73
aS'Sonitpur'
p74
aS'Guwahati'
p75
ag55
asS'O'
p76
(lp77
S'attacks:3'
p78
aS'militants:6'
p79
aS'bomb blasts:18'
p80
aS'security:39'
p81
aS'attacks:45'
p82
aS'outfit:59'
p83
aS'raising day:61'
p84
aS'terror strikes:66'
p85
aS'bomb:85'
p86
aS'injured:110'
p87
aS'militants:112'
p88
aS'crude bomb:132'
p89
aS'injured:155'
p90
aS'railway tracks:210'
p91
aS'trains:220'
p92
aS'twin blasts:250'
p93
aS'killed:252'
p94
aS'injured:256'
p95
asS'unexpl'
p96
(lp97
g55
asS'ocassion'
p98
g55
sS'link'
p99
S'http://articles.economictimes.indiatimes.com/2004-10-03/news/27375166_1_ndfb-militants-blasts-rock-assam-diphu'
p100
sS'date'
p101
S'03-10-2004'
p102
sS'target'
p103
S'MARKET PLACE'
p104
sS'hot_spot'
p105
g55
sS'delivery_mod'
p106
g55
sS'delivery_met'
p107
S'PLANTED'
p108
sS'expl'
p109
(lp110
S'CRUDE BOMB'
p111
asS'ORG'
p112
(lp113
(lp114
S'NDFB'
p115
aS'5'
p116
aS'Accused'
p117
aa(lp118
S'NDFB'
p119
aS'52'
p120
aS'Accused'
p121
aa(lp122
S'CRPF'
p123
aS'78'
p124
aS'Others'
p125
aa(lp126
S'NDFB'
p127
aS'140'
p128
aS'Accused'
p129
aa(lp130
S'CRPF'
p131
aS'152'
p132
aS'Others'
p133
aas.