(dp0
S'LOC'
p1
(lp2
(lp3
S'Assam'
p4
aS'20'
p5
aS'Neutral'
p6
aa(lp7
S'Karbi Anglong'
p8
aS'23'
p9
aS'Neutral'
p10
aa(lp11
S'Assam'
p12
aS'43'
p13
aS'Neutral'
p14
aa(lp15
S'Sibsagar'
p16
aS'46'
p17
aS'Neutral'
p18
aa(lp19
S'Assam'
p20
aS'118'
p21
aS'Neutral'
p22
aa(lp23
S'Sibsagar'
p24
aS'121'
p25
aS'Neutral'
p26
aa(lp27
S'Borhat'
p28
aS'142'
p29
aS'Neutral'
p30
aa(lp31
S'Choraipung'
p32
aS'144'
p33
aS'Neutral'
p34
aa(lp35
S'Khamun'
p36
aS'172'
p37
aS'Neutral'
p38
aasS'PER'
p39
(lp40
(lp41
S'Krishna Aais'
p42
aS'246'
p43
aS'Others'
p44
aa(lp45
S'Amarjyoti Patmout'
p46
aS'263'
p47
aS'Victim'
p48
aa(lp49
S'Vyas Changmai'
p50
aS'266'
p51
aS'Victim'
p52
aa(lp53
S'Kironjyoti Gogoi'
p54
aS'274'
p55
aS'Victim'
p56
aasS'TIM'
p57
(lp58
S'5.40 pm : 67'
p59
aS'today : 123'
p60
aS'last night : 248'
p61
asS'hot_setting'
p62
S''
p63
sS'DAT'
p64
(lp65
S'Saturday:27'
p66
asS'death'
p67
S'44'
p68
sS'title'
p69
S'Blast in Assam market, nine injured; three ULFA militants killed'
p70
sS'det_loc'
p71
(lp72
S'India'
p73
aS'Assam'
p74
aS'Karbi Anglong'
p75
ag63
ag63
asS'terror_group'
p76
(lp77
S'UNITED LIBERATION FRONT OF ASSAM (ULFA)'
p78
asS'content'
p79
VNine persons , including two children , were injured in a powerful bomb blast in a market in central Assam ` s Karbi Anglong district on Saturday . Three ULFA militants were killed and another nabbed in two separate encounters in Upper Assam ` s Sibsagar district . Police said the bomb exploded in the Forest Gate daily market , under Kheroni police station , at 5.40 pm . . . Senior police and civil officials have rushed there . It was not yet known who was responsible for the explosion . The injured were admitted to hospital . . . Meanwhile , three ULFA militants were killed and another nabbed in two separate encounters in Upper Assam ` s Sibsagar district today . . . The 44 field regiment killed an insurgent of the banned outfit and nabbed another at Borhat near Choraipung , defence sources said . . . A grenade , two pistols and 15 cartridges were recovered from the militants , they claimed . . . At Khamun village , under Kakotibari police station , a group of insurgents opened fire on the 318 regiment troops ensuing a gun battle in which two ultras were killed . . . Security personnels recovered one AK-56 rifle , a pistol and ammunition from the militants . . . The encounter took place when the army had launched a search operation in the area for ULFA men who had shot at a teacher , Krishna Aais last night , the sources said . . . The killed militants were identified as Amarjyoti Patmout and Vyas Changmai while nabbed insurgent was identified as Kironjyoti Gogoi . . . Bureau Report .
p80
sS'injured'
p81
g63
sS'org_unorg'
p82
g63
sS'O'
p83
(lp84
S'injured:9'
p85
aS'bomb blast:13'
p86
aS'militants:31'
p87
aS'killed:33'
p88
aS'bomb exploded:52'
p89
aS'Forest Gate:56'
p90
aS'Kheroni police station:62'
p91
aS'explosion:91'
p92
aS'injured:94'
p93
aS'militants:106'
p94
aS'killed:108'
p95
aS'encounters:115'
p96
aS'field regiment:129'
p97
aS'killed:131'
p98
aS'insurgent:133'
p99
aS'banned outfit:136'
p100
aS'grenade:153'
p101
aS'pistols:156'
p102
aS'cartridges:159'
p103
aS'militants:164'
p104
aS'Kakotibari police station:176'
p105
aS'insurgents:183'
p106
aS'318 regiment troops:188'
p107
aS'gun battle:193'
p108
aS'killed:200'
p109
aS'AK-56 rifle:208'
p110
aS'pistol:212'
p111
aS'ammunition:214'
p112
aS'militants:217'
p113
aS'encounter:222'
p114
aS'militants:259'
p115
aS'insurgent:270'
p116
asS'unexpl'
p117
(lp118
g63
asS'ocassion'
p119
g63
sS'link'
p120
S'http://zeenews.india.com/news/nation/blast-in-assam-market-nine-injured-three-ulfa-militants-killed_488924.html'
p121
sS'date'
p122
S'06-12-2008'
p123
sS'target'
p124
S'MARKET PLACE'
p125
sS'hot_spot'
p126
g63
sS'delivery_mod'
p127
g63
sS'delivery_met'
p128
S'PLANTED'
p129
sS'expl'
p130
(lp131
g63
asS'ORG'
p132
(lp133
(lp134
S'ULFA'
p135
aS'30'
p136
aS'Accused'
p137
aa(lp138
S'ULFA'
p139
aS'105'
p140
aS'Others'
p141
aa(lp142
S'ULFA'
p143
aS'237'
p144
aS'Others'
p145
aas.