(dp0
S'LOC'
p1
(lp2
(lp3
S'Mahabodhi Temple'
p4
aS'24'
p5
aS'Neutral'
p6
aa(lp7
S'Bodh Gaya'
p8
aS'45'
p9
aS'Neutral'
p10
aa(lp11
S'Gaya'
p12
aS'49'
p13
aS'Neutral'
p14
aa(lp15
S'Royal Residence hotel'
p16
aS'145'
p17
aS'Source'
p18
aa(lp19
S'Baiju Bigaha'
p20
aS'149'
p21
aS'Neutral'
p22
aa(lp23
S'Mahabodhi Temple'
p24
aS'158'
p25
aS'Event'
p26
aasS'PER'
p27
(lp28
(lp29
S'Sushil Kumar Shinde'
p30
aS'86'
p31
aS'Others'
p32
aa(lp33
S'Dorji'
p34
aS'117'
p35
aS'Victim'
p36
aa(lp37
S'Bala Sanga'
p38
aS'119'
p39
aS'Victim'
p40
aasS'TIM'
p41
(lp42
S'5:30 : 71'
p43
aS'5:58 am : 73'
p44
asS'hot_setting'
p45
S''
p46
sS'DAT'
p47
(lp48
S'July 7 , 2013 : 54'
p49
asS'death'
p50
S'0'
p51
sS'title'
p52
VCulpable Neglect 
p53
sS'det_loc'
p54
(lp55
S'India'
p56
aS'Bihar'
p57
aS'Gaya'
p58
aS'Gaya'
p59
aS' Mahabodhi Temple'
p60
asS'terror_group'
p61
(lp62
g46
asS'content'
p63
VAt least two monks , a Burmese and a Tibetan , were injured in a coordinated terror attack , in and around the Mahabodhi Temple ( the Temple of the Great Awakening , where Buddha is believed to have attained enlightenment ) Complex at Bodh Gaya in the Gaya district of Bihar on July 7 , 2013 . The Bihar Police has confirmed that ten low-intensity serial blasts occurred between 5:30 and 5:58 am at and around the World Heritage site . Union home minister Sushil Kumar Shinde confirmed , `` Today I have the information of 10 blasts . A total of 13 bombs were placed there Two persons have been injured 50 year old Dorji and Bala Sanga ( 30 ) . '' Two live bombs were detected and defused at the Complex , while a third bomb was recovered near the Royal Residence hotel at Baiju Bigaha village , about four kilometres from the Mahabodhi Temple .
p64
sS'injured'
p65
S'2'
p66
sS'org_unorg'
p67
S'ORGANISED'
p68
sS'O'
p69
(lp70
S'Burmese:7'
p71
aS'Tibetan:10'
p72
aS'World Heritage:79'
p73
aS'Union home minister:83'
p74
asS'unexpl'
p75
(lp76
g46
asS'ocassion'
p77
g46
sS'link'
p78
S'http://www.outlookindia.com/website/story/culpable-neglect/286803'
p79
sS'date'
p80
S'08-07-2013'
p81
sS'target'
p82
g46
sS'hot_spot'
p83
S' Mahabodhi Temple'
p84
sS'delivery_mod'
p85
g46
sS'delivery_met'
p86
g46
sS'expl'
p87
(lp88
g46
asS'ORG'
p89
(lp90
(lp91
S'Bihar Police'
p92
aS'60'
p93
aS'Others'
p94
aas.