(dp0
S'LOC'
p1
(lp2
(lp3
S'Guwahati:18'
p4
aS'Event'
p5
aS'Neutral'
p6
aa(lp7
S'Assam'
p8
aS'30'
p9
aa(lp10
S'Assam'
p11
aS'70'
p12
aa(lp13
S'Maligaon'
p14
aS'92'
p15
aS'Event'
p16
aa(lp17
S'Santipur'
p18
aS'208'
p19
aS'Event'
p20
aa(lp21
S'Bokajan'
p22
aS'210'
p23
aS'Neutral'
p24
aa(lp25
S'Dhekiajuli'
p26
aS'229'
p27
aS'Event'
p28
aa(lp29
S'Sonitpur'
p30
aS'231'
p31
aS'Event'
p32
aa(lp33
S'Dhubri'
p34
aS'276'
p35
aS'Neutral'
p36
aa(lp37
S'Guwahati'
p38
aS'291'
p39
aS'Neutral'
p40
aa(lp41
S'Dibrugarh'
p42
aS'359'
p43
aS'Neutral'
p44
aa(lp45
S'Dibrugarh . .'
p46
aS'359'
p47
aS'Neutral'
p48
aa(lp49
S'Assam'
p50
aS'366'
p51
aasS'PER'
p52
(lp53
(lp54
S'M.S. Prabhakara'
p55
aS'1'
p56
aS'Others'
p57
aa(lp58
S'G.M. Srivastav'
p59
aS'72'
p60
aS'Others'
p61
aa(lp62
S'Monohari Rajbongshi'
p63
aS'406'
p64
aS'Accused'
p65
aa(lp66
S'Pradip Kalita'
p67
aS'409'
p68
aS'Accused'
p69
aasS'TIM'
p70
(lp71
S'five hours : 53'
p72
aS'2 p.m.:94'
p73
asS'hot_setting'
p74
S''
p75
sS'DAT'
p76
(lp77
S'Monday:42'
p78
aS'April 7:318'
p79
aS'1979 : 333'
p80
aS'Friday:430'
p81
asS'death'
p82
S'8'
p83
sS'title'
p84
S'8 killed in Assam blasts'
p85
sS'org_unorg'
p86
S'ORGANISED'
p87
sS'terror_group'
p88
(lp89
S'UNITED LIBERATION FRONT OF ASSAM (ULFA)'
p90
asS'content'
p91
VM.S. Prabhakara and PTI . . Suspected ULFA militants strike on eve of Manmohans visit . . Guwahati : On the eve of Prime Minister Manmohan Singhs visit to Assam , suspected militants of the United Liberation Front of Assam on Monday set off three blasts and mounted a grenade attack within five hours . Eight persons and over 62 were injured in the terror attacks . . . Assam DGP G.M. Srivastav said seven people were killed and 56 injured in a powerful blast in a crowded market in Guwahatis Maligaon around 2 p.m. . . The explosion sparked a fire that set ablaze two cars and 20 motorcycles and spread to a three-storey building housing the area police station . . . Six were killed at the blast site . One died of injuries after jumping from an adjacent building which had caught fire . The bomb is suspected to have been hidden in a car or a motorcycle parked adjacent to the North-East Frontier Railway headquarters . . . This is the handiwork of ULFA boys ahead of the outfits Raising Day Mr. Srivastav said , adding the militants used hi-tech explosives . . . A bomb was set off by unidentified persons in Santipur near Bokajan earlier in the day . . . Suspected ULFA militants also set off a bicycle bomb explosion in Dhekiajuli in Sonitpur district later . Four people were injured , one of them seriously , in this incident . According to an unconfirmed report , he later died of his injuries . . . An unidentified youth lobbed a hand grenade at Mankachar police station in Dhubri district , killing a police driver and injuring another . . . In the Guwahati blast , four of the dead , including a minor girl , have been identified . . . The Foundation Day of ULFA is observed on April 7 every year , marking the founding of the organisation on this day in 1979 . . . Congress sources said there will be no change in the Prime Ministers programme . He is to address an election rally in Dibrugarh . . . Dr. Singh represents Assam in the Rajya Sabha and the rally marks his entry into the poll campaign trail . . . The explosions have taken place amidst reports that two top bombing experts of the ULFA , identified by the police as Monohari Rajbongshi and Pradip Kalita , recently arrived in the city to carry out such attacks . . . Police released their photographs on Friday .
p92
sS'injured'
p93
S'62'
p94
sS'det_loc'
p95
(lp96
S'India'
p97
aS'Assam'
p98
ag75
aS'Guwahati'
p99
aS'market in Guwahatis Maligaon'
p100
asS'O'
p101
(lp102
S'DGP:71'
p103
aS'North-East Frontier Railway:166'
p104
asS'unexpl'
p105
(lp106
g75
asS'ocassion'
p107
g75
sS'link'
p108
S'http://www.thehindu.com/todays-paper/8-killed-in-assam-blasts/article299585.ece'
p109
sS'date'
p110
S'06-04-2009'
p111
sS'target'
p112
g75
sS'hot_spot'
p113
S'market in Guwahatis Maligaon'
p114
sS'delivery_mod'
p115
g75
sS'delivery_met'
p116
S'PLANTED'
p117
sS'expl'
p118
(lp119
S'GRENADE'
p120
asS'ORG'
p121
(lp122
(lp123
S'PTI'
p124
aS'4'
p125
aS'Others'
p126
aa(lp127
S'ULFA'
p128
ag83
aS'Accused'
p129
aa(lp130
S'United Liberation Front of Assam'
p131
aS'36'
p132
aS'Accused'
p133
aa(lp134
S'ULFA'
p135
aS'178'
p136
aS'Accused'
p137
aa(lp138
S'ULFA'
p139
aS'219'
p140
aS'Accused'
p141
aa(lp142
S'Mankachar police'
p143
aS'272'
p144
aS'Others'
p145
aa(lp146
S'ULFA'
p147
aS'314'
p148
aS'Accused'
p149
aa(lp150
S'ULFA'
p151
aS'399'
p152
aS'Accused'
p153
aas.