(dp0
S'LOC'
p1
(lp2
(lp3
S'US'
p4
aS'2'
p5
aS'Neutral'
p6
aa(lp7
S'Hyderabad'
p8
aS'12'
p9
aS'Event'
p10
aa(lp11
S'India'
p12
aS'23'
p13
aS'Neutral'
p14
aasS'PER'
p15
(lp16
sS'TIM'
p17
(lp18
sS'hot_setting'
p19
S''
p20
sS'DAT'
p21
(lp22
sS'death'
p23
g20
sS'title'
p24
S'US condemns Hyderabad blasts, offers assistance in probe'
p25
sS'det_loc'
p26
(lp27
S'India'
p28
aS'Andhra Pradesh'
p29
ag20
aS'Hyderabad'
p30
ag20
asS'terror_group'
p31
(lp32
g20
asS'content'
p33
VThe US has strongly condemned the `` cowardly attack '' in Hyderabad that claimed many lives , saying that it stood with India in battling the `` scourge of terrorism '' and offered its assistance in probing the incident .
p34
sS'injured'
p35
g20
sS'org_unorg'
p36
g20
sS'O'
p37
(lp38
S'cowardly attack:8'
p39
aS'scourge of terrorism:28'
p40
asS'unexpl'
p41
(lp42
g20
asS'ocassion'
p43
g20
sS'link'
p44
S'http://www.business-standard.com/article/pti-stories/us-condemns-hyderabad-blasts-offers-assistance-in-probe-113022200190_1.html'
p45
sS'date'
p46
S'21-02-2013'
p47
sS'target'
p48
S'CITY'
p49
sS'hot_spot'
p50
g20
sS'delivery_mod'
p51
g20
sS'delivery_met'
p52
S'PLANTED'
p53
sS'expl'
p54
(lp55
g20
asS'ORG'
p56
(lp57
s.