(dp0
S'LOC'
p1
(lp2
(lp3
S'Bangalore'
p4
aS'19'
p5
aS'Event'
p6
aa(lp7
S'Forum Mall'
p8
aS'35'
p9
aS'Event'
p10
aa(lp11
S'Bangalore'
p12
aS'38'
p13
aS'Event'
p14
aa(lp15
S'Koramangla'
p16
aS'40'
p17
aS'Event'
p18
aa(lp19
S'Hosur Road'
p20
aS'71'
p21
aS'Neutral'
p22
aa(lp23
S'Bangalore'
p24
aS'83'
p25
aS'Neutral'
p26
aasS'PER'
p27
(lp28
(lp29
S'Shankar Bidri'
p30
aS'85'
p31
aS'Comment'
p32
aasS'TIM'
p33
(lp34
sS'hot_setting'
p35
S''
p36
sS'DAT'
p37
(lp38
S'Fridays : 117'
p39
aS'Friday:131'
p40
asS'death'
p41
g36
sS'title'
p42
S'Another bomb found in Bangalore, defused'
p43
sS'org_unorg'
p44
S'ORGANISED'
p45
sS'terror_group'
p46
(lp47
g36
asS'content'
p48
VNEW DELHI : NEW DELHI : A day after a string of eight low intensity bomb blasts rocked Bangalore that killed one and injured several others , another live bomb was reportedly found near Forum Mall in Bangalore 's Koramangla area . -LRB- Watch -RRB- The bomb has now been defused.Police cordoned off the area and blocked the entire stretch leading to the mall . Traffic has been diverted from Hosur Road and Koramangla.Following the bomb scare , the police commissioner of Bangalore , Shankar Bidri also reached the area and requested the locals to remain calm . -LRB- Watch -RRB- According to police , the object found today is similar to the one used in Fridays blasts.The National Bomb Detection squad rushed to the spot to conduct more checks.On Friday the IT city was rocked by eight low-intensity blasts that killed one and injured several others.More details awaited .
p49
sS'injured'
p50
g36
sS'det_loc'
p51
(lp52
S'India'
p53
aS'Karnataka'
p54
aS'Bangalore Urban'
p55
ag36
ag36
asS'O'
p56
(lp57
S'NEW DELHI:1'
p58
aS'forum mall:35'
p59
aS'cordoned:52'
p60
aS'police commissioner:80'
p61
aS'it city:133'
p62
aS'eight low-intensity blasts:138'
p63
asS'unexpl'
p64
(lp65
g36
asS'ocassion'
p66
g36
sS'link'
p67
S'http://timesofindia.indiatimes.com/india/Another-bomb-found-in-Bangalore-defused/articleshow/3282520.cms?referral=PM'
p68
sS'date'
p69
S'26-07-2008'
p70
sS'target'
p71
S'SHOPPING MALL'
p72
sS'hot_spot'
p73
g36
sS'delivery_mod'
p74
g36
sS'delivery_met'
p75
S'PLACED'
p76
sS'expl'
p77
(lp78
S'BOMB'
p79
asS'ORG'
p80
(lp81
(lp82
S'National Bomb Detection squad'
p83
aS'119'
p84
aS'Others'
p85
aas.