(dp0
S'LOC'
p1
(lp2
(lp3
S'NEW DELHI'
p4
aS'39'
p5
aS'Neutral'
p6
aa(lp7
S'Shringar'
p8
aS'52'
p9
aS'Event'
p10
aa(lp11
S'Ludhiana'
p12
aS'56'
p13
aS'Neutral'
p14
aa(lp15
S'Khalistan'
p16
aS'153'
p17
aS'Event'
p18
aa(lp19
S'Bihar'
p20
aS'176'
p21
aS'Neutral'
p22
aa(lp23
S'Europe'
p24
aS'225'
p25
aS'Neutral'
p26
aa(lp27
S'United States of America'
p28
aS'228'
p29
aS'Neutral'
p30
aa(lp31
S'Lahore'
p32
aS'291'
p33
aS'Neutral'
p34
aa(lp35
S'Kuala'
p36
aS'293'
p37
aS'Neutral'
p38
aa(lp39
S'Kuala Lumpur'
p40
aS'293'
p41
aS'Neutral'
p42
aa(lp43
S'Karnal'
p44
aS'384'
p45
aS'Source'
p46
aa(lp47
S'New Delhi'
p48
aS'414'
p49
aS'Neutral'
p50
aa(lp51
S'Punjab'
p52
aS'496'
p53
aS'Accused Location'
p54
aa(lp55
S'Punjab'
p56
aS'524'
p57
aS'Accused Location'
p58
aa(lp59
S'Jalandhar City Railway Station'
p60
aS'536'
p61
aS'Event'
p62
aa(lp63
S'New Delhi'
p64
aS'573'
p65
aS'Neutral'
p66
aa(lp67
S'Punjab'
p68
aS'609'
p69
aS'Neutral'
p70
aa(lp71
S'Haryana'
p72
aS'611'
p73
aS'Neutral'
p74
aa(lp75
S'Jalandhar'
p76
aS'628'
p77
aS'Event'
p78
aa(lp79
S'Ludhiana'
p80
aS'637'
p81
aS'Event'
p82
aa(lp83
S'Surankote'
p84
aS'643'
p85
aS'Victim Location'
p86
aa(lp87
S'Poonch'
p88
aS'646'
p89
aS'Neutral'
p90
aa(lp91
S'Jammu and Kashmir'
p92
aS'674'
p93
aS'Neutral'
p94
aa(lp95
S'Ghaziabad'
p96
aS'688'
p97
aS'Neutral'
p98
aa(lp99
S'Pakistan'
p100
aS'697'
p101
aS'Neutral'
p102
aa(lp103
S'Khalistan'
p104
aS'732'
p105
aS'Neutral'
p106
aa(lp107
S'Jammu and Kashmir'
p108
aS'753'
p109
aS'Neutral'
p110
aa(lp111
S'Mecca Masjid'
p112
aS'835'
p113
aS'Event'
p114
aa(lp115
S'Hyderabad'
p116
aS'842'
p117
aS'Event'
p118
aa(lp119
S'Ajmer'
p120
aS'854'
p121
aS'Event'
p122
aasS'PER'
p123
(lp124
(lp125
S'Praveen Swami'
p126
aS'1'
p127
aS'Others'
p128
aa(lp129
S'Wadhawa Singh'
p130
aS'209'
p131
aS'Others'
p132
aa(lp133
S'Jagraon'
p134
aS'261'
p135
aS'Accused'
p136
aa(lp137
S'Gurpreet Singh'
p138
aS'263'
p139
aS'Accused'
p140
aa(lp141
S'Gurpreet Singh'
p142
aS'274'
p143
aS'Accused'
p144
aa(lp145
S'Wadhawa Singh'
p146
aS'282'
p147
aS'Others'
p148
aa(lp149
S'Beant Singh'
p150
aS'331'
p151
aS'Others'
p152
aa(lp153
S'Jagtar Singh Tara'
p154
aS'334'
p155
aS'Accused'
p156
aa(lp157
S'Paramjit Singh Bheora'
p158
aS'367'
p159
aS'Accused'
p160
aa(lp161
S'Jagtar Singh Hawara'
p162
aS'403'
p163
aS'Accused'
p164
aa(lp165
S'Beant Singh'
p166
aS'438'
p167
aS'Others'
p168
aa(lp169
S'Amir Hashim'
p170
aS'576'
p171
aS'Accused'
p172
aa(lp173
S'Kamran'
p174
aS'588'
p175
aS'Accused'
p176
aa(lp177
S'Wasim Akbar'
p178
aS'619'
p179
aS'Others'
p180
aa(lp181
S'Hashim'
p182
aS'625'
p183
aS'Accused'
p184
aa(lp185
S'Hashim'
p186
aS'659'
p187
aS'Accused'
p188
aa(lp189
S'Zaki-ur-Rahman Lakhvi'
p190
aS'666'
p191
aS'Accused'
p192
aa(lp193
S'Mohammad Azam Cheema'
p194
aS'678'
p195
aS'Accused'
p196
aa(lp197
S'Abdul Karim Tunda'
p198
aS'690'
p199
aS'Accused'
p200
aa(lp201
S'Manjit Singh'
p202
aS'759'
p203
aS'Accused'
p204
aasS'TIM'
p205
(lp206
sS'hot_setting'
p207
S''
p208
sS'DAT'
p209
(lp210
S'2005:204'
p211
aS'March 21 , 2006 : 341'
p212
aS'2005:394'
p213
aS'1995:433'
p214
aS'2004:447'
p215
aS'March 1997:527'
p216
aS'1997:528'
p217
aS'December 1996:633'
p218
aS'1998:648'
p219
aS'1992:728'
p220
aS'May:839'
p221
aS'August:846'
p222
asS'death'
p223
g208
sS'title'
p224
S'Ludhiana cinema blast: long investigation could lie ahead'
p225
sS'org_unorg'
p226
S'ORGANISED'
p227
sS'terror_group'
p228
(lp229
S'BABBAR KHALSA INTERNATIONAL'
p230
asS'content'
p231
VPraveen Swami . . As forensic evidence trickles in , the list of possible suspects multiplies . . Terror groups have long history of collaboration with Pakistan-based Khalistani organisations . . BKI desperate to register success . . NEW DELHI : Even as the first fragments of forensic evidence of the Shringar Cinema bombing in Ludhiana have begun to trickle in , Punjab police investigators find themselves with a mounting list of suspects and , as yet , little hard evidence to work with . . . National Security Guard experts have determined that the bomb which ripped through the theatre was built around a core of Research Department Explosive , but officials said its final composition and construction would be known only after final results were available . . . Punjab police sources said they were focussing on the possible role of the Babbar Khalsa International -LRB- BKI -RRB- the last Khalistan terror group believed to have credible offensive capabilities . Officials note that the globally-proscribed BKI , which frequently targeted migrant workers from Bihar during the past , has been desperate to register success . . . Ever since the Inter-Services Intelligence started to choke off funding to the BKI in 2005 , its Lahore-based chief Wadhawa Singh has been seeking to mount a major operation to raise funds from sympathisers in Europe and the United States of America , a New Delhi-based intelligence official told The Hindu . . . Only last month did the Punjab police seize 3.5 kg of RDX from a car owned by Jagraon resident Gurpreet Singh , son of a former terrorist . Investigators say Gurpreet Singh , who is absconding , met Wadhawa Singh earlier this year , after travelling to Lahore through Kuala Lumpur . . . Last year too , the Punjab police found evidence that the BKI was seeking to mount offensive operations . . . Four BKI terrorists , linked to a module controlled by the absconding Beant Singh assassin Jagtar Singh Tara , were arrested on March 21 , 2006 , and one kg of RDX was recovered . Just a day earlier , the Delhi police held the BKI operations chief Paramjit Singh Bheora and associates . Four kg of RDX was found in the terrorists safe-house near Karnal . . . BKI operative held . . In 2005 , the Delhi police arrested top BKI operative Jagtar Singh Hawara after his organisation bombed two movie theatres in New Delhi to protest what they claimed was its anti-Sikh politics . . . Hawara , architect of the 1995 assassination of Chief Minister Beant Singh , escaped from Chandigarhs Burail Jail in 2004 . . . He was sentenced to death earlier this year . . . But intelligence officials also said the evidence available so far did not justify making a determination on which terror group most likely carried out Sundays strike . Islamist terror groups have hit targets in Punjab before a fact of significance given the spate of recent attacks nationwide . . . Among the largest terror strikes conducted by the Islamist terror groups in Punjab was the March 1997 bombing of a parking lot outside the Jalandhar City Railway Station . . . Six people were killed and 13 injured . An ammonium nitrate-based bomb packed in a still can was used to fabricate the device used in the explosion . . . New Delhi resident Amir Hashim , a Lashkar-e-Taiba operative , who operated under the code-name Kamran , was later convicted for his role in the bombing , as well as a series of prior strikes in Punjab , Haryana and the national capital . Pakistani national Wasim Akbar , who collaborated with Hashim in the Jalandhar bombing and the abortive December 1996 strike at Ludhiana , was shot dead at Surankote , near Poonch in 1998 . . . All three top Lashkar operatives who directed Hashim the organisations overall military commander , Zaki-ur-Rahman Lakhvi ; the head of operations outside Jammu and Kashmir , Mohammad Azam Cheema ; and his immediate superior , one-time Ghaziabad resident Abdul Karim Tunda are still active in Pakistan . . . The Islamist terror groups have a long history of collaboration with Pakistan-based Khalistani organisations such as the BKI and the Khalistan Zindabad Force . . . In 1992 , as the Khalistan movement began to disintegrate , the Central Bureau of Investigation detected efforts to revive it with assistance from Islamists in Jammu and Kashmir . BKI operative Manjit Singh , the leading figure in the operation , was recently released from prison after he served a life term . . . Role of migrant workers ? . . Ludhianas large community of Bangladeshi migrant workers , some intelligence officials suspect , may also have been used by Harkat ul-Jihad-e-Islami operatives to execute the movie theatre bombing . . . Investigators believe that Bangladesh-based HUJI operatives executed at least three recent strikes : the Mecca Masjid bombing in May , the Hyderabad serial bombings in August , and last weeks shrine attack in Ajmer . . . At this stage , one official said , we need to explore every possible avenue .
p232
sS'injured'
p233
g208
sS'det_loc'
p234
(lp235
S'India'
p236
aS'Jammu & Kashmir'
p237
aS'Srinagar'
p238
aS'Sri nagar'
p239
aS'Shringar Cinema'
p240
asS'O'
p241
(lp242
S'RDX:350'
p243
aS'Chief Minister:436'
p244
aS'Chandigarhs Burail Jail:443'
p245
aS'Bangladeshi migrant:794'
p246
asS'unexpl'
p247
(lp248
g208
asS'ocassion'
p249
g208
sS'link'
p250
S'http://www.thehindu.com/todays-paper/ludhiana-cinema-blast-long-investigation-could-lie-ahead/article1931124.ece'
p251
sS'date'
p252
S'14-10-2007'
p253
sS'target'
p254
S'CINEMA HALL'
p255
sS'hot_spot'
p256
S'Shringar Cinema'
p257
sS'delivery_mod'
p258
g208
sS'delivery_met'
p259
S'PLANTED'
p260
sS'expl'
p261
(lp262
g208
asS'ORG'
p263
(lp264
(lp265
S'BKI'
p266
aS'32'
p267
aS'Accused'
p268
aa(lp269
S'Punjab police'
p270
aS'63'
p271
aS'Others'
p272
aa(lp273
S'National Security Guard'
p274
aS'88'
p275
aS'Others'
p276
aa(lp277
S'Research Department Explosive'
p278
aS'108'
p279
aS'Others'
p280
aa(lp281
S'Punjab police'
p282
aS'132'
p283
aS'Others'
p284
aa(lp285
S'Babbar Khalsa International'
p286
aS'145'
p287
aS'Others'
p288
aa(lp289
S'BKI'
p290
aS'149'
p291
aS'Others'
p292
aa(lp293
S'BKI'
p294
aS'168'
p295
aS'Others'
p296
aa(lp297
S'BKI'
p298
aS'202'
p299
aS'Others'
p300
aa(lp301
S'The Hindu'
p302
aS'239'
p303
aS'Others'
p304
aa(lp305
S'Punjab police'
p306
aS'249'
p307
aS'Others'
p308
aa(lp309
S'Punjab police'
p310
aS'303'
p311
aS'Others'
p312
aa(lp313
S'BKI'
p314
aS'309'
p315
aS'Others'
p316
aa(lp317
S'BKI'
p318
aS'320'
p319
aS'Others'
p320
aa(lp321
S'Delhi police'
p322
aS'360'
p323
aS'Others'
p324
aa(lp325
S'BKI'
p326
aS'364'
p327
aS'Others'
p328
aa(lp329
S'BKI'
p330
aS'388'
p331
aS'Others'
p332
aa(lp333
S'Delhi police'
p334
aS'397'
p335
aS'Others'
p336
aa(lp337
S'BKI'
p338
aS'401'
p339
aS'Accused'
p340
aa(lp341
S'Islamist terror groups'
p342
aS'489'
p343
aS'Accused'
p344
aa(lp345
S'Islamist terror groups'
p346
aS'520'
p347
aS'Accused'
p348
aa(lp349
S'Lashkar-e-Taiba'
p350
aS'580'
p351
aS'Accused'
p352
aa(lp353
S'Lashkar'
p354
aS'655'
p355
aS'Accused'
p356
aa(lp357
S'BKI'
p358
aS'718'
p359
aS'Accused'
p360
aa(lp361
S'Khalistan Zindabad Force'
p362
aS'721'
p363
aS'Accused'
p364
aa(lp365
S'Central Bureau of Investigation'
p366
aS'739'
p367
aS'Others'
p368
aa(lp369
S'BKI'
p370
aS'757'
p371
aS'Accused'
p372
aa(lp373
S'Harkat ul-Jihad-e-Islami'
p374
aS'809'
p375
aS'Accused'
p376
aa(lp377
S'HUJI'
p378
aS'825'
p379
aS'Accused'
p380
aas.