(dp0
S'LOC'
p1
(lp2
(lp3
S'Assam'
p4
aS'5'
p5
aS'Neutral'
p6
aa(lp7
S'Saikhong'
p8
aS'17'
p9
aS'Event'
p10
aa(lp11
S'Churachandpur'
p12
aS'20'
p13
aS'Event'
p14
aa(lp15
S'Manipur'
p16
aS'23'
p17
aS'Neutral'
p18
aa(lp19
S'Lilong in'
p20
aS'64'
p21
aS'Neutral'
p22
aa(lp23
S'Lilong'
p24
aS'64'
p25
aS'Neutral'
p26
aa(lp27
S'Thoubal'
p28
aS'66'
p29
aS'Neutral'
p30
aa(lp31
S'Heirok'
p32
aS'85'
p33
aS'Neutral'
p34
aa(lp35
S'Thoubal'
p36
aS'87'
p37
aS'Neutral'
p38
aa(lp39
S'Imphal West'
p40
aS'119'
p41
aS'Neutral'
p42
aa(lp43
S'Kwakeithel Heinou Khongnembi'
p44
aS'148'
p45
aS'Neutral'
p46
aasS'PER'
p47
(lp48
(lp49
S'Ibomcha Gurumayum'
p50
aS'124'
p51
aS'Accused'
p52
aasS'TIM'
p53
(lp54
sS'hot_setting'
p55
S''
p56
sS'DAT'
p57
(lp58
S'Sunday:25'
p59
asS'death'
p60
g56
sS'title'
p61
S'Assam Rifles trooper injured in bomb attack'
p62
sS'det_loc'
p63
(lp64
S'India'
p65
aS'Manipur'
p66
aS'Churachandpur'
p67
aS'IMPHAL'
p68
aS'Saikhong'
p69
asS'terror_group'
p70
(lp71
S' REVOLUTIONARY PEOPLES FRONT '
p72
asS'content'
p73
VA trooper of 31 Assam Rifles was injured in a bomb blast triggered by militants at Saikhong village in Churachandpur district of Manipur on Sunday . He was on foot patrol with some others . . . In another incident , a 12-year-old boy was injured when a bomb went off while it was being removed by the police on Highway 39 at Lilong in Thoubal district . . . A grenade was hurled at the camp of 116 Bn Border Security Force at Heirok in Thoubal district . . . In a statement , the Revolutionary Peoples Front said its military wing , the Peoples Liberation Army , was behind the bomb attacks . . . The Imphal West district police arrested Ibomcha Gurumayum -LRB- 52 -RRB- , said to be a member of the Peoples Revolutionary Party of Kangleipak -LRB- Pro group -RRB- , from Kwakeithel Heinou Khongnembi . Eight hand grenades were seized from him .
p74
sS'injured'
p75
S'31'
p76
sS'org_unorg'
p77
S'ORGANISED'
p78
sS'O'
p79
(lp80
S'police:59'
p81
aS'grenade:72'
p82
aS'Border Security Force:81'
p83
asS'unexpl'
p84
(lp85
g56
asS'ocassion'
p86
g56
sS'link'
p87
S'http://www.thehindu.com/todays-paper/assam-rifles-trooper-injured-in-bomb-attack/article4622320.ece'
p88
sS'date'
p89
S'14-04-2013'
p90
sS'target'
p91
S'POLICE AND DEFENCE FORCES'
p92
sS'hot_spot'
p93
S'Saikhong'
p94
sS'delivery_mod'
p95
g56
sS'delivery_met'
p96
S'PLANTED'
p97
sS'expl'
p98
(lp99
g56
asS'ORG'
p100
(lp101
(lp102
S'Revolutionary Peoples Front'
p103
aS'97'
p104
aS'Accused'
p105
aa(lp106
S'Peoples Liberation Army'
p107
aS'106'
p108
aS'Accused'
p109
aa(lp110
S'Peoples Revolutionary Party of Kangleipak'
p111
aS'137'
p112
aS'Accused'
p113
aas.