(dp0
S'LOC'
p1
(lp2
(lp3
S'Delhi'
p4
aS'17'
p5
aS'Neutral'
p6
aa(lp7
S'Rajdhani express'
p8
aS'19'
p9
aS'Event'
p10
aa(lp11
S'Sungajan'
p12
aS'22'
p13
aS'Event'
p14
aa(lp15
S'Dimapur'
p16
aS'24'
p17
aS'Neutral'
p18
aa(lp19
S'Bokajan'
p20
aS'89'
p21
aS'Neutral'
p22
aasS'PER'
p23
(lp24
sS'TIM'
p25
(lp26
S'morning : 38'
p27
aS'0130 hours : 52'
p28
asS'hot_setting'
p29
S''
p30
sS'DAT'
p31
(lp32
sS'death'
p33
S'5'
p34
sS'title'
p35
S'Blast in Rajdhani Express, five killed'
p36
sS'org_unorg'
p37
S'ORGANISED'
p38
sS'terror_group'
p39
(lp40
S'ALL ADIVASI NATIONAL LIBERATION ARMY'
p41
asS'content'
p42
VView PhotosNews GalleryGuwahati , Dec 13 : Suspected Adivasi militants blasted a powerful bomb in the Delhi bound Rajdhani express at Sungajan near Dimapur , killing at least 5 and injuring more than 20 persons early this morning . . . According to NF Railway sources , the blast occurred at 0130 hours in the first compartment , after the engine , which was carrying railway staff and lot of illegal passengers.The blast did not damage the track and the driver managed to take the train to nearest Bokajan station after the blast . Condition of three other passengers are slated to be very critical . . . The passengers of the train were shifted to another train . The movement of the train in the sector has not been affected , the source said . . . .
p43
sS'injured'
p44
S'20'
p45
sS'det_loc'
p46
(lp47
S'India'
p48
aS'Assam'
p49
aS'Golaghat'
p50
aS'Guwahati'
p51
aS'Sungajan'
p52
asS'O'
p53
(lp54
S'NF Railway:44'
p55
asS'unexpl'
p56
(lp57
g30
asS'ocassion'
p58
g30
sS'link'
p59
S'http://www.oneindia.com/2007/12/13/blast-in-rajdhani-2-killed-1197514940.html'
p60
sS'date'
p61
S'13-12-2007'
p62
sS'target'
p63
g30
sS'hot_spot'
p64
S'Sungajan'
p65
sS'delivery_mod'
p66
g30
sS'delivery_met'
p67
S'PLANTED'
p68
sS'expl'
p69
(lp70
g30
asS'ORG'
p71
(lp72
(lp73
S'Adivasi'
p74
aS'9'
p75
aS'Accused'
p76
aas.