(dp0
S'LOC'
p1
(lp2
(lp3
S'Burdwan'
p4
aS'16'
p5
aS'Event'
p6
aa(lp7
S'Kolkata'
p8
aS'18'
p9
aS'Neutral'
p10
aa(lp11
S'West Bengal'
p12
aS'28'
p13
aS'Neutral'
p14
aa(lp15
S'Burdwan'
p16
aS'32'
p17
aS'Neutral'
p18
aa(lp19
S'Bangladesh'
p20
aS'48'
p21
aS'Neutral'
p22
aa(lp23
S'Bengal'
p24
aS'73'
p25
aS'Neutral'
p26
aa(lp27
S'Burdwan'
p28
aS'92'
p29
aS'Event'
p30
aa(lp31
S'Khagragarh'
p32
aS'94'
p33
aS'Neutral'
p34
aa(lp35
S'Burdwan'
p36
aS'168'
p37
aS'Event'
p38
aa(lp39
S'Bengal'
p40
aS'204'
p41
aS'Neutral'
p42
aa(lp43
S'Burdwan'
p44
aS'213'
p45
aS'Event'
p46
aa(lp47
S'Burdwan'
p48
aS'245'
p49
aS'Event'
p50
aa(lp51
S'Bangladesh'
p52
aS'292'
p53
aS'Neutral'
p54
aa(lp55
S'Bangladesh'
p56
aS'306'
p57
aS'Neutral'
p58
aa(lp59
S'Bangladesh'
p60
aS'335'
p61
aS'Neutral'
p62
aa(lp63
S'Dhaka'
p64
aS'355'
p65
aS'Neutral'
p66
aasS'PER'
p67
(lp68
(lp69
S'Ajit Doval'
p70
aS'4'
p71
aS'Others'
p72
aa(lp73
S'Ajit Doval'
p74
aS'23'
p75
aS'Others'
p76
aa(lp77
S'Mamata Banerjee'
p78
aS'59'
p79
aS'Others'
p80
aa(lp81
S'Banerjee'
p82
aS'68'
p83
aS'Others'
p84
aa(lp85
S'Doval'
p86
aS'87'
p87
aS'Others'
p88
aa(lp89
S'Prakash Mishra'
p90
aS'130'
p91
aS'Others'
p92
aa(lp93
S'Doval'
p94
aS'144'
p95
aS'Others'
p96
aa(lp97
S'Doval'
p98
aS'182'
p99
aS'Others'
p100
aa(lp101
S'Bannerjee'
p102
aS'221'
p103
aS'Others'
p104
aa(lp105
S'Banerjee'
p106
aS'235'
p107
aS'Others'
p108
aa(lp109
S'Sheikh Hasina'
p110
aS'302'
p111
aS'Others'
p112
aasS'TIM'
p113
(lp114
sS'hot_setting'
p115
S''
p116
sS'DAT'
p117
(lp118
sS'death'
p119
g116
sS'title'
p120
S"Bengal Can't Turn a Blind Eye to Terror, NSA Told Mamata Banerjee, say Sources"
p121
sS'org_unorg'
p122
S'ORGANISED'
p123
sS'terror_group'
p124
(lp125
g116
asS'content'
p126
VNational Security Adviser Ajit Doval -LRB- second from left -RRB- inspects the blast site in Burdwan . Kolkata : National Security Adviser Ajit Doval - who visited West Bengal regarding the Burdwan blast case today - is believed to have expressed displeasure that a jihadi hub from Bangladesh has mushroomed in the state without the knowledge of the Mamata Banerjee government . Sources said he gave Ms Banerjee a tough message . Bengal , he reportedly said , could not turn a blind eye to terror.Mr Doval 's first stop was Burdwan 's Khagragarh - the site of a recent blast and the death of two terror suspects , which blew the lid off the terror network in the state . Later , he met the Chief Minister . Prakash Mishra , Special Secretary in the Ministry of Home Affairs who accompanied Mr Doval , said the Bengal government has promised to cooperate with the investigation . The state government had agreed to an investigation into the Burdwan incident by the National Investigation Agency , or NIA , with considerable reluctance.Mr Doval 's visit comes in the background of a bitter war of words between the BJP - fresh from electoral successes in Bengal - and the ruling Trinamool Congress over the Burdwan incident . The BJP has accused Ms Bannerjee and the Trinamool of going soft on terror and playing down the issue.Ms Banerjee claims the police have done a good job in Burdwan , but the Opposition and security point to many flaws . The most glaring - missing 39 crude bombs during their search at a house near the blast site , which were later found by the NIA.The dead terror suspects allegedly had links to the Jamaat-Ul-Mujahideen Bangladesh - a banned terror group working to destabilise the Sheikh Hasina government in Bangladesh . The NIA has said all four persons arrested in the case are members of Jamaat-ul-Mujahideen Bangladesh . The accused were preparing crude bombs to transport them to Bangladesh for possible terror attacks , it said . A dossier being prepared by the Centre will be shared with Dhaka , which had sought details on the case . .
p127
sS'injured'
p128
g116
sS'det_loc'
p129
(lp130
S'India'
p131
aS'West Bengal'
p132
aS'Bardhaman'
p133
aS'Bardhaman'
p134
aS'Burdwan'
p135
asS'O'
p136
(lp137
S'National:0'
p138
aS'National Security:1'
p139
aS'National Security:20'
p140
aS'jihadi hub:45'
p141
aS'Chief Minister:127'
p142
aS'Ministry of Home Affairs:137'
p143
aS'police:238'
p144
aS'crude bombs:263'
p145
aS'crude bombs:329'
p146
asS'unexpl'
p147
(lp148
g116
asS'ocassion'
p149
g116
sS'link'
p150
S'http://www.ndtv.com/india-news/bengal-cant-turn-a-blind-eye-to-terror-nsa-told-mamata-banerjee-say-sources-684893'
p151
sS'date'
p152
S'02-10-2014'
p153
sS'target'
p154
g116
sS'hot_spot'
p155
S'Burdwan'
p156
sS'delivery_mod'
p157
g116
sS'delivery_met'
p158
S'PLANTED'
p159
sS'expl'
p160
(lp161
g116
asS'ORG'
p162
(lp163
(lp164
S'Bengal government'
p165
aS'148'
p166
aS'Others'
p167
aa(lp168
S'state government'
p169
aS'159'
p170
aS'Others'
p171
aa(lp172
S'National Investigation Agency'
p173
aS'172'
p174
aS'Others'
p175
aa(lp176
S'NIA'
p177
aS'177'
p178
aS'Others'
p179
aa(lp180
S'BJP'
p181
aS'197'
p182
aS'Others'
p183
aa(lp184
S'Trinamool Congress'
p185
aS'209'
p186
aS'Others'
p187
aa(lp188
S'BJP'
p189
aS'217'
p190
aS'Others'
p191
aa(lp192
S'Trinamool'
p193
aS'224'
p194
aS'Others'
p195
aa(lp196
S'Jamaat-Ul-Mujahideen Bangladesh'
p197
aS'291'
p198
aS'Accused'
p199
aa(lp200
S'NIA'
p201
aS'309'
p202
aS'Others'
p203
aa(lp204
S'Jamaat-ul-Mujahideen Bangladesh'
p205
aS'322'
p206
aS'Accused'
p207
aas.
