(dp0
S'LOC'
p1
(lp2
(lp3
S'NEW DELHI'
p4
aS'11'
p5
aS'Neutral'
p6
aa(lp7
S'Delhi'
p8
aS'81'
p9
aS'Neutral'
p10
aasS'PER'
p11
(lp12
(lp13
S'Kalam'
p14
aS'2'
p15
aS'Others'
p16
aa(lp17
S'Abdul Kalam'
p18
aS'15'
p19
aS'Comment'
p20
aa(lp21
S'Kalam'
p22
aS'41'
p23
aS'Comment'
p24
aa(lp25
S'S. M. Khan'
p26
aS'59'
p27
aS'Comment'
p28
aa(lp29
S'Shivraj Patil'
p30
aS'78'
p31
aS'Comment'
p32
aa(lp33
S'Sheila Dikshit'
p34
aS'84'
p35
aS'Comment'
p36
aa(lp37
S'Bhairon Singh Shekhawat'
p38
aS'103'
p39
aS'Comment'
p40
aa(lp41
S'Atal Bihari Vajpayee'
p42
aS'122'
p43
aS'Others'
p44
aasS'TIM'
p45
(lp46
S'evening : 28'
p47
asS'hot_setting'
p48
S''
p49
sS'DAT'
p50
(lp51
S'Saturday:27'
p52
asS'death'
p53
g49
sS'title'
p54
S'Kalam condemns blasts'
p55
sS'det_loc'
p56
(lp57
S'India'
p58
aS'Delhi'
p59
aS'New Delhi'
p60
aS' NEW DELHI'
p61
aS' NEW DELHI'
p62
asS'terror_group'
p63
(lp64
g49
asS'content'
p65
VNational Kalam condemns blasts . . Special Correspondent . . NEW DELHI : President Abdul Kalam has condemned the serial blasts that rocked the capital on Saturday evening and condoled the loss of lives in the explosions . ` Dr Kalam has appealed to the people to maintain calm and help in relief and rescue operations , '' S. M. Khan , Press Adviser to the President said . . . The President spoke to Home Minister Shivraj Patil and Delhi Chief Minister Sheila Dikshit and took stock of the relief work being undertaken by the authorities . . . Vice President Bhairon Singh Shekhawat also expressed his grief and concern over the bomb blasts . . . Former Prime Minister Atal Bihari Vajpayee condemned the blast and appealed to the people to remain calm and united in this hour of crisis .
p66
sS'injured'
p67
g49
sS'org_unorg'
p68
S'ORGANISED'
p69
sS'O'
p70
(lp71
S'President:14'
p72
aS'Adviser:64'
p73
aS'President:67'
p74
aS'President:73'
p75
aS'Home Minister:76'
p76
aS'Chief Minister:82'
p77
aS'Vice President:101'
p78
aS'bomb blasts:114'
p79
aS'Prime Minister:120'
p80
asS'unexpl'
p81
(lp82
g49
asS'ocassion'
p83
g49
sS'link'
p84
S'http://www.thehindu.com/2005/10/30/stories/2005103006481000.htm'
p85
sS'date'
p86
S'29-10-2005'
p87
sS'target'
p88
g49
sS'hot_spot'
p89
S' NEW DELHI'
p90
sS'delivery_mod'
p91
g49
sS'delivery_met'
p92
S'PLANTED'
p93
sS'expl'
p94
(lp95
g49
asS'ORG'
p96
(lp97
s.