(dp0
S'LOC'
p1
(lp2
(lp3
S'Dhubri'
p4
aS'18'
p5
aS'Event'
p6
aa(lp7
S'Bongaigaon'
p8
aS'20'
p9
aS'Event'
p10
aa(lp11
S'Sibsagar'
p12
aS'29'
p13
aS'Neutral'
p14
aasS'PER'
p15
(lp16
sS'TIM'
p17
(lp18
sS'hot_setting'
p19
S''
p20
sS'DAT'
p21
(lp22
sS'death'
p23
g20
sS'title'
p24
S'Two injured in ULFA blasts'
p25
sS'det_loc'
p26
(lp27
S'India'
p28
aS'Assam'
p29
aS'Dhubri'
p30
ag20
aS'Dhubri'
p31
asS'terror_group'
p32
(lp33
S'UNITED LIBERATION FRONT OF ASSAM (ULFA)'
p34
asS'content'
p35
VGuwahati : Two persons were injured when ULFA militants exploded four bombs during Independence Day celebrations in Dhubri and Bongaigaon districts . Police foiled a blast attempt in Sibsagar district . PTI .
p36
sS'injured'
p37
S'2'
p38
sS'org_unorg'
p39
S'ORGANISED'
p40
sS'O'
p41
(lp42
S'independence day:14'
p43
aS'police:23'
p44
aS'blast attempt:26'
p45
asS'unexpl'
p46
(lp47
g20
asS'ocassion'
p48
S'INDEPENDENCE DAY'
p49
sS'link'
p50
S'http://www.thehindu.com/todays-paper/two-injured-in-ulfa-blasts/article1892892.ece'
p51
sS'date'
p52
S'15-08-2007'
p53
sS'target'
p54
g20
sS'hot_spot'
p55
S'Dhubri'
p56
sS'delivery_mod'
p57
g20
sS'delivery_met'
p58
S'PLANTED'
p59
sS'expl'
p60
(lp61
g20
asS'ORG'
p62
(lp63
(lp64
S'ULFA'
p65
aS'8'
p66
aS'Accused'
p67
aa(lp68
S'PTI'
p69
aS'32'
p70
aS'Others'
p71
aas.