(dp0
S'LOC'
p1
(lp2
(lp3
S'BANGALORE'
p4
aS'13'
p5
aS'Neutral'
p6
aa(lp7
S'Delhi'
p8
aS'24'
p9
aS'Event'
p10
aa(lp11
S'Bangalore'
p12
aS'40'
p13
aS'Neutral'
p14
aa(lp15
S'New Delhi'
p16
aS'115'
p17
aS'Event'
p18
aa(lp19
S'Delhi'
p20
aS'116'
p21
aS'Event'
p22
aa(lp23
S'Mysore'
p24
aS'135'
p25
aS'Neutral'
p26
aa(lp27
S'Hubli-Dharwad'
p28
aS'137'
p29
aS'Neutral'
p30
aa(lp31
S'Belgaum'
p32
aS'139'
p33
aS'Neutral'
p34
aa(lp35
S'Bangalore'
p36
aS'163'
p37
aS'Neutral'
p38
aa(lp39
S'Bangalore'
p40
aS'196'
p41
aS'Neutral'
p42
aa(lp43
S'Electronics City'
p44
aS'280'
p45
aS'Neutral'
p46
aa(lp47
S'Bangalore'
p48
aS'306'
p49
aS'Neutral'
p50
aasS'PER'
p51
(lp52
(lp53
S'N. Dharam Singh'
p54
aS'28'
p55
aS'Comment'
p56
aa(lp57
S'Singh'
p58
aS'79'
p59
aS'Comment'
p60
aa(lp61
S'Shivaraj Patil'
p62
aS'99'
p63
aS'Comment'
p64
aa(lp65
S'Ajai Kumar Singh'
p66
aS'199'
p67
aS'Comment'
p68
aa(lp69
S'Singh'
p70
aS'293'
p71
aS'Comment'
p72
aa(lp73
S'B.K. Das'
p74
aS'328'
p75
aS'Others'
p76
aa(lp77
S'Sudhakar Rao'
p78
aS'336'
p79
aS'Others'
p80
aa(lp81
S'B.S. Sial'
p82
aS'344'
p83
aS'Others'
p84
aa(lp85
S'Ajai Kumar Singh'
p86
aS'348'
p87
aS'Others'
p88
aasS'TIM'
p89
(lp90
sS'hot_setting'
p91
S''
p92
sS'DAT'
p93
(lp94
S'Sunday:32'
p95
aS'Saturday:118'
p96
asS'death'
p97
g92
sS'title'
p98
S'Government issues emergency alert'
p99
sS'org_unorg'
p100
S'ORGANISED'
p101
sS'terror_group'
p102
(lp103
g92
asS'content'
p104
VFront Page Government issues emergency alert . . Staff Reporter . . BANGALORE : In the wake of the serial bomb blasts in Delhi , Chief Minister N. Dharam Singh on Sunday issued an emergency alert to officials in Bangalore and other major cities and towns in the State , and directed them to take suspected criminals into preventive custody . . . Briefing presspersons after a high-level meeting of senior Police and Home Department officials , Mr. Singh said the security in the State capital , in particular , had been beefed up after Union Home Minister Shivaraj Patil had instructed the State Government to be extra careful following the bomb blasts in New Delhi on Saturday . . . He said that the district and police officials in other cities such as Mysore , Hubli-Dharwad and Belgaum also had been instructed to keep a strict vigil in view of Deepavali and Ramzan festivals . The State and the fast developing Bangalore city had been in the hit list of extremists . Assistant Commissioners and Deputy Commissioners of Police were directed to keep a watch on the movements of certain organisations . . . Bangalore police commissioner Ajai Kumar Singh said his department had taken precautionary measures in the city . Particular focus was on thickly populated areas and on multi-storeyed buildings in different parts of the city . . . He said even the bomb detection squads have been asked to be ready to face any emergency . Although no preventive arrests have been made , trouble mongers will be taken into custody , he added . Asked if the city police would provide extra security to Electronics City where most of the Information Technology firms are located , Mr. Singh said that most of that area is under the jurisdiction of the Bangalore district police . The district police have ensured tight security in the area , he said . . . Chief Secretary B.K. Das ; Principal Secretary -LRB- Home -RRB- Sudhakar Rao ; and Director General of Police B.S. Sial and Mr. Ajai Kumar Singh were among those who attended the meeting .
p105
sS'injured'
p106
g92
sS'det_loc'
p107
(lp108
S'India'
p109
aS'Delhi'
p110
aS'New Delhi'
p111
aS'Delhi'
p112
aS'Delhi'
p113
asS'O'
p114
(lp115
S'emergency alert:5'
p116
aS'bomb blasts:21'
p117
aS'Chief Minister:26'
p118
aS'Union Home Minister:96'
p119
aS'bomb blasts:112'
p120
aS'Deepavali:152'
p121
aS'Ramzan:154'
p122
aS'State:158'
p123
aS'extremists:172'
p124
aS'Assistant Commissioners:174'
p125
aS'Deputy Commissioners:177'
p126
aS'commissioner:198'
p127
aS'Information Technology:286'
p128
aS'Principal Secretary:331'
p129
aS'Director General:340'
p130
asS'unexpl'
p131
(lp132
g92
asS'ocassion'
p133
g92
sS'link'
p134
S'http://www.thehindu.com/2005/10/31/stories/2005103118520100.htm'
p135
sS'date'
p136
S'29-10-2005'
p137
sS'target'
p138
g92
sS'hot_spot'
p139
S'Delhi'
p140
sS'delivery_mod'
p141
g92
sS'delivery_met'
p142
S'PLANTED'
p143
sS'expl'
p144
(lp145
g92
asS'ORG'
p146
(lp147
(lp148
S'Government'
p149
aS'3'
p150
aS'Others'
p151
aa(lp152
S'Staff Reporter'
p153
aS'9'
p154
aS'Others'
p155
aa(lp156
S'Police'
p157
aS'72'
p158
aS'Others'
p159
aa(lp160
S'Home Department'
p161
aS'74'
p162
aS'Others'
p163
aa(lp164
S'State Government'
p165
aS'104'
p166
aS'Others'
p167
aa(lp168
S'police'
p169
aS'128'
p170
aS'Others'
p171
aa(lp172
S'Police'
p173
aS'180'
p174
aS'Others'
p175
aa(lp176
S'police'
p177
aS'197'
p178
aS'Others'
p179
aa(lp180
S'police'
p181
aS'274'
p182
aS'Others'
p183
aa(lp184
S'Police'
p185
aS'343'
p186
aS'Others'
p187
aas.