(dp0
S'LOC'
p1
(lp2
(lp3
S'MUMBAI'
p4
aS'30'
p5
aS'Neutral'
p6
aa(lp7
S'Malegaon'
p8
aS'47'
p9
aS'Event'
p10
aa(lp11
S'Madhya Pradesh'
p12
aS'180'
p13
aS'Neutral'
p14
aa(lp15
S'Surat'
p16
aS'186'
p17
aS'Neutral'
p18
aa(lp19
S'Indore'
p20
aS'295'
p21
aS'Neutral'
p22
aa(lp23
S'Bhiku chowk'
p24
aS'353'
p25
aS'Neutral'
p26
aa(lp27
S'Malegaon'
p28
aS'357'
p29
aS'Event'
p30
aa(lp31
S'Malegaon'
p32
aS'376'
p33
aS'Event'
p34
aasS'PER'
p35
(lp36
(lp37
S'Rahi Gaikwad'
p38
aS'1'
p39
aS'Others'
p40
aa(lp41
S'Rashtriya Jagran Manch'
p42
aS'17'
p43
aS'Others'
p44
aa(lp45
S'Hemant Karkare'
p46
aS'55'
p47
aS'Comment'
p48
aa(lp49
S'Pragnya Singh Chandrapal Singh'
p50
aS'71'
p51
aS'Accused'
p52
aa(lp53
S'Shiv Narayan Gopal Singh Kalsanghra'
p54
aS'78'
p55
aS'Accused'
p56
aa(lp57
S'Shyam Bhawarlal Sahu'
p58
aS'87'
p59
aS'Accused'
p60
aa(lp61
S'Pragnya'
p62
aS'124'
p63
aS'Accused'
p64
aa(lp65
S'Pragnya'
p66
aS'157'
p67
aS'Accused'
p68
aa(lp69
S'Poorna Chetananandgiri'
p70
aS'175'
p71
aS'Others'
p72
aa(lp73
S'Karkare'
p74
aS'241'
p75
aS'Comment'
p76
aa(lp77
S'Karkare'
p78
aS'288'
p79
aS'Comment'
p80
aa(lp81
S'Kalsanghra'
p82
aS'292'
p83
aS'Others'
p84
aa(lp85
S'Karkare'
p86
aS'340'
p87
aS'Comment'
p88
aa(lp89
S'PragnyaSingh Chandrapal Singh'
p90
aS'397'
p91
aS'Accused'
p92
aa(lp93
S'Shiv Narayan Gopal Singh Kalsanghra'
p94
aS'403'
p95
aS'Accused'
p96
aa(lp97
S'Pragnya Singh ChandrapalSingh Thakur'
p98
aS'423'
p99
aS'Accused'
p100
aasS'TIM'
p101
(lp102
sS'hot_setting'
p103
S''
p104
sS'DAT'
p105
(lp106
S'Thursday:42'
p107
aS'September 29:50'
p108
aS'Friday:61'
p109
aS'November 3:111'
p110
aS'2007:166'
p111
aS'2002:228'
p112
aS'September 29:359'
p113
aS'October 25 , 2008 : 384'
p114
asS'death'
p115
g104
sS'title'
p116
S'Malegaon blast; three remanded to custody'
p117
sS'org_unorg'
p118
S'ORGANISED'
p119
sS'terror_group'
p120
(lp121
g104
asS'content'
p122
VRahi Gaikwad . . Booked under sections of the Explosives Act . . Accused reportedly started Rashtriya Jagran Manch . . The police recovered some mobile phones . . MUMBAI : The Anti-Terrorism Squad -LRB- ATS -RRB- arrested three persons on Thursday in connection with the Malegaon blast of September 29 , ATS chief Hemant Karkare told journalists here on Friday . . . The accused have been identified as Pragnya Singh Chandrapal Singh , 38 , Shiv Narayan Gopal Singh Kalsanghra , 36 , and Shyam Bhawarlal Sahu , 42 . They were produced before the Nashik Chief Judicial Magistrates court , which remanded them to police custody till November 3 . . . The motorcycle used in the blast belonged to Pragnya . All efforts were taken to hide the ownership of the vehicle . The registration number was bogus and they tried to efface the engine and the chassis numbers . . . Pragnya is a sadhvi , who took sanyas in 2007 , after which she took on the alias Poorna Chetananandgiri . Originally from Madhya Pradesh , she shifted to Surat with her family a few years ago . However , she had no fixed location . Since she had chosen the religious path , she toured various places doing bhraman . She founded the Jai Vande Mataram Jan Kalyan Samiti in 2002 . Investigators have recovered pamphlets of this organisation . . . Mr. Karkare said the accused reportedly started the Rashtriya Jagran Manch . The police are probing the links of the Samiti and the Manch to Hindu religious organisations . . . The police also recovered some mobile phones . Sahu was in the mobile business , said Mr. Karkare . He and Kalsanghra are from Indore . . . The accused have been booked under various sections of the Indian Explosives Act and the Unlawful Activities -LRB- Prevention -RRB- Act -LRB- UAPA -RRB- . The Forensic Sciences Laboratory -LRB- FSL -RRB- report had revealed traces of RDX , said Mr. Karkare . . . A bomb attached to a motorcycle ripped through the Bhiku chowk area of Malegaon on September 29 . . . Corrections and Clarifications . . The second paragraph of a report ` Malegaon blast ; three remanded tocustody ' -LRB- October 25 , 2008 -RRB- was ` The accused have been identified as PragnyaSingh Chandrapal Singh , 38 , Shiv Narayan Gopal Singh Kalsanghra , 36 , andShyam Bhawarlal Sahu , 42 . . ' It should have been Pragnya Singh ChandrapalSingh Thakur .
p123
sS'injured'
p124
g104
sS'det_loc'
p125
(lp126
S'India'
p127
aS'Maharashtra'
p128
aS'Nashik'
p129
aS'Malegaon'
p130
aS'Malegaon'
p131
asS'O'
p132
(lp133
S'rashtriya jagran manch:248'
p134
aS'police:253'
p135
aS'samiti:260'
p136
aS'manch:263'
p137
aS'RDX:336'
p138
asS'unexpl'
p139
(lp140
g104
asS'ocassion'
p141
g104
sS'link'
p142
S'http://www.thehindu.com/todays-paper/malegaon-blast-three-remanded-to-custody/article1363681.ece'
p143
sS'date'
p144
S'29-09-2008'
p145
sS'target'
p146
g104
sS'hot_spot'
p147
S'Malegaon'
p148
sS'delivery_mod'
p149
S'MOTORCYCLE'
p150
sS'delivery_met'
p151
S'PLANTED'
p152
sS'expl'
p153
(lp154
g104
asS'ORG'
p155
(lp156
(lp157
S'Anti-Terrorism Squad'
p158
aS'33'
p159
aS'Others'
p160
aa(lp161
S'ATS'
p162
aS'36'
p163
aS'Others'
p164
aa(lp165
S'ATS'
p166
aS'53'
p167
aS'Others'
p168
aa(lp169
S'Nashik Chief Judicial Magistrates court'
p170
aS'98'
p171
aS'Others'
p172
aa(lp173
S'Jai Vande Mataram Jan Kalyan Samiti'
p174
aS'221'
p175
aS'Others'
p176
aa(lp177
S'Hindu religious'
p178
aS'265'
p179
aS'Others'
p180
aa(lp181
S'UAPA'
p182
aS'321'
p183
aS'Others'
p184
aa(lp185
S'The Forensic Sciences Laboratory'
p186
aS'324'
p187
aS'Others'
p188
aas.