(dp0
S'LOC'
p1
(lp2
(lp3
S'Guwahati'
p4
aS'5'
p5
aS'Neutral'
p6
aa(lp7
S'Assams'
p8
aS'18'
p9
aS'Event'
p10
aa(lp11
S'Nalbari'
p12
aS'19'
p13
aS'Event'
p14
aa(lp15
S'Fancybazar'
p16
aS'152'
p17
aS'Event'
p18
aa(lp19
S'Panbazar'
p20
aS'154'
p21
aS'Accused Location'
p22
aa(lp23
S'Delhi'
p24
aS'160'
p25
aS'Neutral'
p26
aa(lp27
S'Ganeshguri'
p28
aS'166'
p29
aS'Event'
p30
aa(lp31
S'Itanagar'
p32
aS'170'
p33
aS'Neutral'
p34
aa(lp35
S'Nagaon'
p36
aS'182'
p37
aS'Neutral'
p38
aa(lp39
S'Ganeshguri'
p40
aS'196'
p41
aS'Event'
p42
aa(lp43
S'Nagaon'
p44
aS'212'
p45
aS'Neutral'
p46
aa(lp47
S'Lakhmipur'
p48
aS'221'
p49
aS'Neutral'
p50
aasS'PER'
p51
(lp52
(lp53
S'Dabojit Deuri'
p54
aS'36'
p55
aS'Others'
p56
aasS'TIM'
p57
(lp58
sS'hot_setting'
p59
S''
p60
sS'DAT'
p61
(lp62
S'Thursday:11'
p63
aS'October 30:25'
p64
asS'death'
p65
S'81'
p66
sS'title'
p67
S'Assam blasts case: 7 more detained'
p68
sS'det_loc'
p69
(lp70
S'India'
p71
aS'Assam'
p72
aS'Nalbari'
p73
aS'Guwahati'
p74
ag60
asS'terror_group'
p75
(lp76
g60
asS'content'
p77
VSpecial Correspondent . . Guwahati : The City police on Thursday picked up seven persons from lower Assams Nalbari district in connection with the October 30 serial blasts . . . Additional Superintendent of Police Dabojit Deuri told TheHindu that they were being brought to the city for questioning . . . Police sources said they were picked up based on the leads thrown up by the Maurti cars that were used as car bombs to trigger the three blasts in the city . . . The serial blasts claimed 81 lives and injured 826 people . . . Initial investigations revealed that the number plate used on the cars were fake . The Special Investigation Team -LRB- SIT -RRB- is now using the engine and chassis numbers to trace its present owner and the past owners . . . Police sources said the car used to trigger the explosion at Fancybazar near Panbazar police station was sold in Delhi and the one used in Ganeshguri was sold in Itanagar . . . The police had picked up one person in Nagaon for questioning some time ago as the car used in connection in the Ganeshguri blast was once owned by him . Five persons were picked up earlier two in Nagaon , one in the city and two in Lakhmipur district . . . Protest rallies . . The All Assam Students Union took out rallies to protest the alleged failure of the Congress-led coalition government in the State to prevent the blasts .
p78
sS'injured'
p79
S'826'
p80
sS'org_unorg'
p81
g60
sS'O'
p82
(lp83
S'City police:8'
p84
aS'seven persons:14'
p85
aS'serial blasts:27'
p86
aS'thrown up:64'
p87
aS'Maurti cars:68'
p88
aS'car bombs:74'
p89
aS'three blasts:79'
p90
aS'serial blasts:88'
p91
aS'investigations revealed:101'
p92
aS'engine and chassis numbers:125'
p93
aS'trace:130'
p94
aS'explosion:150'
p95
aS'Protest rallies:226'
p96
aS'rallies:237'
p97
aS'protest:239'
p98
aS'Congress-led coalition government:245'
p99
aS'blasts:254'
p100
asS'unexpl'
p101
(lp102
g60
asS'ocassion'
p103
g60
sS'link'
p104
S'http://www.thehindu.com/todays-paper/assam-blasts-case-7-more-detained/article1371337.ece'
p105
sS'date'
p106
S'30-10-2008'
p107
sS'target'
p108
S'PUBLIC PLACES'
p109
sS'hot_spot'
p110
S'Fancybazar and Ganeshguri'
p111
sS'delivery_mod'
p112
S'CAR'
p113
sS'delivery_met'
p114
S'THROWN'
p115
sS'expl'
p116
(lp117
g60
asS'ORG'
p118
(lp119
(lp120
S'TheHindu'
p121
aS'39'
p122
aS'Others'
p123
aa(lp124
S'Special Investigation Team'
p125
aS'115'
p126
aS'Others'
p127
aa(lp128
S'SIT'
p129
aS'119'
p130
aS'Others'
p131
aa(lp132
S'All Assam Students Union'
p133
aS'231'
p134
aS'Others'
p135
aas.