(dp0
S'LOC'
p1
(lp2
(lp3
S'Bangalore'
p4
aS'15'
p5
aS'Neutral'
p6
aasS'PER'
p7
(lp8
(lp9
S'R.K. Singh'
p10
aS'23'
p11
aS'Comment'
p12
aa(lp13
S'Sushilkumar Shinde'
p14
aS'50'
p15
aS'Comment'
p16
aasS'TIM'
p17
(lp18
S'morning : 118'
p19
asS'hot_setting'
p20
S''
p21
sS'DAT'
p22
(lp23
S'Wednesday:10'
p24
aS'Wednesday:74'
p25
aS'May 5:96'
p26
aS'Tuesday:124'
p27
asS'death'
p28
g21
sS'title'
p29
S'Bangalore blast a terror attack, confirms Home Ministry'
p30
sS'org_unorg'
p31
S'ORGANISED'
p32
sS'terror_group'
p33
(lp34
g21
asS'content'
p35
VThe Ministry of Home Affairs ( MHA ) on Wednesday confirmed that the latest Bangalore blast was a terror attack.Union Home Secretary R.K. Singh confirmed that it was indeed a terror attack , but refrained from naming any organisation as the investigation was still on.Earlier , Union Home Minister Sushilkumar Shinde said , We are enquiring the matter and will let you know about the details soon.At least 16 people were injured on Wednesday when an incendiary bomb placed in a motorbike exploded near the Karnataka BJP city office buzzing with activity ahead of the May 5 Assembly polls.The MHA sources said that the office of Karnataka BJP , near which the blast took place in the morning , was bustling with till Tuesday when ticket distribution process concluded . However , since the process had ended , there was not much crowd at the party office on Wednesday.Sources also said that a temple located about 100 metre from the blast site , could also be the target . The bombers wanted higher casualties so they chose the spot carefully , a source said.The incident comes a day before the third anniversary of the blast outside the Chinnaswamy Stadium.Sources said it was too early to name any suspect , but confirmed that improvised explosive device ( IED ) was used in the explosion . .
p36
sS'injured'
p37
S'16'
p38
sS'det_loc'
p39
(lp40
S'India'
p41
aS'Karnataka'
p42
aS'Bangalore Rural'
p43
ag21
aS'Bangalore'
p44
asS'O'
p45
(lp46
S'Union Home Minister:47'
p47
asS'unexpl'
p48
(lp49
g21
asS'ocassion'
p50
g21
sS'link'
p51
S'http://indiatoday.intoday.in/story/bangalore-blast-bjp-terror-attack-home-ministry-sushilkumar-shinde/1/262709.html'
p52
sS'date'
p53
S'17-04-2013'
p54
sS'target'
p55
g21
sS'hot_spot'
p56
S'Bangalore'
p57
sS'delivery_mod'
p58
g21
sS'delivery_met'
p59
S'PLANTED'
p60
sS'expl'
p61
(lp62
g21
asS'ORG'
p63
(lp64
(lp65
S'Ministry of Home Affairs'
p66
aS'2'
p67
aS'Others'
p68
aa(lp69
S'MHA'
p70
aS'7'
p71
aS'Others'
p72
aa(lp73
S'Karnataka BJP'
p74
aS'86'
p75
aS'Others'
p76
aa(lp77
S'MHA'
p78
aS'100'
p79
aS'Others'
p80
aa(lp81
S'Karnataka BJP'
p82
aS'107'
p83
aS'Others'
p84
aas.