(dp0
S'LOC'
p1
(lp2
(lp3
S'West Bengal'
p4
aS'2'
p5
aS'Event'
p6
aa(lp7
S'Bardhaman'
p8
aS'20'
p9
aS'Event'
p10
aa(lp11
S'Purbasthali'
p12
aS'60'
p13
aS'Accused Location'
p14
aa(lp15
S'Bardhaman'
p16
aS'63'
p17
aS'Accused Location'
p18
aasS'PER'
p19
(lp20
(lp21
S'Gulsana Bibi'
p22
aS'43'
p23
aS'Accused'
p24
aa(lp25
S'Alima Bibi'
p26
aS'46'
p27
aS'Accused'
p28
aa(lp29
S'Hashem Molla'
p30
aS'54'
p31
aS'Accused'
p32
aa(lp33
S'Molla'
p34
aS'73'
p35
aS'Accused'
p36
aa(lp37
S'Dilip Adak'
p38
aS'93'
p39
aS'Comment'
p40
aasS'TIM'
p41
(lp42
S'12-day : 82'
p43
asS'hot_setting'
p44
S''
p45
sS'DAT'
p46
(lp47
S'Monday:11'
p48
aS'Sunday ,:52'
p49
aS'Monday:69'
p50
asS'death'
p51
g45
sS'title'
p52
S'One more held in Bardhaman case'
p53
sS'org_unorg'
p54
g45
sS'terror_group'
p55
(lp56
g45
asS'content'
p57
VThe West Bengal Criminal Investigation Department -LRB- CID -RRB- on Monday held one more person for the blast at Bardhaman , taking the number of arrests to three . . . While the spouses of the two accused in the blast , Gulsana Bibi and Alima Bibi , were arrested on Sunday , Hashem Molla , a resident of Purbasthali town in Bardhaman district , was nabbed on Monday . . . Molla was produced in court and was remanded in 12-day police custody , Deputy Inspector of General -LRB- CID -RRB- Dilip Adak said .
p58
sS'injured'
p59
g45
sS'det_loc'
p60
(lp61
S'India'
p62
aS'West Bengal'
p63
aS'Bardhaman'
p64
ag45
ag45
asS'O'
p65
(lp66
S'blast:18'
p67
aS'arrests:26'
p68
aS'spouses:34'
p69
aS'accused:38'
p70
aS'blast:41'
p71
aS'arrested:50'
p72
aS'resident:58'
p73
aS'nabbed:67'
p74
aS'court:77'
p75
aS'remanded:80'
p76
aS'police custody:83'
p77
asS'unexpl'
p78
(lp79
g45
asS'ocassion'
p80
g45
sS'link'
p81
S'http://www.thehindu.com/todays-paper/tp-national/one-more-held-in-bardhaman-case/article6476881.ece'
p82
sS'date'
p83
S'06-10-2014'
p84
sS'target'
p85
g45
sS'hot_spot'
p86
g45
sS'delivery_mod'
p87
g45
sS'delivery_met'
p88
g45
sS'expl'
p89
(lp90
g45
asS'ORG'
p91
(lp92
(lp93
S'Criminal Investigation Department'
p94
aS'4'
p95
aS'Others'
p96
aa(lp97
S'CID'
p98
aS'8'
p99
aS'Others'
p100
aa(lp101
S'CID'
p102
aS'91'
p103
aS'Others'
p104
aas.