(dp0
S'LOC'
p1
(lp2
(lp3
S'Bihars Gaya'
p4
aS'14'
p5
aS'Event'
p6
aa(lp7
S'Maharashtras Wardha'
p8
aS'140'
p9
aS'Neutral'
p10
aa(lp11
S'Myanmar'
p12
aS'157'
p13
aS'Neutral'
p14
aa(lp15
S'Bodh Gaya'
p16
aS'178'
p17
aS'Event'
p18
aa(lp19
S'India'
p20
aS'224'
p21
aS'Neutral'
p22
aa(lp23
S'India'
p24
aS'250'
p25
aS'Neutral'
p26
aa(lp27
S'Bodhgaya'
p28
aS'266'
p29
aS'Event'
p30
aa(lp31
S'Bodh Gaya'
p32
aS'277'
p33
aS'Event'
p34
aasS'PER'
p35
(lp36
(lp37
S'Bhante Sadanand Mahasthaver'
p38
aS'125'
p39
aS'Comment'
p40
aa(lp41
S'Bhante Sadanand'
p42
aS'147'
p43
aS'Comment'
p44
aa(lp45
S'Bhante Sadanand'
p46
aS'257'
p47
aS'Comment'
p48
aa(lp49
S'Lord Buddha'
p50
aS'285'
p51
aS'Others'
p52
aasS'TIM'
p53
(lp54
sS'hot_setting'
p55
S''
p56
sS'DAT'
p57
(lp58
S'2002:275'
p59
asS'death'
p60
g56
sS'title'
p61
S'National Buddhist body condemns attack'
p62
sS'det_loc'
p63
(lp64
S'India'
p65
aS'Bihar'
p66
aS'Gaya'
p67
ag56
aS'Mahabodhi temple'
p68
asS'terror_group'
p69
(lp70
g56
asS'content'
p71
VShocked and saddened by the serial blasts that rocked the Mahabodhi temple in Bihars Gaya district , the All India Bhiku Sangha , a national organisation of Buddhist monks has condemned the incident as an attack on messengers of peace . . . Buddhist monks all over the country feel saddened by the attack . The international community is also shaken . We try to put people on the right path and we have been made the target of a terror attack . The All India Bhiku Sangha condemns this attack . This should not have happened . We spread the message of peace across the world . This is an attempt to spread terror and create discord among the messengers of peace , Bhante Sadanand Mahasthaver , chairman of the Sangha , told The Hindu on phone from Maharashtras Wardha district . . . Mr. Bhante Sadanand said a likely impact of the conflict in Myanmar can not be ruled out as a possible reason for targeting the Buddhist community in this fashion . . . Bodh Gaya is the site that sent the message of peace to the world . Its a sacred site . It was the fountainhead of enlightenment and knowledge and education to the world . Many universities and centers of learning sprang from this site . Although India is lagging behind in education , it is considered to be gurudesh -LSB- teacher country -RSB- . There were many Buddhist Universities here once and India was the leader in education , Bhante Sadanand said . . . Mahabodhi temple at Bodhgaya is a world heritage site - inscribed in 2002 . Bodh Gaya is associated with the enlightenment of Lord Buddha -LRB- 566-486 B.C. -RRB- . The sacred Bodhi tree under which he is believed to have attained enlightenment . The place is highly venerated by the Buddhists .
p72
sS'injured'
p73
g56
sS'org_unorg'
p74
g56
sS'O'
p75
(lp76
S'Shocked:1'
p77
aS'saddened:3'
p78
aS'serial blasts:6'
p79
aS'rocked:9'
p80
aS'Mahabodhi temple:11'
p81
aS'national organisation:25'
p82
aS'Buddhist monks:28'
p83
aS'condemned:31'
p84
aS'incident:33'
p85
aS'attack:36'
p86
aS'messengers:38'
p87
aS'peace:40'
p88
aS'Buddhist monks:44'
p89
aS'saddened:51'
p90
aS'attack:54'
p91
aS'international community:57'
p92
aS'shaken:61'
p93
aS'right path:70'
p94
aS'target:78'
p95
aS'terror attack:81'
p96
aS'condemns:89'
p97
aS'attack:91'
p98
aS'message:102'
p99
aS'peace:104'
p100
aS'world:107'
p101
aS'attempt:112'
p102
aS'spread terror:114'
p103
aS'create discord:117'
p104
aS'messengers of peace:121'
p105
aS'phone:138'
p106
aS'impact:152'
p107
aS'conflict:155'
p108
aS'targeting:168'
p109
aS'Buddhist community:170'
p110
aS'site:182'
p111
aS'message of peace:186'
p112
aS'sacred site:195'
p113
aS'fountainhead of enlightenment:201'
p114
aS'knowledge and education:205'
p115
aS'lagging:226'
p116
aS'education:229'
p117
aS'gurudesh:236'
p118
aS'teacher:238'
p119
aS'Buddhist Universities:245'
p120
aS'leader in education:253'
p121
aS'Mahabodhi temple:263'
p122
aS'world heritage site:269'
p123
aS'enlightenment:283'
p124
aS'566-486 B.C.:288'
p125
aS'sacred Bodhi tree:293'
p126
aS'attained enlightenment:303'
p127
aS'venerated:310'
p128
aS'Buddhists:313'
p129
asS'unexpl'
p130
(lp131
g56
asS'ocassion'
p132
g56
sS'link'
p133
S'http://www.thehindu.com/news/national/national-buddhist-body-condemns-attack/article4891332.ece?ref=relatedNews'
p134
sS'date'
p135
S'07-07-2013'
p136
sS'target'
p137
S'RELIGIOUS PLACES'
p138
sS'hot_spot'
p139
g56
sS'delivery_mod'
p140
g56
sS'delivery_met'
p141
S'PLANTED'
p142
sS'expl'
p143
(lp144
g56
asS'ORG'
p145
(lp146
(lp147
S'All India Bhiku Sangha'
p148
aS'19'
p149
aS'Others'
p150
aa(lp151
S'All India Bhiku Sangha'
p152
aS'85'
p153
aS'Others'
p154
aa(lp155
S'Sangha'
p156
aS'132'
p157
aS'Others'
p158
aa(lp159
S'The Hindu'
p160
aS'135'
p161
aS'Others'
p162
aas.