(dp0
S'LOC'
p1
(lp2
(lp3
S'Dibrugarh'
p4
aS'16'
p5
aS'Event'
p6
aa(lp7
S'Assam'
p8
aS'157'
p9
aS'Neutral'
p10
aasS'PER'
p11
(lp12
(lp13
S'Joy Asom'
p14
aS'79'
p15
aS'Comment'
p16
aa(lp17
S'S.N.Singh'
p18
aS'184'
p19
aS'Comment'
p20
aasS'TIM'
p21
(lp22
sS'hot_setting'
p23
S''
p24
sS'DAT'
p25
(lp26
S'Wednesday:7'
p27
aS'Wednesday:159'
p28
asS'death'
p29
S'1'
p30
sS'title'
p31
S'ULFA denies hand in Dibrugarh bomb blast'
p32
sS'det_loc'
p33
(lp34
S'India'
p35
aS'Assam'
p36
aS'Dibrugarh'
p37
aS'GUWAHATI'
p38
aS'Dibrugarh'
p39
asS'terror_group'
p40
(lp41
S'UNITED LIBERATION FRONT OF ASOM '
p42
asS'content'
p43
VThe ULFA -LRB- Independent -RRB- on Wednesday denied its involvement in the bomb blast in Dibrugarh town in which a girl was killed and nine others injured . . . The ULFA -LRB- I -RRB- in a release e-mailed to PTI here said that the outfit was in no way associated with the blast and expressed its deep condolences to the family members of the teenage girl killed in the incident . . . The outfits spokesman , Joy Asom , alleged that such incidents were usually the handiwork of security forces who carry out the blasts with the help of some agents who are kept in their custody . . . The acts of violence are carried out by these agents to malign the outfit and they are later made to surrender with the security forces claiming success in weakening the outfit , the release added . . . A high alert was sounded across Assam on Wednesday following the blast . Those injured in the blast are being treated at the Assam Medical College and Hospital . Inspector General of Police S.N.Singh said that an anti-talk faction of the United Liberation Front of Asom may be involved in the blast . PTI , ANI .
p44
sS'injured'
p45
S'9'
p46
sS'org_unorg'
p47
S'ORGANISED'
p48
sS'O'
p49
(lp50
S'inspector general of police:180'
p51
asS'unexpl'
p52
(lp53
g24
asS'ocassion'
p54
g24
sS'link'
p55
S'http://www.thehindu.com/todays-paper/tp-national/ulfa-denies-hand-in-dibrugarh-bomb-blast/article5476782.ece'
p56
sS'date'
p57
S'18-12-2013'
p58
sS'target'
p59
g24
sS'hot_spot'
p60
S'Dibrugarh'
p61
sS'delivery_mod'
p62
g24
sS'delivery_met'
p63
S'PLANTED'
p64
sS'expl'
p65
(lp66
g24
asS'ORG'
p67
(lp68
(lp69
S'ULFA'
p70
aS'2'
p71
aS'Accused'
p72
aa(lp73
S'ULFA'
p74
aS'32'
p75
aS'Accused'
p76
aa(lp77
S'PTI'
p78
aS'41'
p79
aS'Others'
p80
aa(lp81
S'Assam Medical College and Hospital'
p82
aS'174'
p83
aS'Others'
p84
aa(lp85
S'United Liberation Front of Asom'
p86
aS'192'
p87
aS'Accused'
p88
aa(lp89
S'PTI'
p90
aS'204'
p91
aS'Others'
p92
aas.