(dp0
S'LOC'
p1
(lp2
(lp3
S'Pakistan'
p4
aS'9'
p5
aS'Neutral'
p6
aa(lp7
S'New Delhi'
p8
aS'14'
p9
aS'Neutral'
p10
aa(lp11
S'Mumbai'
p12
aS'29'
p13
aS'Neutral'
p14
aa(lp15
S'NewDelhi'
p16
aS'95'
p17
aS'Neutral'
p18
aa(lp19
S'Mumbai'
p20
aS'119'
p21
aS'Neutral'
p22
aa(lp23
S'New Delhi'
p24
aS'138'
p25
aS'Neutral'
p26
aa(lp27
S'train station'
p28
aS'151'
p29
aS'Event'
p30
aa(lp31
S'Varanasileave'
p32
aS'157'
p33
aS'Neutral'
p34
aa(lp35
S'Mumbai'
p36
aS'165'
p37
aS'Neutral'
p38
aa(lp39
S'India'
p40
aS'174'
p41
aS'Neutral'
p42
aa(lp43
S'Pakistan'
p44
aS'177'
p45
aS'Neutral'
p46
aa(lp47
S'Uttar Pradesh'
p48
aS'236'
p49
aS'Neutral'
p50
aa(lp51
S'India'
p52
aS'335'
p53
aS'Neutral'
p54
aa(lp55
S'Delhi'
p56
aS'370'
p57
aS'Neutral'
p58
aa(lp59
S'Mumbai'
p60
aS'374'
p61
aS'Neutral'
p62
aa(lp63
S'Pune'
p64
aS'423'
p65
aS'Source'
p66
aa(lp67
S'Mumbai'
p68
aS'446'
p69
aS'Neutral'
p70
aa(lp71
S'Mumbai'
p72
aS'453'
p73
aS'Neutral'
p74
aa(lp75
S'India'
p76
aS'455'
p77
aS'Neutral'
p78
aasS'PER'
p79
(lp80
(lp81
S'Dilip Band'
p82
aS'41'
p83
aS'Comment'
p84
aa(lp85
S'Al Jazeera'
p86
aS'87'
p87
aS'Comment'
p88
aa(lp89
S'GK Pillai'
p90
aS'332'
p91
aS'Others'
p92
aa(lp93
S'Al Jazeera'
p94
aS'341'
p95
aS'Comment'
p96
aasS'TIM'
p97
(lp98
sS'hot_setting'
p99
S''
p100
sS'DAT'
p101
(lp102
S'February 25 : 17'
p103
aS'March 2003 : 112'
p104
asS'death'
p105
g100
sS'title'
p106
S'Nation put on alert after blast hits restaurant in Pune popular with foreigners.'
p107
sS'org_unorg'
p108
S'ORGANISED'
p109
sS'terror_group'
p110
(lp111
g100
asS'content'
p112
VIt comes as senior officials from India and Pakistan plan to meet in New Delhi on February 25 to resume talks suspended in the wake of the deadly Mumbai assault , which was blamed on Pakistani-based fighters . . . Dilip Band , another police official , said `` the explosive was in a bag kept in the bakery '' and that four foreign women were among the dead buttheir nationalities were not immediately known.Indian mediareported thatthetoll of thoseinjured could rise . ` Intelligence alert ` Al Jazeera 's Prerna Suri , reporting from NewDelhi , said the explosion was so strong that the entire restauranthad been destroyed . . . March 2003 : 11 killed in a Mumbai train bomb attack.August 2004 : Sixdie in two carbomb blasts in Mumbai.October 2005 : Three bomb blasts in New Delhi markets kill 62 and injure hundreds.March 2006 : Blasts in a train station and a temple in Varanasileave 20 dead.July : Seven blasts on trainsin Mumbai kill 187 , and injure 800 , prompting India to freeze Pakistan peace talks.September :38 killed , 100 injuredin three blasts , one in a mosque , in Maharashtra.February 2007 : Pakistan-bound train is fire-bombed , killing 66 , mostly Pakistanis.May :11 killed , 15 injured in blast at Hyderabadmosque.August : 40 killed , 50 injured in bombs in Hyderabadeatery.November : 13 die inblasts outside court buildings inthree cities in Uttar Pradesh . . . `` Interestingly enough , there was an intelligence alert received by the home ministry , sayingthat a possible terror strike may take place on villages and crowded areas ... and various agencies had shared this information . '' . . The authoritiesinitially blamedthe blaston an cooking-gas cylinder which exploded , but they later said they suspected it was a `` terror attack '' . `` It 's a suspectedterrorist attack ... because it appears the bomb blast arose from an unattended package which was left behind in the bakery , '' GK Pillai , India 's interior secretary , told Al Jazeera . `` The whole country has been put on high alert.A team from theCBI [ Central Bureau of Investigation ) will be shortly on its way from Delhi to assist the Mumbai policeteam in the investigation of this blast . '' . . ThePress Trust of India news agencyquoted an unnamed official source as saying the blast wascaused by an improvised explosive device.Maharashtra police said an investigation was under way to establish the cause of the explosion.The site of the Pune blast was close toChabad House , a Jewish cultural andreligious centre run by the orthodox Chabad-Lubavitch movement whosemembers were targeted in the Mumbai attacks.Pune is about 100km southeast of Mumbai , India 's commercial capital . . . .
p113
sS'injured'
p114
g100
sS'det_loc'
p115
(lp116
S'India'
p117
aS'Maharashtra'
p118
aS'Pune'
p119
aS'Pune'
p120
aS'Pune'
p121
asS'O'
p122
(lp123
g100
asS'unexpl'
p124
(lp125
g100
asS'ocassion'
p126
g100
sS'link'
p127
S'http://www.aljazeera.com/news/asia/2010/02/2010213155016855188.html'
p128
sS'date'
p129
S'14-02-2010'
p130
sS'target'
p131
g100
sS'hot_spot'
p132
S'Pune'
p133
sS'delivery_mod'
p134
g100
sS'delivery_met'
p135
S'PLANTED'
p136
sS'expl'
p137
(lp138
g100
asS'ORG'
p139
(lp140
(lp141
S'Central Bureau of Investigation'
p142
aS'358'
p143
aS'Others'
p144
aas.