(dp0
S'LOC'
p1
(lp2
(lp3
S'Mumbai'
p4
aS'1'
p5
aS'Neutral'
p6
aa(lp7
S'Opera House'
p8
aS'50'
p9
aS'Event'
p10
aa(lp11
S'Bombay'
p12
aS'74'
p13
aS'Neutral'
p14
aa(lp15
S'Zaveri Bazaar'
p16
aS'80'
p17
aS'Event'
p18
aa(lp19
S'Zaveri Bazar'
p20
aS'107'
p21
aS'Event'
p22
aa(lp23
S'Opera House'
p24
aS'110'
p25
aS'Event'
p26
aa(lp27
S'Dadar'
p28
aS'113'
p29
aS'Event'
p30
aasS'PER'
p31
(lp32
(lp33
S'Babulal Das'
p34
aS'35'
p35
aS'Others'
p36
aa(lp37
S'Avinash Tamka'
p38
aS'61'
p39
aS'Others'
p40
aasS'TIM'
p41
(lp42
S'3 am : 55'
p43
asS'hot_setting'
p44
S''
p45
sS'DAT'
p46
(lp47
S'July 13:12'
p48
asS'death'
p49
g45
sS'title'
p50
S'Death toll in Mumbai terror blasts rises to 19'
p51
sS'det_loc'
p52
(lp53
S'India'
p54
ag45
ag45
ag45
aS'Opera House'
p55
asS'terror_group'
p56
(lp57
g45
asS'content'
p58
VMumbai : A man , who sustained serious injuries in the July 13 triple blasts here , today died in a city hospital , taking the death toll in the bombings to 19 . Babulal Das , 42 , who was admitted to Saifee Hospital after the blast at Opera House , died around 3 am , they said.Yesterday , Avinash Tamka -LRB- 23 -RRB- , who was admitted to the ICU in Bombay Hospital following the blast in Zaveri Bazaar , had died.Twenty people , who were seriously injured in the bombings , are being treated at various hospitals in the city.The triple blasts at Zaveri Bazar , Opera House and Dadar had left more than 130 people injured . .
p59
sS'injured'
p60
S'20'
p61
sS'org_unorg'
p62
S'ORGANISED'
p63
sS'O'
p64
(lp65
S'city hospital:22'
p66
aS'saifee hospital:44'
p67
aS'ICU:72'
p68
aS'hospitals:100'
p69
asS'unexpl'
p70
(lp71
g45
asS'ocassion'
p72
g45
sS'link'
p73
S'http://www.ndtv.com/india-news/death-toll-in-mumbai-terror-blasts-rises-to-19-461704'
p74
sS'date'
p75
S'13-07-2011'
p76
sS'target'
p77
g45
sS'hot_spot'
p78
S'Opera House'
p79
sS'delivery_mod'
p80
g45
sS'delivery_met'
p81
g45
sS'expl'
p82
(lp83
g45
asS'ORG'
p84
(lp85
s.