(dp0
S'LOC'
p1
(lp2
sS'PER'
p3
(lp4
sS'TIM'
p5
(lp6
sS'hot_setting'
p7
S''
p8
sS'DAT'
p9
(lp10
sS'death'
p11
g8
sS'title'
p12
NsS'det_loc'
p13
(lp14
g8
ag8
ag8
ag8
ag8
asS'terror_group'
p15
(lp16
g8
asS'content'
p17
VNone .
p18
sS'injured'
p19
g8
sS'org_unorg'
p20
g8
sS'O'
p21
(lp22
S'none:1'
p23
asS'unexpl'
p24
(lp25
g8
asS'ocassion'
p26
g8
sS'link'
p27
S'http://www.tribuneindia.com/2008/20080727/main1.htm'
p28
sS'date'
p29
g8
sS'target'
p30
g8
sS'hot_spot'
p31
g8
sS'delivery_mod'
p32
g8
sS'delivery_met'
p33
g8
sS'expl'
p34
(lp35
g8
asS'ORG'
p36
(lp37
s.