(dp0
S'LOC'
p1
(lp2
(lp3
S'Bihar'
p4
aS'8'
p5
aS'Neutral'
p6
aa(lp7
S'Bihar'
p8
aS'23'
p9
aS'Neutral'
p10
aa(lp11
S'Gandhi Maidan'
p12
aS'33'
p13
aS'Event'
p14
aa(lp15
S'Police Information Room'
p16
aS'73'
p17
aS'Source'
p18
aa(lp19
S'childrens park'
p20
aS'78'
p21
aS'Source'
p22
aa(lp23
S'Magadh Mahila College'
p24
aS'85'
p25
aS'Source'
p26
aa(lp27
S'Gandhi Maidan'
p28
aS'91'
p29
aS'Event'
p30
aa(lp31
S'park'
p32
aS'120'
p33
aS'Source'
p34
aa(lp35
S'Patna'
p36
aS'196'
p37
aS'Event'
p38
aa(lp39
S'Patna'
p40
aS'206'
p41
aS'Event'
p42
aa(lp43
S'Gandhi Maidan police station'
p44
aS'210'
p45
aS'Source'
p46
aa(lp47
S'Patna'
p48
aS'245'
p49
aS'Event'
p50
aa(lp51
S'Bodhgaya'
p52
aS'282'
p53
aS'Event'
p54
aa(lp55
S'Bodhgaya'
p56
aS'294'
p57
aS'Event'
p58
aa(lp59
S'Patna'
p60
aS'298'
p61
aS'Event'
p62
aa(lp63
S'Patna'
p64
aS'319'
p65
aS'Event'
p66
aa(lp67
S'Patna'
p68
aS'362'
p69
aS'Event'
p70
aa(lp71
S'Bihar'
p72
aS'389'
p73
aS'Neutral'
p74
aa(lp75
S'Delhi'
p76
aS'396'
p77
aS'Neutral'
p78
aa(lp79
S'Patna'
p80
aS'468'
p81
aS'Event'
p82
aa(lp83
S'Patna'
p84
aS'489'
p85
aS'Event'
p86
aa(lp87
S'Patna'
p88
aS'531'
p89
aS'Event'
p90
aa(lp91
S'Gandhi Maidan'
p92
aS'798'
p93
aS'Event'
p94
aa(lp95
S'Patna Railway Station'
p96
aS'913'
p97
aS'Event'
p98
aa(lp99
S'Patna'
p100
aS'977'
p101
aS'Event'
p102
aa(lp103
S'Patna'
p104
aS'1058'
p105
aS'Event'
p106
aa(lp107
S'Patna'
p108
aS'1074'
p109
aS'Event'
p110
aa(lp111
S'Patna'
p112
aS'1131'
p113
aS'Event'
p114
aa(lp115
S'Patna'
p116
aS'1179'
p117
aS'Event'
p118
aa(lp119
S'Ranchi'
p120
aS'1183'
p121
aS'Accused Location'
p122
aa(lp123
S'Delhi'
p124
aS'1250'
p125
aS'Accused Location'
p126
aa(lp127
S'Gandhi Maidan'
p128
aS'1296'
p129
aS'Event'
p130
aa(lp131
S'Patna'
p132
aS'1347'
p133
aS'Event'
p134
aa(lp135
S'Mangalore'
p136
aS'1443'
p137
aS'Accused Location'
p138
aa(lp139
S'Patna'
p140
aS'1475'
p141
aS'Event'
p142
aa(lp143
S'Patna'
p144
aS'1515'
p145
aS'Event'
p146
aa(lp147
S'Patna'
p148
aS'1829'
p149
aS'Event'
p150
aa(lp151
S'Patna'
p152
aS'1855'
p153
aS'Event'
p154
aa(lp155
S'Muzaffarnagar'
p156
aS'1871'
p157
aS'Accused Location'
p158
aa(lp159
S'Muzaffarnagar'
p160
aS'1915'
p161
aS'Accused Location'
p162
aa(lp163
S'Patna'
p164
aS'1974'
p165
aS'Event'
p166
aa(lp167
S'Patna Railway Junction'
p168
aS'2021'
p169
aS'Neutral'
p170
aa(lp171
S'Gandhi Maidan police station'
p172
aS'2026'
p173
aS'Neutral'
p174
aa(lp175
S'Patna'
p176
aS'2073'
p177
aS'Event'
p178
aa(lp179
S'Patna'
p180
aS'2085'
p181
aS'Event'
p182
aa(lp183
S'Bihar'
p184
aS'2094'
p185
aS'Neutral'
p186
aa(lp187
S'Patna'
p188
aS'2106'
p189
aS'Event'
p190
aa(lp191
S'Delhi'
p192
aS'2136'
p193
aS'Neutral'
p194
aa(lp195
S'Bihar'
p196
aS'2155'
p197
aS'Neutral'
p198
aa(lp199
S'Patna'
p200
aS'2163'
p201
aS'Event'
p202
aa(lp203
S'Patna'
p204
aS'2189'
p205
aS'Event'
p206
aa(lp207
S'Patna'
p208
aS'2211'
p209
aS'Event'
p210
aa(lp211
S'Patna'
p212
aS'2226'
p213
aS'Event'
p214
aa(lp215
S'Patna'
p216
aS'2259'
p217
aS'Event'
p218
aa(lp219
S'Patna'
p220
aS'2288'
p221
aS'Event'
p222
aa(lp223
S'Mumbai'
p224
aS'2319'
p225
aS'Event'
p226
aa(lp227
S'Patna'
p228
aS'2355'
p229
aS'Event'
p230
aa(lp231
S'Mumbai'
p232
aS'2413'
p233
aS'Event'
p234
aa(lp235
S'Patna'
p236
aS'2425'
p237
aS'Event'
p238
aa(lp239
S'Patna'
p240
aS'2504'
p241
aS'Event'
p242
aa(lp243
S'Patna'
p244
aS'2508'
p245
aS'Event'
p246
aa(lp247
S'Patna'
p248
aS'2574'
p249
aS'Event'
p250
aa(lp251
S'Patna'
p252
aS'2611'
p253
aS'Event'
p254
aa(lp255
S'Patna'
p256
aS'2808'
p257
aS'Event'
p258
aa(lp259
S'Bihar'
p260
aS'2813'
p261
aS'Neutral'
p262
aa(lp263
S'Patna'
p264
aS'2831'
p265
aS'Event'
p266
aa(lp267
S'Rajgir'
p268
aS'2927'
p269
aS'Neutral'
p270
aa(lp271
S'Patna'
p272
aS'2967'
p273
aS'Event'
p274
aa(lp275
S'Patna'
p276
aS'2999'
p277
aS'Event'
p278
aa(lp279
S'Patna'
p280
aS'3066'
p281
aS'Event'
p282
aa(lp283
S'Patna'
p284
aS'3089'
p285
aS'Event'
p286
aa(lp287
S'Bihar'
p288
aS'3122'
p289
aS'Neutral'
p290
aa(lp291
S'Patna'
p292
aS'3131'
p293
aS'Event'
p294
aa(lp295
S'Patna'
p296
aS'3154'
p297
aS'Event'
p298
aa(lp299
S'Patna'
p300
aS'3273'
p301
aS'Event'
p302
aa(lp303
S'Bihar'
p304
aS'3293'
p305
aS'Neutral'
p306
aa(lp307
S'Patna'
p308
aS'3333'
p309
aS'Event'
p310
aa(lp311
S'Patna'
p312
aS'3356'
p313
aS'Event'
p314
aa(lp315
S'Patna'
p316
aS'3469'
p317
aS'Event'
p318
aa(lp319
S'Bihar'
p320
aS'3489'
p321
aS'Neutral'
p322
aa(lp323
S'Patna'
p324
aS'3516'
p325
aS'Event'
p326
aa(lp327
S'Patna'
p328
aS'3669'
p329
aS'Event'
p330
aa(lp331
S'Patna'
p332
aS'3707'
p333
aS'Event'
p334
aa(lp335
S'Patna'
p336
aS'3720'
p337
aS'Event'
p338
aa(lp339
S'Patna'
p340
aS'3740'
p341
aS'Neutral'
p342
aa(lp343
S'Muzaffarnagar'
p344
aS'3800'
p345
aS'Accused Location'
p346
aa(lp347
S'Muzaffarnagar'
p348
aS'3972'
p349
aS'Accused Location'
p350
aa(lp351
S'Patna'
p352
aS'4000'
p353
aS'Event'
p354
aa(lp355
S'Patna'
p356
aS'4071'
p357
aS'Event'
p358
aa(lp359
S'Mumbai'
p360
aS'4150'
p361
aS'Event'
p362
aa(lp363
S'Patna'
p364
aS'4153'
p365
aS'Event'
p366
aa(lp367
S'Delhi'
p368
aS'4287'
p369
aS'Neutral'
p370
aa(lp371
S'Patna'
p372
aS'4295'
p373
aS'Event'
p374
aa(lp375
S'Patna'
p376
aS'4323'
p377
aS'Event'
p378
aa(lp379
S'Patna'
p380
aS'4344'
p381
aS'Event'
p382
aa(lp383
S'Ranchi'
p384
aS'4444'
p385
aS'Accused Location'
p386
aa(lp387
S'Bihar'
p388
aS'4499'
p389
aS'Neutral'
p390
aa(lp391
S'Patna'
p392
aS'4508'
p393
aS'Event'
p394
aa(lp395
S'Gandhi Maidan'
p396
aS'4789'
p397
aS'Accused Location'
p398
aa(lp399
S'Patna Railway Station'
p400
aS'4893'
p401
aS'Neutral'
p402
aa(lp403
S'Patna'
p404
aS'4986'
p405
aS'Event'
p406
aa(lp407
S'Muzaffarnagar'
p408
aS'5058'
p409
aS'Accused Location'
p410
aa(lp411
S'Bodh Gaya'
p412
aS'5074'
p413
aS'Event'
p414
aa(lp415
S'Patna'
p416
aS'5254'
p417
aS'Event'
p418
aa(lp419
S'Mumbai'
p420
aS'5263'
p421
aS'Event'
p422
aa(lp423
S'Gandhi Maidan'
p424
aS'5277'
p425
aS'Event'
p426
aa(lp427
S'Patna'
p428
aS'5280'
p429
aS'Event'
p430
aa(lp431
S'Mumbai'
p432
aS'5306'
p433
aS'Event'
p434
aa(lp435
S'Bodh Gaya'
p436
aS'5325'
p437
aS'Event'
p438
aa(lp439
S'Bihar'
p440
aS'5328'
p441
aS'Neutral'
p442
aa(lp443
S'Patna'
p444
aS'5345'
p445
aS'Event'
p446
aa(lp447
S'Patna'
p448
aS'5389'
p449
aS'Event'
p450
aa(lp451
S'Patna'
p452
aS'5406'
p453
aS'Event'
p454
aa(lp455
S'Bihar'
p456
aS'5477'
p457
aS'Neutral'
p458
aa(lp459
S'Patna'
p460
aS'5553'
p461
aS'Event'
p462
aa(lp463
S'Bihar'
p464
aS'5589'
p465
aS'Neutral'
p466
aa(lp467
S'Bihar'
p468
aS'5594'
p469
aS'Neutral'
p470
aa(lp471
S'Patna'
p472
aS'5614'
p473
aS'Neutral'
p474
aa(lp475
S'Kaimur'
p476
aS'5619'
p477
aS'Accused Location'
p478
aa(lp479
S'Mirganj'
p480
aS'5624'
p481
aS'Event'
p482
aa(lp483
S'Bihar'
p484
aS'5664'
p485
aS'Neutral'
p486
aa(lp487
S'Patna station'
p488
aS'5672'
p489
aS'Event'
p490
aa(lp491
S'platform no. 10'
p492
aS'5675'
p493
aS'Event'
p494
aa(lp495
S'Gandhi Maidan'
p496
aS'5684'
p497
aS'Event'
p498
aa(lp499
S'Udyog Bhawan'
p500
aS'5687'
p501
aS'Event'
p502
aa(lp503
S'Regent Cinema'
p504
aS'5692'
p505
aS'Event'
p506
aa(lp507
S'Old Gandhi statue'
p508
aS'5697'
p509
aS'Event'
p510
aa(lp511
S'Twin Tower'
p512
aS'5703'
p513
aS'Event'
p514
aa(lp515
S'SBI office'
p516
aS'5708'
p517
aS'Event'
p518
aa(lp519
S"Children 's park"
p520
aS'5713'
p521
aS'Event'
p522
aa(lp523
S'Patna'
p524
aS'5736'
p525
aS'Event'
p526
aa(lp527
S'Bihar'
p528
aS'5738'
p529
aS'Neutral'
p530
aa(lp531
S'Patna'
p532
aS'5774'
p533
aS'Event'
p534
aa(lp535
S'Patna Medical College'
p536
aS'5784'
p537
aS'Neutral'
p538
aa(lp539
S'Gandhi Maidan'
p540
aS'5813'
p541
aS'Event'
p542
aa(lp543
S'Patna'
p544
aS'5824'
p545
aS'Event'
p546
aa(lp547
S'Bihar'
p548
aS'5845'
p549
aS'Neutral'
p550
aa(lp551
S'Bihar'
p552
aS'5875'
p553
aS'Neutral'
p554
aa(lp555
S'Gujarat'
p556
aS'5895'
p557
aS'Neutral'
p558
aa(lp559
S'Bihar'
p560
aS'5986'
p561
aS'Neutral'
p562
aa(lp563
S'Patna railway station'
p564
aS'6064'
p565
aS'Event'
p566
aa(lp567
S'Gandhi Maidan'
p568
aS'6124'
p569
aS'Event'
p570
aa(lp571
S'Patna'
p572
aS'6217'
p573
aS'Event'
p574
aa(lp575
S'Patna'
p576
aS'6221'
p577
aS'Event'
p578
aa(lp579
S'Patna'
p580
aS'6239'
p581
aS'Event'
p582
aa(lp583
S'Patna'
p584
aS'6266'
p585
aS'Event'
p586
aa(lp587
S'Gujarat'
p588
aS'6300'
p589
aS'Neutral'
p590
aa(lp591
S'venue of rally'
p592
aS'6349'
p593
aS'Event'
p594
aa(lp595
S'Patna'
p596
aS'6393'
p597
aS'Event'
p598
aa(lp599
S'Gandhi Maidan'
p600
aS'6420'
p601
aS'Event'
p602
aa(lp603
S'Gandhi Maidan'
p604
aS'6429'
p605
aS'Event'
p606
aa(lp607
S'Gandhi Maidan'
p608
aS'6491'
p609
aS'Event'
p610
aa(lp611
S'Gandhi Maidan'
p612
aS'6563'
p613
aS'Event'
p614
aa(lp615
S'Gandhi Maidan'
p616
aS'6596'
p617
aS'Event'
p618
aa(lp619
S'Bihar'
p620
aS'6671'
p621
aS'Neutral'
p622
aa(lp623
S'Patna'
p624
aS'6739'
p625
aS'Event'
p626
aa(lp627
S'Gujarat'
p628
aS'6792'
p629
aS'Neutral'
p630
aa(lp631
S'gandhi Maidan'
p632
aS'6839'
p633
aS'Event'
p634
aa(lp635
S'Patna'
p636
aS'6871'
p637
aS'Event'
p638
aa(lp639
S'Gandhi Maidan'
p640
aS'6873'
p641
aS'Event'
p642
aa(lp643
S'Gandhi Maidan'
p644
aS'6918'
p645
aS'Event'
p646
aa(lp647
S'Munger'
p648
aS'6978'
p649
aS'Event'
p650
aa(lp651
S'Patna'
p652
aS'6985'
p653
aS'Neutral'
p654
aa(lp655
S'Bihar'
p656
aS'6987'
p657
aS'Neutral'
p658
aa(lp659
S'Munger'
p660
aS'6997'
p661
aS'Event'
p662
aa(lp663
S'Munger'
p664
aS'7043'
p665
aS'Event'
p666
aa(lp667
S'Munger'
p668
aS'7089'
p669
aS'Neutral'
p670
aa(lp671
S'Rajgir'
p672
aS'7094'
p673
aS'Neutral'
p674
aa(lp675
S'Nalanda'
p676
aS'7104'
p677
aS'Neutral'
p678
aa(lp679
S'Patna railway station'
p680
aS'7145'
p681
aS'Event'
p682
aa(lp683
S'Gandhi maidan'
p684
aS'7151'
p685
aS'Event'
p686
aa(lp687
S'Patna'
p688
aS'7194'
p689
aS'Event'
p690
aa(lp691
S'Bihar'
p692
aS'7213'
p693
aS'Event'
p694
aa(lp695
S'Gandhi Maidan'
p696
aS'7228'
p697
aS'Event'
p698
aa(lp699
S'Bihar'
p700
aS'7243'
p701
aS'Event'
p702
aa(lp703
S'Bihar'
p704
aS'7276'
p705
aS'Event'
p706
aa(lp707
S'Patna'
p708
aS'7293'
p709
aS'Event'
p710
aa(lp711
S'Patna'
p712
aS'7325'
p713
aS'Event'
p714
aa(lp715
S'Patna'
p716
aS'7341'
p717
aS'Event'
p718
aa(lp719
S'Bihar'
p720
aS'7370'
p721
aS'Event'
p722
aa(lp723
S'New Delhi'
p724
aS'7373'
p725
aS'Neutral'
p726
aa(lp727
S'Gandhi Maidan'
p728
aS'7386'
p729
aS'Event'
p730
aa(lp731
S'Patna'
p732
aS'7389'
p733
aS'Event'
p734
aa(lp735
S'Patna'
p736
aS'7410'
p737
aS'Event'
p738
aa(lp739
S'Patna'
p740
aS'7424'
p741
aS'Event'
p742
aa(lp743
S'Elphinstone Cinema Hall'
p744
aS'7427'
p745
aS'Event'
p746
aa(lp747
S'Gujarat'
p748
aS'7441'
p749
aS'Neutral'
p750
aa(lp751
S'Patna Railway'
p752
aS'7598'
p753
aS'Event'
p754
aa(lp755
S'Patna railway station'
p756
aS'7660'
p757
aS'Event'
p758
aa(lp759
S'Patna'
p760
aS'7664'
p761
aS'Event'
p762
aa(lp763
S'Bihar'
p764
aS'7738'
p765
aS'Event'
p766
aa(lp767
S'Patna'
p768
aS'7855'
p769
aS'Event'
p770
aa(lp771
S'Gandhi Maidan'
p772
aS'7884'
p773
aS'Event'
p774
aa(lp775
S'railway station'
p776
aS'7897'
p777
aS'Event'
p778
aa(lp779
S'Patna'
p780
aS'7915'
p781
aS'Event'
p782
aa(lp783
S'Patna railway station'
p784
aS'7972'
p785
aS'Event'
p786
aa(lp787
S'public toilet'
p788
aS'7986'
p789
aS'Event'
p790
aa(lp791
S'Platform No 10'
p792
aS'7989'
p793
aS'Event'
p794
aa(lp795
S'railway station'
p796
aS'7995'
p797
aS'Event'
p798
aa(lp799
S'Patna'
p800
aS'8007'
p801
aS'Event'
p802
aa(lp803
S'Gandhi Maidan'
p804
aS'8021'
p805
aS'Event'
p806
aasS'PER'
p807
(lp808
(lp809
S'Shinde'
p810
aS'4228'
p811
aa(lp812
S'Motihari'
p813
aS'21'
p814
aS'Accused'
p815
aa(lp816
S'Tabish'
p817
aS'44'
p818
aS'Accused'
p819
aa(lp820
S'Manoj Kumar Tiwari'
p821
aS'101'
p822
aS'Comment'
p823
aa(lp824
S'N Sharvan Kumar'
p825
aS'146'
p826
aS'Comment'
p827
aa(lp828
S'Narendra Modi'
p829
aS'250'
p830
aS'Others'
p831
aa(lp832
S'Nitish Kumar'
p833
aS'341'
p834
aS'Comment'
p835
aa(lp836
S'Shinde'
p837
aS'349'
p838
aS'Comment'
p839
aa(lp840
S'Sushilkumar Shinde'
p841
aS'354'
p842
aS'Comment'
p843
aa(lp844
S'Nitish Kumar'
p845
aS'375'
p846
aS'Comment'
p847
aa(lp848
S'Shinde'
p849
aS'404'
p850
aS'Comment'
p851
aa(lp852
S'Nitish Kumar'
p853
aS'431'
p854
aS'Comment'
p855
aa(lp856
S'Narendra Modi'
p857
aS'528'
p858
aS'Others'
p859
aa(lp860
S'Nitish Kumar'
p861
aS'547'
p862
aS'Others'
p863
aa(lp864
S'Narendra Modi'
p865
aS'600'
p866
aS'Others'
p867
aa(lp868
S'Nitish'
p869
aS'742'
p870
aS'Comment'
p871
aa(lp872
S'Sushil Kumar Modi'
p873
aS'970'
p874
aS'Comment'
p875
aa(lp876
S'Modi'
p877
aS'1005'
p878
aS'Comment'
p879
aa(lp880
S'Nitish Kumar'
p881
aS'1021'
p882
aS'Comment'
p883
aa(lp884
S'Modi'
p885
aS'1027'
p886
aS'Comment'
p887
aa(lp888
S'Imtiaz Ansari'
p889
aS'1116'
p890
aS'Comment'
p891
aa(lp892
S'Mohammed Imtiaz'
p893
aS'1138'
p894
aS'Accused'
p895
aa(lp896
S'Imtiaz'
p897
aS'1197'
p898
aS'Accused'
p899
aa(lp900
S'Tariq'
p901
aS'1215'
p902
aS'Accused'
p903
aa(lp904
S'Anul'
p905
aS'1217'
p906
aS'Accused'
p907
aa(lp908
S'Imtiaz'
p909
aS'1234'
p910
aS'Accused'
p911
aa(lp912
S'Tariq'
p913
aS'1248'
p914
aS'Accused'
p915
aa(lp916
S'Tehseen'
p917
aS'1257'
p918
aS'Accused'
p919
aa(lp920
S'Haider'
p921
aS'1259'
p922
aS'Accused'
p923
aa(lp924
S'Taufiq'
p925
aS'1267'
p926
aS'Accused'
p927
aa(lp928
S'Niman'
p929
aS'1269'
p930
aS'Accused'
p931
aa(lp932
S'Maharaj'
p933
aS'1276'
p934
aS'Comment'
p935
aa(lp936
S'Anul'
p937
aS'1283'
p938
aS'Accused'
p939
aa(lp940
S'Imtiaz'
p941
aS'1285'
p942
aS'Accused'
p943
aa(lp944
S'Maharaj'
p945
aS'1300'
p946
aS'Comment'
p947
aa(lp948
S'Imtiaz'
p949
aS'1302'
p950
aS'Accused'
p951
aa(lp952
S'Mohammed Imtiaz'
p953
aS'1356'
p954
aS'Accused'
p955
aa(lp956
S'Tehseen Akhtar'
p957
aS'1382'
p958
aS'Accused'
p959
aa(lp960
S'Akhtar'
p961
aS'1434'
p962
aS'Accused'
p963
aa(lp964
S'Bhatkal'
p965
aS'1455'
p966
aS'Accused'
p967
aa(lp968
S'Shinde'
p969
aS'1466'
p970
aS'Comment'
p971
aa(lp972
S'Modi'
p973
aS'1473'
p974
aS'Comment'
p975
aa(lp976
S'Khurshid'
p977
aS'1479'
p978
aS'Others'
p979
aa(lp980
S'Salman Khurshid'
p981
aS'1484'
p982
aS'Others'
p983
aa(lp984
S'Sushil Kumar Shinde'
p985
aS'1490'
p986
aS'Others'
p987
aa(lp988
S'Shinde'
p989
aS'1510'
p990
aS'Comment'
p991
aa(lp992
S'Shinde'
p993
aS'1543'
p994
aS'Comment'
p995
aa(lp996
S'Modi'
p997
aS'1572'
p998
aS'Comment'
p999
aa(lp1000
S'Modi'
p1001
aS'1624'
p1002
aS'Comment'
p1003
aa(lp1004
S'Modi'
p1005
aS'1716'
p1006
aS'Comment'
p1007
aa(lp1008
S'Maneka'
p1009
aS'1731'
p1010
aS'Others'
p1011
aa(lp1012
S'Varun Gandhi'
p1013
aS'1733'
p1014
aS'Others'
p1015
aa(lp1016
S'Gandhi'
p1017
aS'1740'
p1018
aS'Others'
p1019
aa(lp1020
S'irks Modi'
p1021
aS'1744'
p1022
aS'Others'
p1023
aa(lp1024
S'Maneka Gandhi'
p1025
aS'1767'
p1026
aS'Others'
p1027
aa(lp1028
S'Varun Gandhi'
p1029
aS'1771'
p1030
aS'Others'
p1031
aa(lp1032
S'Modi'
p1033
aS'1787'
p1034
aS'Comment'
p1035
aa(lp1036
S'Gandhi'
p1037
aS'1819'
p1038
aS'Others'
p1039
aa(lp1040
S'Imitiaz Ansari'
p1041
aS'1903'
p1042
aS'Accused'
p1043
aa(lp1044
S'Ravindra Kumar'
p1045
aS'2045'
p1046
aS'Comment'
p1047
aa(lp1048
S'Shinde'
p1049
aS'2069'
p1050
aS'Comment'
p1051
aa(lp1052
S'Sushilkumar Shinde'
p1053
aS'2079'
p1054
aS'Comment'
p1055
aa(lp1056
S'Nitish Kumar'
p1057
aS'2097'
p1058
aS'Comment'
p1059
aa(lp1060
S'Shinde'
p1061
aS'2102'
p1062
aS'Comment'
p1063
aa(lp1064
S'Kumar'
p1065
aS'2108'
p1066
aS'Comment'
p1067
aa(lp1068
S'Shinde'
p1069
aS'2176'
p1070
aS'Comment'
p1071
aa(lp1072
S'Anil Goswami'
p1073
aS'2181'
p1074
aS'Others'
p1075
aa(lp1076
S'Shinde'
p1077
aS'2206'
p1078
aS'Comment'
p1079
aa(lp1080
S'Shinde'
p1081
aS'2257'
p1082
aS'Comment'
p1083
aa(lp1084
S'Sushilkumar Shinde'
p1085
aS'2268'
p1086
aS'Comment'
p1087
aa(lp1088
S'Siddarth Nath Singh'
p1089
aS'2312'
p1090
aS'Comment'
p1091
aa(lp1092
S'Shinde'
p1093
aS'2357'
p1094
aS'Comment'
p1095
aa(lp1096
S'Shinde'
p1097
aS'2397'
p1098
aS'Comment'
p1099
aa(lp1100
S'Kangana Ranaut'
p1101
aS'2410'
p1102
aS'Others'
p1103
aa(lp1104
S'Narendra Modi'
p1105
aS'2435'
p1106
aS'Others'
p1107
aa(lp1108
S'Nirmala Sitharaman'
p1109
aS'2469'
p1110
aS'Comment'
p1111
aa(lp1112
S'Ravindra Kumar'
p1113
aS'2510'
p1114
aS'Comment'
p1115
aa(lp1116
S'Narendra Modi'
p1117
aS'2526'
p1118
aS'Others'
p1119
aa(lp1120
S'Kumar'
p1121
aS'2549'
p1122
aS'Comment'
p1123
aa(lp1124
S'Arun Jaitley'
p1125
aS'2603'
p1126
aS'Comment'
p1127
aa(lp1128
S'Arun Jaitley'
p1129
aS'2607'
p1130
aS'Comment'
p1131
aa(lp1132
S'Nitish Kumar'
p1133
aS'2616'
p1134
aS'Comment'
p1135
aa(lp1136
S'Jaitley'
p1137
aS'2667'
p1138
aS'Comment'
p1139
aa(lp1140
S'dilemma'
p1141
aS'2678'
p1142
aS'Others'
p1143
aa(lp1144
S'Jaitley'
p1145
aS'2734'
p1146
aS'Comment'
p1147
aa(lp1148
S'Nitish Kumar'
p1149
aS'2740'
p1150
aS'Comment'
p1151
aa(lp1152
S'Jaitley'
p1153
aS'2751'
p1154
aS'Comment'
p1155
aa(lp1156
S'Jaitley'
p1157
aS'2778'
p1158
aS'Comment'
p1159
aa(lp1160
S'Nitish Kumar'
p1161
aS'2803'
p1162
aS'Comment'
p1163
aa(lp1164
S'Nitish Kumar'
p1165
aS'2816'
p1166
aS'Comment'
p1167
aa(lp1168
S'Kumar'
p1169
aS'2846'
p1170
aS'Comment'
p1171
aa(lp1172
S'AK Sinha'
p1173
aS'2872'
p1174
aS'Others'
p1175
aa(lp1176
S'Abhayanand'
p1177
aS'2879'
p1178
aS'Others'
p1179
aa(lp1180
S'Shinde'
p1181
aS'2964'
p1182
aS'Comment'
p1183
aa(lp1184
S'Modi'
p1185
aS'2971'
p1186
aS'Comment'
p1187
aa(lp1188
S'Sushilkumar Shinde'
p1189
aS'2988'
p1190
aS'Comment'
p1191
aa(lp1192
S'Modi'
p1193
aS'3043'
p1194
aS'Comment'
p1195
aa(lp1196
S'Shinde'
p1197
aS'3051'
p1198
aS'Comment'
p1199
aa(lp1200
S'Digvijaya'
p1201
aS'3111'
p1202
aS'Comment'
p1203
aa(lp1204
S'Digvijaya'
p1205
aS'3117'
p1206
aS'Comment'
p1207
aa(lp1208
S'Nitish Kumar'
p1209
aS'3125'
p1210
aS'Comment'
p1211
aa(lp1212
S'Narendra Modi'
p1213
aS'3182'
p1214
aS'Others'
p1215
aa(lp1216
S'Nitish'
p1217
aS'3279'
p1218
aS'Comment'
p1219
aa(lp1220
S'Modi'
p1221
aS'3289'
p1222
aS'Comment'
p1223
aa(lp1224
S'digvijaya singh'
p1225
aS'3297'
p1226
aS'Comment'
p1227
aa(lp1228
S'Singh'
p1229
aS'3308'
p1230
aS'Comment'
p1231
aa(lp1232
S'Sushil Modi'
p1233
aS'3342'
p1234
aS'Comment'
p1235
aa(lp1236
S'Sushil Kumar Modi'
p1237
aS'3349'
p1238
aS'Comment'
p1239
aa(lp1240
S'Modi'
p1241
aS'3385'
p1242
aS'Comment'
p1243
aa(lp1244
S'Nitish Kumar'
p1245
aS'3401'
p1246
aS'Comment'
p1247
aa(lp1248
S'Modi'
p1249
aS'3407'
p1250
aS'Comment'
p1251
aa(lp1252
S'Modi'
p1253
aS'3478'
p1254
aS'Comment'
p1255
aa(lp1256
S'Nitish Kumar'
p1257
aS'3498'
p1258
aS'Comment'
p1259
aa(lp1260
S'Rahul Gandhi'
p1261
aS'3539'
p1262
aS'Others'
p1263
aa(lp1264
S'Mukhtar Abbas Naqvi'
p1265
aS'3617'
p1266
aS'Comment'
p1267
aa(lp1268
S'Bhatkal'
p1269
aS'3638'
p1270
aS'Accused'
p1271
aa(lp1272
S'Yasin Bhatkal'
p1273
aS'3654'
p1274
aS'Accused'
p1275
aa(lp1276
S'Bhatkal'
p1277
aS'3664'
p1278
aS'Accused'
p1279
aa(lp1280
S'Yasin Bhatkal'
p1281
aS'3753'
p1282
aS'Accused'
p1283
aa(lp1284
S'Tehseen Akhtar'
p1285
aS'3808'
p1286
aS'Accused'
p1287
aa(lp1288
S'Yasin Bhatkal'
p1289
aS'3821'
p1290
aS'Accused'
p1291
aa(lp1292
S'Aktar'
p1293
aS'3837'
p1294
aS'Accused'
p1295
aa(lp1296
S'Monu'
p1297
aS'3839'
p1298
aS'Accused'
p1299
aa(lp1300
S'Bhatkal'
p1301
aS'3847'
p1302
aS'Accused'
p1303
aa(lp1304
S'Akhtar'
p1305
aS'3862'
p1306
aS'Accused'
p1307
aa(lp1308
S'Bhatkal'
p1309
aS'3867'
p1310
aS'Accused'
p1311
aa(lp1312
S'Modi'
p1313
aS'3902'
p1314
aS'Comment'
p1315
aa(lp1316
S'Narendra Modi'
p1317
aS'3925'
p1318
aS'Comment'
p1319
aa(lp1320
S'Modi'
p1321
aS'3946'
p1322
aS'Comment'
p1323
aa(lp1324
S'Rahul Gandhi'
p1325
aS'3961'
p1326
aS'Others'
p1327
aa(lp1328
S'Amarkant Jha'
p1329
aS'4003'
p1330
aS'Comment'
p1331
aa(lp1332
S'Manu Maharaj'
p1333
aS'4073'
p1334
aS'Comment'
p1335
aa(lp1336
S'Shinde'
p1337
aS'4120'
p1338
aS'Comment'
p1339
aa(lp1340
S'Sushilkumar Shinde'
p1341
aS'4133'
p1342
aS'Comment'
p1343
aa(lp1344
S'Shinde'
p1345
aS'4166'
p1346
aS'Comment'
p1347
aa(lp1348
S'Imtiaz Ansari'
p1349
aS'4416'
p1350
aS'Accused'
p1351
aa(lp1352
S'Ansari'
p1353
aS'4439'
p1354
aS'Accused'
p1355
aa(lp1356
S'Nitish Kumar'
p1357
aS'4522'
p1358
aS'Comment'
p1359
aa(lp1360
S'Nitish Kumar'
p1361
aS'4535'
p1362
aS'Comment'
p1363
aa(lp1364
S'Narendra Modi'
p1365
aS'4589'
p1366
aS'Comment'
p1367
aa(lp1368
S'Nitish'
p1369
aS'4733'
p1370
aS'Comment'
p1371
aa(lp1372
S'Imtiaz Ansari'
p1373
aS'5098'
p1374
aS'Accused'
p1375
aa(lp1376
S'Tehseen Akhtar'
p1377
aS'5133'
p1378
aS'Accused'
p1379
aa(lp1380
S'Yasin Bhatkal'
p1381
aS'5146'
p1382
aS'Accused'
p1383
aa(lp1384
S'Aktar'
p1385
aS'5162'
p1386
aS'Accused'
p1387
aa(lp1388
S'Monu'
p1389
aS'5164'
p1390
aS'Accused'
p1391
aa(lp1392
S'Bhatkal'
p1393
aS'5172'
p1394
aS'Accused'
p1395
aa(lp1396
S'Akhtar'
p1397
aS'5187'
p1398
aS'Accused'
p1399
aa(lp1400
S'Bhatkal'
p1401
aS'5192'
p1402
aS'Accused'
p1403
aa(lp1404
S'Shinde'
p1405
aS'5240'
p1406
aS'Comment'
p1407
aa(lp1408
S'Sushilkumar Shinde'
p1409
aS'5259'
p1410
aS'Comment'
p1411
aa(lp1412
S'Shinde'
p1413
aS'5302'
p1414
aS'Comment'
p1415
aa(lp1416
S'Shinde'
p1417
aS'5316'
p1418
aS'Comment'
p1419
aa(lp1420
S'Pranab Mukherjee'
p1421
aS'5393'
p1422
aS'Comment'
p1423
aa(lp1424
S'Manmohan Singh'
p1425
aS'5398'
p1426
aS'Comment'
p1427
aa(lp1428
S'Nitish Kumar'
p1429
aS'5480'
p1430
aS'Comment'
p1431
aa(lp1432
S'Narendra Modi'
p1433
aS'5570'
p1434
aS'Comment'
p1435
aa(lp1436
S'Ramnarayan Singh'
p1437
aS'5611'
p1438
aS'Accused'
p1439
aa(lp1440
S'Vikas Singh'
p1441
aS'5616'
p1442
aS'Accused'
p1443
aa(lp1444
S'Munna Singh'
p1445
aS'5621'
p1446
aS'Accused'
p1447
aa(lp1448
S'Abhayanand'
p1449
aS'5666'
p1450
aS'Others'
p1451
aa(lp1452
S'Nitish Kumar'
p1453
aS'5721'
p1454
aS'Comment'
p1455
aa(lp1456
S'Nitish Kumar'
p1457
aS'5741'
p1458
aS'Comment'
p1459
aa(lp1460
S'Kumar'
p1461
aS'5817'
p1462
aS'Comment'
p1463
aa(lp1464
S'Narendra'
p1465
aS'5904'
p1466
aS'Others'
p1467
aa(lp1468
S'Modi'
p1469
aS'5906'
p1470
aS'Comment'
p1471
aa(lp1472
S'Kumar'
p1473
aS'6051'
p1474
aS'Comment'
p1475
aa(lp1476
S'Kumar'
p1477
aS'6141'
p1478
aS'Comment'
p1479
aa(lp1480
S'Modi'
p1481
aS'6193'
p1482
aS'Comment'
p1483
aa(lp1484
S'Modi'
p1485
aS'6210'
p1486
aS'Comment'
p1487
aa(lp1488
S'Narendra Modi'
p1489
aS'6227'
p1490
aS'Others'
p1491
aa(lp1492
S'Modi'
p1493
aS'6291'
p1494
aS'Comment'
p1495
aa(lp1496
S'Modi'
p1497
aS'6355'
p1498
aS'Comment'
p1499
aa(lp1500
S'Sushma'
p1501
aS'6369'
p1502
aS'Comment'
p1503
aa(lp1504
S'Nitish'
p1505
aS'6376'
p1506
aS'Comment'
p1507
aa(lp1508
S'Sushma Swaraj'
p1509
aS'6403'
p1510
aS'Comment'
p1511
aa(lp1512
S'Sanjay Singh'
p1513
aS'6469'
p1514
aS'Others'
p1515
aa(lp1516
S'Modi'
p1517
aS'6478'
p1518
aS'Others'
p1519
aa(lp1520
S'Narendra Modi'
p1521
aS'6569'
p1522
aS'Comment'
p1523
aa(lp1524
S'Ajay Kumar'
p1525
aS'6589'
p1526
aS'Victim'
p1527
aa(lp1528
S'Shakeel Ahmed'
p1529
aS'6631'
p1530
aS'Victim'
p1531
aa(lp1532
S'Ahmed'
p1533
aS'6654'
p1534
aS'Victim'
p1535
aa(lp1536
S'Modi'
p1537
aS'6662'
p1538
aS'Comment'
p1539
aa(lp1540
S'Shakeel Ahmad'
p1541
aS'6689'
p1542
aS'Victim'
p1543
aa(lp1544
S'Ravi Shankar'
p1545
aS'6744'
p1546
aS'Victim'
p1547
aa(lp1548
S'Sushil Kumar Modi'
p1549
aS'6750'
p1550
aS'Victim'
p1551
aa(lp1552
S'Narendra Modi'
p1553
aS'6801'
p1554
aS'Comment'
p1555
aa(lp1556
S'Sushil Kumar Modi'
p1557
aS'6855'
p1558
aS'Victim'
p1559
aa(lp1560
S'Ravi Shankar Prasad'
p1561
aS'6894'
p1562
aS'Accused'
p1563
aa(lp1564
S'Ravi Shankar Prasad'
p1565
aS'6952'
p1566
aS'Accused'
p1567
aa(lp1568
S'Nitish'
p1569
aS'6976'
p1570
aS'Comment'
p1571
aa(lp1572
S'Nitish Kumar'
p1573
aS'6990'
p1574
aS'Comment'
p1575
aa(lp1576
S'Narendra Modi'
p1577
aS'7011'
p1578
aS'Others'
p1579
aa(lp1580
S'Kumar'
p1581
aS'7023'
p1582
aS'Comment'
p1583
aa(lp1584
S'Anne Marg'
p1585
aS'7032'
p1586
aS'Others'
p1587
aa(lp1588
S'Manmohan Singh'
p1589
aS'7069'
p1590
aS'Others'
p1591
aa(lp1592
S'Kumar'
p1593
aS'7083'
p1594
aS'Comment'
p1595
aa(lp1596
S'Kumar'
p1597
aS'7113'
p1598
aS'Comment'
p1599
aa(lp1600
S'AK Sinha'
p1601
aS'7120'
p1602
aS'Others'
p1603
aa(lp1604
S'Abhyanand'
p1605
aS'7127'
p1606
aS'Others'
p1607
aa(lp1608
S'Amir Subhani'
p1609
aS'7132'
p1610
aS'Others'
p1611
aa(lp1612
S'RPN Singh'
p1613
aS'7218'
p1614
aS'Comment'
p1615
aa(lp1616
S'RPN Singh'
p1617
aS'7263'
p1618
aS'Comment'
p1619
aa(lp1620
S'Manmohan Singh'
p1621
aS'7273'
p1622
aS'Comment'
p1623
aa(lp1624
S'Modi'
p1625
aS'7393'
p1626
aS'Comment'
p1627
aa(lp1628
S'Modi'
p1629
aS'7413'
p1630
aa(lp1631
S'Narendra Modi'
p1632
aS'7444'
p1633
aS'Comment'
p1634
aa(lp1635
S'Abhayanand'
p1636
aS'7471'
p1637
aS'Others'
p1638
aa(lp1639
S'Digvijaya Singh'
p1640
aS'7587'
p1641
aS'Others'
p1642
aa(lp1643
S'Modi'
p1644
aS'7604'
p1645
aS'Comment'
p1646
aa(lp1647
S'Nitish'
p1648
aS'7610'
p1649
aS'Comment'
p1650
aa(lp1651
S'digvijaya singh'
p1652
aS'7619'
p1653
aS'Accused'
p1654
aa(lp1655
S'Manu Maharaj'
p1656
aS'7669'
p1657
aS'Comment'
p1658
aa(lp1659
S'Ramkirpal Yadav'
p1660
aS'7712'
p1661
aS'Comment'
p1662
aa(lp1663
S'Yadav'
p1664
aS'7789'
p1665
aS'Comment'
p1666
aa(lp1667
S'Narendra Modi'
p1668
aS'7880'
p1669
aS'Others'
p1670
aa(lp1671
S'Narendra Modi'
p1672
aS'7935'
p1673
aS'Comment'
p1674
aa(lp1675
S'Modi'
p1676
aS'8018'
p1677
aS'Comment'
p1678
aasS'TIM'
p1679
(lp1680
S'8.13 am : 1'
p1681
aS'morning : 49'
p1682
aS'12.15 pm : 188'
p1683
aS'11.47 am : 338'
p1684
aS'10.35 am : 462'
p1685
aS'10.00 am : 1055'
p1686
aS'night : 1146'
p1687
aS'9.22 am : 1320'
p1688
aS'night : 1365'
p1689
aS'8.15 am : 1462'
p1690
aS'7.45 am : 1826'
p1691
aS'9.50 pm : 1965'
p1692
aS'9.12 : 2066'
p1693
aS'6.57 pm : 2252'
p1694
aS'5.04 pm : 2494'
p1695
aS'3.59 pm : 2593'
p1696
aS'3.00 pm : 2800'
p1697
aS'2:10 pm : 2961'
p1698
aS'1:40 pm : 3056'
p1699
aS'1.25 pm : 3098'
p1700
aS'12.35 pm : 3330'
p1701
aS'12:05 pm : 3486'
p1702
aS'12:00 pm : 3520'
p1703
aS'11.52 am : 3628'
p1704
aS'11.14 am : 3711'
p1705
aS'10.58 am : 3892'
p1706
aS'10.00 am : 4117'
p1707
aS'8.45 am : 4328'
p1708
aS'7.30 am : 4496'
p1709
aS'6.30 am : 4961'
p1710
aS'7.42 pm : 5227'
p1711
aS'7.17 pm : 5379'
p1712
aS'6.35 pm : 5582'
p1713
aS'9.30 am : 5669'
p1714
aS'11.40 am : 5681'
p1715
aS'12.05 pm : 5689'
p1716
aS'12.10 pm : 5694'
p1717
aS'12.15 pm : 5700'
p1718
aS'12.20 pm : 5705'
p1719
aS'12.45 pm : 5710'
p1720
aS'6.15 pm : 5718'
p1721
aS'5.30 pm : 6207'
p1722
aS'5.20 pm : 6366'
p1723
aS'5.15 pm : 6414'
p1724
aS'5.10 pm : 6432'
p1725
aS'5.15 pm : 6504'
p1726
aS'5.05 pm : 6577'
p1727
aS'5.00 pm : 6626'
p1728
aS'4.45 pm : 6700'
p1729
aS'4.15 pm : 6762'
p1730
aS'3.00 pm : 6891'
p1731
aS'2.45 pm : 6973'
p1732
aS'2.35 pm : 7160'
p1733
aS'2.30 pm : 7210'
p1734
aS'1.30 pm : 7268'
p1735
aS'12.45 pm : 7318'
p1736
aS'12.25 pm : 7378'
p1737
aS'12.10 pm : 7402'
p1738
aS'1 pm : 7454'
p1739
aS'12.00 pm : 7533'
p1740
aS'11.55 pm : 7581'
p1741
aS'11.50 pm : 7630'
p1742
aS'11.40 am : 7642'
p1743
aS'11.30 am : 7693'
p1744
aS'11.20 am : 7819'
p1745
aS'11.15 am : 7842'
p1746
aS'11 am : 7891'
p1747
aS'10 am : 7919'
p1748
aS'three hours : 7925'
p1749
asS'hot_setting'
p1750
S''
p1751
sS'DAT'
p1752
(lp1753
S'Sunday : 36'
p1754
aS'Tuesday : 64'
p1755
aS'29 October : 183'
p1756
aS'Wednesday : 400'
p1757
aS'Monday : 1145'
p1758
aS'27 October : 1345'
p1759
aS'Monday : 1364'
p1760
aS'Sunday : 1391'
p1761
aS'28 October : 1960'
p1762
aS'Wednesday : 2138'
p1763
aS'23 October : 2772'
p1764
aS'October 27 , 2013 : 3302'
p1765
aS'August : 3759'
p1766
aS'Sunday : 4988'
p1767
aS'27 October : 5222'
p1768
aS'Sunday : 5265'
p1769
aS'July : 5333'
p1770
aS'Sunday : 5400'
p1771
aS'Sunday : 5554'
p1772
aS'Friday : 6116'
p1773
aS'October 27 , 2013 : 6408'
p1774
aS'October 27 , 2013 : 6694'
p1775
aS'October 27 , 2013 : 6756'
p1776
aS'October 27 , 2013 : 6861'
p1777
aS'October 27 , 2013 : 6885'
p1778
aS'October 27 , 2013 : 7624'
p1779
aS'Sunday : 7922'
p1780
aS'Sunday : 8009'
p1781
asS'death'
p1782
g1751
sS'title'
p1783
S'Patna blasts live: One more suspect detained in Motihari, raids on'
p1784
sS'org_unorg'
p1785
S'ORGANISED'
p1786
sS'terror_group'
p1787
(lp1788
S'INDIAN MUJAHIDEEN'
p1789
asS'content'
p1790
V8.13 am : One more detained in Bihar , raids on . . Patna Police have detained another suspect from Motihari , Bihar for his alleged involvement in the serial blasts at Gandhi Maidan on Sunday . . . According to reports , Tabish was arrested early this morning and police raids are on . More details are awaited . . . On Tuesday , three bombs were found each near the Police Information Room , in childrens park and a place opposite the Magadh Mahila College , all on Gandhi Maidan , Deputy Superintendent of Police ( City ) Manoj Kumar Tiwari said . . . Later in the day . two more bombs were recovered from the park and the place opposite the college , police sources told PTI . . . In view of more bombs being found , Patna District Magistrate N Sharvan Kumar said permission will not be given to the Communist Party of India-Marxist-Leninists ( CPI-ML ) proposed Khabardar rally that was suppose to be organised at the same venue today . . . Updates for 29 October end . . 12.15 pm : One more bomb recovered in Patna . . Police have found another live bomb in Patna , near the Gandhi Maidan police station . . . Police are reportedly trying to defuse the bomb . . . Preliminary reports coming in said that the discovered bomb was similar to the devices that exploded across Patna on the day of Narendra Modi 's rally . . . The bombs , which are believed to have been planted by the Indian Mujahideen , reportedly have the same kind of timer device as the Bodhgaya blasts . `` The only similarity between the IEDs used in Bodhgaya and those in Patna was the timer device - a Lotus brand watch . The make of the bombs was different , as the Patna bombs were not very neatly prepared '' , a senior officer told the Indian Express . . . 11.47 am : Nitish Kumar will meet me tomorrow , says Shinde . . Home Minister Sushilkumar Shinde who was supposed to travel to Patna today , said that he did not make the trip there as Nitish Kumar had another meeting . Speaking to reporters , Shinde said that the Bihar Chief Minister would meet him in Delhi tomorrow . ( Wednesday ) . . Shinde also reiterated the fact that the Bihar state government had received intelligence inputs from the centre , on specific threats to political rallies . . . Nitish Kumar 's government originally said that they did not receive any central intelligence input and later said that whatever inputs they had received were much too generic . . . 10.35 am : Bihar govt wants Patna blasts probe handed over to NIA . . The Bihar government has written to the centre and asked that the Patna blasts be handed over to the National Investigation Agency ( NIA ) , CNN-IBN reported . . . The request comes even as state security and investigative teams have come under fire for providing sub standard security to Narendra Modi 's Patna rally that was targeted by several low intensity blasts . . . Although Chief Minister Nitish Kumar has vigorously defended the security arrangements for the Hunkar rally , central intelligence agencies are reportedly begging to differ . . . According to this report in theTimes of India : . . Sources said though there were no specific inputs , Bihar government was told about possible threats to the Narendra Modi rally.Still , security was so lax that even anti-sabotage checks , a routine in such rallies , were not done . Even policemen were not found in adequate numbers around the venue while several peripheral sections of the venue were seen guarded by private security . . . TheIndian Expressnoted , . . `` What baffled the central agencies is the way the police handled the spots where these explosions were reported . Unlike the standard practice after the blasts , the areas were not cordoned off which resulted in loss of vital clues . . . Also , although the police have a bomb disposal squad , there are not enough personnel to comb the area . The police used lathis and bare hands to pick packets suspected to contain IEDs . '' . . For his part , Nitish said , . . There were no intelligence inputs either from the Centre or from the state . Whatever was possible to do for this kind of a programme , the administration had done . Security was tightened keeping in mind the BJP rally . Senior police officials had personally monitored the security arrangements at Gandhi Maidan , . . This has since been denied by both the Congress and BJP . . . Meanwhile more shocking news about the manner in which the blasts were handled are emerging . . . This report inThe Hinduquotedmany of the victims as saying thatpeople had alerted the police when they spotted the explosive devices , but the police took no step whatsoever to move people to safety . . . Furthermore it has been revealed that people had tried to defuse the bombs by throwing stones at them . The Home Ministry has asked the Bihar government for a report into the incident . . . Concerned over the blast at the Patna Railway Station and recovery of two more crude bombs , the Ministry told the state government to send a report about the nature of the bomb , suspected persons or organisations which could be behind it and steps taken to maintain law and order , PTIsaid , quoting official sources . . . Bihar BJP leader Sushil Kumar Modi has said that the Patna blasts happened because of ` criminal negligence ' and said that the lax security at the event felt ` deliberate ' . . . Speaking toCNN-IBN , Modi said , `` This is criminal negligence and it seems deliberate . The CM ( Nitish Kumar ) wanted to ignore Modi and so he had a callous attitude towards the rally . No jammer or SUV or proper security was provided at the event '' . . . 10.00 am : Patna bombers worked in teams , say police . . With more information about how the Patna blasts were ochestrated coming out , police now say that they believe that as many as six bombers worked in three teams to carry out the attacks . . . Two of the six bombers have been arrested , including one Imtiaz Ansari , whowas caught while allegedly trying to flee after the blast at the Patna station . The second suspect , Mohammed Imtiaz was produced in court on Monday night and sent to seven days judicial custody . . . According to the Indian Express , the bombers had split up into three teams of two bombers each , after coming to Patna by bus from Ranchi . According to the newspaper report : . . According to police , Imtiaz , who was arrested by the Railway Protection Force after the battery bomb exploded injuring his partner Tariq alias Anul , had a piece of paper with seven mobile phone numbers on it . It was Imtiaz who provided police with all the initial leads . Police may consider flying Tariq to Delhi for treatment . . . `` Tehseen and Haider were in the second team , and Taufiq and Niman in the third , '' SSP Maharaj said . `` By the time Anul and Imtiaz were arrested , their associates had planted pipe bombs at Gandhi Maidan . '' Maharaj said Imtiaz had told interrogators that their brief was to create panic and trigger a stampede . . . 9.22 am : Police arrest second suspect . . National Investigation Agency sources have told CNN-IBN that now there are two potential suspects in the 27 October Patna serial blasts case . A second suspect , Mohammed Imtiaz , was produced in court on Monday night and has been sent to seven days of police remand . . . Indian Mujahideen commander Tehseen Akhtar has emerged as the main suspect in Sunday 's blasts that killed six people including a person who is believed to have been injured while planting a bomb , with some reports indicating that he may have personally supervised the blasts . . . Meanwhile according to this report , Akhtar was very close to being apprehended in his Mangalore home , but managed to escape after he received information that Bhatkal had been arrested . . . 8.15 am : Forget Shinde 's music launch , Why did Modi continue Patna rally ? asks Khurshid . . Union Minister Salman Khurshid has defended Home Minister Sushil Kumar Shinde for attending a Bollywood film music launch a few hours after the blasts . . . `` Shinde has a life beyond Patna ... and the awful thing that happened . The law and order was the responsibility of the state government and if the state government was to ask Shinde or the Home Ministry to take over something , he would be there on the phone , '' he said , according to PTI . . . Criticising Modi for going ahead with the rally despite the blasts , the External Affairs Minister said `` after an event like this happens , you should give up whatever happens . The script was not changed . Was the rally suspended or given up ? '' . . The Union Minister slammed Modi saying that instead of attending to those injured in the blasts he went ahead with the rally . . . `` Should you not attend to people who were hurt ? Should you not try to find out what has happened ? He continued with his speech ... much worse ... much worse , '' he said . . . He said there was no word about the people who died or what had happened because it was not in his script . . . The union minister also took on Modi for criticising the Congress party on the issue of dynasty politics . Referring to Maneka and Varun Gandhi , he said the ( Gandhi ) family that irks Modi so much are also a part of BJP . . . `` There is a very eminent leader in BJP Mrs Maneka Gandhi and Mr Varun Gandhi , a young and bright general secretary of the party . For him ( Modi ) , if you leave Congress , then you are not a part of the family but if you are in Congress , then your are a part of the ( Gandhi ) family . '' . . 7.45 am : Patna blasts were aimed at killing women , children . . One of the alleged Indian Mujahideen operatives arrested by police in the wake of the Patna blasts , has reportedly told authorities that the blasts were to avenge the dead in Muzaffarnagar , and the objective was to create a stampede that would ` kill many women and children ' . . . A report in the Times of India said that operative Imitiaz Ansari had told police that `` Many Muslims got killed in Muzaffarnagar and all that you people do is offer namaz '' . He had also said that the objective of the blasts were to trigger panic so that women and children would get killed in the rush . . . -- end of updates for 28 October -- . . 9.50 pm : Two FIRs lodged in connection with Patna blasts . . Two FIRs have been lodged in connection with the serial blasts in the state capital that left six persons dead and scores others injured , police said today . . . The FIRs have been registered at the GRP police station at the Patna Railway Junction and the Gandhi Maidan police station in connection with yesterday 's blasts , Additional Director General of Police ( Headquarters ) Ravindra Kumar told reporters . . . He , however , did not give details of the FIR . . . 9.12 pm : Shinde may not visit Patna tomorrow . . Home Minister Sushilkumar Shinde is unlikely to visit Patna tomorrow as announced earlier due to non-availability of Bihar Chief Minister Nitish Kumar . . . Shinde will not visit Patna as Kumar has some prior engagement , forcing the Home Minister to cancel his trip , sources said . . . The Chief Minister is expected to travel to Delhi on Wednesday when he and the Home Minister will meet and review the law and order situation in Bihar in the wake of multiple blasts in Patna yesterday that so far claimed six lives . . . Instead of Shinde , Union Home Secretary Anil Goswami and other senior officials will visit Patna tomorrow and take stock of the situation there . . . Earlier in the day , Shinde said he would visit Patna tomorrow to asses the situation there . `` I will review the situation in Patna tomorrow . It is premature to say anything about the blast now as investigation is still going on , he had said . . . 6.57 pm : BJP slams Shinde over Patna blasts . . BJP today criticised Home Minister Sushilkumar Shinde for attending a music launch function of a soon-to-be-released Bollywood movie a few hours after multiple blasts in Patna , saying it has become a habit of Union Ministers not to give any attention to better governance . . . BJP spokesperson Siddarth Nath Singh said when the 26/11 Mumbai terror attack had happened , the then Home Minister was seen frequently changing his clothes before speaking to the media . . . `` And now when serial blasts took place at Hunkar rally in Patna , Shinde was at the music launch function . It has become a habit of Congress ministers not to give any attention to better governance but give more emphasis on their clothes and music , '' he said . . . Shinde had yesterday attended the music launch of film ` Rajjo ' starring Kangana Ranaut in Mumbai , a few hours after serial blasts rocked a rally in Patna which was attended by BJP 's Prime Ministerial candidate Narendra Modi . . . `` It is shocking to find the Home Minister entertaining himself in a music function instead of monitoring the situation after the serial blasts , '' another BJP spokesperson Nirmala Sitharaman said . . . The Home Minister has not yet said anything about his presence in the music launch function . . . 5.04 pm : We had no intelligence inputs , says Patna ADG . . Patna ADG Ravindra Kumar today denied any specific intelligence input on any terrorist attack on the occasion of Narendra Modi 's Hunkaar rally . . . `` There was no specific input by the IB on the terror attack , '' Kumar said and added that the police always receives general inputs . . . He refused to divulge on details of the investigations into the Patna blast . `` The investigation is going in the right direction , '' he said . . . 3.59 pm : Bihar govt was casual and callous : Arun Jaitley . . Arun Jaitley condemned the Patna blasts and slammed the Nitish Kumar government over the serial blasts yesterday . . . He said that there were no senior police officers present at the venue . . . `` We did not know what to do when the blasts were happening , there was no senior officer to guide us , '' Jaitley said and added , `` We were faced with the dilemma on what to announce . We could have sparked a stampede . '' . . He said that it was the responsibility of the state to arrange for frisking and metal detectors , none of which was done at the rally . . . `` Attitude of Bihar government was casual and callous , '' Jaitley said . . . While Nitish Kumar has denied any IB inputs on the blasts , Jaitley said , `` We had received information that the IB had warned of a possble threat to the rally on 23 October . '' . . Jaitley also said that Gujarat police officers present with them had warned them not to go to the venue . . . 3.00 pm : Nitish Kumar reviews progress of Patna blasts investigation . . Bihar Chief Minister Nitish Kumar has reviewed the progress made in the probe into the serial blasts at Patna which claimed six lives , PTI said , quoting official sources . . . Kumar directed the officials to expedite the probe and bring to book the culprits at the earliest , the sources said . . . Chief Secretary AK Sinha , Director General of Police Abhayanand and other senior administrative and police officials were present at the high-level meeting with the Chief Minister.The Chief Minister was briefed about the progress made in the probe and the overall law and order situation in the state . . . The Chief Minister later left for Rajgir to attend two-day ` Chintan ` Shivir ' of the JD ( U ) during which he was expected to outline his party 's political strategies , the sources said . . . 2:10 pm : Shinde to visit Patna tomorrow , says Modi 's security adequate . . After a briefing from the Intelligence Bureau chief , Home Minister Sushilkumar Shinde emerged and said that he will be travelling to Patna tomorrow to take stock of the situation following the blasts . . . He also said that there was no question of not having provided adequate security to the BJP 's Prime Ministerial candidate . . . `` The Indian government has provided Modi with the security he requires , '' Shinde said . . . 1:40 pm : Intelligence Bureau chief briefs Home Minister on Patna blasts . . Times Now reports that the Intelligence Bureau chief is meeting with the Home Minister to brief him on the Patna blasts which took place yesterday . . . 1.25 pm : BJP is biggest beneficiary of blasts and riots , says Digvijaya . . Congress general secretary Digvijaya Singh has said that Bihar Chief Minister Nitish Kumar is responsible for the Patna blasts , saying that he needed to be blamed for the breakdown of law and order that led to the blasts in Patna . . . However , in a hugely controversial comment , he sought to justify an earlier tweet , that the timing of the blasts would benefit Narendra Modi and the BJP , saying that ` one political partyreally benefits from these activities ' , adding that whether it was a terrorist attack or a communal riot , the BJP was always the beneficiary of such violence . . . He denied however , that his comments had politicised the blasts , saying that he condemned all forms of violence . He also refused to admit that in hindsight , his tweet was ill advised . . . The tweet is below : . . Another blast in Patna ! Strongly condemn this . Nitish should find the culprit otherwise a perfect setting for Modi 's Launch in Bihar ! . . digvijaya singh ( @digvijaya_28 ) October 27 , 2013 . . Singh added that if he was Chief Minister of the state , such an incident would never have happened . . . 12.35 pm : Patna blasts were the result of criminal negligence : Sushil Modi . . Bihar BJP leader Sushil Kumar Modi has said that the Patna blasts happened because of ` criminal negligence ' and said that the lax security at the event felt ` deliberate ' . . . Speaking to CNN-IBN , Modi said , `` This is criminal negligence and it seems deliberate . The CM ( Nitish Kumar ) wanted to ignore Modi and so he had a callous attitude towards the rally . No jammer or SUV or proper security was provided at the event '' . . . He added that the Bihar government had tried to ignore the rally and had taken it lightly as a result . . . `` The CM made it a point to not be in Patna and ignored it because of hispersonal enmity against Modi '' , he said . . . 12:05 pm : Bihar CM holds emergency meet . . Chief Minister Nitish Kumar is presently holding an emergency meet to assess the damage caused by the serial blasts in Patna . . . 12:00 pm : Security should be provided for our rallies , BJP tells Election Commission . . Apart from Rahul Gandhi , the BJP has also appealed to the Election Commission that is should be able to conduct its rallies in states in the run up to the polls without any risk to its activists . . . `` In other states where elections will take place . Security arrangements for them should be in place and we have appealed that we should be able to hold rallies safely without any risk to our activists , '' Mukhtar Abbas Naqvi told reporters outside Election Commission . . . 11.52 am : Delhi police special cell gets custody of Bhatkal . . The Delhi police special cell has got custody of key Indian Mujahideen operative Yasin Bhatkal . The NIA had also sought custody of Bhatkal in connection with the Patna blasts . The agency earlier confirmed that the Indian Mujahideen was most likely responsible for the series of low intensity blasts that killed at least five people and injured close to 100 at a BJP rally in Patna . . . 11.14 am : NIA confirms Indian Mujahideen carried out Patna blasts . . The National Intelligence Agency ( NIA ) has confirmed that the Indian Mujahideen was behind the Patna blasts . They have also reportedly sought custody of key IM operative Yasin Bhatkal who was arrested in August this year . . . Earlier , Bihar police had said that one of the suspects they had caught in connection with the attacks , had confessed that the IM had been behind the attack to take revenge for the Muzaffarnagar riots . . . Subsequently , CNN-IBNreportedthat Tehseen Akhtar , who is the right hand man of arrested IM mentor Yasin Bhatkal , has emerged as the prime suspect behind the attack . . . `` Aktar alias Monu had taken over the Darbhanga module after Bhatkal 's arrest . Sources further added that interrogators feel the attack was carried by Akhtar to take revenge for Bhatkal 's arrest . However , they also added that this inputs are based on preliminary inquiries '' , the report added . . . 10.58 am : BJP to meet Election Commission to discuss Modi 's security . . The BJP is scheduled to meet the Election Commission to discuss the issue of its Prime Ministerial candidate Narendra Modi 's security following a series of blasts near the venue of his Hunkar rally . . . Apart from Modi 's security , the party will also lodge a complaint against Congress Vice President Rahul Gandhi 's claim that the BJP was responsible for the Muzaffarnagar riots . . . The EC meet comes even as the NIA confirmed the involvement of the Indian Mujahideen . . . Meanwhile Medical Superintendent of the Patna hospital , Amarkant Jha told ANI News that apart from 38 people who were still receiving treatment , the rest of the 102 people brought in with injuries from the blasts had been discharged . . . `` Thesituation is under control . Five patients are critical , they will be kept under observation , the rest can be discharged in 1-2days '' , he added / . . Meanwhile Patna SSP Manu Maharaj confirmed to CNN-IBN that aroundfour people had been detained , and that police were verifying their address and status . `` Only one person has confessed till now we are zeroing on him '' , he told the channel . . . 10.00 am : Shinde under fire for attending music concert despite blasts . . Home Minister Sushilkumar Shinde is coming under fire from opposition members for choosing to attend a music concert in Mumbai after the Patna blasts had taken place . The Times Now television channel reported that Shinde had attended the concert just three hours after the explosions had taken place . . . `` Instead of controlling the situation , he chose to attend a music launch . This is similar to what happened in 26/11 when the state home minister said that such things happen in big cities '' , a BJP spokesman said . . . Shinde has reportedly justified his decision by saying that he had been in touch with security officials and was informed about what was going on . . . During the event , he told the audience that he had requested the organisers of the event to hold it close to the airport . `` I have to rush to Delhi because you all know what happened in Patna '' , he said . . . Meanwhile the Home Ministry has issued a security alert to all states and union territories in the wake of the Patna blasts . . . 8.45 am : Injured suspect succumbs to injuries . . One of the suspects in the Patna blast , who was critically injured in one of the blasts , has succumbed to his injuries . The man had been earlier identified as oneAinul , and it was believed that he had been injured while attempting to plant one of the bombs . . . He had been in the ICU of one of the city hospitals . . . The police are currently interrogating a man identified as Imtiaz Ansari who was caught as he was trying to plant more bombs . . . According to the Times of India , Ansari , a resident of Ranchi , was apprehended at the railway station just after the first two bombs went off . He was apparently planning to plant some more bombs but panicked when he saw the police and bomb disposal squad . On being challenged , he tried to flee but was arrested . . . 7.30 am : Bihar security found to be lacking . . The Patna blasts which killed five people and injured close to 100 has put the Nitish Kumar government under the scanner . . . And although Chief Minister Nitish Kumar has vigorously defended the security arrangements for the Hunkar rally , central intelligence agencies are reportedly begging to differ . . . According to this report in the Times of India : . . Sources said though there were no specific inputs , Bihar government was told about possible threats to the Narendra Modi rally.Still , security was so lax that even anti-sabotage checks , a routine in such rallies , were not done . Even policemen were not found in adequate numbers around the venue while several peripheral sections of the venue were seen guarded by private security . . . The Indian Express noted , . . `` What baffled the central agencies is the way the police handled the spots where these explosions were reported . Unlike the standard practice after the blasts , the areas were not cordoned off which resulted in loss of vital clues . . . Also , although the police have a bomb disposal squad , there are not enough personnel to comb the area . The police used lathis and bare hands to pick packets suspected to contain IEDs . '' . . For his part , Nitish said , . . There were no intelligence inputs either from the Centre or from the state . Whatever was possible to do for this kind of a programme , the administration had done . Security was tightened keeping in mind the BJP rally . Senior police officials had personally monitored the security arrangements at Gandhi Maidan , . . Meanwhile more shocking news about the manner in which the blasts were handled are emerging . . . This report in The Hindu quoted many of the victims as saying thatpeople had alerted the police when they spotted the explosive devices , but the police took no step whatsoever to move people to safety . . . Furthermore it has been revealed that people had tried to defuse the bombs by throwing stones at them . The Home Ministry has asked the Bihar government for a report into the incident . . . Concerned over the blast at the Patna Railway Station and recovery of two more crude bombs , the Ministry told the state government to send a report about the nature of the bomb , suspected persons or organisations which could be behind it and steps taken to maintain law and order , PTIsaid , quoting official sources . . . Security has been beefed up in the city after the attacks . . . 6.30 am : Indian Mujahideen responsible for blasts . . Bihar police have confirmed that the Indian Mujahideen were responsible for the eight blasts in Patna on Sunday that have killed at least five and injured close to 100 people . . . This report in the Times of India states that four alleged operatives of the outfit have been detained , one of whom is in critical condition after being caught in a blast . . . `` During interrogation , they reportedly told the police that they had staged the attack in retaliation for the Muzaffarnagar riots . They are also said to have named the IM module involved in the Bodh Gaya blasts '' , the TOI report added . . . According to the Hindu , one of the alleged operatives is named Imtiaz Ansari , who was caught while allegedly trying to flee after the blast at the station . He has subsequently confessed to his role in the attack . . . Meanwhile CNN-IBN reported that Tehseen Akhtar , who is the right hand man of arrested IM mentor Yasin Bhatkal , has emerged as the prime suspect behind the attack . . . `` Aktar alias Monu had taken over the Darbhanga module after Bhatkal 's arrest . Sources further added that interrogators feel the attack was carried by Akhtar to take revenge for Bhatkal 's arrest . However , they also added that this inputs are based on preliminary inquiries '' , the report added . . . -- end of updates for 27 October -- . . 7.42 pm : NIA , NSG teams rushed to blast sites , says Shinde . . NIA and NSG teams have rushed to the blasts sites in Patna , Union Home Minister Sushilkumar Shinde said in Mumbai on Sunday . . . `` There were five blasts in and around Gandhi Maidan in Patna where five people were killed and 72 people were injured . I am in contact with the Bihar government , '' Shinde told reporters in Mumbai on the sidelines of a function . . . Shinde also informed that the NIA team stationed at Bodh Gaya in Bihar in connection with the July bombings was also being rushed to the site of explosions in Patna . . . When asked if it was a terror strike , the Home Minister evaded a direct reply , saying he was giving whatever information he had with him . . . 7.17 pm : PM , President condemn serial blasts in Patna . . President Pranab Mukherjee and Prime Minister Manmohan Singh Sunday condemned the serial blasts in Patna and called upon authorities to speedily investigate and punish the perpetrators . . . Expressing deep concern , the president called upon people to maintain calm and restraint . . . `` The nation must remain united in its firm resolve to fight against all forms of terror and violence which have no place in a civilised society , '' he said . . . The prime minister spoke to Bihar Chief Minister Nitish Kumar on telephone and called for immediate and firm action . . . `` He called for urgent steps to identify and take action against those responsible . He also assured the chief minister of all central assistance in the investigations , '' the Prime Minister Office 's said in an official statement . . . At least five people were killed and more than 70 injured as seven bombs exploded in Patna Sunday , six of them in and around the ground where BJP 's prime minister candidate Narendra Modi , hours later , addressed a rally . . . 6.35 pm : Three dead identified says Bihar DGP . . The Bihar DGP today said that three out of fived dead have been identified . They are - Ramnarayan Singh of Patna , Vikas Singh from Kaimur and Munna Singh from Mirganj . . . Correction : We regret putting up an earlier update where we mentioned the three deceased as suspects because of an erroneous report . . . Here are the details of blasts so far as given by Bihar DGP Abhayanand . . 9.30 am -- Patna station , platform no. 10 ( washroom ) 11.40 am -- Gandhi Maidan near Udyog Bhawan 12.05 pm -- Regent Cinema 12.10 pm -- Old Gandhi statue 12.15 pm -- Twin Tower 12.20 pm -- SBI office 12.45 pm -- Children 's park . . 6.15 pm : Nitish Kumar vows to bring culprits to book . . Condemning the serial blasts in Patna , Bihar Chief Minister Nitish Kumar today said that the investigating agencies will get to the root of the blasts and bring the guilty to book . . . `` I strongly condemn the serial blasts in Patna . A total of 83 people went to the Patna Medical College and Hospital for treatment . Out of them 38 were admitted . Even police personnel were injured . Blasts took place at several places apart from Gandhi Maidan , '' Kumar told at a press conference in Patna . . . Announcing an ex-gratia of Rs 5 lakh to the next of kin of the dead , the Bihar chief minister ruled out any kind of `` political conspiracy '' . . . `` We may have political difference but who will cause serial blasts for that . Bihar does not have such a tradition . It seems to be a pre-planned attack on the day of ( Gujarat Chief Minister and BJP 's prime ministerial candidate Narendra ) Modi 's rally . We should give some time to the police to finish their investigation , '' he said . . . Denying that there has been lapses in security , the chief minister said , `` I want to tell the BJP that there has been no attempt by the state government to not secure the place . All required steps for security were taken . The blasts are an attempt to disrupt law and order situation in Bihar . The guilty should be severely punished . The conspiracy if any will come out . We have sought NIA 's help to get to the root of the blasts . '' . . `` There was no intelligence report regarding these blasts . I assure everyone that no effort will be spared to solve the case , '' he said . . . Kumar also said that one person who was suspiciously running away from the Patna railway station has been nabbed by police and his interrogation was on . . . The chief minister expressed concern over the selection of the day . . . `` Selection of today 's date is questionable . The timing of the blasts is very important and very worrying . On Friday , as suspicious suitcase was found in Gandhi Maidan and I had asked the police to step up the security . '' . . Kumar , however , refused to make a guess on the culprits but appealed for calm . . . `` I appeal everyone to maintain calm and peace . An appeal was also made from the dais and that is commendable , '' the chief minister said . . . Incidentally , Modi had made this appeal at the end of his speech . . . 5.30 pm : Modi condoles loss of lives at his Patna rally . . Patna : BJP prime ministerial candidate Narendra Modi , whose address at the ` Hunkar Rally ' in Patna today was preceeded by serial blasts that claimed five lives , expressed his condolences in a Facebook post soon afterwards . . . `` Blasts in Patna are deeply saddening & unfortunate . Condolences with families of deceased & prayers with injured . I appeal for peace & calm , '' Modi wrote in his post . . . The Gujarat chief minister made no mention of the blasts in his hour-long speech , but at the end of it he asked the huge gathering to go back home ` safely ' . . . Five people were killed and 66 injured in six serial bomb blasts near the venue of rally here minutes before Modi reached there to address a huge gathering . . . 5.20 pm : Sushma condemns blasts , hits out at Nitish govt . . I strongly condemn serial bomb blasts on the occasion of BJP rally in Patna . This is gross intelligence failure . . . Sushma Swaraj ( @SushmaSwaraj ) October 27 , 2013 . . 5.15 pm : Another blast at Gandhi Maidan . . An eight bomb exploded inside Gandhi Maidan around 5.10 pm . It appeared that the explosive device was hidden under a heap of garbage and went off with a loud explosion , followed by smoke and fire around the spot . . . Firstpost 's Sanjay Singh who is still at the venue of Modi 's rally has this update : There are still crowds milling around Gandhi Maidan . The police have not sanitised the area . . . 5.15 pm : Two suspects held , one confesses . . Soon after the blasts , Bihar Police succeeded in arresting a man whom the NIA believe is a key link to extract more information about the motive . The Union home ministry has confirmed to CNN-IBN that a few of those bombs were kept inside shallow pits in Gandhi Maidan , the venue for Narendra Modi 's Hunkar rally . . . 5.05 pm : ` Five brought dead to hospital ' . . Ajay Kumar , who attended injured inside Gandhi Maidan medical camp , when the blasts happened told CNN-IBN , `` Out of 48 injured , five people were brought dead to the hospital . '' . . 5.00 pm : Congress ' Shakeel Ahmed on blasts . . `` All the agencies should come together and investigate.Whoever is responsible for this must get , '' Ahmed to CNN-IBN . . . Blasts during Modi Ji 's 1st visit as PM hopeful to Bihar should be condemned by one & all.State govt and NIA should unearth the conspiracy . . . Shakeel Ahmad ( @Ahmad_Shakeel ) October 27 , 2013 . . 4.45 pm : Seven blasts ? . . As per the latest reports , there were seven blasts and over 50 injured and some of them critically . . . I am going to PMCH to see injured in Patna bomb blast along with Ravi Shankar pd . . . Sushil Kumar Modi ( @SushilModi ) October 27 , 2013 . . 4.15 pm Bomb found just below the dais found . . Call it a touch of destiny , police discovered an unexploded bomb just below the dais from where the Gujarat Chief Minister and BJP 's prime ministerial candidate Narendra Modi addressed the rally for over an hour . . . As per unconfirmed ground reports , security personnel have surrounded the spot and the investigation is on . . . When I saw 3 blast in gandhi Maidan , I ranged DGP Bihar.he said that truck tyre has burst . . . Sushil Kumar Modi ( @SushilModi ) October 27 , 2013 . . Live bomb found in Patna 's Gandhi Maidan , BDS defusing bomb . . ANI ( @ANI_news ) October 27 , 2013 . . 3.00 pm : Ravi Shankar Prasad attacks Bihar govt . . `` We will ask for an enquiry . The rally was planned eight months ago at Gandhi Maidan and yet a blast that has killed and injured people is unexpected . There has definitely been an administrative lapse , we are getting details about the blasts , '' BJP leader Ravi Shankar Prasad lashing out at the Nitish Kumar-led Janata Dal ( United ) government in the state . . . 2.45 pm : Nitish cancels Munger visit after serial blasts . . Patna : Bihar Chief Minister Nitish Kumar cancelled his scheduled tour to Munger in the wake of serial blasts that rocked the state capital ahead of Narendra Modi 's address at a BJP rally today . . . Kumar 's carcade was ready at his 1 , Anne Marg residence to leave for the airport to fly to Munger when the visit was cancelled , sources in the chief minister 's office said . . . The chief minister also spoke to Prime Minister Manmohan Singh over the phone about the blasts , they said . . . Kumar was scheduled to go to Munger and from there to Rajgir to attend two-day JD ( U ) convention in Nalanda district , the sources said . . . Kumar held a meeting with chief secretary AK Sinha , Director General of Police Abhyanand and principal secretary Home Amir Subhani on the law and order situation following serial bomb blasts at Patna railway station and areas near Gandhi maidan , the sources said . . . 2.35 pm : Death toll rises to five , 20 injured . . As per latest reports quoting police sources on CNN-IBN , five people have lost their lives in six serial blasts in Patna . So far , 20 people have been wounded in the incidents . . . 2.30 pm : Bihar blasts extremely unfortunate : RPN Singh . . `` There were five blasts in Gandhi Maidan and 20 people were injured there . We have assured the government in Bihar that we will provide all assistance in investigating the matter , '' said Union Minister of State for Home RPN Singh . . . 1.30 pm : Prime Minister Manmohan Singh condemns Bihar blasts . . `` The prime minister condemns the blasts which occurred at several places in Patna . He appeals to the people to maintain peace and calm , '' the Prime Minister Office 's said on Twitter . . . 12.45 pm : Central team goes to Patna . . A seven-member team comprising of NIA and NSG personnel have been rushed to Patna by the Union home ministry to help the state government with the investigation . The team will either take a commercial flight or a special flight to the Bihar capital from New Delhi . . . 12.25 pm BREAKING : Third blast reported near Gandhi Maidan in Patna , close to Modi 's rally venue . Details awaited . . 12.10 pm : BREAKING : Second blast in Patna , near Modi 's rally venue . . A second blast occurred in Patna near the Elphinstone Cinema Hall . The latest blast site is close to the venue where Gujarat Chief Minister Narendra Modi 's is likely to address a rally at 1 pm . Four people have been reportedly injured in the blast , the Bihar Police chief Abhayanand confirmed to IBN7 . The second blast is not a crude device as the earlier one , the police chief said . The blast happened underneath a tree where people were resting to escape from the sun . . . Bihar Police is now seriously looking into the terror angle as it indicates towards a planned serial blasts . . . 12.00 pm : Timer devices in bombs . . According to the Union home ministry , two crude bombs were placed , out of which one went off while the other was detected . In a first , timer devices were attached to the bombs . . . 11.55 pm : Congress general secretary Digvijaya Singh tweets : . . What a coincidence blast at Patna Railway on the day of Modi 's Rally ! Challenge to Nitish Govt to find the culprit ! . . digvijaya singh ( @digvijaya_28 ) October 27 , 2013 . . 11.50 pm : Second crude bomb detected , one dead . . 11.40 am : Search on , no arrest yet : police . . Talking to reporters at the Patna railway station , Patna senior superintendent of police Manu Maharaj said , `` The bomb disposal squad is conducting a search . We have no arrest so far . '' . . 11.30 am : RJD blames state government . . Starting a political blame game , Rashtriya Janata Dal MP Ramkirpal Yadav blamed the Nitish Kumar-led state government soon after the blast . . . `` There is a complete failure of law and order in Bihar . The state government is responsible for this lax in security . The common people are living in fear in the state . I demand that all officers who failed in their duties should be punished and there should not be a repeat of this kind of incidents , '' Yadav told IBN7 . . . `` Despite the rally of BJP , the state government did not take addional security measures , '' the parliamentarian said . . . 11.20 am : The Ministry for Home Affairs has sough report from the Bihar government seeking details of the blast . . . 11.15 am : Injured man to be questioned . . Police authorities in Patna said they are investigating whether the bomb exploded while it was being placed or ferried and whether it was meant to explode at the Narendra Modi rally in Gandhi Maidan later today . . . 11 am : Bomb explosion at railway station , one hurt . . One person sustained serious injuries when a crude bomb exploded at Patna railway station around 10 am on Sunday , just three hours before the Bharatiya Janata Partys Prime Ministerial candidate Narendra Modi is scheduled to speak at the partys biggest ever rally in the city . Unconfirmed reports suggested that the bomb disposal squad was searching the area for unexploded bombs . . . Blast site at Patna railway station . Image courtesy ibnlive . . The bomb exploded in the public toilet on Platform No 10 of the crowded railway station . As many as 11 additional trains are arriving in Patna on Sunday bringing in lakhs of people to attend the Modi rally in Gandhi Maidan . . . Reports said the bomb was a low intensity explosive device . The injured man was rushed to hospital . A squad of the bomb disposal squad rushed to the spot and sealed off the site of the explosion . The platform was , fortunately , not very crowded at the time of the explosion .
p1791
sS'injured'
p1792
g1751
sS'det_loc'
p1793
(lp1794
S'India'
p1795
aS'Bihar'
p1796
aS'Patna'
p1797
aS'Patna'
p1798
aS'Patna'
p1799
asS'O'
p1800
(lp1801
S'deputy superintendent of police:94'
p1802
aS'khabardar rally:165'
p1803
aS'a lotus brand watch:304'
p1804
aS'hunkar rally:557'
p1805
aS'lathis:723'
p1806
aS'bare hands:725'
p1807
aS'ieds:733'
p1808
aS'home ministry:891'
p1809
aS'crude bombs:921'
p1810
aS'battery bomb:1209'
p1811
aS'namaz:1924'
p1812
aS'additional director general of police:2037'
p1813
aS'darbhanga:3844'
p1814
aS'Darbhanga:5169'
p1815
aS'union home ministry:6544'
p1816
aS'crude bombs:7550'
p1817
aS'low intensity explosive device:8032'
p1818
asS'unexpl'
p1819
(lp1820
S'TIMER'
p1821
asS'ocassion'
p1822
g1751
sS'link'
p1823
S'http://www.firstpost.com/india/patna-blasts-live-one-more-suspect-detained-raids-on-1196755.html'
p1824
sS'date'
p1825
S'27-10-2013'
p1826
sS'target'
p1827
g1751
sS'hot_spot'
p1828
S'Patna'
p1829
sS'delivery_mod'
p1830
g1751
sS'delivery_met'
p1831
S'PLANTED'
p1832
sS'expl'
p1833
(lp1834
S'IED'
p1835
asS'ORG'
p1836
(lp1837
(lp1838
S'Person'
p1839
aS'0'
p1840
aS'Others'
p1841
aa(lp1842
S'Patna Police'
p1843
aS'14'
p1844
aS'Others'
p1845
aa(lp1846
S'PTI'
p1847
aS'131'
p1848
aS'Others'
p1849
aa(lp1850
S'Patna District Magistrate'
p1851
aS'143'
p1852
aS'Others'
p1853
aa(lp1854
S'Indian Mujahideen'
p1855
aS'269'
p1856
aS'Accused'
p1857
aa(lp1858
S'Indian Express'
p1859
aS'333'
p1860
aS'Others'
p1861
aa(lp1862
S'Bihar state government'
p1863
aS'411'
p1864
aS'Others'
p1865
aa(lp1866
S'central intelligence'
p1867
aS'443'
p1868
aS'Others'
p1869
aa(lp1870
S'Bihar govt'
p1871
aS'465'
p1872
aS'Others'
p1873
aa(lp1874
S'NIA'
p1875
aS'474'
p1876
aS'Others'
p1877
aa(lp1878
S'Bihar government'
p1879
aS'478'
p1880
aS'Others'
p1881
aa(lp1882
S'National Investigation Agency'
p1883
aS'496'
p1884
aS'Others'
p1885
aa(lp1886
S'NIA'
p1887
aS'500'
p1888
aS'Others'
p1889
aa(lp1890
S'theTimes of India'
p1891
aS'576'
p1892
aS'Others'
p1893
aa(lp1894
S'Bihar government'
p1895
aS'591'
p1896
aS'Others'
p1897
aa(lp1898
S'bomb disposal squad'
p1899
aS'706'
p1900
aS'Others'
p1901
aa(lp1902
S'BJP'
p1903
aS'785'
p1904
aS'Others'
p1905
aa(lp1906
S'Congress'
p1907
aS'811'
p1908
aS'Others'
p1909
aa(lp1910
S'BJP'
p1911
aS'813'
p1912
aS'Others'
p1913
aa(lp1914
S'Bihar government'
p1915
aS'896'
p1916
aS'Others'
p1917
aa(lp1918
S'state government'
p1919
aS'928'
p1920
aS'Others'
p1921
aa(lp1922
S'Bihar BJP'
p1923
aS'967'
p1924
aS'Others'
p1925
aa(lp1926
S'lax security'
p1927
aS'990'
p1928
aS'Others'
p1929
aa(lp1930
S'Indian Express'
p1931
aS'1160'
p1932
aS'Others'
p1933
aa(lp1934
S'Railway Protection Force'
p1935
aS'1204'
p1936
aS'Others'
p1937
aa(lp1938
S'National Investigation Agency'
p1939
aS'1329'
p1940
aS'Others'
p1941
aa(lp1942
S'Indian Mujahideen'
p1943
aS'1379'
p1944
aS'Accused'
p1945
aa(lp1946
S'state government'
p1947
aS'1538'
p1948
aS'Others'
p1949
aa(lp1950
S'PTI'
p1951
aS'1567'
p1952
aS'Others'
p1953
aa(lp1954
S'External Affairs Minister'
p1955
aS'1584'
p1956
aS'Others'
p1957
aa(lp1958
S'Congress'
p1959
aS'1720'
p1960
aS'Others'
p1961
aa(lp1962
S'BJP'
p1963
aS'1753'
p1964
aS'Others'
p1965
aa(lp1966
S'BJP'
p1967
aS'1765'
p1968
aS'Others'
p1969
aa(lp1970
S'Congress'
p1971
aS'1793'
p1972
aS'Others'
p1973
aa(lp1974
S'Congress'
p1975
aS'1809'
p1976
aS'Others'
p1977
aa(lp1978
S'Indian Mujahideen'
p1979
aS'1844'
p1980
aS'Accused'
p1981
aa(lp1982
S'Times of India'
p1983
aS'1897'
p1984
aS'Others'
p1985
aa(lp1986
S'BJP'
p1987
aS'2255'
p1988
aS'Others'
p1989
aa(lp1990
S'BJP'
p1991
aS'2263'
p1992
aS'Others'
p1993
aa(lp1994
S'BJP'
p1995
aS'2310'
p1996
aS'Others'
p1997
aa(lp1998
S'BJP'
p1999
aS'2430'
p2000
aS'Others'
p2001
aa(lp2002
S'BJP'
p2003
aS'2467'
p2004
aS'Others'
p2005
aa(lp2006
S'IB'
p2007
aS'2542'
p2008
aS'Others'
p2009
aa(lp2010
S'Bihar govt'
p2011
aS'2596'
p2012
aS'Others'
p2013
aa(lp2014
S'Bihar government'
p2015
aS'2726'
p2016
aS'Others'
p2017
aa(lp2018
S'IB'
p2019
aS'2745'
p2020
aS'Others'
p2021
aa(lp2022
S'IB'
p2023
aS'2761'
p2024
aS'Others'
p2025
aa(lp2026
S'Gujarat police'
p2027
aS'2782'
p2028
aS'Others'
p2029
aa(lp2030
S'PTI'
p2031
aS'2837'
p2032
aS'Others'
p2033
aa(lp2034
S'Intelligence Bureau'
p2035
aS'2982'
p2036
aS'Others'
p2037
aa(lp2038
S'BJP'
p2039
aS'3029'
p2040
aS'Others'
p2041
aa(lp2042
S'Indian government'
p2043
aS'3039'
p2044
aS'Others'
p2045
aa(lp2046
S'Intelligence Bureau'
p2047
aS'3059'
p2048
aS'Others'
p2049
aa(lp2050
S'Times'
p2051
aS'3070'
p2052
aS'Others'
p2053
aa(lp2054
S'the'
p2055
aS'3074'
p2056
aS'Others'
p2057
aa(lp2058
S'Intelligence Bureau'
p2059
aS'3075'
p2060
aS'Others'
p2061
aa(lp2062
S'BJP'
p2063
aS'3101'
p2064
aS'Others'
p2065
aa(lp2066
S'BJP'
p2067
aS'3186'
p2068
aS'Others'
p2069
aa(lp2070
S'BJP'
p2071
aS'3214'
p2072
aS'Others'
p2073
aa(lp2074
S'Bihar BJP'
p2075
aS'3346'
p2076
aS'Others'
p2077
aa(lp2078
S'Bihar government'
p2079
aS'3439'
p2080
aS'Others'
p2081
aa(lp2082
S'BJP'
p2083
aS'3531'
p2084
aS'Others'
p2085
aa(lp2086
S'BJP'
p2087
aS'3543'
p2088
aS'Others'
p2089
aa(lp2090
S'Delhi police'
p2091
aS'3631'
p2092
aS'Others'
p2093
aa(lp2094
S'Delhi police'
p2095
aS'3642'
p2096
aS'Others'
p2097
aa(lp2098
S'Indian Mujahideen'
p2099
aS'3651'
p2100
aS'Accused'
p2101
aa(lp2102
S'NIA'
p2103
aS'3658'
p2104
aS'Others'
p2105
aa(lp2106
S'Indian Mujahideen'
p2107
aS'3678'
p2108
aS'Accused'
p2109
aa(lp2110
S'BJP'
p2111
aS'3704'
p2112
aS'Others'
p2113
aa(lp2114
S'NIA'
p2115
aS'3714'
p2116
aS'Others'
p2117
aa(lp2118
S'Indian Mujahideen'
p2119
aS'3716'
p2120
aS'Accused'
p2121
aa(lp2122
S'National Intelligence Agency'
p2123
aS'3725'
p2124
aS'Accused'
p2125
aa(lp2126
S'NIA'
p2127
aS'3729'
p2128
aS'Others'
p2129
aa(lp2130
S'Indian Mujahideen'
p2131
aS'3735'
p2132
aS'Accused'
p2133
aa(lp2134
S'IM'
p2135
aS'3751'
p2136
aS'Accused'
p2137
aa(lp2138
S'Bihar police'
p2139
aS'3767'
p2140
aS'Others'
p2141
aa(lp2142
S'IM'
p2143
aS'3819'
p2144
aS'Accused'
p2145
aa(lp2146
S'BJP'
p2147
aS'3895'
p2148
aS'Others'
p2149
aa(lp2150
S'BJP'
p2151
aS'3908'
p2152
aS'Others'
p2153
aa(lp2154
S'BJP'
p2155
aS'3967'
p2156
aS'Others'
p2157
aa(lp2158
S'NIA'
p2159
aS'3984'
p2160
aS'Others'
p2161
aa(lp2162
S'Indian Mujahideen'
p2163
aS'3990'
p2164
aS'Accused'
p2165
aa(lp2166
S'ANI News'
p2167
aS'4006'
p2168
aS'Others'
p2169
aa(lp2170
S'Times'
p2171
aS'4160'
p2172
aS'Others'
p2173
aa(lp2174
S'BJP'
p2175
aS'4222'
p2176
aS'Others'
p2177
aa(lp2178
S'city hospitals'
p2179
aS'4402'
p2180
aS'Others'
p2181
aa(lp2182
S'Times of India'
p2183
aS'4435'
p2184
aS'Others'
p2185
aa(lp2186
S'bomb disposal squad'
p2187
aS'4478'
p2188
aS'Others'
p2189
aa(lp2190
S'Times of India'
p2191
aS'4565'
p2192
aS'Others'
p2193
aa(lp2194
S'Bihar government'
p2195
aS'4580'
p2196
aS'Others'
p2197
aa(lp2198
S'The Indian Express'
p2199
aS'4639'
p2200
aS'Others'
p2201
aa(lp2202
S'bomb disposal squad'
p2203
aS'4697'
p2204
aS'Others'
p2205
aa(lp2206
S'The Hindu'
p2207
aS'4815'
p2208
aS'Others'
p2209
aa(lp2210
S'Bihar government'
p2211
aS'4876'
p2212
aS'Others'
p2213
aa(lp2214
S'Indian Mujahideen'
p2215
aS'4964'
p2216
aS'Accused'
p2217
aa(lp2218
S'Bihar police'
p2219
aS'4971'
p2220
aS'Others'
p2221
aa(lp2222
S'Indian Mujahideen'
p2223
aS'4977'
p2224
aS'Accused'
p2225
aa(lp2226
S'Times of India'
p2227
aS'5008'
p2228
aS'Others'
p2229
aa(lp2230
S'IM'
p2231
aS'5069'
p2232
aS'Accused'
p2233
aa(lp2234
S'TOI'
p2235
aS'5080'
p2236
aS'Others'
p2237
aa(lp2238
S'the Hindu'
p2239
aS'5088'
p2240
aS'Others'
p2241
aa(lp2242
S'IM'
p2243
aS'5144'
p2244
aS'Accused'
p2245
aa(lp2246
S'NIA'
p2247
aS'5230'
p2248
aS'Others'
p2249
aa(lp2250
S'NSG'
p2251
aS'5232'
p2252
aS'Others'
p2253
aa(lp2254
S'NIA'
p2255
aS'5243'
p2256
aS'Others'
p2257
aa(lp2258
S'NSG'
p2259
aS'5245'
p2260
aS'Others'
p2261
aa(lp2262
S'Bihar government'
p2263
aS'5298'
p2264
aS'Others'
p2265
aa(lp2266
S'NIA'
p2267
aS'5321'
p2268
aS'Others'
p2269
aa(lp2270
S'BJP'
p2271
aS'5565'
p2272
aS'Others'
p2273
aa(lp2274
S'BJP'
p2275
aS'5899'
p2276
aS'Others'
p2277
aa(lp2278
S'BJP'
p2279
aS'5949'
p2280
aS'Others'
p2281
aa(lp2282
S'NIA'
p2283
aS'6006'
p2284
aS'Others'
p2285
aa(lp2286
S'BJP'
p2287
aS'6223'
p2288
aS'Others'
p2289
aa(lp2290
S'Facebook'
p2291
aS'6256'
p2292
aS'Others'
p2293
aa(lp2294
S'BJP'
p2295
aS'6390'
p2296
aS'Others'
p2297
aa(lp2298
S'Bihar Police'
p2299
aS'6520'
p2300
aS'Others'
p2301
aa(lp2302
S'NIA'
p2303
aS'6529'
p2304
aS'Others'
p2305
aa(lp2306
S'Congress'
p2307
aS'6629'
p2308
aS'Others'
p2309
aa(lp2310
S'NIA'
p2311
aS'6681'
p2312
aS'Others'
p2313
aa(lp2314
S'BJP'
p2315
aS'6796'
p2316
aS'Others'
p2317
aa(lp2318
S'ANI'
p2319
aS'6881'
p2320
aS'Others'
p2321
aa(lp2322
S'Bihar govt'
p2323
aS'6898'
p2324
aS'Others'
p2325
aa(lp2326
S'BJP'
p2327
aS'6950'
p2328
aS'Others'
p2329
aa(lp2330
S'Janata Dal'
p2331
aS'6961'
p2332
aS'Others'
p2333
aa(lp2334
S'BJP'
p2335
aS'7017'
p2336
aS'Others'
p2337
aa(lp2338
S'Twitter'
p2339
aS'7314'
p2340
aS'Others'
p2341
aa(lp2342
S'NIA'
p2343
aS'7333'
p2344
aS'Others'
p2345
aa(lp2346
S'NSG'
p2347
aS'7335'
p2348
aS'Others'
p2349
aa(lp2350
S'Bihar Police'
p2351
aS'7468'
p2352
aS'Others'
p2353
aa(lp2354
S'IBN7'
p2355
aS'7474'
p2356
aS'Others'
p2357
aa(lp2358
S'Bihar Police'
p2359
aS'7512'
p2360
aS'Others'
p2361
aa(lp2362
S'RJD'
p2363
aS'7696'
p2364
aS'Others'
p2365
aa(lp2366
S'state government'
p2367
aS'7698'
p2368
aS'Others'
p2369
aa(lp2370
S'Rashtriya Janata Dal'
p2371
aS'7708'
p2372
aS'Others'
p2373
aa(lp2374
S'MP'
p2375
aS'7711'
p2376
aS'Others'
p2377
aa(lp2378
S'state government'
p2379
aS'7741'
p2380
aS'Others'
p2381
aa(lp2382
S'IBN7'
p2383
aS'7791'
p2384
aS'Others'
p2385
aa(lp2386
S'BJP'
p2387
aS'7800'
p2388
aS'Others'
p2389
aa(lp2390
S'state government'
p2391
aS'7803'
p2392
aS'Others'
p2393
aa(lp2394
S'Bihar government'
p2395
aS'7832'
p2396
aS'Others'
p2397
aa(lp2398
S'bomb disposal squad'
p2399
aS'7956'
p2400
aS'Others'
p2401
aa(lp2402
S'the bomb disposal squad'
p2403
aS'8048'
p2404
aS'Others'
p2405
aas.