(dp0
S'LOC'
p1
(lp2
(lp3
S'Mumbai'
p4
aS'1'
p5
aS'Event'
p6
aa(lp7
S'Mumbai'
p8
aS'16'
p9
aS'Event'
p10
aa(lp11
S'Dadar'
p12
aS'51'
p13
aS'Event'
p14
aa(lp15
S'south Mumbai'
p16
aS'125'
p17
aS'Event'
p18
aa(lp19
S'Zaveri Bazar'
p20
aS'128'
p21
aS'Event'
p22
aa(lp23
S'Dadar'
p24
aS'131'
p25
aS'Event'
p26
aa(lp27
S'Central Mumbai'
p28
aS'133'
p29
aS'Event'
p30
aa(lp31
S'Mumbai'
p32
aS'134'
p33
aS'Event'
p34
aa(lp35
S'Opera House'
p36
aS'137'
p37
aS'Event'
p38
aa(lp39
S'Charni'
p40
aS'140'
p41
aS'Event'
p42
aasS'PER'
p43
(lp44
(lp45
S'Manohar Joshi'
p46
aS'46'
p47
aS'Comment'
p48
aa(lp49
S'Joshi'
p50
aS'82'
p51
aS'Comment'
p52
aa(lp53
S'Javed Akhtar'
p54
aS'84'
p55
aS'Comment'
p56
aasS'TIM'
p57
(lp58
S'evening : 11'
p59
asS'hot_setting'
p60
S''
p61
sS'DAT'
p62
(lp63
sS'death'
p64
g61
sS'title'
p65
S'Govt should find out who all are behind the blasts: Shiv Sena'
p66
sS'det_loc'
p67
(lp68
S'India'
p69
aS'Maharashtra'
p70
ag61
aS'Mumbai'
p71
aS'Mumbai'
p72
asS'terror_group'
p73
(lp74
g61
asS'content'
p75
VMumbai : The government should find out those behind this evening 's serial blasts in Mumbai , the Shiv Sena said . `` There is chaos everywhere . This must be a terrorist act as it happened in three places , '' senior Sena leader Manohar Joshi said after reaching Dadar , one of the three sites of the blasts . `` I want that the government take immediate steps and find out who are people behind the blasts , '' Joshi said.Lyricist Javed Akhtar said `` No words are strong enough to condemn the attacks . `` This menace called terrorism ... something has to be done . Something drastic . This is not acceptable , '' he said.Explosions have been reported in south Mumbai 's Zaveri Bazar , Dadar in Central Mumbai , and Opera House in Charni Road . .
p76
sS'injured'
p77
g61
sS'org_unorg'
p78
S'ORGANISED'
p79
sS'O'
p80
(lp81
S'terrorism:102'
p82
asS'unexpl'
p83
(lp84
g61
asS'ocassion'
p85
g61
sS'link'
p86
S'http://www.ndtv.com/india-news/govt-should-find-out-who-all-are-behind-the-blasts-shiv-sena-461406'
p87
sS'date'
p88
S'13-07-2011'
p89
sS'target'
p90
g61
sS'hot_spot'
p91
S'Mumbai'
p92
sS'delivery_mod'
p93
g61
sS'delivery_met'
p94
S'PLANTED'
p95
sS'expl'
p96
(lp97
g61
asS'ORG'
p98
(lp99
(lp100
S'government'
p101
aS'4'
p102
aS'Others'
p103
aa(lp104
S'Shiv Sena'
p105
aS'19'
p106
aS'Others'
p107
aa(lp108
S'Sena'
p109
aS'44'
p110
aS'Others'
p111
aa(lp112
S'government'
p113
aS'67'
p114
aS'Others'
p115
aas.