(dp0
S'LOC'
p1
(lp2
(lp3
S'Guwahati'
p4
aS'10'
p5
aS'Event'
p6
aa(lp7
S'NEW DELHI'
p8
aS'37'
p9
aS'Neutral'
p10
aa(lp11
S'Guwahati'
p12
aS'51'
p13
aS'Event'
p14
aa(lp15
S'Assam'
p16
aS'164'
p17
aS'Neutral'
p18
aa(lp19
S'Guwahati'
p20
aS'227'
p21
aS'Event'
p22
aa(lp23
S'Assam'
p24
aS'232'
p25
aS'Neutral'
p26
aa(lp27
S'Assam'
p28
aS'320'
p29
aS'Neutral'
p30
aa(lp31
S'Assam'
p32
aS'357'
p33
aS'Neutral'
p34
aasS'PER'
p35
(lp36
(lp37
S'Patil'
p38
aS'24'
p39
aS'Comment'
p40
aa(lp41
S'Manmohan Singh'
p42
aS'42'
p43
aS'Others'
p44
aa(lp45
S'Shivraj Patil'
p46
aS'101'
p47
aS'Comment'
p48
aa(lp49
S'Tarun Gogoi'
p50
aS'114'
p51
aS'Others'
p52
aa(lp53
S'Patil'
p54
aS'145'
p55
aS'Comment'
p56
aa(lp57
S'Madhukar Gupta'
p58
aS'272'
p59
aS'Comment'
p60
aasS'TIM'
p61
(lp62
sS'hot_setting'
p63
S''
p64
sS'DAT'
p65
(lp66
S'Saturday:45'
p67
aS'March 31:346'
p68
aS'2006:391'
p69
asS'death'
p70
g64
sS'title'
p71
S'Such violent acts only harm ordinary people: Manmohan'
p72
sS'org_unorg'
p73
S'ORGANISED'
p74
sS'terror_group'
p75
(lp76
g64
asS'content'
p77
VSpecial Correspondent . . Additional paramilitary forces sent to Guwahati . . ` Such incidents will not weaken resolve of the Government : Patil Strategy being worked out to counter recent surge in violence . . NEW DELHI : Prime Minister Manmohan Singh on Saturday condemned the bomb blast in Guwahati in which seven persons were killed and 30 injured . ` Such violent acts only harm the lives of ordinary people , ' he said . . . Expressing his sorrow , the Prime Minister has sent his condolences to the bereaved families . . . Union Home Minister Shivraj Patil also condemned the blast , which occurred on the eve of Tarun Gogoi Government 's completion of one year in office . He expressed condolences to the kin of those killed and wished speedy recovery to those injured . . . Mr. Patil said such incidents would not weaken the resolve of the Government to deal strongly with divisive forces in Assam and other North-Eastern States . . . Highly-placed Home Ministry sources said that a strategy to counter the recent surge in violence , sponsored by the outlawed United Liberation Front of Asom -LRB- ULFA -RRB- , was being worked out by the Ministry in consultation with the Assam Government . . . The Home Ministry also made available additional paramilitary forces in Guwahati to tighten security in Assam and help maintain law and order in the aftermath of the blast . The Home Ministry directed the State Government to remain vigilant and ensure that peace was maintained , a Ministry spokesman said . . . Home Secretary Madhukar Gupta spoke to the State Chief Secretary to take stock of the situation . The Special Secretary -LRB- Internal Security -RRB- also spoke to the State police chief . . . Increase in violence . . Home Ministry 's figures show an increase in ULFA-sponsored violence in Assam in recent months with the militants resorting to kidnapping , extortion and blasts after the failure of the peace initiative . Officials said that till March 31 this year , there have been 156 incidents in Assam compared to 85 during the same period last year . . . Likewise , 99 civilians were killed during the first three months this year as against 31 during the corresponding period of 2006 . . . Ministry sources said that ULFA , with which the Government declared a month-long ceasefire last year but called it off following the outfit 's refusal to come to the negotiating table , accounted for over 50 per cent of the violent incidents last year .
p78
sS'injured'
p79
S'30'
p80
sS'det_loc'
p81
(lp82
S'India'
p83
aS'Assam'
p84
ag64
aS'Guwahati'
p85
aS'Guwahati'
p86
asS'O'
p87
(lp88
S'Prime Minister:40'
p89
aS'North-Eastern States:167'
p90
aS'Home Ministry:218'
p91
asS'unexpl'
p92
(lp93
g64
asS'ocassion'
p94
g64
sS'link'
p95
S'http://www.thehindu.com/todays-paper/tp-national/such-violent-acts-only-harm-ordinary-people-manmohan/article1847999.ece'
p96
sS'date'
p97
S'07-05-2007'
p98
sS'target'
p99
g64
sS'hot_spot'
p100
S'Guwahati'
p101
sS'delivery_mod'
p102
g64
sS'delivery_met'
p103
S'PLANTED'
p104
sS'expl'
p105
(lp106
g64
asS'ORG'
p107
(lp108
(lp109
S'United Liberation Front of Asom'
p110
aS'192'
p111
aS'Accused'
p112
aa(lp113
S'ULFA'
p114
aS'198'
p115
aS'Accused'
p116
aa(lp117
S'Assam Government'
p118
aS'212'
p119
aS'Others'
p120
aa(lp121
S'State Government'
p122
aS'251'
p123
aS'Others'
p124
aa(lp125
S'State police'
p126
aS'298'
p127
aS'Others'
p128
aa(lp129
S'ULFA'
p130
aS'399'
p131
aS'Accused'
p132
aas.