(dp0
S'LOC'
p1
(lp2
(lp3
S'Assam'
p4
aS'97'
p5
aS'Event'
p6
aa(lp7
S'Guwahati'
p8
aS'16'
p9
aS'Neutral'
p10
aa(lp11
S'Assam'
p12
aS'19'
p13
aS'Event'
p14
aa(lp15
S'Bangladesh'
p16
aS'130'
p17
aS'Neutral'
p18
aa(lp19
S'Assam'
p20
aS'197'
p21
aS'Event'
p22
aa(lp23
S'Ganeshguri'
p24
aS'292'
p25
aS'Neutral'
p26
aa(lp27
S'Fancybazar'
p28
aS'300'
p29
aS'Neutral'
p30
aasS'PER'
p31
(lp32
(lp33
S'Himanta Biswa Sarma'
p34
aS'103'
p35
aS'Comment'
p36
aa(lp37
S'Manmohan Singh'
p38
aS'169'
p39
aS'Others'
p40
aa(lp41
S'P.C. Halder'
p42
aS'178'
p43
aS'Others'
p44
aa(lp45
S'Halder'
p46
aS'210'
p47
aS'Others'
p48
aa(lp49
S'Tarun Gogoi'
p50
aS'214'
p51
aS'Others'
p52
aa(lp53
S'Sarma'
p54
aS'305'
p55
aS'Comment'
p56
aa(lp57
S'Sarma'
p58
aS'366'
p59
aS'Comment'
p60
aasS'TIM'
p61
(lp62
sS'hot_setting'
p63
S''
p64
sS'DAT'
p65
(lp66
S'Saturday : 51'
p67
aS'October 30 : 63'
p68
aS'Monday : 93'
p69
aS'Saturday : 172'
p70
asS'death'
p71
S'80'
p72
sS'title'
p73
S'RAW for Assam soon to keep an eye on terrorists tactics'
p74
sS'det_loc'
p75
(lp76
S'India'
p77
aS'Assam'
p78
aS'Kamrup'
p79
aS'Guwahati'
p80
ag64
asS'terror_group'
p81
(lp82
S'UNITED LIBERATION FRONT OF ASSAM (ULFA)'
p83
asS'content'
p84
VSpecial Correspondent . . Cabinet decides to codify rules regarding parking of vehicles . . Guwahati : The Assam Police will soon have a Research and Analysis Wing -LRB- RAW -RRB- within its Special Branch . . . The decision was taken at a meeting of the State Cabinet on Saturday in the wake of the serial blasts in the State on October 30 that killed 80 people and injured over 800 . The death toll in the citys blasts has gone up to 49 with two more succumbing to injuries on Monday . . . Assam government spokesman and Health Minister Himanta Biswa Sarma said a sustained research and analysis of the change in tactics by militant and terrorist outfits had become necessary . . . Besides , Bangladesh continued to give shelter and training to these outfits , be it the United Liberation Front of Asom -LRB- ULFA -RRB- or the HuJI . . . Close of the heels of a security review by Prime Minister Manmohan Singh on Saturday , Director of Intelligence Bureau P.C. Halder reviewed the security situation in the aftermath of the serial blasts with the top brass of the Assam Police and senior officials of the Home Department . . . Mr. Halder met Chief Minister Tarun Gogoi and discussed the security situation with him . . . Codify rules . . The State Cabinet also decided to codify the rules regarding parking of vehicles and strengthen police machinery for screening vehicles , drivers and suitcases . . . The police had disclosed earlier that car bombs were used in all the three blasts in the city . . . The cars packed with RDX and ammonium nitrate were parked with other vehicles at Ganeshguri , Chief Judicial Magistrate Court premises and Fancybazar . . . Dr. Sarma told reporters that spy cameras and other security gadgets would be installed in parking lots . . . He , however , said that the city lacked proper designated parking lots and there had been resistance in the past from some sections when vacant spaces were sought to be acquired for building multi-storeyed structures for car-parking . . . Dr. Sarma said the administration would make fresh efforts to acquire land for multi-storeyed car parking and appealed the residents to cooperate . . . The State government spokesman said sketches of suspects behind the blasts were being prepared by the police on the basis of description provided by a lawyer .
p85
sS'injured'
p86
S'800'
p87
sS'org_unorg'
p88
g64
sS'O'
p89
(lp90
S'special correspondent:1'
p91
aS'cabinet:5'
p92
aS'codify rules:8'
p93
aS'vehicles:13'
p94
aS'special branch:34'
p95
aS'meeting:45'
p96
aS'state cabinet:48'
p97
aS'serial blasts:57'
p98
aS'state:61'
p99
aS'killed:66'
p100
aS'injured:70'
p101
aS'death toll:75'
p102
aS'citys blasts:79'
p103
aS'succumbing:89'
p104
aS'injuries:91'
p105
aS'militant:118'
p106
aS'terrorist outfits:120'
p107
aS'training:136'
p108
aS'outfits:139'
p109
aS'security review:164'
p110
aS'serial blasts:189'
p111
aS'brass:194'
p112
aS'assam police:197'
p113
aS'senior officials:200'
p114
aS'discussed:217'
p115
aS'security situation:219'
p116
aS'codify rules:226'
p117
aS'state cabinet:231'
p118
aS'codify:236'
p119
aS'rules:238'
p120
aS'parking of vehicles:240'
p121
aS'strengthen police machinery:244'
p122
aS'screening vehicles:248'
p123
aS'drivers:251'
p124
aS'suitcases:253'
p125
aS'car bombs:263'
p126
aS'three blasts:270'
p127
aS'city:274'
p128
aS'cars packed:279'
p129
aS'rdx:282'
p130
aS'ammonium nitrate:284'
p131
aS'vehicles:290'
p132
aS'reporters:307'
p133
aS'spy cameras:309'
p134
aS'security gadgets:313'
p135
aS'city:331'
p136
aS'parking lots:335'
p137
aS'resistance:341'
p138
aS'building multi-storeyed structures:357'
p139
aS'car-parking:361'
p140
aS'administration:369'
p141
aS'multi-storeyed car parking:378'
p142
aS'appealed:382'
p143
aS'sketches:395'
p144
aS'suspects:397'
p145
aS'blasts:400'
p146
aS'lawyer:415'
p147
asS'unexpl'
p148
(lp149
g64
asS'ocassion'
p150
g64
sS'link'
p151
S'http://www.thehindu.com/todays-paper/raw-for-assam-soon-to-keep-an-eye-on-terrorists-tactics/article1369331.ece'
p152
sS'date'
p153
S'30-10-2008'
p154
sS'target'
p155
S'CITY'
p156
sS'hot_spot'
p157
g64
sS'delivery_mod'
p158
g64
sS'delivery_met'
p159
S'PLANTED'
p160
sS'expl'
p161
(lp162
S'RDX'
p163
asS'ORG'
p164
(lp165
(lp166
S'Assam Police'
p167
aS'19'
p168
aS'Others'
p169
aa(lp170
S'Research and Analysis Wing'
p171
aS'25'
p172
aS'Others'
p173
aa(lp174
S'RAW'
p175
aS'30'
p176
aS'Others'
p177
aa(lp178
S'Assam government'
p179
aS'97'
p180
aS'Others'
p181
aa(lp182
S'United Liberation Front of Asom'
p183
aS'144'
p184
aS'Accused'
p185
aa(lp186
S'ULFA'
p187
aS'150'
p188
aS'Accused'
p189
aa(lp190
S'HuJI'
p191
aS'154'
p192
aS'Accused'
p193
aa(lp194
S'Intelligence Bureau'
p195
aS'176'
p196
aS'Others'
p197
aa(lp198
S'State government'
p199
aS'391'
p200
aS'Others'
p201
aas.
