(dp0
S'LOC'
p1
(lp2
(lp3
S'KOLKATA'
p4
aS'5'
p5
aS'Neutral'
p6
aa(lp7
S'Alipurduar'
p8
aS'33'
p9
aS'Event'
p10
aa(lp11
S'West Bengals'
p12
aS'35'
p13
aS'Event'
p14
aa(lp15
S'Jalpaiguri'
p16
aS'37'
p17
aS'Event'
p18
aa(lp19
S'Hasimhara'
p20
aS'117'
p21
aS'Neutral'
p22
aa(lp23
S'Barobisha'
p24
aS'135'
p25
aS'Neutral'
p26
aa(lp27
S'Assam'
p28
aS'142'
p29
aS'Neutral'
p30
aasS'PER'
p31
(lp32
(lp33
S'Vandana Yadav'
p34
aS'162'
p35
aS'Others'
p36
aasS'TIM'
p37
(lp38
sS'hot_setting'
p39
S''
p40
sS'DAT'
p41
(lp42
S'Wednesday : 40'
p43
aS'May 2008 : 144'
p44
aS'Wednesdays : 153'
p45
asS'death'
p46
g40
sS'title'
p47
S'2 killed in Jalpaiguri blast'
p48
sS'det_loc'
p49
(lp50
S'India'
p51
aS'West Bengal'
p52
aS'Jalpaiguri'
p53
ag40
ag40
asS'terror_group'
p54
(lp55
g40
asS'content'
p56
VSpecial Correspondent . . KOLKATA : A cyclist and a scooterist were killed and 14 others injured , two of them seriously , in a powerful blast outside a major market at Alipurduar in West Bengals Jalpaiguri district on Wednesday . The death toll could rise , it is feared . The hand of a militant group , Kamtapur Liberation Organisation , is suspected . . . The explosive was kept on a cycle outside the market . The cyclist was killed on the spot when he got on it . The scooterist , who was nearby , was severely injured and died later . A bomb disposal unit from the Indian Air Force base at Hasimhara defused other explosives found at the site . . . We had a similar incident at the Barobisha checkpost along the district border with Assam in May 2008 and the involvement of the KLO in Wednesdays blast is not ruled out , District Magistrate Vandana Yadav told TheHindu over telephone .
p57
sS'injured'
p58
S'14'
p59
sS'org_unorg'
p60
g40
sS'O'
p61
(lp62
S'special correspondent:1'
p63
aS'cyclist:8'
p64
aS'scooterist:11'
p65
aS'killed:13'
p66
aS'injured:17'
p67
aS'powerful blast:26'
p68
aS'major market:30'
p69
aS'death toll:43'
p70
aS'feared:50'
p71
aS'militant group:56'
p72
aS'suspected:64'
p73
aS'explosive:69'
p74
aS'cycle:74'
p75
aS'market:77'
p76
aS'cyclist:80'
p77
aS'killed:82'
p78
aS'spot:85'
p79
aS'scooterist:93'
p80
aS'injured:101'
p81
aS'died:103'
p82
aS'bomb disposal unit:107'
p83
aS'explosives:120'
p84
aS'site:124'
p85
aS'incident:132'
p86
aS'checkpost:136'
p87
aS'district border:139'
p88
aS'blast:154'
p89
aS'telephone:167'
p90
asS'unexpl'
p91
(lp92
g40
asS'ocassion'
p93
g40
sS'link'
p94
S'http://www.thehindu.com/todays-paper/2-killed-in-jalpaiguri-blast/article335497.ece'
p95
sS'date'
p96
S'18-03-2009'
p97
sS'target'
p98
S'TOWN'
p99
sS'hot_spot'
p100
g40
sS'delivery_mod'
p101
g40
sS'delivery_met'
p102
S'PLANTED'
p103
sS'expl'
p104
(lp105
g40
asS'ORG'
p106
(lp107
(lp108
S'Kamtapur Liberation Organisation'
p109
aS'59'
p110
aS'Others'
p111
aa(lp112
S'Indian Air Force'
p113
aS'112'
p114
aS'Others'
p115
aa(lp116
S'KLO'
p117
aS'151'
p118
aS'Others'
p119
aa(lp120
S'TheHindu'
p121
aS'165'
p122
aS'Others'
p123
aas.