(dp0
S'LOC'
p1
(lp2
(lp3
S'United Nations'
p4
aS'1'
p5
aS'Neutral'
p6
aa(lp7
S'United Nations'
p8
aS'4'
p9
aS'Neutral'
p10
aa(lp11
S'UN'
p12
aS'7'
p13
aS'Neutral'
p14
aa(lp15
S'India'
p16
aS'21'
p17
aS'Neutral'
p18
aa(lp19
S'financial hub'
p20
aS'23'
p21
aS'Event'
p22
aa(lp23
S'Mumbai'
p24
aS'26'
p25
aS'Event'
p26
aa(lp27
S'Mumbai'
p28
aS'54'
p29
aS'Event'
p30
aa(lp31
S'India'
p32
aS'87'
p33
aS'Neutral'
p34
aa(lp35
S'UN'
p36
aS'104'
p37
aS'Neutral'
p38
aa(lp39
S'India'
p40
aS'145'
p41
aS'Neutral'
p42
aa(lp43
S'Germany'
p44
aS'200'
p45
aS'Neutral'
p46
aa(lp47
S'UN'
p48
aS'205'
p49
aS'Neutral'
p50
aa(lp51
S'Mumbai'
p52
aS'213'
p53
aS'Event'
p54
aasS'PER'
p55
(lp56
(lp57
S'Ban Ki-moon'
p58
aS'10'
p59
aS'Comment'
p60
aa(lp61
S'Peter Wittig'
p62
aS'197'
p63
aS'Comment'
p64
aasS'TIM'
p65
(lp66
sS'hot_setting'
p67
S''
p68
sS'DAT'
p69
(lp70
sS'death'
p71
S'18'
p72
sS'title'
p73
S'UN chief, Security Council condemn Mumbai terror attacks'
p74
sS'org_unorg'
p75
S'ORGANISED'
p76
sS'terror_group'
p77
(lp78
g68
asS'content'
p79
VUnited Nations : United Nations -LRB- UN -RRB- chief Ban Ki-moon has strongly condemned the serial bomb blasts that rocked India 's financial hub of Mumbai , killing at least 18 people and injuring over 130 . `` The Secretary-General -LRB- Ban -RRB- condemns the attacks that have killed and injured many in Mumbai , '' said a statement from his office . `` No cause or grievance can justify indiscriminate violence against civilians . The Secretary-General expresses his solidarity with the Government and people of India , and extends his sincere condolences to the families of the victims , '' it added.The UN Security Council also `` condemned in the strongest terms '' the bombings.They expressed their deep sympathy and sincere condolences to the victims of these `` heinous acts '' and to their families , and to the people and Government of India . `` The members of the Security Council reaffirmed that terrorism in all its forms and manifestations constitutes one of the most serious threats to international peace and security , and that any acts of terrorism are criminal and unjustifiable , regardless of their motivation , '' a statement read by Peter Wittig , Germany 's ambassador to the UN and current Council president , said.Terror struck Mumbai last evening when three near-simultaneous blasts ripped through crowded areas in the city . At least 18 people were killed and over 130 injured . .
p80
sS'injured'
p81
S'130'
p82
sS'det_loc'
p83
(lp84
S'India'
p85
aS'Maharashtra'
p86
ag68
aS'Mumbai'
p87
aS'financial hub'
p88
asS'O'
p89
(lp90
S'Secretary-General:40'
p91
aS'Secretary-General:77'
p92
aS'Government:83'
p93
aS'Security Council:105'
p94
aS'heinous acts:130'
p95
aS'Security Council:152'
p96
aS'president:209'
p97
asS'unexpl'
p98
(lp99
g68
asS'ocassion'
p100
g68
sS'link'
p101
S'http://www.ndtv.com/india-news/un-chief-security-council-condemn-mumbai-terror-attacks-461462'
p102
sS'date'
p103
S'13-07-2011'
p104
sS'target'
p105
g68
sS'hot_spot'
p106
S'financial hub'
p107
sS'delivery_mod'
p108
g68
sS'delivery_met'
p109
g68
sS'expl'
p110
(lp111
g68
asS'ORG'
p112
(lp113
(lp114
S'Government of India'
p115
aS'143'
p116
aS'Others'
p117
aa(lp118
S'India'
p119
aS'145'
p120
aS'Others'
p121
aas.