(dp0
S'LOC'
p1
(lp2
(lp3
S'Varanasi'
p4
aS'8'
p5
aS'Event'
p6
aa(lp7
S'North 24 Parganas'
p8
aS'96'
p9
aS'Accused Location'
p10
aa(lp11
S'West Bengal'
p12
aS'101'
p13
aS'Neutral'
p14
aa(lp15
S'Lucknow'
p16
aS'110'
p17
aS'Accused Location'
p18
aa(lp19
S'Jyotiba Phule Nagar'
p20
aS'121'
p21
aS'Accused Location'
p22
aa(lp23
S'India'
p24
aS'164'
p25
aS'Neutral'
p26
aa(lp27
S'Pakistan'
p28
aS'166'
p29
aS'Neutral'
p30
aa(lp31
S'Pakistan .'
p32
aS'166'
p33
aS'Neutral'
p34
aa(lp35
S'Sankatmochan temple'
p36
aS'205'
p37
aS'Event'
p38
aa(lp39
S'Varanasi'
p40
aS'209'
p41
aS'Event'
p42
aa(lp43
S'Delhi'
p44
aS'241'
p45
aS'Event'
p46
aa(lp47
S'Varanasi'
p48
aS'247'
p49
aS'Event'
p50
aasS'PER'
p51
(lp52
(lp53
S'Wali Ullah'
p54
aS'44'
p55
aS'Accused'
p56
aa(lp57
S'Jagmohan Yadav'
p58
aS'69'
p59
aS'Comment'
p60
aa(lp61
S'Mehbook Ali'
p62
aS'90'
p63
aS'Accused'
p64
aa(lp65
S'Syed Shuaib Hussain'
p66
aS'104'
p67
aS'Accused'
p68
aa(lp69
S'Farhan'
p70
aS'108'
p71
aS'Accused'
p72
aa(lp73
S'Mohammad Rizwan Siddique'
p74
aS'113'
p75
aS'Accused'
p76
aa(lp77
S'Mohammad Saad Ali'
p78
aS'117'
p79
aS'Accused'
p80
aa(lp81
S'Jaish'
p82
aS'133'
p83
aS'Accused'
p84
aa(lp85
S'Wali Ullah'
p86
aS'136'
p87
aS'Accused'
p88
aa(lp89
S'Wali Ullah'
p90
aS'174'
p91
aS'Accused'
p92
aa(lp93
S'Wali Ullah'
p94
aS'219'
p95
aS'Accused'
p96
aasS'TIM'
p97
(lp98
sS'hot_setting'
p99
S''
p100
sS'DAT'
p101
(lp102
S'Wednesday:18'
p103
asS'death'
p104
g100
sS'title'
p105
S'Varanasi blasts mastermind, 5 accomplices arrested'
p106
sS'det_loc'
p107
(lp108
S'India'
p109
aS'Uttar Pradesh'
p110
ag100
aS'Varanasi'
p111
aS'Varanasi'
p112
asS'terror_group'
p113
(lp114
S'HARKAT-UL-MUJAHIDEEN OR HARKAT-UL-ANSAR OR HARKAT-UL-JEHAD-E-ISLAMI'
p115
asS'content'
p116
VLUCKNOW : A mastermind of the recent Varanasi blasts and five of his accomplices were arrested on Wednesday by the Uttar Pradesh police and Central security agencies . A module of the Bangladesh-based Harkat-ul-Jehadi-Islamia -LRB- HuJI -RRB- was also busted . . . Wali Ullah and his accomplices were arrested from different parts of the State and a large quantity of arms and ammunition recovered from them , Jagmohan Yadav , Inspector-General of Special Task Force of the police , told reporters . . . The five were : Mehbook Ali , a resident of North 24 Parganas district in West Bengal , Syed Shuaib Hussain and Farhan of Lucknow , and Mohammad Rizwan Siddique and Mohammad Saad Ali from Jyotiba Phule Nagar district , he said . . . Trained with Jaish . . Wali Ullah , who had trained with the Pakistan-based Jaish-e-Mohammed , was extending ` all help ' to the cadre of the HuJI , which is banned by India and Pakistan . . . Telephone calls made by Wali Ullah made the sleuths close in on him . . . He had made calls to the same number to which militants , who had planted the bombs at the Sankatmochan temple and the Varanasi cantonment railway station , had made . . . Wali Ullah , who was presented before the mediapersons , said the HuJI could even be responsible for the last year 29/10 Delhi blasts , an explosion in Varanasi last year and a blast on board the Shramjeevi Express last year .
p117
sS'injured'
p118
g100
sS'org_unorg'
p119
S'ORGANISED'
p120
sS'O'
p121
(lp122
S'inspector-general of special task force of the police:72'
p123
aS'shramjeevi express:256'
p124
asS'unexpl'
p125
(lp126
g100
asS'ocassion'
p127
g100
sS'link'
p128
S'http://www.thehindu.com/todays-paper/varanasi-blasts-mastermind-5-accomplices-arrested/article3143341.ece'
p129
sS'date'
p130
S'05-04-2006'
p131
sS'target'
p132
g100
sS'hot_spot'
p133
S'Varanasi'
p134
sS'delivery_mod'
p135
g100
sS'delivery_met'
p136
S'PLANTED'
p137
sS'expl'
p138
(lp139
g100
asS'ORG'
p140
(lp141
(lp142
S'Uttar Pradesh police'
p143
aS'21'
p144
aS'Others'
p145
aa(lp146
S'Central security agencies'
p147
aS'25'
p148
aS'Others'
p149
aa(lp150
S'Harkat-ul-Jehadi-Islamia'
p151
aS'34'
p152
aS'Accused'
p153
aa(lp154
S'HuJI'
p155
aS'36'
p156
aS'Accused'
p157
aa(lp158
S'Jaish-e-Mohammed'
p159
aS'145'
p160
aS'Accused'
p161
aa(lp162
S'HuJI'
p163
aS'158'
p164
aS'Accused'
p165
aa(lp166
S'HuJI'
p167
aS'231'
p168
aS'Accused'
p169
aas.