(dp0
S'LOC'
p1
(lp2
(lp3
S'GUWAHATI'
p4
aS'15'
p5
aS'Event'
p6
aa(lp7
S'Dhemaji'
p8
aS'55'
p9
aS'Event'
p10
aa(lp11
S'Assam'
p12
aS'84'
p13
aS'Event'
p14
aa(lp15
S'Dhemaji'
p16
aS'159'
p17
aS'Event'
p18
aasS'PER'
p19
(lp20
(lp21
S'A.P.J. Abdul Kalam'
p22
aS'63'
p23
aS'Others'
p24
aa(lp25
S'Dilip Kumar Saikia'
p26
aS'98'
p27
aS'Others'
p28
aasS'TIM'
p29
(lp30
S'today : 27'
p31
aS'today : 102'
p32
asS'hot_setting'
p33
S''
p34
sS'DAT'
p35
(lp36
S'OCT. 27 : 17'
p37
asS'death'
p38
S'13'
p39
sS'title'
p40
S"AGP's allegations against Minister"
p41
sS'det_loc'
p42
(lp43
S'India'
p44
aS'Assam'
p45
aS'Dhemaji'
p46
ag34
ag34
asS'terror_group'
p47
(lp48
S'UNITED LIBERATION FRONT OF ASSAM (ULFA)'
p49
asS'content'
p50
VNational AGP 's allegations against Minister . . By our special correspondent . . GUWAHATI , OCT. 27 . The Asom Gana Parishad -LRB- AGP -RRB- today forwarded ' a confessional statement ' of a woman cadre of the outlawed United Liberation Front of Asom -LRB- ULFA -RRB- , arrested in connection with the Dhemaji bomb blast , to the President , A.P.J. Abdul Kalam , urging him to initiate an impartial commission of enquiry into the alleged ` link ' of an Assam Minister with the banned outfit . . . The AGP general secretary , Dilip Kumar Saikia , today distributed at a press conference copies of the ` confessional statement ' of the ULFA cadre , purportedly made during her interrogation by police . . . Damaging allegations . . According to the ` confessional statement , ' the Minister allegedly gifted a mobile handset to another ULFA cadre , also a suspect in the Dhemaji bomb blast triggered by the ULFA on this year 's Independence Day . Thirteen persons , mostly school children , were killed in it . . . The ` statement ' also claimed that the suspect had frequent discussions with the Minister over the mobile phone .
p51
sS'injured'
p52
g34
sS'org_unorg'
p53
g34
sS'O'
p54
(lp55
S'allegations:4'
p56
aS'special correspondent:11'
p57
aS'forwarded:28'
p58
aS'confessional statement:31'
p59
aS'woman cadre:36'
p60
aS'outlawed:40'
p61
aS'arrested:50'
p62
aS'connection:52'
p63
aS'Dhemaji bomb blast:55'
p64
aS'urging:67'
p65
aS'initiate:70'
p66
aS'impartial commission of enquiry:72'
p67
aS'alleged:78'
p68
aS'link:80'
p69
aS'Assam Minister:84'
p70
aS'banned outfit:88'
p71
aS'distributed:103'
p72
aS'press conference:106'
p73
aS'confessional statement:112'
p74
aS'ULFA cadre:117'
p75
aS'interrogation:124'
p76
aS'Damaging allegations:130'
p77
aS'confessional statement:138'
p78
aS'allegedly gifted:144'
p79
aS'mobile handset:147'
p80
aS'cadre:152'
p81
aS'Dhemaji bomb blast:159'
p82
aS'triggered:162'
p83
aS"year 's Independence Day:168"
p84
aS'school children:177'
p85
aS'killed:181'
p86
aS'statement:189'
p87
aS'claimed:192'
p88
aS'suspect:195'
p89
aS'frequent discussions:197'
p90
aS'mobile phone:204'
p91
asS'unexpl'
p92
(lp93
g34
asS'ocassion'
p94
S'INDEPENDENCE DAY'
p95
sS'link'
p96
S'http://www.thehindu.com/2004/10/28/stories/2004102807671300.htm'
p97
sS'date'
p98
S'27-10-2004'
p99
sS'target'
p100
S'PARADE GROUND'
p101
sS'hot_spot'
p102
g34
sS'delivery_mod'
p103
g34
sS'delivery_met'
p104
S'PLANTED'
p105
sS'expl'
p106
(lp107
g34
asS'ORG'
p108
(lp109
(lp110
S'AGP'
p111
aS'2'
p112
aS'Others'
p113
aa(lp114
S'Asom Gana Parishad'
p115
aS'21'
p116
aS'Others'
p117
aa(lp118
S'AGP'
p119
aS'25'
p120
aS'Others'
p121
aa(lp122
S'United Liberation Front of Asom'
p123
aS'41'
p124
aS'Accused'
p125
aa(lp126
S'ULFA'
p127
aS'47'
p128
aS'Accused'
p129
aa(lp130
S'AGP'
p131
aS'94'
p132
aS'Others'
p133
aa(lp134
S'ULFA'
p135
aS'117'
p136
aS'Accused'
p137
aa(lp138
S'ULFA'
p139
aS'151'
p140
aS'Accused'
p141
aa(lp142
S'ULFA'
p143
aS'165'
p144
aS'Accused'
p145
aas.