(dp0
S'LOC'
p1
(lp2
(lp3
S'Pakistans'
p4
aS'27'
p5
aS'Neutral'
p6
aa(lp7
S'Pakistan'
p8
aS'63'
p9
aS'Neutral'
p10
aa(lp11
S'Delhi'
p12
aS'74'
p13
aS'Event'
p14
aa(lp15
S'Delhi'
p16
aS'97'
p17
aS'Event'
p18
aa(lp19
S'Bhangel'
p20
aS'114'
p21
aS'Accused Location'
p22
aa(lp23
S'Noida'
p24
aS'117'
p25
aS'Accused Location'
p26
aa(lp27
S'Islamabad'
p28
aS'170'
p29
aS'Neutral'
p30
aa(lp31
S'Noida'
p32
aS'181'
p33
aS'Accused Location'
p34
aa(lp35
S'Delhi'
p36
aS'205'
p37
aS'Event'
p38
aa(lp39
S'Pakistan'
p40
aS'216'
p41
aS'Neutral'
p42
aa(lp43
S'India'
p44
aS'365'
p45
aS'Neutral'
p46
aa(lp47
S'Mumbai'
p48
aS'422'
p49
aS'Assoc Event Location'
p50
aa(lp51
S'Chabad House'
p52
aS'441'
p53
aS'Assoc Event Location'
p54
aa(lp55
S'Colaba'
p56
aS'444'
p57
aS'Assoc Event Location'
p58
aasS'PER'
p59
(lp60
(lp61
S'Neeraj'
p62
aS'51'
p63
aS'Accused'
p64
aS'Others'
p65
aa(lp66
S'Anant Dev'
p67
aS'176'
p68
aS'Others'
p69
aa(lp70
S'Neeraj'
p71
aS'190'
p72
aS'Others'
p73
aa(lp74
S'Mohammed Afzal Guru'
p75
aS'342'
p76
aS'Others'
p77
aa(lp78
S'SK Sinha'
p79
aS'406'
p80
aS'Others'
p81
aasS'TIM'
p82
(lp83
S'todays : 280'
p84
aS'today : 306'
p85
aS'morning : 320'
p86
aS'today : 329'
p87
asS'hot_setting'
p88
S''
p89
sS'DAT'
p90
(lp91
S'Wednesday:37'
p92
aS'August 17:65'
p93
asS'death'
p94
S'11'
p95
sS'title'
p96
S'Pak link to Delhi High Court blast'
p97
sS'det_loc'
p98
(lp99
S'India'
p100
aS'Delhi'
p101
aS'New Delhi'
p102
aS'New Dlhi'
p103
ag89
asS'terror_group'
p104
(lp105
S'HUJI'
p106
asS'content'
p107
VZeenews Bureau . . New Delhi : Even as the investigating agencies grope in the dark about crucial leads pertaining to Delhi High Court blast , Pakistans links to the incident have come to fore on Wednesday . . . As per reports , a Noida-based boy , identified as Neeraj , had received a phone call from an unknown caller from Pakistan on August 17 suggesting that a blast was imminent in Delhi in the near future . . . The caller didnt divulge more details about his location but stressed that vital installations in Delhi would be blown at a chosen time . . . The boy , who lives in Bhangel area of Noida , immediately passed this information to the Noida Police Control , which later passed it to its superior officers and Delhi Police . . . The boy himself tried to verify the veracity of the phone call ( number 923453367472 ) , which was later traced to a military camp located in Islamabad . This was confirmed by Anant Dev , SP City Noida , who said , A boy identified as Neeraj received a phone call from an unknown location about a possible bomb blast in Delhi . The boy claimed that the call was made from Pakistan . We had passed this information to concerned officers for further verification . . . Unfortunately , no deliberate attempts were made on the part of the investigating agencies to verify the authenticity of the phone call and the matter was pushed to the back burner . . . However , with the Pakistan-based terrorist outfit Harkat-ul-Jihad-al-Islami ( HuJI ) claiming responsibility for todays blast , the needle of suspicion has once again turned to the neighbouring country . Lending credence to the involvement of Pakistan-based elements , HuJI today sent an email claiming responsibility for the blast outside Delhi High Court this morning . . . We own the responsibility for today ` s blasts at Delhi High Court . Our demand is that Mohammed Afzal Guru ` s death sentence should be repealed immediately else we would target major High Courts and the Supreme Court of India , ' the email sent by HuJI said . . . A 20-member team led by the National Investigations Agency ( NIA ) is examining the email sent by HuJI . . . Reacting to HuJIs e-mail , NIA chief SK Sinha said the mail sent is being looked at since HuJI was involved in the Mumbai blasts too . . . HuJI ` s hand is suspected in the 26/11 Mumbai terror attack at Chabad House in Colaba . . . At least eleven people were killed and over sixty others injured when a high-intensity blast went off outside the Gate number 5 of the Delhi High Court .
p108
sS'injured'
p109
S'60'
p110
sS'org_unorg'
p111
g89
sS'O'
p112
(lp113
S'blast:25'
p114
aS'noida-based boy:46'
p115
aS'phone call:56'
p116
aS'blast:70'
p117
aS'vital installations:94'
p118
aS'phone call:153'
p119
aS'923453367472:157'
p120
aS'military camp:166'
p121
aS'phone call:193'
p122
aS'bomb blast:202'
p123
aS'investigating agencies:244'
p124
aS'phone call:252'
p125
aS'pakistan-based terrorist outfit:270'
p126
aS'blast:281'
p127
aS'email:309'
p128
aS'blast:314'
p129
aS'blasts:332'
p130
aS'death sentence:347'
p131
aS'target:356'
p132
aS'email:392'
p133
aS'blasts:423'
p134
aS'26/11 mumbai terror attack:436'
p135
aS'killed:453'
p136
aS'injured:458'
p137
aS'high-intensity blast:461'
p138
asS'unexpl'
p139
(lp140
g89
asS'ocassion'
p141
g89
sS'link'
p142
S'http://zeenews.india.com/news/nation/pak-link-to-delhi-high-court-blast_730333.html'
p143
sS'date'
p144
S'11-09-2011'
p145
sS'target'
p146
S'GOVERNMENT BUILDING'
p147
sS'hot_spot'
p148
g89
sS'delivery_mod'
p149
g89
sS'delivery_met'
p150
S'PLANTED'
p151
sS'expl'
p152
(lp153
g89
asS'ORG'
p154
(lp155
(lp156
S'Delhi High Court'
p157
aS'22'
p158
aS'Victim'
p159
aa(lp160
S'Noida Police Control'
p161
aS'125'
p162
aS'Others'
p163
aa(lp164
S'Delhi Police'
p165
aS'138'
p166
aS'Others'
p167
aa(lp168
S'Harkat-ul-Jihad-al-Islami'
p169
aS'273'
p170
aS'Accused'
p171
aa(lp172
S'HuJI'
p173
aS'275'
p174
aS'Accused'
p175
aa(lp176
S'HuJI'
p177
aS'305'
p178
aS'Accused'
p179
aa(lp180
S'Delhi High Court'
p181
aS'316'
p182
aS'Victim'
p183
aa(lp184
S'Delhi High Court'
p185
aS'334'
p186
aS'Victim'
p187
aa(lp188
S'High Courts'
p189
aS'358'
p190
aS'Victim'
p191
aa(lp192
S'Supreme Court'
p193
aS'362'
p194
aS'Assoc Victim'
p195
aa(lp196
S'HuJI'
p197
aS'372'
p198
aS'Accused'
p199
aa(lp200
S'National Investigations Agency'
p201
aS'383'
p202
aS'Others'
p203
aa(lp204
S'NIA'
p205
aS'387'
p206
aS'Others'
p207
aa(lp208
S'HuJI'
p209
aS'395'
p210
aS'Accused'
p211
aa(lp212
S'HuJIs'
p213
aS'401'
p214
aS'Accused'
p215
aa(lp216
S'NIA'
p217
aS'404'
p218
aS'Others'
p219
aa(lp220
S'HuJI'
p221
aS'417'
p222
aS'Accused'
p223
aa(lp224
S'HuJI'
p225
aS'428'
p226
aS'Accused'
p227
aa(lp228
S'Delhi High Court'
p229
aS'472'
p230
aS'Victim'
p231
aas.