(dp0
S'LOC'
p1
(lp2
(lp3
S'NEW DELHI'
p4
aS'5'
p5
aS'Neutral'
p6
aa(lp7
S'India'
p8
aS'12'
p9
aS'Neutral'
p10
aa(lp11
S'cinema'
p12
aS'24'
p13
aS'Event'
p14
aa(lp15
S'Ludhiana'
p16
aS'26'
p17
aS'Event'
p18
aa(lp19
S'Ludhiana'
p20
aS'116'
p21
aS'Event'
p22
aa(lp23
S'Ajmer Sharif Dargah'
p24
aS'127'
p25
aS'Event'
p26
aasS'PER'
p27
(lp28
sS'TIM'
p29
(lp30
sS'hot_setting'
p31
S''
p32
sS'DAT'
p33
(lp34
S'Monday:17'
p35
asS'death'
p36
S'6'
p37
sS'title'
p38
S'CPI(M) condemns Ludhiana blast'
p39
sS'org_unorg'
p40
S'ORGANISED'
p41
sS'terror_group'
p42
(lp43
g32
asS'content'
p44
VSpecial Correspondent . . NEW DELHI : The Communist Party of India -LRB- Marxist -RRB- on Monday condemned the bomb blast in a cinema in Ludhiana that killed six people and injured 25 . . . It is not sufficient to try and track down the culprits after such attacks . It is more important to identify and uncover the terrorist groups and networks operating within the country and their links abroad . . . The intelligence and security agencies will have to be geared up for this task , the CPI -LRB- M -RRB- Polit Bureau said in a statement . . . Terror network . . The Polit Bureau said the attack in Ludhiana came within a few days of the blast in the Ajmer Sharif Dargah , indicating that there was a concerted bid by the terrorist network to wreak violence around the country . . . The party also conveyed its sympathy to the families of those affected by the blast .
p45
sS'injured'
p46
S'25'
p47
sS'det_loc'
p48
(lp49
S'India'
p50
aS'Punjab'
p51
aS'Ludhiana'
p52
aS'Ludhiana'
p53
aS'cinema '
p54
asS'O'
p55
(lp56
S'culprits:47'
p57
aS'country:68'
p58
aS'CPI:92'
p59
aS'wreak violence:143'
p60
aS'country:147'
p61
asS'unexpl'
p62
(lp63
g32
asS'ocassion'
p64
g32
sS'link'
p65
S'http://www.thehindu.com/todays-paper/tp-national/cpim-condemns-ludhiana-blast/article1931126.ece'
p66
sS'date'
p67
S'15-10-2007'
p68
sS'target'
p69
g32
sS'hot_spot'
p70
S'cinema'
p71
sS'delivery_mod'
p72
g32
sS'delivery_met'
p73
S'PLANTED'
p74
sS'expl'
p75
(lp76
g32
asS'ORG'
p77
(lp78
(lp79
S'Communist Party of India'
p80
aS'9'
p81
aS'Others'
p82
aa(lp83
S'terrorist'
p84
aS'61'
p85
aS'Accused'
p86
aa(lp87
S'Polit Bureau'
p88
aS'96'
p89
aS'Others'
p90
aa(lp91
S'Polit Bureau'
p92
aS'110'
p93
aS'Others'
p94
aa(lp95
S'terrorist'
p96
aS'140'
p97
aS'Accused'
p98
aas.