(dp0
S'LOC'
p1
(lp2
(lp3
S'Bangalore'
p4
aS'4'
p5
aS'Neutral'
p6
aa(lp7
S'Bangalore'
p8
aS'18'
p9
aS'Neutral'
p10
aa(lp11
S'IT hub'
p12
aS'21'
p13
aS'Event'
p14
aa(lp15
S'India'
p16
aS'24'
p17
aS'Neutral'
p18
aa(lp19
S'Madiwala'
p20
aS'38'
p21
aS'Event'
p22
aa(lp23
S'Nayandanahalli'
p24
aS'44'
p25
aS'Event'
p26
aa(lp27
S'Mysore Road'
p28
aS'46'
p29
aS'Event'
p30
aa(lp31
S'Adugodi'
p32
aS'54'
p33
aS'Event'
p34
aa(lp35
S'Koramangla'
p36
aS'69'
p37
aS'Event'
p38
aa(lp39
S'Mallya road'
p40
aS'74'
p41
aS'Event'
p42
aa(lp43
S'Langford Road'
p44
aS'81'
p45
aS'Event'
p46
aa(lp47
S'Richmond Circle'
p48
aS'84'
p49
aS'Event'
p50
aa(lp51
S'Bengaluru'
p52
aS'91'
p53
aS'Event'
p54
aa(lp55
S'Madiwala'
p56
aS'99'
p57
aS'Event'
p58
aa(lp59
S'Madiwala'
p60
aS'117'
p61
aS'Event'
p62
aa(lp63
S'Madiwala Check post'
p64
aS'159'
p65
aS'Event'
p66
aa(lp67
S'Madiwala Check post'
p68
aS'173'
p69
aS'Event'
p70
aa(lp71
S'Pakistan'
p72
aS'242'
p73
aS'Neutral'
p74
aa(lp75
S'Madiwala check post'
p76
aS'298'
p77
aS'Event'
p78
aa(lp79
S'Forum Mall'
p80
aS'307'
p81
aS'Neutral'
p82
aa(lp83
S'Bangalore'
p84
aS'317'
p85
aS'Neutral'
p86
aa(lp87
S'Nayandahalli'
p88
aS'327'
p89
aS'Event'
p90
aa(lp91
S'Adugodi'
p92
aS'329'
p93
aS'Event'
p94
aa(lp95
S'Jaipur'
p96
aS'377'
p97
aS'Event'
p98
aa(lp99
S'Hyderabad'
p100
aS'379'
p101
aS'Event'
p102
aa(lp103
S'R T Nagar'
p104
aS'479'
p105
aS'Event'
p106
aa(lp107
S'Hyderabad'
p108
aS'595'
p109
aS'Event'
p110
aa(lp111
S'Ajmer'
p112
aS'597'
p113
aS'Event'
p114
aa(lp115
S'Jammu Kashmir'
p116
aS'599'
p117
aS'Event'
p118
aa(lp119
S'Jaipur'
p120
aS'602'
p121
aS'Event'
p122
aa(lp123
S'Karnataka'
p124
aS'613'
p125
aS'Neutral'
p126
aa(lp127
S'Bangalore'
p128
aS'627'
p129
aS'Neutral'
p130
aa(lp131
S'Bangalore'
p132
aS'651'
p133
aS'Neutral'
p134
aa(lp135
S'Hosur road'
p136
aS'688'
p137
aS'Neutral'
p138
aa(lp139
S'Sarjapur Road'
p140
aS'691'
p141
aS'Neutral'
p142
aa(lp143
S'Bannerughatta Road'
p144
aS'694'
p145
aS'Neutral'
p146
aa(lp147
S'BTM'
p148
aS'697'
p149
aS'Neutral'
p150
aasS'PER'
p151
(lp152
(lp153
S'Shankar Bidri'
p154
aS'135'
p155
aS'Comment'
p156
aa(lp157
S'Lakshmi'
p158
aS'148'
p159
aS'Victim'
p160
aa(lp161
S'Ravi'
p162
aS'179'
p163
aS'Victim'
p164
aa(lp165
S'Shankara Bidari'
p166
aS'540'
p167
aS'Comment'
p168
aa(lp169
S'B S Yeddyurappa'
p170
aS'615'
p171
aS'Others'
p172
aasS'TIM'
p173
(lp174
S'1.20 pm:40'
p175
aS'pm:41'
p176
aS'1.25 pm:50'
p177
aS'pm:51'
p178
aS'1.45 pm:56'
p179
aS'pm:57'
p180
aS'2.10 pm:71'
p181
aS'pm:72'
p182
aS'2.25 pm:77'
p183
aS'pm:78'
p184
aS'2.35 pm:87'
p185
aS'pm:88'
p186
aS'1.30 pm:406'
p187
asS'hot_setting'
p188
S''
p189
sS'DAT'
p190
(lp191
S'Jul 25 : 6'
p192
aS'Friday , July 25 : 26'
p193
aS'Friday:414'
p194
aS'2005:634'
p195
aS'2005:638'
p196
asS'death'
p197
g189
sS'title'
p198
S'Series of 7 bomb blast rocks Bangalore'
p199
sS'org_unorg'
p200
S'ORGANISED'
p201
sS'terror_group'
p202
(lp203
g189
asS'content'
p204
VView PhotosNews Gallery Bangalore , Jul 25 : A series of seven bomb blasts ripped through the Bangalore , the IT hub of India on Friday , July 25 . While four low-intensity blasts went off at Madiwala ( 1.20 pm ) , Nayandanahalli ( Mysore Road ) ( 1.25 pm ) , Adugodi ( 1.45 pm ) areas on the outskirts , blasts also rocked areas near Koramangla ( 2.10 pm ) Mallya road ( 2.25 pm ) , Langford Road and Richmond Circle ( 2.35 pm ) in Bengaluru city . Two blasts were reported in Madiwala . All blasts happened in a span of one hour . . . First blast occured in Madiwala . The blasts occured in places were more minority groups are settled . City Police Commissioner , Shankar Bidri confirmed 2 deaths . He said , a women , named Lakshmi ( 65 ) was killed in blast that occured in Madiwala Check post . She was waiting for bus at the Bus Stop in Madiwala Check post . Her husband Ravi is also critically injured and shifted to near by hospital . Two people are critically injured in the blast and are shifted to St John 's hospital . Although the police have not yet been able to ascertain the cause of the blast , reports suggest that it may be an act of terror . . . The Union Home Ministry suspect Pakistan based Lashker-e-Toiba with the help of local terror outfit SIMI have carried out the blast . Ministry has asked for a detailed report of the blasts . State Home Ministry condemned the incident . BJP has criticised Centre for not providing adequate security to the City . . . The first blast took place at Madiwala check post which incidentally is behind the famous Forum Mall , one of the leading shopping destinations in Bangalore . The second and third blasts took place at Nayandahalli and Adugodi both on the outskirts of the city . . . Initial reports suggested that the blasts were low intensity caused by gelatin sticks , normally used for quarrying and mining . Police confirmed that materials used in bombs are similar to that of the ones used in Jaipur and Hyderabad blasts . . . Police suspect hands of SIMI behind the serial blasts . Events indicate that these blasts are planned . The blasts happened aound 1.30 pm when Muslims comes out after their Friday prayer . Police said that the terrorists have used timer and cell phone for the blasts . All cell phone lines leading to the trouble tone areas are jammed . . . Majority of schools , malls , and shops were closed after the blasts . . . Unconfirmed reports says that these serial blasts are in retaliation to the incidents that occured in R T Nagar area in the city . There was a communal tension in this area after some miscreants polluted a mosque in this area . . . The public can send sms alerts to police control room to 98440-51677 . They can also send blast photos for quick analysis to police head quarters : 99805-10137 . . . Police commissionr Shankara Bidari said that the City has been put under High Alert following the serial blasts . So far , no one has claimed responsiblity for the blasts . The serial blast is a well planned network but the intensity of blasts is on low key-technology . . . Nation witnessed such terror attacks in Hyderabad , Ajmer , Jammu Kashmir and Jaipur in past one year . . . Chief Minister of Karnataka , B S Yeddyurappa has called for a emergency Cabinet meeting here at Bangalore . . . IISc Terror Attack 2005 . . In 2005 Lashkar-e-Toiba terrorists had targeted Indian Institute of Science ( IISc ) in Bangalore , killing a scientist and injuring four others . . . Reports reaching OneIndia say that most of the Software companies ( infosys , Wipro , Cisco ) especially the offices housed in electronic city , Hosur road , Sarjapur Road , Bannerughatta Road , BTM layout closed post lunch operations following blasts . . . OneIndia News . . .
p205
sS'injured'
p206
g189
sS'det_loc'
p207
(lp208
S'India'
p209
aS'Karnataka'
p210
aS'Bangalore Rural'
p211
aS'Bangalore'
p212
aS'IT hub'
p213
asS'O'
p214
(lp215
S'low-intensity:33'
p216
aS'Union Home Ministry:238'
p217
aS'State Home Ministry:270'
p218
aS'Police:417'
p219
aS'Chief Minister:610'
p220
asS'unexpl'
p221
(lp222
g189
asS'ocassion'
p223
g189
sS'link'
p224
S'http://www.oneindia.com/2008/07/25/serial-bomb-blasts-rocks-bangalore.html'
p225
sS'date'
p226
S'25-07-2008'
p227
sS'target'
p228
g189
sS'hot_spot'
p229
S'IT hub'
p230
sS'delivery_mod'
p231
g189
sS'delivery_met'
p232
S'PLANTED'
p233
sS'expl'
p234
(lp235
g189
asS'ORG'
p236
(lp237
(lp238
S'City Police'
p239
aS'131'
p240
aS'Others'
p241
aa(lp242
S"St John 's hospital"
p243
aS'203'
p244
aS'Others'
p245
aa(lp246
S'Lashker-e-Toiba'
p247
aS'244'
p248
aS'Accused'
p249
aa(lp250
S'SIMI'
p251
aS'252'
p252
aS'Accused'
p253
aa(lp254
S'BJP'
p255
aS'277'
p256
aS'Others'
p257
aa(lp258
S'SIMI'
p259
aS'388'
p260
aS'Accused'
p261
aa(lp262
S'IISc'
p263
aS'631'
p264
aS'Others'
p265
aa(lp266
S'Lashkar-e-Toiba'
p267
aS'639'
p268
aS'Accused'
p269
aa(lp270
S'Indian Institute of Science'
p271
aS'643'
p272
aS'Others'
p273
aa(lp274
S'IISc'
p275
aS'648'
p276
aS'Others'
p277
aas.