(dp0
S'LOC'
p1
(lp2
(lp3
S'India'
p4
aS'1'
p5
aS'Event'
p6
aa(lp7
S'Mumbai'
p8
aS'12'
p9
aS'Event'
p10
aa(lp11
S'Pakistan'
p12
aS'59'
p13
aS'Accused Location'
p14
aa(lp15
S'Mumbai'
p16
aS'159'
p17
aS'Event'
p18
aasS'PER'
p19
(lp20
(lp21
S'Manmohan Singh'
p22
aS'147'
p23
aS'Others'
p24
aa(lp25
S'DrSingh'
p26
aS'154'
p27
aS'Others'
p28
aasS'TIM'
p29
(lp30
sS'hot_setting'
p31
S''
p32
sS'DAT'
p33
(lp34
S'Tuesday:7'
p35
aS'Thursday:34'
p36
aS'Thursday:150'
p37
aS'Friday:161'
p38
asS'death'
p39
S'200'
p40
sS'title'
p41
S'India suspects Pak hand in Mumbai blasts'
p42
sS'det_loc'
p43
(lp44
S'India'
p45
aS'Maharashtra'
p46
aS'Mumbai-City'
p47
ag32
aS'suburban trains'
p48
asS'terror_group'
p49
(lp50
S'LASHKAR-E-TAIBA'
p51
asS'content'
p52
VIndia strongly suspects Pakistani hand in Tuesday 's serial blasts in Mumbai suburban trains with all leads pointing to involvement of Inter Services Intelligence-backed terrorist outfit Lashkar-e-Tayiba , highly placed sources said on Thursday night . . . ` The involvement of Pakistani hand is obvious ... There is no doubt that LeT , which is backed by Pakistan 's ISI , is involved , ' the sources told PTI . . . Various agencies investigating the serial blasts are also probing whether other terror groups were involved along with LeT , they said . . . ` Other terror groups may have been involved in the blasts along with LeT ... This angle is being investigated , ' the sources said . . . The progress in the probe into the blasts was discussed at a meeting of the Union Cabinet chaired by Prime Minister Manmohan Singh on Thursday . . . DrSingh is scheduled to visit Mumbai on Friday for a first-hand assessment of the situation in the wake of the bombings that have left 200 dead and over 700 injured . .
p53
sS'injured'
p54
S'700'
p55
sS'org_unorg'
p56
g32
sS'O'
p57
(lp58
S'suspects pakistani hand:3'
p59
aS'serial blasts in mumbai suburban trains:9'
p60
aS'suburban trains:13'
p61
aS'inter services intelligence-backed terrorist:22'
p62
aS'various agencies investigating:74'
p63
aS'serial blasts:78'
p64
aS'other terror groups:99'
p65
asS'unexpl'
p66
(lp67
g32
asS'ocassion'
p68
g32
sS'link'
p69
S'http://www.rediff.com/news/2006/jul/13blasts1.htm'
p70
sS'date'
p71
S'11-07-2006'
p72
sS'target'
p73
S'RAILWAY STATION'
p74
sS'hot_spot'
p75
g32
sS'delivery_mod'
p76
g32
sS'delivery_met'
p77
g32
sS'expl'
p78
(lp79
g32
asS'ORG'
p80
(lp81
(lp82
S'Lashkar-e-Tayiba'
p83
aS'27'
p84
aS'Accused'
p85
aa(lp86
S'LeT'
p87
aS'53'
p88
aS'Accused'
p89
aa(lp90
S'ISI'
p91
aS'61'
p92
aS'Assoc Accused'
p93
aa(lp94
S'PTI'
p95
aS'70'
p96
aS'Others'
p97
aa(lp98
S'LeT'
p99
aS'91'
p100
aS'Accused'
p101
aa(lp102
S'LeT'
p103
aS'111'
p104
aS'Accused'
p105
aa(lp106
S'Union Cabinet'
p107
aS'141'
p108
aS'Others'
p109
aas.