(dp0
S'LOC'
p1
(lp2
(lp3
S'Malegaon'
p4
aS'25'
p5
aS'Event'
p6
aa(lp7
S'Delhi'
p8
aS'189'
p9
aS'Neutral'
p10
aa(lp11
S'Uttar Pradesh'
p12
aS'340'
p13
aS'Neutral'
p14
aa(lp15
S'Malegaon'
p16
aS'425'
p17
aS'Neutral'
p18
aa(lp19
S'Malegaon'
p20
aS'442'
p21
aS'Event'
p22
aa(lp23
S'Hamidiya mosque'
p24
aS'480'
p25
aS'Event'
p26
aa(lp27
S'Bada Qabristan'
p28
aS'483'
p29
aS'Event'
p30
aa(lp31
S'Indore'
p32
aS'497'
p33
aS'Neutral'
p34
aa(lp35
S'Malegaon'
p36
aS'639'
p37
aS'Event'
p38
aa(lp39
S'Pakistan'
p40
aS'698'
p41
aS'Source'
p42
aa(lp43
S'Malegaon'
p44
aS'709'
p45
aS'Accused Location'
p46
aa(lp47
S'Yavatmal'
p48
aS'732'
p49
aS'Accused Location'
p50
aa(lp51
S'India'
p52
aS'806'
p53
aS'Neutral'
p54
aa(lp55
S'Malegaon'
p56
aS'886'
p57
aS'Event'
p58
aasS'PER'
p59
(lp60
(lp61
S'Dhan Singh'
p62
aS'135'
p63
aS'Accused'
p64
aa(lp65
S'Lokesh Sharma'
p66
aS'138'
p67
aS'Accused'
p68
aa(lp69
S'Manohar Singh'
p70
aS'141'
p71
aS'Accused'
p72
aa(lp73
S'Rajendra Chaudhary'
p74
aS'144'
p75
aS'Accused'
p76
aa(lp77
S'Sandeep Dange'
p78
aS'153'
p79
aS'Accused'
p80
aa(lp81
S'Ramji Kalsangra'
p82
aS'156'
p83
aS'Accused'
p84
aa(lp85
S'Raj Mehul'
p86
aS'159'
p87
aS'Accused'
p88
aa(lp89
S'Chaudhary'
p90
aS'171'
p91
aS'Accused'
p92
aa(lp93
S'Dhan Singh'
p94
aS'173'
p95
aS'Accused'
p96
aa(lp97
S'Manohar Singh'
p98
aS'176'
p99
aS'Accused'
p100
aa(lp101
S'Kalsangra'
p102
aS'179'
p103
aS'Accused'
p104
aa(lp105
S'Sharma'
p106
aS'202'
p107
aS'Assoc Accused'
p108
aa(lp109
S'Chaudhary'
p110
aS'218'
p111
aS'Accused'
p112
aa(lp113
S'Mohammed Atif'
p114
aS'297'
p115
aS'Others'
p116
aa(lp117
S'Atif'
p118
aS'311'
p119
aS'Others'
p120
aa(lp121
S'Atif'
p122
aS'331'
p123
aS'Others'
p124
aa(lp125
S'Sunil Joshi'
p126
aS'376'
p127
aS'Others'
p128
aa(lp129
S'Kalsangra'
p130
aS'389'
p131
aS'Others'
p132
aa(lp133
S'Dange'
p134
aS'392'
p135
aS'Others'
p136
aa(lp137
S'Kalsangra'
p138
aS'394'
p139
aS'Others'
p140
aa(lp141
S'Sharma'
p142
aS'396'
p143
aS'Others'
p144
aa(lp145
S'Chaudhary'
p146
aS'406'
p147
aS'Accused'
p148
aa(lp149
S'Dhan'
p150
aS'408'
p151
aS'Accused'
p152
aa(lp153
S'Dhan Singh'
p154
aS'408'
p155
aS'Accused'
p156
aa(lp157
S'Manohar Singh'
p158
aS'411'
p159
aS'Others'
p160
aa(lp161
S'Sharma'
p162
aS'437'
p163
aS'Accused'
p164
aa(lp165
S'Kalsangra'
p166
aS'445'
p167
aS'Accused'
p168
aa(lp169
S'Kalsangra'
p170
aS'461'
p171
aS'Accused'
p172
aa(lp173
S'Dhan Singh'
p174
aS'463'
p175
aS'Accused'
p176
aa(lp177
S'Manohar Singh'
p178
aS'466'
p179
aS'Accused'
p180
aa(lp181
S'Chaudhary'
p182
aS'469'
p183
aS'Accused'
p184
aa(lp185
S'Sharma'
p186
aS'491'
p187
aS'Accused'
p188
aa(lp189
S'P Raghuvanshi'
p190
aS'507'
p191
aS'Others'
p192
aa(lp193
S'Subodh Jaiswal'
p194
aS'511'
p195
aS'Others'
p196
aa(lp197
S'Swami Aseemanand'
p198
aS'605'
p199
aS'Others'
p200
aa(lp201
S'Kalsangra'
p202
aS'635'
p203
aS'Accused'
p204
aa(lp205
S'Dange'
p206
aS'637'
p207
aS'Accused'
p208
aa(lp209
S'Sadhvi Pragya Singh'
p210
aS'652'
p211
aS'Accused'
p212
aa(lp213
S'Srikant Purohit'
p214
aS'659'
p215
aS'Accused'
p216
aa(lp217
S'Muzammil'
p218
aS'704'
p219
aS'Accused'
p220
aa(lp221
S'Noor-ul-Huda'
p222
aS'718'
p223
aS'Accused'
p224
aa(lp225
S'Raees Ali'
p226
aS'720'
p227
aS'Accused'
p228
aa(lp229
S'Abrar Ahmed * Zahid Majeed'
p230
aS'723'
p231
aS'Accused'
p232
aa(lp233
S'Majeed'
p234
aS'752'
p235
aS'Accused'
p236
aa(lp237
S'Shabbir Masiullah'
p238
aS'762'
p239
aS'Accused'
p240
aa(lp241
S'Dhan Singh'
p242
aS'814'
p243
aS'Accused'
p244
aa(lp245
S'Rajender Chaudhary'
p246
aS'817'
p247
aS'Accused'
p248
aa(lp249
S'Ramji Kalsangra'
p250
aS'820'
p251
aS'Accused'
p252
aa(lp253
S'Manohar Singh'
p254
aS'823'
p255
aS'Accused'
p256
aa(lp257
S'Dhan Singh'
p258
aS'826'
p259
aS'Assoc Accused'
p260
aa(lp261
S'Lokesh Sharma'
p262
aS'844'
p263
aS'Assoc Accused'
p264
aa(lp265
S'Sunil Joshi'
p266
aS'859'
p267
aS'Accused'
p268
aa(lp269
S'Kalsangra'
p270
aS'862'
p271
aS'Accused'
p272
aa(lp273
S'Sandeep Dange'
p274
aS'864'
p275
aS'Accused'
p276
aa(lp277
S'Kalsangra'
p278
aS'870'
p279
aS'Accused'
p280
aa(lp281
S'Sharma'
p282
aS'872'
p283
aS'Accused'
p284
aa(lp285
S'Chaudhary'
p286
aS'878'
p287
aS'Accused'
p288
aa(lp289
S'Dhan Singh'
p290
aS'880'
p291
aS'Accused'
p292
aa(lp293
S'Manohar Singh'
p294
aS'883'
p295
aS'Accused'
p296
aa(lp297
S'Majeed Memon'
p298
aS'896'
p299
aS'Others'
p300
aasS'TIM'
p301
(lp302
sS'hot_setting'
p303
S''
p304
sS'DAT'
p305
(lp306
S'2006 : 24'
p307
aS'September 8  : 89'
p308
aS'2006 : 92'
p309
aS'April 2011 : 119'
p310
aS'2007 : 215'
p311
aS'November 2011 : 285'
p312
aS'Friday : 289'
p313
aS'December 21 : 520'
p314
aS'2009 : 572'
p315
aS'November : 624'
p316
aS'2008 : 645'
p317
aS'2008 : 835'
p318
aS'1993 : 902'
p319
asS'death'
p320
S'37'
p321
sS'title'
p322
S'NIA to nail Hindu radicals in Malegaon chargesheet'
p323
sS'org_unorg'
p324
g304
sS'terror_group'
p325
(lp326
g304
asS'content'
p327
VMUMBAI : The country 's premier anti-terror agency is set to file a chargesheet against four ultra-right Hindu activists for carrying out the 2006 Malegaon blasts . The National Investigation Agency 's -LRB- NIA -RRB- probe has knocked the bottom off the Maharashtra anti-terrorism squad 's -LRB- ATS -RRB- case that members of the banned Students Islamic Movement of India -LRB- SIMI -RRB- had carried out the attack . The chargesheet is expected to be filed any time this week . The blasts in the textile town on September 8 , 2006 , when people had gathered to observe the Shab-e-Baraat , had killed 37 people and injured 297 . The NIA , which started the probe in April 2011 on the Union home ministry 's orders , has so far arrested four people Dhan Singh , Lokesh Sharma , Manohar Singh and Rajendra Chaudhary for the blasts . Three others , Sandeep Dange , Ramji Kalsangra and Raj Mehul , are wanted in the case . The agency says Chaudhary , Dhan Singh , Manohar Singh and Kalsangra planted the bombs . A senior NIA official in Delhi refused to give more details citing the sensitivity of the case . Sharma , who is also an accused in the Samjhauta Express blast in 2007 , and Chaudhary were members of the Bajrang Dal . ` There can not be two sets of accused in one crime , ' said an NIA officer , adding the agency was examining if there was a larger conspiracy involved . Another officer said the agency might ask the court to dismiss the charges against the nine people arrested by the ATS . All were granted bail in November 2011 . On Friday , the NIA recorded the statement of Mohammed Atif , a prime witness in the case . The ATS had said Atif had witnessed the attackers making the bomb and later hid in the godown of one of the accused . Atif later told a court in his hometown in Uttar Pradesh that he was forced to give the statement . The NIA says the decision to bomb the textile town was taken by senior members of the right-wing Hindu module , including former RSS pracharak Sunil Joshi , who was later murdered allegedly by his own accomplices ; Kalsangra ; and Dange . Kalsangra and Sharma were tasked with the execution , and they asked Chaudhary , Dhan Singh and Manohar Singh to plant the bombs . The agency says the team first recced Malegaon to identify targets . On the day of the blasts , Sharma drove the team to Malegaon , where Kalsangra gave them the RDX explosive and also clothes to disguise themselves as pious Muslims . Kalsangra accompanied Dhan Singh , Manohar Singh and Chaudhary to place the bombs on bicycles at spots near the Hamidiya mosque at Bada Qabristan where many people had gathered . Sharma then drove them back to Indore . The ATS led by then joint commissioner K P Raghuvanshi and DIG Subodh Jaiswal filed a chargesheet in the case on December 21 the same year . It had taken just 54 days to file the chargesheet ; usually it can take up to 180 days in such cases . The Central Bureau of Investigation , after its own probe , had endorsed the ATS findings . The NIA , set up in 2009 , post the 26/11 Mumbai terror attacks , can deal with terror-related crimes without any special permission from state governments . The agency focused on Hindu right-wing groups after a confession by Swami Aseemanand , arrested in the 2007 Hyderabad Mecca Masjid bomb blast case , it told the court last November . The agency has a Rs 10 lakh reward for Kalsangra and Dange . Malegaon had seen another attack in 2008 allegedly by right-wing Hindu groups . Sadhvi Pragya Singh and former Lt Col Srikant Purohit were later arrested in connection with that attack . ATS 's claims in 2006 * Blasts were carried out by Muslim youths in an attempt to spark communal riots * The RDX for the bombs came from Pakistan and a Pakistani national , Muzammil , assembled them in Malegaon * A bomb each was planted by accused Noor-ul-Huda , Raees Ali and Abrar Ahmed * Zahid Majeed , an imam from Yavatmal , planted a bomb and returned the same day . -LRB- About 250 Yavatmal residents filed affidavits , saying Majeed was in the town at the time -RRB- * Shabbir Masiullah , a battery shop owner , was part of the conspiracy . -LRB- At the time of the blasts , he was in the custody of the Mumbai crime branch in another case -RRB- NIA claims * The RDX was procured in India . The explosives were allegedly planted by Dhan Singh , Rajender Chaudhary , Ramji Kalsangra and Manohar Singh . Dhan Singh also connected with the Samjhauta Express and 2008 Malegaon blasts * Another Samjhauta blast accused , Lokesh Sharma , provided logistical support * The blasts were plotted by former RSS pracharak Sunil Joshi , Kalsangra , Sandeep Dange , and others . Kalsangra and Sharma tasked with the execution * Chaudhary , Dhan Singh and Manohar Singh recced Malegaon to identify the targets Legal Angle Prominent criminal lawyer Majeed Memon , who represented several 1993 bomb blast accused in court , said two ideologically diagonally opposite groups can not be responsible for a particular terror attack . Truth can not have two faces . ` The NIA has to necessarily discharge the earlier set of boys in this case , who were wrongly believed to be involved . ' .
p328
sS'injured'
p329
S'297'
p330
sS'det_loc'
p331
(lp332
S'India'
p333
aS'Maharashtra'
p334
aS'Mumbai-City'
p335
ag304
ag304
asS'O'
p336
(lp337
S'anti-terror agency:7'
p338
aS'chargesheet:14'
p339
aS'four ultra-right hindu activists:16'
p340
aS'malegaon blasts:25'
p341
aS'carried out:65'
p342
aS'attack:68'
p343
aS'shab-e-baraat:101'
p344
aS'killed 37:104'
p345
aS'injured 297:108'
p346
aS"union home ministry 's orders:123"
p347
aS'arrested four people:132'
p348
aS'three others:150'
p349
aS'planted the bombs:180'
p350
aS'senior nia official:185'
p351
aS'samjhauta express blast:211'
p352
aS'granted bail:282'
p353
aS'prime witness:301'
p354
aS'bomb the textile town:357'
p355
aS'senior members:364'
p356
aS'right-wing hindu module:368'
p357
aS'rss pracharak:374'
p358
aS'murdered:382'
p359
aS'accomplices:387'
p360
aS'rdx:449'
p361
aS'clothes:453'
p362
aS'disguise:455'
p363
aS'pious muslims:458'
p364
aS'bombs on bicycles:473'
p365
aS'hamidiya mosque:480'
p366
aS'joint commissioner:504'
p367
aS'dig:510'
p368
aS'54 days:530'
p369
aS'chargesheet:535'
p370
aS'26/11 mumbai terror attacks:576'
p371
aS'2007 hyderabad mecca masjid bomb blast:611'
p372
aS'rs 10 lakh reward:630'
p373
aS'another attack:642'
p374
aS'right-wing hindu groups:648'
p375
aS'former lt col:656'
p376
aS'arrested:663'
p377
aS'2006 * blasts:674'
p378
aS'carried out:678'
p379
aS'muslim youths:681'
p380
aS'spark communal riots:687'
p381
aS'rdx:692'
p382
aS'pakistani national:701'
p383
aS'imam:730'
p384
aS'250 yavatmal residents:745'
p385
aS'filed affidavits:748'
p386
aS'battery shop owner:766'
p387
aS'rdx:802'
p388
aS'samjhauta express:832'
p389
aS'malegaon blasts:836'
p390
aS'samjhauta blast accused:840'
p391
aS'criminal lawyer:894'
p392
aS'1993 bomb blast:902'
p393
asS'unexpl'
p394
(lp395
g304
asS'ocassion'
p396
g304
sS'link'
p397
S'http://timesofindia.indiatimes.com/india/NIA-to-nail-Hindu-radicals-in-Malegaon-chargesheet/articleshow/20020578.cms?referral=PM'
p398
sS'date'
p399
S'08-09-2006'
p400
sS'target'
p401
g304
sS'hot_spot'
p402
g304
sS'delivery_mod'
p403
g304
sS'delivery_met'
p404
g304
sS'expl'
p405
(lp406
S'RDX'
p407
asS'ORG'
p408
(lp409
(lp410
S'National Investigation Agency'
p411
aS'29'
p412
aS'Others'
p413
aa(lp414
S'NIA'
p415
aS'34'
p416
aS'Others'
p417
aa(lp418
S'Maharashtra anti-terrorism squad'
p419
aS'43'
p420
aS'Others'
p421
aa(lp422
S'ATS'
p423
aS'48'
p424
aS'Others'
p425
aa(lp426
S'Students Islamic Movement of India'
p427
aS'56'
p428
aS'Accused'
p429
aa(lp430
S'SIMI'
p431
aS'62'
p432
aS'Accused'
p433
aa(lp434
S'NIA'
p435
aS'112'
p436
aS'Others'
p437
aa(lp438
S'Bajrang Dal'
p439
aS'223'
p440
aS'Others'
p441
aa(lp442
S'NIA'
p443
aS'242'
p444
aS'Others'
p445
aa(lp446
S'ATS'
p447
aS'278'
p448
aS'Others'
p449
aa(lp450
S'NIA'
p451
aS'292'
p452
aS'Others'
p453
aa(lp454
S'ATS'
p455
aS'308'
p456
aS'Others'
p457
aa(lp458
S'NIA'
p459
aS'352'
p460
aS'Others'
p461
aa(lp462
S'ATS'
p463
aS'500'
p464
aS'Others'
p465
aa(lp466
S'Central Bureau of Investigation'
p467
aS'550'
p468
aS'Others'
p469
aa(lp470
S'ATS'
p471
aS'563'
p472
aS'Others'
p473
aa(lp474
S'NIA'
p475
aS'567'
p476
aS'Others'
p477
aa(lp478
S'ATS'
p479
aS'670'
p480
aS'Others'
p481
aa(lp482
S'Mumbai crime branch'
p483
aS'791'
p484
aS'Others'
p485
aa(lp486
S'NIA'
p487
aS'934'
p488
aS'Others'
p489
aas.