(dp0
S'LOC'
p1
(lp2
(lp3
S'Guwahati'
p4
aS'1'
p5
aS'Neutral'
p6
aa(lp7
S'Guwahati'
p8
aS'10'
p9
aS'Neutral'
p10
aa(lp11
S'Dibrugarh'
p12
aS'12'
p13
aS'Neutral'
p14
aa(lp15
S'Kokrajhar'
p16
aS'21'
p17
aS'Event'
p18
aa(lp19
S'Dharmanagar'
p20
aS'46'
p21
aS'Neutral'
p22
aa(lp23
S'Tripura'
p24
aS'48'
p25
aS'Neutral'
p26
aa(lp27
S'Fakiragram'
p28
aS'71'
p29
aS'Neutral'
p30
aa(lp31
S'New Bongaigaon'
p32
aS'259'
p33
aS'Neutral'
p34
aa(lp35
S'Samuktala'
p36
aS'262'
p37
aS'Neutral'
p38
aa(lp39
S'Guwahati'
p40
aS'288'
p41
aS'Neutral'
p42
aa(lp43
S'Dibrugarh'
p44
aS'337'
p45
aS'Neutral'
p46
aa(lp47
S'Guwahati'
p48
aS'347'
p49
aS'Neutral'
p50
aa(lp51
S'Guwahati'
p52
aS'351'
p53
aS'Neutral'
p54
aa(lp55
S'Guwahati'
p56
aS'365'
p57
aS'Neutral'
p58
aa(lp59
S'New Jalpaiguri'
p60
aS'377'
p61
aS'Neutral'
p62
aa(lp63
S'New Cooch Behar'
p64
aS'380'
p65
aS'Neutral'
p66
aa(lp67
S'Guwahati'
p68
aS'388'
p69
aS'Neutral'
p70
aasS'PER'
p71
(lp72
sS'TIM'
p73
(lp74
S'9 pm .:76'
p75
aS'40 minutes : 104'
p76
aS'6 am : 215'
p77
aS'am : 357'
p78
aS'evening : 390'
p79
asS'hot_setting'
p80
S''
p81
sS'DAT'
p82
(lp83
S'June 21:3'
p84
aS'June 21:313'
p85
aS'June 20:340'
p86
aS'June 22:353'
p87
asS'death'
p88
g81
sS'title'
p89
S'Blast disrupts train schedules'
p90
sS'det_loc'
p91
(lp92
S'India'
p93
aS'Assam'
p94
aS'Kokrajhar'
p95
aS'guwahati'
p96
aS'Kokrajhar'
p97
asS'terror_group'
p98
(lp99
S'NATIONAL DEMOCRATIC FRONT OF BODOLAND (NDFB)'
p100
asS'content'
p101
VGuwahati , June 21 : All trains originating from Guwahati and Dibrugarh have been rescheduled because of the blast in Kokrajhar district last night , leading to derailment of a goods train . . . Altogether 10 bogies of a goods train carrying cement to Dharmanagar in Tripura were derailed when suspected militants of the National Democratic Front of Boroland ( NDFB ) triggered a blast on the track between Fakiragram and Sesapani stations at 9 pm . Though there were no casualties , 200 metres of the track was damaged . . . The Guwahati-bound Chennai Express had passed through the area 40 minutes before the blast . . . Police have recovered two bicycles , detonating wires and clothes from a place one-and-a-half km south of the blast site . It was raining heavily when the blast took place . . . Security has been tightened round-the-clock after the incident and a massive manhunt has been launched to nab the culprits . Patrolling on the tracks has been intensified . Railway officials have rushed to the spot . . . NF Railway officials here said work has begun to restore the track , with senior railway engineers supervising at the site . It will take at least 48 hours with effect from 6 am today to restore train services , railways officials said . . . Train services on meter gauge track are continuing as the blast affected the broad gauge track only . The NF Railway is arranging special trains on meter gauge track between New Bongaigaon and Samuktala station to clear stranded passengers of Saraighat Express , Avadh Assam Express and Kanchenjungha Express . . . The 2424 Up Rajdhani Express will reach Guwahati tomorrow after restoration work is completed . A passenger special train will be run in the evening . Passengers who had cancelled tickets on June 21 by 2423 Down will get the preference , railway officials said . . . The 4055 Down Brahmaputra Mail , which left Dibrugarh town on June 20 , will be controlled at Guwahati and will leave Guwahati on June 22 at 4 am . . . The trains coming to Guwahati from other parts of the country are being stopped either at New Jalpaiguri or New Cooch Behar . Some trains which left Guwahati last evening are being brought back as they could not proceed further .
p102
sS'injured'
p103
g81
sS'org_unorg'
p104
S'ORGANISED'
p105
sS'O'
p106
(lp107
S'detonating wires:118'
p108
aS'clothes:121'
p109
asS'unexpl'
p110
(lp111
g81
asS'ocassion'
p112
g81
sS'link'
p113
S'http://www.telegraphindia.com/1030622/asp/northeast/story_2091535.asp'
p114
sS'date'
p115
S'21-06-2003'
p116
sS'target'
p117
S'RAILWAY'
p118
sS'hot_spot'
p119
S'Kokrajhar'
p120
sS'delivery_mod'
p121
S'TRAIN'
p122
sS'delivery_met'
p123
S'PLANTED'
p124
sS'expl'
p125
(lp126
g81
asS'ORG'
p127
(lp128
(lp129
S'National Democratic Front of Boroland'
p130
aS'56'
p131
aS'Accused'
p132
aa(lp133
S'NDFB'
p134
aS'62'
p135
aS'Accused'
p136
aas.