(dp0
S'LOC'
p1
(lp2
(lp3
S'Guwahati'
p4
aS'17'
p5
aS'Neutral'
p6
aa(lp7
S'Guwahati and Tinsukia'
p8
aS'17'
p9
aS'Neutral'
p10
aa(lp11
S'Tinsukia'
p12
aS'19'
p13
aS'Neutral'
p14
aa(lp15
S'Tinsukia in Assam'
p16
aS'19'
p17
aS'Neutral'
p18
aa(lp19
S'Assam'
p20
aS'21'
p21
aS'Assoc Event Location'
p22
aa(lp23
S'Anthgaon'
p24
aS'39'
p25
aS'Event'
p26
aa(lp27
S'Guwahati'
p28
aS'45'
p29
aS'Assoc Event Location'
p30
aa(lp31
S'Devipukhuri'
p32
aS'82'
p33
aS'Event'
p34
aa(lp35
S'Tinsukia'
p36
aS'85'
p37
aS'Event'
p38
aa(lp39
S'Assam'
p40
aS'89'
p41
aS'Neutral'
p42
aa(lp43
S'Bilasipara'
p44
aS'103'
p45
aS'Event'
p46
aa(lp47
S'Dhubri'
p48
aS'106'
p49
aa(lp50
S'Assam'
p51
aS'110'
p52
aS'Neutral'
p53
aasS'PER'
p54
(lp55
sS'TIM'
p56
(lp57
S'6.30 : 48'
p58
asS'hot_setting'
p59
S''
p60
sS'DAT'
p61
(lp62
S'Saunday:50'
p63
aS'Sunday:91'
p64
asS'death'
p65
S'3'
p66
sS'title'
p67
S'Assam: 3 killed, 15 hurt in blasts'
p68
sS'org_unorg'
p69
S'ORGANISED'
p70
sS'terror_group'
p71
(lp72
S'UNITED LIBERATION FRONT OF ASSAM (ULFA)'
p73
asS'content'
p74
VThree persons were killed and over 15 injured in two separtae incidents of bomb blasts in Guwahati and Tinsukia in Assam . . . Police informed that suspected United Liberation Front of Asom militants detonated a bomb at Anthgaon area in the heart of Guwahati at around 6.30 on Saunday evening killing one person and injuring four . . . Two more persons were killed and at least 11 others injured when a bomb went off inside a Maruti car at Devipukhuri area in Tinsukia town of eastern Assam on Sunday evening . . . Militants also triggered a grenade explosion at Bilasipara town in Dhubri district of western Assam . The police cliamed that no one was injurted in the incident . .
p75
sS'injured'
p76
S'15'
p77
sS'det_loc'
p78
(lp79
S'India'
p80
aS'Assam'
p81
aS'Kamrup'
p82
aS'guwahati'
p83
ag60
asS'O'
p84
(lp85
S'bomb:14'
p86
aS'detonated:35'
p87
aS'Militants:96'
p88
aS'grenade explosion:100'
p89
aS'district:107'
p90
asS'unexpl'
p91
(lp92
g60
asS'ocassion'
p93
g60
sS'link'
p94
S'http://www.rediff.com/news/2007/nov/25assam.htm'
p95
sS'date'
p96
S'25-11-2007'
p97
sS'target'
p98
S'CITIZENS'
p99
sS'hot_spot'
p100
g60
sS'delivery_mod'
p101
g60
sS'delivery_met'
p102
S'PLANTED'
p103
sS'expl'
p104
(lp105
S'BOMB'
p106
aS'GRENADE'
p107
asS'ORG'
p108
(lp109
(lp110
S'United Liberation Front of Asom'
p111
aS'29'
p112
aS'Accused'
p113
aS'Others'
p114
aas.