(dp0
S'LOC'
p1
(lp2
(lp3
S'Agartala'
p4
aS'13'
p5
aS'Neutral'
p6
aa(lp7
S'Tripura'
p8
aS'30'
p9
aS'Neutral'
p10
aa(lp11
S'Tripura'
p12
aS'96'
p13
aS'Neutral'
p14
aasS'PER'
p15
(lp16
(lp17
S'Prakash Karat'
p18
aS'82'
p19
aS'Comment'
p20
aa(lp21
S'Karat'
p22
aS'114'
p23
aS'Comment'
p24
aa(lp25
S'Manik Sarkar'
p26
aS'139'
p27
aS'Others'
p28
aasS'TIM'
p29
(lp30
sS'hot_setting'
p31
S''
p32
sS'DAT'
p33
(lp34
S'Oct 02 : 4'
p35
aS'Thursday:21'
p36
asS'death'
p37
g32
sS'title'
p38
S'CPI(M) asks Centre to extend help to blast-hit Tripura'
p39
sS'org_unorg'
p40
g32
sS'terror_group'
p41
(lp42
g32
asS'content'
p43
VNew Delhi , Oct 02 : Condemning the serial bomb blasts in Agartala , the CPI ( M ) on Thursday asked the Centre to extend all help to Tripura government in tracking down the culprits behind the attack . ` The central government should extend all help to the state government in tracking down the culprits behind this attack especially in view of the fact that the state has international borders on its three sides , ' party General Secretary Prakash Karat said here . . . Noting that the Left Front government in Tripura has registered significant success in tackling the extremist groups who used to resort to terrorist violence , Karat said the explosions must be seen as an attempt to destabilise the situation . . . He said he had spoken to Chief Minister Manik Sarkar and till noon no one has died in connection with the blasts in which 73 people were injured . . . Bureau Report .
p44
sS'injured'
p45
S'73'
p46
sS'det_loc'
p47
(lp48
S'India'
p49
aS'Tripura'
p50
ag32
aS'Agartala'
p51
ag32
asS'O'
p52
(lp53
S'serial bomb blasts:9'
p54
aS'culprits:36'
p55
aS'attack:39'
p56
aS'culprits:57'
p57
aS'international borders:71'
p58
aS'extremist groups:104'
p59
aS'terrorist violence:111'
p60
aS'explosions:117'
p61
aS'blasts:152'
p62
aS'injured:158'
p63
asS'unexpl'
p64
(lp65
g32
asS'ocassion'
p66
g32
sS'link'
p67
S'http://zeenews.india.com/home/cpim-asks-centre-to-extend-help-to-blast-hit-tripura_473515.html'
p68
sS'date'
p69
S'02-10-2008'
p70
sS'target'
p71
S'CITY'
p72
sS'hot_spot'
p73
g32
sS'delivery_mod'
p74
g32
sS'delivery_met'
p75
S'PLANTED'
p76
sS'expl'
p77
(lp78
g32
asS'ORG'
p79
(lp80
(lp81
S'CPI'
p82
aS'16'
p83
aS'Others'
p84
aa(lp85
S'M'
p86
aS'18'
p87
aS'Others'
p88
aa(lp89
S'Centre'
p90
aS'24'
p91
aS'Others'
p92
aa(lp93
S'Tripura government'
p94
aS'30'
p95
aS'Others'
p96
aa(lp97
S'central government'
p98
aS'43'
p99
aS'Others'
p100
aa(lp101
S'state government'
p102
aS'51'
p103
aS'Others'
p104
aa(lp105
S'Left Front government'
p106
aS'92'
p107
aS'Others'
p108
aas.