(dp0
S'LOC'
p1
(lp2
(lp3
S'New Delhi'
p4
aS'1'
p5
aS'Neutral'
p6
aa(lp7
S'Jaipur'
p8
aS'16'
p9
aS'Event'
p10
aa(lp11
S'U.S.'
p12
aS'34'
p13
aS'Neutral'
p14
aa(lp15
S'India'
p16
aS'37'
p17
aS'Neutral'
p18
aa(lp19
S'Islamabad'
p20
aS'63'
p21
aS'Neutral'
p22
aa(lp23
S'Pakistan'
p24
aS'65'
p25
aS'Neutral'
p26
aa(lp27
S'Pakistan'
p28
aS'77'
p29
aS'Neutral'
p30
aasS'PER'
p31
(lp32
(lp33
S'David Mulford'
p34
aS'38'
p35
aS'Comment'
p36
aa(lp37
S'Yousuf Raza Gilani'
p38
aS'68'
p39
aS'Comment'
p40
aa(lp41
S'Shah Mahmood Qureshi'
p42
aS'108'
p43
aS'Comment'
p44
aa(lp45
S'Muttahida Qaumi'
p46
aS'125'
p47
aS'Comment'
p48
aa(lp49
S'Altaf Hussain'
p50
aS'129'
p51
aS'Comment'
p52
aasS'TIM'
p53
(lp54
S'night : 47'
p55
asS'hot_setting'
p56
S''
p57
sS'DAT'
p58
(lp59
S'Tuesday:46'
p60
asS'death'
p61
g57
sS'title'
p62
S'Vicious act of terrorism: U.S.'
p63
sS'org_unorg'
p64
S'ORGANISED'
p65
sS'terror_group'
p66
(lp67
g57
asS'content'
p68
VNew Delhi : The United States has strongly condemned the vicious act of terrorism in Jaipur . . . There can be no possible justification for the murderous attack on innocent people , U.S. Ambassador to India David Mulford said in a statement here on Tuesday night . He extended deepest sympathies to the families of the victims . . . In Islamabad , Pakistan Prime Minister Yousuf Raza Gilani strongly condemned the bomb blasts . Pakistan condemns all acts of terrorism and reaffirms its firm commitment to fight this scourge together with the international community , he said in a message . . . Foreign Minister Shah Mahmood Qureshi expressed his condolences and sympathies to the families of the victims . . . Muttahida Qaumi Movement chief Altaf Hussain said those involved in such attacks were not human . Through such activities , terrorists were trying to disturb the peace of the region , said an MQM statement . PTI .
p69
sS'injured'
p70
g57
sS'det_loc'
p71
(lp72
S'India'
p73
aS'Rajasthan'
p74
aS'Jaipur'
p75
aS'Jaipur'
p76
aS'Jaipur'
p77
asS'O'
p78
(lp79
S'Prime Minister:66'
p80
aS'Foreign Minister:106'
p81
asS'unexpl'
p82
(lp83
g57
asS'ocassion'
p84
g57
sS'link'
p85
S'http://www.thehindu.com/todays-paper/vicious-act-of-terrorism-us/article1258115.ece'
p86
sS'date'
p87
S'13-05-2008'
p88
sS'target'
p89
g57
sS'hot_spot'
p90
S'Jaipur'
p91
sS'delivery_mod'
p92
g57
sS'delivery_met'
p93
S'PLANTED'
p94
sS'expl'
p95
(lp96
g57
asS'ORG'
p97
(lp98
(lp99
S'PTI'
p100
aS'161'
p101
aS'Others'
p102
aas.