(dp0
S'LOC'
p1
(lp2
(lp3
S'Nanded'
p4
aS'9'
p5
aS'Event'
p6
aa(lp7
S'MUMBAI'
p8
aS'46'
p9
aS'Event'
p10
aa(lp11
S'Nanded'
p12
aS'52'
p13
aS'Event'
p14
aa(lp15
S'Malegaon'
p16
aS'186'
p17
aS'Event'
p18
aa(lp19
S'Nanded'
p20
aS'204'
p21
aS'Event'
p22
aa(lp23
S'Nanded'
p24
aS'248'
p25
aS'Event'
p26
aa(lp27
S'Malegaon'
p28
aS'250'
p29
aS'Event'
p30
aa(lp31
S'Malegaon'
p32
aS'317'
p33
aS'Event'
p34
aa(lp35
S'New Delhi'
p36
aS'342'
p37
aS'Neutral'
p38
aa(lp39
S'Nanded'
p40
aS'366'
p41
aS'Event'
p42
aa(lp43
S'Maharashtra'
p44
aS'381'
p45
aS'Accused Location'
p46
aa(lp47
S'Malegaon'
p48
aS'391'
p49
aS'Event'
p50
aa(lp51
S'Maharashtra'
p52
aS'404'
p53
aS'Accused Location'
p54
aa(lp55
S'Nanded'
p56
aS'459'
p57
aS'Event'
p58
aa(lp59
S'Akanksha Resort'
p60
aS'500'
p61
aS'Accused Location'
p62
aa(lp63
S'Sinhagad'
p64
aS'503'
p65
aS'Neutral'
p66
aa(lp67
S'Pune'
p68
aS'505'
p69
aS'Accused Location'
p70
aa(lp71
S'Pune'
p72
aS'602'
p73
aS'Accused Location'
p74
aa(lp75
S'Pune'
p76
aS'654'
p77
aS'Accused Location'
p78
aasS'PER'
p79
(lp80
(lp81
S'Meena Menon'
p82
aS'1'
p83
aS'Accused'
p84
aa(lp85
S'Mithun Chakravarty'
p86
aS'5'
p87
aS'Accused'
p88
aa(lp89
S'Chakravarty'
p90
aS'17'
p91
aS'Accused'
p92
aa(lp93
S'Himanshu Panse'
p94
aS'36'
p95
aS'Accused'
p96
aa(lp97
S'Mithun Chakravarty'
p98
aS'73'
p99
aS'Accused'
p100
aa(lp101
S'K.P. Raghuvanshi'
p102
aS'108'
p103
aa(lp104
S'Chakravarty'
p105
aS'115'
p106
aS'Accused'
p107
aa(lp108
S'Chakravarty'
p109
aS'127'
p110
aS'Accused'
p111
aa(lp112
S'Himanshu Panse'
p113
aS'153'
p114
aS'Accused'
p115
aa(lp116
S'Raghuvanshi'
p117
aS'169'
p118
aS'Comment'
p119
aa(lp120
S'Teesta Setalvad'
p121
aS'196'
p122
aS'Accused'
p123
aa(lp124
S'Chakravarty'
p125
aS'213'
p126
aS'Accused'
p127
aa(lp128
S'Chakravarty'
p129
aS'257'
p130
aS'Accused'
p131
aa(lp132
S'Arun Kumar'
p133
aS'291'
p134
aS'Comment'
p135
aa(lp136
S'Shrikant Prasad Purohit'
p137
aS'309'
p138
aS'Accused'
p139
aa(lp140
S'Arun Kumar'
p141
aS'326'
p142
aS'Comment'
p143
aa(lp144
S'R. K. Gaur'
p145
aS'349'
p146
aS'Comment'
p147
aa(lp148
S'Mithun Chakravarty'
p149
aS'463'
p150
aS'Accused'
p151
aa(lp152
S'Maruti Keshav'
p153
aS'484'
p154
aS'Accused'
p155
aa(lp156
S'Wagh'
p157
aS'486'
p158
aS'Accused'
p159
aa(lp160
S'Himanshu Panse'
p161
aS'488'
p162
aS'Accused'
p163
aa(lp164
S'Sanjay Choudhari'
p165
aS'491'
p166
aS'Accused'
p167
aa(lp168
S'Yogesh Ravindra Vidulkar'
p169
aS'494'
p170
aS'Accused'
p171
aa(lp172
S'Chakravarty'
p173
aS'510'
p174
aS'Accused'
p175
aa(lp176
S'Chakravarty'
p177
aS'541'
p178
aS'Accused'
p179
aa(lp180
S'Himanshu Panse'
p181
aS'543'
p182
aS'Accused'
p183
aa(lp184
S'Sanjay Choudhari'
p185
aS'568'
p186
aS'Accused'
p187
aa(lp188
S'Rahul Manohar Pande'
p189
aS'574'
p190
aS'Accused'
p191
aa(lp192
S'Pande'
p193
aS'584'
p194
aS'Comment'
p195
aa(lp196
S'Mithun Chakravarty'
p197
aS'599'
p198
aS'Accused'
p199
aa(lp200
S'Sanjay Choudhari'
p201
aS'611'
p202
aS'Accused'
p203
aa(lp204
S'Himanshu'
p205
aS'627'
p206
aS'Accused'
p207
aa(lp208
S'Mithun Chakraborthy'
p209
aS'632'
p210
aS'Accused'
p211
aasS'TIM'
p212
(lp213
sS'hot_setting'
p214
S''
p215
sS'DAT'
p216
(lp217
S'April 2006:50'
p218
aS'September 29 , 2008 : 182'
p219
aS'March 15 , 2008 : 374'
p220
aS'November 9:452'
p221
aS'2003:498'
p222
asS'death'
p223
g215
sS'title'
p224
S'CBI looking for links between Nanded and Malegaon blasts'
p225
sS'org_unorg'
p226
S'ORGANISED'
p227
sS'terror_group'
p228
(lp229
g215
asS'content'
p230
VMeena Menon . . Mithun Chakravarty named in Nanded case remains unidentified , untraceable . . Chakravarty trained the accused in bomb making : police . . But no one seems to know him except Himanshu Panse , who was killed in blast . . MUMBAI : In the April 2006 Nanded blast case , a mysterious name kept cropping up in the course of investigations . More than one accused named Mithun Chakravarty , referred to as Sir . . . However , this man was never traced . The former Anti-Terrorism Squad -LRB- ATS -RRB- chief and now Additional Director - General of Police , K.P. Raghuvanshi , told The Hindu that Chakravarty was not identified , nor was he traceable . . . Chakravarty was the man who trained the accused in making bombs , the police official said . . . No one seemed to know him except Himanshu Panse , who was one of the two persons killed in the blast . Mr. Raghuvanshi said the blast was caused by Hindu fundamentalists and even in the September 29 , 2008 Malegaon incident , it appeared so . . . Activist Teesta Setalvad , who has been monitoring the Nanded case , has written in Communalism Combat that Chakravarty was excluded from the scope of further investigation even after the Central Bureau of Investigation had taken over the case from the ATS . Now the CBI is trying to find links between the Nanded and Malegaon blasts and there is speculation that Chakravarty could be the missing link . . . Right-wing involvement . . According to sources , the two blasts point to the involvement of right-wing groups . While nothing is official , Mr. Arun Kumar , CBI Joint Director , who is in the city , has reportedly questioned Lt. Col. Shrikant Prasad Purohit , an accused in the Malegaon blast case . When contacted , all Mr. Arun Kumar would say on record was that the CBI had issued a four-line statement from New Delhi . . . According to R. K. Gaur , press information officer , the statement read : The CBI has investigated the Nanded blasts and filed a charge sheet on March 15 , 2008 . The ATS Maharashtra has arrested nine persons during the investigations of the Malegaon bomb blast case . The CBI has established informal interaction with the Maharashtra ATS in connection with the investigation . The ATS is doing investigation into the sensitive case in a very professional manner . In case they require any assistance , the CBI is ready to provide all cooperation . . . In the supplementary charge sheet filed on November 9 by the ATS in the Nanded blast case , Mithun Chakravarty is mentioned as the person who trained the accused in making pipe bombs . He also trained the accused Maruti Keshav Wagh , Himanshu Panse , Sanjay Choudhari and Yogesh Ravindra Vidulkar in 2003 at Akanksha Resort near Sinhagad in Pune district . . . Chakravarty trained all these men in making three types of bombs including an improvised explosive device . The men learnt how to prepare bombs and explode them during the training . Chakravarty gave Himanshu Panse explosives at the end of the training . . . His name cropped up even in the reports on narco analysis done on Sanjay Choudhari and another accused , Rahul Manohar Pande . On preparation of the bomb , Pande said two persons had given training to Panse ; one of them was named Mithun Chakravarty from Pune . . . During the narco analysis on Sanjay Choudhari , he said the person who had given them training was called Sir by Himanshu and his name is Mithun Chakraborthy who had a beard , was tall and stout built and while returning , from the training , at the Pune railway station , he gave a bag which contained material used for preparing the bomb .
p231
sS'injured'
p232
g215
sS'det_loc'
p233
(lp234
S'India'
p235
aS'Maharashtra'
p236
ag215
aS'Nanded'
p237
aS'Nanded'
p238
asS'O'
p239
(lp240
S'Additional Director:101'
p241
aS'Hindu:113'
p242
aS'Hindu:176'
p243
aS'Communalism Combat:210'
p244
aS'Joint Director:295'
p245
aS'supplementary charge:447'
p246
aS'Panse:592'
p247
aS'railway station:655'
p248
asS'unexpl'
p249
(lp250
g215
asS'ocassion'
p251
g215
sS'link'
p252
S'http://www.thehindu.com/todays-paper/cbi-looking-for-links-between-nanded-and-malegaon-blasts/article1372671.ece'
p253
sS'date'
p254
S'09-11-2008'
p255
sS'target'
p256
g215
sS'hot_spot'
p257
S'Nanded'
p258
sS'delivery_mod'
p259
g215
sS'delivery_met'
p260
S'PLANTED'
p261
sS'expl'
p262
(lp263
g215
asS'ORG'
p264
(lp265
(lp266
S'police'
p267
aS'25'
p268
aS'Others'
p269
aa(lp270
S'Anti-Terrorism Squad'
p271
aS'93'
p272
aS'Others'
p273
aa(lp274
S'ATS'
p275
aS'96'
p276
aS'Others'
p277
aa(lp278
S'Police'
p279
aS'106'
p280
aS'Others'
p281
aa(lp282
S'police'
p283
aS'140'
p284
aS'Others'
p285
aa(lp286
S'Central Bureau of Investigation'
p287
aS'225'
p288
aS'Others'
p289
aa(lp290
S'ATS'
p291
aS'236'
p292
aS'Others'
p293
aa(lp294
S'CBI'
p295
aS'240'
p296
aS'Others'
p297
aa(lp298
S'CBI'
p299
aS'294'
p300
aS'Others'
p301
aa(lp302
S'CBI'
p303
aS'335'
p304
aS'Others'
p305
aa(lp306
S'CBI'
p307
aS'362'
p308
aS'Others'
p309
aa(lp310
S'ATS'
p311
aS'380'
p312
aS'Others'
p313
aa(lp314
S'CBI'
p315
aS'397'
p316
aS'Others'
p317
aa(lp318
S'ATS'
p319
aS'405'
p320
aS'Others'
p321
aa(lp322
S'ATS'
p323
aS'413'
p324
aS'Others'
p325
aa(lp326
S'CBI'
p327
aS'435'
p328
aS'Others'
p329
aa(lp330
S'ATS'
p331
aS'456'
p332
aS'Others'
p333
aas.