(dp0
S'LOC'
p1
(lp2
(lp3
S'Uttar Pradesh'
p4
aS'29'
p5
aS'Event'
p6
aa(lp7
S'West Bengal'
p8
aS'35'
p9
aS'Neutral'
p10
aa(lp11
S'Varanasi'
p12
aS'83'
p13
aS'Event'
p14
aa(lp15
S'UP'
p16
aS'99'
p17
aS'Event'
p18
aa(lp19
S'Malda'
p20
aS'108'
p21
aS'Neutral'
p22
aa(lp23
S'West Bengal'
p24
aS'110'
p25
aS'Neutral'
p26
aa(lp27
S'Varanasi'
p28
aS'125'
p29
aS'Neutral'
p30
aa(lp31
S'West Bengal'
p32
aS'154'
p33
aS'Neutral'
p34
aa(lp35
S'UP'
p36
aS'160'
p37
aS'Event'
p38
aa(lp39
S'Varanasi'
p40
aS'179'
p41
aS'Event'
p42
aa(lp43
S'Sankat Mochan'
p44
aS'181'
p45
aS'Event'
p46
aa(lp47
S'Varanasi'
p48
aS'207'
p49
aS'Event'
p50
aa(lp51
S'Barabanki railway station'
p52
aS'229'
p53
aS'Neutral'
p54
aa(lp55
S'Gorakhpur'
p56
aS'240'
p57
aS'Neutral'
p58
aa(lp59
S'Faizabad'
p60
aS'256'
p61
aS'Neutral'
p62
aa(lp63
S'Varanasi'
p64
aS'258'
p65
aS'Event'
p66
aa(lp67
S'Lucknow'
p68
aS'260'
p69
aS'Neutral'
p70
aa(lp71
S'Lucknow'
p72
aS'289'
p73
aS'Neutral'
p74
aa(lp75
S'Faizabad'
p76
aS'291'
p77
aS'Neutral'
p78
aa(lp79
S'UP'
p80
aS'311'
p81
aS'Event'
p82
aa(lp83
S'Andhra Pradesh'
p84
aS'320'
p85
aS'Neutral'
p86
aa(lp87
S'Rajasthan'
p88
aS'323'
p89
aS'Neutral'
p90
aa(lp91
S'Gujarat'
p92
aS'325'
p93
aS'Neutral'
p94
aa(lp95
S'Maharashtra'
p96
aS'327'
p97
aS'Neutral'
p98
aa(lp99
S'UP'
p100
aS'335'
p101
aS'Event'
p102
aa(lp103
S'Hyderabad'
p104
aS'387'
p105
aS'Event'
p106
aa(lp107
S'Gokul Chat'
p108
aS'388'
p109
aS'Event'
p110
aa(lp111
S'Hyderabad'
p112
aS'430'
p113
aS'Event'
p114
aa(lp115
S'Faizabad'
p116
aS'439'
p117
aS'Neutral'
p118
aa(lp119
S'Varanasi'
p120
aS'441'
p121
aS'Event'
p122
aa(lp123
S'Lucknow'
p124
aS'443'
p125
aS'Neutral'
p126
aa(lp127
S'Gokul Chat'
p128
aS'484'
p129
aS'Event'
p130
aa(lp131
S'Sultan Bazaar'
p132
aS'487'
p133
aS'Neutral'
p134
aa(lp135
S'Hyderabad'
p136
aS'491'
p137
aS'Event'
p138
aa(lp139
S'Faizabad'
p140
aS'494'
p141
aS'Event'
p142
aa(lp143
S'UP'
p144
aS'514'
p145
aS'Event'
p146
aa(lp147
S'UP'
p148
aS'652'
p149
aS'Event'
p150
aa(lp151
S'Andhra Pradesh'
p152
aS'673'
p153
aS'Event'
p154
aasS'PER'
p155
(lp156
(lp157
S'Mukhtar'
p158
aS'65'
p159
aS'Accused'
p160
aa(lp161
S'Raju'
p162
aS'68'
p163
aS'Accused'
p164
aa(lp165
S'Mukhtar'
p166
aS'103'
p167
aS'Accused'
p168
aa(lp169
S'Mukhtar'
p170
aS'158'
p171
aS'Accused'
p172
aa(lp173
S'Waliullah'
p174
aS'172'
p175
aS'Accused'
p176
aa(lp177
S'Mukhtar'
p178
aS'197'
p179
aS'Accused'
p180
aa(lp181
S'Mohammad Tariq'
p182
aS'222'
p183
aS'Accused'
p184
aa(lp185
S'Khalid Mujahid'
p186
aS'225'
p187
aS'Accused'
p188
aa(lp189
S'Md Tariq'
p190
aS'269'
p191
aS'Accused'
p192
aa(lp193
S'Unani'
p194
aS'274'
p195
aS'Others'
p196
aa(lp197
S'Khalid Mujahid'
p198
aS'278'
p199
aS'Others'
p200
aa(lp201
S'Tariq'
p202
aS'295'
p203
aS'Accused'
p204
aa(lp205
S'Brij Lal'
p206
aS'373'
p207
aS'Others'
p208
aa(lp209
S'Balwinder Singh'
p210
aS'505'
p211
aS'Others'
p212
aasS'TIM'
p213
(lp214
S'morning : 38'
p215
asS'hot_setting'
p216
S''
p217
sS'DAT'
p218
(lp219
S'November 23:20'
p220
aS'March 7 , 2006 : 185'
p221
aS'2006:206'
p222
aS'May 2007 : 238'
p223
aS'November 23:247'
p224
aS'August 25:432'
p225
aS'November 23:445'
p226
asS'death'
p227
S'9'
p228
sS'title'
p229
S'UP serial blasts: HuJI militant held in W Bengal'
p230
sS'org_unorg'
p231
S'ORGANISED'
p232
sS'terror_group'
p233
(lp234
S'HUJI'
p235
asS'content'
p236
VLucknow , Dec 29 ( UNI ) A HuJI militant , suspected of being a third conspirator of the November 23 serial blasts which rocked three courts in Uttar Pradesh , was arrested in West Bengal this morning . . . Uttar Pradesh Special Task Force ( STF ) officials today said the West Bengal police , on their tip-off , arrested HuJI militant Mukhtar , alias Raju , suspected to be the third conspirator behind the serial blasts which rocked the Varanasi district court premises apart apart from the serial bomb blasts in three civil courts of UP . . . Mukhtar , a native of Malda in West Bengal , is said to be the main conspirator of three blasts on the Varanasi civil court premises in which nine people were killed and more than 40 others wounded . . . Sources said the STF team had already been sent to West Bengal to bring Mukhtar to UP on transit remand for further interrogation . . . Earlier , Waliullah , the main accused in the Varanasi 's Sankat Mochan blast of March 7 , 2006 , had also admitted during his interrogation that Mukhtar had supplied him the explosives used in the 2006 Varanasi blast . . . Last week , the STF had arrested two terrorists -- Mohammad Tariq and Khalid Mujahid -- from Barabanki railway station who were the conspirators of the May 2007 Gorakhpur blast and the serial blasts of November 23 which rocked the civil court premises in Faizabad , Varanasi and Lucknow , killing 13 and injuring 70 others . Md Tariq , a practising Unani doctor , and Khalid Mujahid , a madrasa teacher , were involved in the Lucknow and Faizabad blast respectively . Tariq was also the ` intizamia ' ( logistics ) wing head of the HuJI in UP . . . Meanwhile , police teams from Andhra Pradesh , Rajasthan , Gujarat and Maharashtra interrogated the two HuJI terrorists arrested in UP last week in connection with the blasts which had torn through various districts of their states in the recent past . . . Early this week , Additional Director General of Police ( Crime/Law and Order/STF ) Brij Lal confirmed that the table alarm clock and the battery used in the Hyderabad Gokul Chat blast and the Faizabad civil court blast were of a similar brand . . . The newly set-up Anti-Terrorist Squad of the state police was in touch with the Hyderabad police to track down similarities in the blasts which rocked Hyderabad on August 25 and the civil courts in Faizabad , Varanasi and Lucknow on November 23 . . . '' The inputs provided by the Hyderabad police suggest that terrorists had used ` Prince ' brand analogue table alarm clock and ` HW ' brand 12 volts battery to trigger the blasts at Gokul Chat in Sultan Bazaar area of Hyderabad and the Faizabad cycle blast , '' he said . Hyderabad Police Commissioner Balwinder Singh had discussed the issue his counterparts in UP yesterday . . . The ADG claimed that while the timer device used in the Varanasi civil court blast was damaged , the bomb detection and disposal squad ( BDDS ) could not take down details of an unexploded bomb found on the Lucknow civil court premises and later detonated it . '' The timer device was damaged when the bomb was detonated in a secluded spot ... the type of timer device on the other bomb which ripped through the Lucknow court earlier could not be ascertained either , '' he said . . . The bombs were apparently triggered using the alarm mechanism of the table clocks , he added . . . While a cocktail of RDX , charcoal and niterates mixed with oil-based emulsion to prevent seepage of water was used in the UP cycle blasts , the terrorists had used ` neogil 90 ' and other chemicals to set off blasts in the Andhra Pradesh capital . . . .
p237
sS'injured'
p238
S'40'
p239
sS'det_loc'
p240
(lp241
S'India'
p242
aS'Uttar Pradesh'
p243
aS'Lucknow'
p244
aS'Uttar Pradesh'
p245
aS'Uttar Pradesh'
p246
asS'O'
p247
(lp248
S'madrasa teacher:282'
p249
aS'alarm clock:379'
p250
aS'battery:383'
p251
aS'RDX:634'
p252
asS'unexpl'
p253
(lp254
g217
asS'ocassion'
p255
g217
sS'link'
p256
S'http://www.oneindia.com/2007/12/29/up-serial-blasts-huji-militant-held-in-w-bengal-1198913551.html'
p257
sS'date'
p258
S'23-11-2007'
p259
sS'target'
p260
S'HIGH COURT'
p261
sS'hot_spot'
p262
S'Uttar Pradesh'
p263
sS'delivery_mod'
p264
g217
sS'delivery_met'
p265
S'PLANTED'
p266
sS'expl'
p267
(lp268
g217
asS'ORG'
p269
(lp270
(lp271
S'HuJI'
p272
ag228
aS'Accused'
p273
aa(lp274
S'Uttar Pradesh Special Task Force'
p275
aS'42'
p276
aS'Others'
p277
aa(lp278
S'STF'
p279
aS'48'
p280
aS'Others'
p281
aa(lp282
S'West Bengal police'
p283
aS'54'
p284
aS'Others'
p285
aa(lp286
S'HuJI'
p287
aS'63'
p288
aS'Accused'
p289
aa(lp290
S'STF'
p291
aS'147'
p292
aS'Others'
p293
aa(lp294
S'STF'
p295
aS'216'
p296
aS'Others'
p297
aa(lp298
S'HuJI'
p299
aS'309'
p300
aS'Accused'
p301
aa(lp302
S'HuJI'
p303
aS'331'
p304
aS'Accused'
p305
aa(lp306
S'Faizabad civil court'
p307
aS'393'
p308
aS'Others'
p309
aa(lp310
S'Anti-Terrorist Squad'
p311
aS'408'
p312
aS'Others'
p313
aa(lp314
S'Hyderabad police'
p315
aS'419'
p316
aS'Others'
p317
aa(lp318
S'Hyderabad police'
p319
aS'456'
p320
aS'Others'
p321
aa(lp322
S'Hyderabad Police'
p323
aS'502'
p324
aS'Others'
p325
aa(lp326
S'Varanasi civil court'
p327
aS'530'
p328
aS'Others'
p329
aa(lp330
S'BDDS'
p331
aS'544'
p332
aS'Others'
p333
aa(lp334
S'Lucknow civil court'
p335
aS'558'
p336
aS'Others'
p337
aa(lp338
S'Lucknow court'
p339
aS'596'
p340
aS'Others'
p341
aas.