(dp0
S'LOC'
p1
(lp2
(lp3
S'Assam'
p4
aS'8'
p5
aS'Neutral'
p6
aa(lp7
S'Dibrugarh'
p8
aS'19'
p9
aS'Neutral'
p10
aa(lp11
S'Kamrup'
p12
aS'62'
p13
aS'Neutral'
p14
aa(lp15
S'Dibrugarh'
p16
aS'223'
p17
aS'Neutral'
p18
aasS'PER'
p19
(lp20
(lp21
S'Manik Chandra Sarma'
p22
aS'93'
p23
aS'Others'
p24
aasS'TIM'
p25
(lp26
S'evening : 226'
p27
asS'hot_setting'
p28
S''
p29
sS'DAT'
p30
(lp31
sS'death'
p32
S'1'
p33
sS'title'
p34
S'Security beefed up in Assam after blast'
p35
sS'org_unorg'
p36
g29
sS'terror_group'
p37
(lp38
g29
asS'content'
p39
VGuwahati : Security has been tightened across Assam in the wake of bomb blast by suspected militants in Dibrugarh district , in which a teenage girl was killed and nine persons injured . . . All district authorities have been directed to step up security and intensify patrolling to prevent further outbreak of violence , official sources said . . . Kamrup district administration has imposed prohibitory orders across the district to prevent unlawful and disruptive activities by any insurgent outfits . . . The order , issued by Additional District Magistrate Manik Chandra Sarma , prohibits gathering of more than five persons and carrying of arms and ammunition in public places . . . The authorities have also prohibited taking out of processions , slogan shouting and use of loudspeakers in public places . . . Entry within an area of 100 metres of vital installations like refineries , oil pipelines , state electricity board offices , BSNL offices and LPG bottling plants was also prohibited . . . The order also prohibits pillion riding on two-wheelers , though patients on way to hospitals , security forces , people above the age of 65 years and children below 12 years have been exempted from the purview of the bandh . . . The crude bomb was exploded by suspected militants in Dibrugarh town last evening , killing a teenage girl and injuring nine persons , including a woman .
p40
sS'injured'
p41
S'9'
p42
sS'det_loc'
p43
(lp44
S'India'
p45
aS'Assam'
p46
aS'Dibrugarh'
p47
ag29
ag29
asS'O'
p48
(lp49
S'bomb blast:13'
p50
aS'militants:17'
p51
aS'killed:28'
p52
aS'injured:32'
p53
aS'intensify patrolling:47'
p54
aS'violence:54'
p55
aS'insurgent outfits:80'
p56
aS'arms and ammunition:107'
p57
aS'slogan:126'
p58
aS'refineries:149'
p59
aS'oil pipelines:151'
p60
aS'lpg:162'
p61
aS'bandh:210'
p62
aS'crude bomb:215'
p63
aS'militants:221'
p64
asS'unexpl'
p65
(lp66
g29
asS'ocassion'
p67
g29
sS'link'
p68
S'http://zeenews.india.com/news/assam/security-beefed-up-in-assam-after-blast_897765.html'
p69
sS'date'
p70
S'18-12-2013'
p71
sS'target'
p72
S'PUBLIC PLACES'
p73
sS'hot_spot'
p74
g29
sS'delivery_mod'
p75
g29
sS'delivery_met'
p76
S'PLANTED'
p77
sS'expl'
p78
(lp79
S'CRUDE BOMB'
p80
asS'ORG'
p81
(lp82
(lp83
S'state electricity board'
p84
aS'154'
p85
aS'Others'
p86
aa(lp87
S'BSNL'
p88
aS'159'
p89
aS'Others'
p90
aas.