(dp0
S'LOC'
p1
(lp2
(lp3
S'Rishikesh'
p4
aS'13'
p5
aS'Event'
p6
aa(lp7
S'Dehradun'
p8
aS'15'
p9
aS'Event'
p10
aa(lp11
S'Dehradun'
p12
aS'23'
p13
aS'Event'
p14
aasS'PER'
p15
(lp16
(lp17
S'S Bhagel'
p18
aS'50'
p19
aS'Comment'
p20
aasS'TIM'
p21
(lp22
S'2 am:43'
p23
aS'am:44'
p24
asS'hot_setting'
p25
S''
p26
sS'DAT'
p27
(lp28
S'Friday:17'
p29
aS'Friday morning:17'
p30
asS'death'
p31
S'2'
p32
sS'title'
p33
S'Two killed in bomb explosion in Dehradun: Police'
p34
sS'org_unorg'
p35
g26
sS'terror_group'
p36
(lp37
g26
asS'content'
p38
VTwo persons were killed when a bomb exploded in a bus at Rishikesh in Dehradun on Friday morning , police said in Dehradun . . . The bus driver and conductor were blown to pieces in the blast which occurred at around 2 am , superintendent of police S S Bhagel said . . . The explosion occurred after the passengers had alighted , he said.Bureau Report .
p39
sS'injured'
p40
g26
sS'det_loc'
p41
(lp42
S'India'
p43
ag26
ag26
ag26
ag26
asS'O'
p44
(lp45
S'killed:4'
p46
aS'bomb:7'
p47
aS'blast:38'
p48
aS'explosion:57'
p49
asS'unexpl'
p50
(lp51
g26
asS'ocassion'
p52
g26
sS'link'
p53
S'http://zeenews.india.com/home/two-killed-in-bomb-explosion-in-dehradun-police_7440.html'
p54
sS'date'
p55
S'26-01-2001'
p56
sS'target'
p57
g26
sS'hot_spot'
p58
g26
sS'delivery_mod'
p59
g26
sS'delivery_met'
p60
S'PLANTED'
p61
sS'expl'
p62
(lp63
g26
asS'ORG'
p64
(lp65
s.