(dp0
S'LOC'
p1
(lp2
(lp3
S'Hyderabad'
p4
aS'19'
p5
aS'Event'
p6
aa(lp7
S'Mumbai'
p8
aS'71'
p9
aS'Neutral'
p10
aa(lp11
S'Maharashtra'
p12
aS'81'
p13
aS'Neutral'
p14
aa(lp15
S'Hyderabad'
p16
aS'89'
p17
aS'Event'
p18
aa(lp19
S'Bangalore'
p20
aS'167'
p21
aS'Neutral'
p22
aa(lp23
S'Karnataka'
p24
aS'179'
p25
aS'Neutral'
p26
aa(lp27
S'Bangalore'
p28
aS'186'
p29
aS'Neutral'
p30
aa(lp31
S'Hyderabad'
p32
aS'197'
p33
aS'Event'
p34
aasS'PER'
p35
(lp36
(lp37
S'R R Patil'
p38
aS'95'
p39
aS'Comment'
p40
aa(lp41
S'Patil'
p42
aS'118'
p43
aS'Comment'
p44
aasS'TIM'
p45
(lp46
S'evening : 10'
p47
aS'evening : 91'
p48
aS'evening : 134'
p49
asS'hot_setting'
p50
S''
p51
sS'DAT'
p52
(lp53
sS'death'
p54
g51
sS'title'
p55
S'Security stepped up in Delhi, Mumbai following Hyderabad blasts'
p56
sS'org_unorg'
p57
S'ORGANISED'
p58
sS'terror_group'
p59
(lp60
g51
asS'content'
p61
VSecurity was stepped up in the national capital today evening in the wake of the serial blasts in Hyderabad . . . A senior Delhi Police official said the personnel of the force have been alerted and they were keeping a tight vigil on the city . . . We are always on alert . There is nothing to panic , the official said . . . High alert in Mumbai . . A high alert has been sounded across Maharashtra in the wake of the blasts in Hyderabad this evening , Home Minister R R Patil said . . . I have spoken to senior police officials and directed them to beef up security , Mr. Patil said . . . The Home Minister reviewed the security situation in the State this evening , official sources said . . . Police have been asked to keep a vigil on suspicious activity and persons in view of the blasts . . . Security stepped up in Bangalore . . Police today sounded a high alert in parts of Karnataka , including IT hub of the Bangalore City in the wake of serial bomb blasts that rocked Hyderabad . . . Security has been stepped up in sensitive areas , Railway and Bus stations , police said .
p62
sS'injured'
p63
g51
sS'det_loc'
p64
(lp65
S'India'
p66
aS'TELANGANA'
p67
ag51
ag51
aS'Hyderabad'
p68
asS'O'
p69
(lp70
S'Home Minister:93'
p71
aS'Railway:210'
p72
aS'Bus stations:212'
p73
aS'police:215'
p74
asS'unexpl'
p75
(lp76
g51
asS'ocassion'
p77
g51
sS'link'
p78
S'http://www.thehindu.com/news/national/other-states/security-stepped-up-in-delhi-mumbai-following-hyderabad-blasts/article4439460.ece'
p79
sS'date'
p80
S'21-02-2013'
p81
sS'target'
p82
g51
sS'hot_spot'
p83
S'Hyderabad'
p84
sS'delivery_mod'
p85
g51
sS'delivery_met'
p86
S'PLANTED'
p87
sS'expl'
p88
(lp89
g51
asS'ORG'
p90
(lp91
(lp92
S'Delhi Police'
p93
aS'25'
p94
aS'Others'
p95
aas.