(dp0
S'LOC'
p1
(lp2
(lp3
S'Guwahati'
p4
aS'5'
p5
aS'Neutral'
p6
aa(lp7
S'Assam'
p8
aS'38'
p9
aS'Neutral'
p10
aa(lp11
S'Bongaigaon'
p12
aS'40'
p13
aS'Neutral'
p14
aasS'PER'
p15
(lp16
sS'TIM'
p17
(lp18
S'9:25 a.m.:62'
p19
asS'hot_setting'
p20
S''
p21
sS'DAT'
p22
(lp23
S'Monday morning:43'
p24
asS'death'
p25
g21
sS'title'
p26
S'15 hurt in blast'
p27
sS'org_unorg'
p28
g21
sS'terror_group'
p29
(lp30
S'UNITED NATIONAL LIBERATION FRONT (UNLF)'
p31
asS'content'
p32
VSpecial Correspondent . . Guwahati : Fifteen persons , including four school children , were injured in a bomb blast suspected to have been triggered by the United Liberation Front of Asom -LRB- ULFA -RRB- in lower Assam 's Bongaigaon town on Monday morning . . . Police said the blast occurred near the office of the Superintendent of Police around 9:25 a.m. . The bomb was planted in a bicycle .
p33
sS'injured'
p34
S'15'
p35
sS'det_loc'
p36
(lp37
S'India'
p38
aS'Assam'
p39
aS'Bongaigaon'
p40
ag21
ag21
asS'O'
p41
(lp42
S'Special Correspondent:1'
p43
aS'school children:12'
p44
aS'injured:16'
p45
aS'bomb blast:19'
p46
aS'suspected:21'
p47
aS'triggered:25'
p48
aS'blast:51'
p49
aS'office:55'
p50
aS'bomb:66'
p51
aS'planted:68'
p52
aS'bicycle:71'
p53
asS'unexpl'
p54
(lp55
g21
asS'ocassion'
p56
g21
sS'link'
p57
S'http://www.thehindu.com/todays-paper/tp-national/15-hurt-in-blast/article1845550.ece'
p58
sS'date'
p59
S'21-05-2007'
p60
sS'target'
p61
g21
sS'hot_spot'
p62
g21
sS'delivery_mod'
p63
S'BYCICLE'
p64
sS'delivery_met'
p65
S'PLANTED'
p66
sS'expl'
p67
(lp68
g21
asS'ORG'
p69
(lp70
(lp71
S'United Liberation Front of Asom'
p72
aS'28'
p73
aS'Accused'
p74
aa(lp75
S'ULFA'
p76
aS'34'
p77
aS'Others'
p78
aas.