(dp0
S'LOC'
p1
(lp2
(lp3
S'Mumbai:20'
p4
aS'Event'
p5
aS'Neutral'
p6
aa(lp7
S'India'
p8
aS'75'
p9
aS'Neutral'
p10
aa(lp11
S'Mumbai:104'
p12
aS'Event'
p13
aS'Neutral'
p14
aa(lp15
S'Pune:126'
p16
aS'Victim Location'
p17
aS'Neutral'
p18
aa(lp19
S'Pakistan'
p20
aS'153'
p21
aS'Neutral'
p22
aa(lp23
S'Pune'
p24
aS'214'
p25
aS'Event'
p26
aa(lp27
S'Mumbai'
p28
aS'216'
p29
aS'Neutral'
p30
aasS'PER'
p31
(lp32
(lp33
S'P'
p34
aS'3'
p35
aS'Others'
p36
aa(lp37
S'P Chidambaram'
p38
ag35
aS'Others'
p39
aa(lp40
S'Chidambaram'
p41
aS'4'
p42
aS'Others'
p43
aa(lp44
S'Chidambaram'
p45
aS'100'
p46
aS'Others'
p47
aa(lp48
S'Chidambaram'
p49
aS'208'
p50
aS'Others'
p51
aa(lp52
S'Chidambaram'
p53
aS'237'
p54
aS'Others'
p55
aa(lp56
S'Chidambaram said'
p57
aS'237'
p58
aS'Others'
p59
aasS'TIM'
p60
(lp61
sS'hot_setting'
p62
S''
p63
sS'DAT'
p64
(lp65
S'Thursday:6'
p66
aS'July:18'
p67
aS'July 13:18'
p68
asS'death'
p69
g63
sS'title'
p70
S"Pune and Mumbai blasts are 'major blots' on my career: PC"
p71
sS'det_loc'
p72
(lp73
S'India'
p74
aS'Maharashtra'
p75
aS'Nagpur'
p76
ag63
ag63
asS'terror_group'
p77
(lp78
g63
asS'content'
p79
VHome Minister P Chidambaram on Thursday said there are indications of involvement of Indian module in the July 13 Mumbai blasts that killed 26 people . . . It is for the first time that the government has pointed towards the involvement of a homegrown terror group for the three explosions in the metropolis . . . The Home Minister also said all over the world right-wing fascist forces were on the rise and India is no exception to it . . . `` While no conclusion has been reached , all indications point to Indian module , '' Chidambaram said about the Mumbai blasts , adding that perhaps it could be the same module that carried out a blast in the German Bakery in Pune last year . . . He said that while there was a finger-pointing for every terror incident towards the neighbouring country , a clear reference to Pakistan , there is also an existence of home grown terror modules as right wing fascist forces . . . `` We can not live in denial . We can not close our eyes to facts . There are home grown modules . Indian modules . They do not belong to one religion , '' Chidambaram said . . . The Pune and Mumbai blasts are `` two major blots on my career , I accept it , '' he said . . . Chidambaram said another mistake was to point fingers at a particular religion whenever a bomb blast took place .
p80
sS'injured'
p81
g63
sS'org_unorg'
p82
g63
sS'O'
p83
(lp84
S'home minister:1'
p85
aS'Indian:14'
p86
aS'module:15'
p87
aS'Mumbai blasts:20'
p88
aS'Home Minister:59'
p89
aS'Indian:96'
p90
aS",\xc2\xa0'':98"
p91
aS'Mumbai blasts:104'
p92
aS'Pune and Mumbai blasts:214'
p93
asS'unexpl'
p94
(lp95
g63
asS'ocassion'
p96
g63
sS'link'
p97
S'http://archive.indianexpress.com/news/pune-and-mumbai-blasts-are-major-blots-on-my-career-pc/827244/'
p98
sS'date'
p99
S'13-07-2011'
p100
sS'target'
p101
g63
sS'hot_spot'
p102
g63
sS'delivery_mod'
p103
g63
sS'delivery_met'
p104
g63
sS'expl'
p105
(lp106
g63
asS'ORG'
p107
(lp108
(lp109
S'Chidambaram on Thursday'
p110
ag42
aS'Others'
p111
aas.