(dp0
S'LOC'
p1
(lp2
(lp3
S'Dasaswamedh Ghat'
p4
aS'34'
p5
aa(lp6
S'VARANASI'
p7
aS'1'
p8
aS'Source'
p9
aa(lp10
S'Gujarat'
p11
aS'171'
p12
aS'Neutral'
p13
aasS'PER'
p14
(lp15
(lp16
S'M S Dahiya'
p17
aS'176'
p18
aS'Others'
p19
aa(lp20
S'M S'
p21
aS'176'
p22
aS'Others'
p23
aa(lp24
S'Dahiya'
p25
aS'178'
p26
aS'Others'
p27
aa(lp28
S'Dahiya'
p29
aS'187'
p30
aS'Others'
p31
aasS'TIM'
p32
(lp33
sS'hot_setting'
p34
S''
p35
sS'DAT'
p36
(lp37
S'December:28'
p38
aS'December 7:28'
p39
aS'December:134'
p40
aS'December 7:134'
p41
asS'death'
p42
g35
sS'title'
p43
S'IM used Semtex in Varanasi blast: Report'
p44
sS'org_unorg'
p45
g35
sS'terror_group'
p46
(lp47
g35
asS'content'
p48
VVARANASI : Has the Indian Mujahideen added Semtex explosive to its armoury ? It appears so , going by the analysis of the samples collected from the December 7 blast site at the Dasaswamedh Ghat . Top police and Anti-Terror Squad -LRB- ATS -RRB- officials , on condition of anonymity , said : ` The use of this explosive is quite certain as initial tests with the Israeli kit have shown the use of multiple chemicals in the bomb . ' Semtex is a general-purpose plastic explosive containing RDX and pentaerythritol tetranitrate -LRB- PETN -RRB- . It is used in commercial blasting , demolition and in certain military applications . The explosive is notoriously popular with global terrorists as it is extremely difficult to detect . But if Semtex was used in the December 7 blast , which mechanism was adopted by the terrorists to detonate the bomb ? The police as well as the investigating agencies are still tight-lipped as the final report of the Forensic Science Institute -LRB- Gujarat -RRB- team led by M S Dahiya is yet to come . It is expected Dahiya 's report would not only reveal the name of the explosive , but also the mechanism used to detonate the bomb . ` If the test report confirms Semtex , it would be an alarming signal for the security agencies who are ill-equipped to detect this sophisticated explosive , ' said a senior police officer . The report is expected anytime in a day or two .
p49
sS'injured'
p50
g35
sS'det_loc'
p51
(lp52
S'India'
p53
aS'Uttar Pradesh'
p54
aS'Varanasi'
p55
aS'Varanasi'
p56
ag35
asS'O'
p57
(lp58
S'semtex explosive:8'
p59
aS'semtex:8'
p60
aS'explosive:9'
p61
aS'police:38'
p62
aS'anti-terror squad:40'
p63
aS'explosive:59'
p64
aS'kit:69'
p65
aS'use:73'
p66
aS'bomb:79'
p67
aS'semtex:82'
p68
aS'plastic explosive:86'
p69
aS'rdx:89'
p70
aS'pentaerythritol tetranitrate:91'
p71
aS'petn:94'
p72
aS'blasting:102'
p73
aS'demolition:104'
p74
aS'explosive:112'
p75
aS'semtex:129'
p76
aS'blast:136'
p77
aS'mechanism:139'
p78
aS'bomb:148'
p79
aS'police:151'
p80
aS'report:164'
p81
aS'team:173'
p82
aS'dahiya:187'
p83
aS'report:189'
p84
aS'name:195'
p85
aS'explosive:198'
p86
aS'mechanism:203'
p87
aS'bomb:208'
p88
aS'semtex:216'
p89
aS'explosive:235'
p90
aS'police officer:241'
p91
asS'unexpl'
p92
(lp93
g35
asS'ocassion'
p94
g35
sS'link'
p95
S'http://timesofindia.indiatimes.com/city/varanasi/IM-used-Semtex-in-Varanasi-blast-Report/articleshow/7085947.cms'
p96
sS'date'
p97
S'07-12-2010'
p98
sS'target'
p99
g35
sS'hot_spot'
p100
g35
sS'delivery_mod'
p101
g35
sS'delivery_met'
p102
g35
sS'expl'
p103
(lp104
S'SEMTEX EXPLOSIVE'
p105
asS'ORG'
p106
(lp107
(lp108
S'Indian Mujahideen'
p109
aS'5'
p110
aS'Others'
p111
aa(lp112
S'Anti-Terror Squad'
p113
aS'40'
p114
aS'Others'
p115
aa(lp116
S'ATS'
p117
aS'43'
p118
aS'Others'
p119
aa(lp120
S'Forensic Science Institute'
p121
aS'167'
p122
aS'Others'
p123
aas.