(dp0
S'LOC'
p1
(lp2
(lp3
S'upper Assam'
p4
aS'10'
p5
aS'Event'
p6
aa(lp7
S'Assam'
p8
aS'11'
p9
aS'Neutral'
p10
aa(lp11
S'Tinsukia'
p12
aS'13'
p13
aS'Neutral'
p14
aa(lp15
S'G.N.B. Road'
p16
aS'46'
p17
aS'Event'
p18
aa(lp19
S'Tinsukia'
p20
aS'52'
p21
aS'Event'
p22
aa(lp23
S'upper Assam'
p24
aS'104'
p25
aS'Event'
p26
aa(lp27
S'Chabua'
p28
aS'107'
p29
aS'Neutral'
p30
aa(lp31
S'Kakopathar'
p32
aS'142'
p33
aS'Source'
p34
aa(lp35
S'Sivasagar'
p36
aS'149'
p37
aS'Source'
p38
aasS'PER'
p39
(lp40
sS'TIM'
p41
(lp42
S'evening : 17'
p43
aS'6.05 p.m.:55'
p44
asS'hot_setting'
p45
S''
p46
sS'DAT'
p47
(lp48
S'Monday:16'
p49
asS'death'
p50
g46
sS'title'
p51
S'Three injured in grenade blast in Tinsukia town'
p52
sS'org_unorg'
p53
S'ORGANISED'
p54
sS'terror_group'
p55
(lp56
g46
asS'content'
p57
VThree persons were injured in a grenade blast in upper Assam 's Tinsukia town on Monday evening . The condition of one of them is stated to be critical . . . Police said that two unidentified youths reportedly lobbed a grenade in the busy G.N.B. Road in the heart of Tinsukia town at 6.05 p.m. and sped away in a Maruti van . The glass panes of several vehicles and shops were smashed in the impact . No outfit has so far claimed responsibility . . . In another incident , security forces recovered a powerful bomb weighing about 5 kg in upper Assam 's Chabua town earlier in the day . A woman , who is suspected to have been the courier , has been taken into custody . . . Initial investigation revealed that bomb was brought from Kakopathar area and was being taken to Sivasagar town .
p58
sS'injured'
p59
S'3'
p60
sS'det_loc'
p61
(lp62
S'India'
p63
aS'Assam'
p64
ag46
aS'guwahati'
p65
aS'upper Assam'
p66
asS'O'
p67
(lp68
S'Police:33'
p69
aS'Maruti van:62'
p70
aS'5 kg:101'
p71
asS'unexpl'
p72
(lp73
g46
asS'ocassion'
p74
g46
sS'link'
p75
S'http://www.thehindu.com/todays-paper/tp-national/three-injured-in-grenade-blast-in-tinsukia-town/article2770114.ece'
p76
sS'date'
p77
S'02-01-2012'
p78
sS'target'
p79
g46
sS'hot_spot'
p80
S'upper Assam'
p81
sS'delivery_mod'
p82
g46
sS'delivery_met'
p83
S'PLANTED'
p84
sS'expl'
p85
(lp86
S'GRENADE'
p87
asS'ORG'
p88
(lp89
s.