(dp0
S'LOC'
p1
(lp2
(lp3
S'GNB Road'
p4
aS'23'
p5
aS'Event'
p6
aa(lp7
S'Tinsukia'
p8
aS'29'
p9
aS'Event'
p10
aa(lp11
S'Dibrugarh'
p12
aS'49'
p13
aS'Neutral'
p14
aa(lp15
S'Dibrugarh .'
p16
aS'49'
p17
aS'Neutral'
p18
aa(lp19
S'Shankar Glass House'
p20
aS'75'
p21
aS'Event'
p22
aa(lp23
S'Chabua'
p24
aS'221'
p25
aS'Source'
p26
aa(lp27
S'Dibrugarh'
p28
aS'223'
p29
aS'Source'
p30
aa(lp31
S'Tinsukia'
p32
aS'231'
p33
aS'Neutral'
p34
aa(lp35
S'Dibrugarh'
p36
aS'233'
p37
aS'Source'
p38
aa(lp39
S'Lekhapni'
p40
aS'270'
p41
aS'Neutral'
p42
aa(lp43
S'Dibrugarh'
p44
aS'272'
p45
aS'Source'
p46
aa(lp47
S'Upper Assam'
p48
aS'291'
p49
aS'Neutral'
p50
aasS'PER'
p51
(lp52
(lp53
S'Kishan Minda'
p54
aS'81'
p55
aS'Others'
p56
aa(lp57
S'Hemkanta Changmai'
p58
aS'266'
p59
aS'Accused'
p60
aasS'TIM'
p61
(lp62
S'evening : 32'
p63
asS'hot_setting'
p64
S''
p65
sS'DAT'
p66
(lp67
sS'death'
p68
g65
sS'title'
p69
S'Three hurt in Tinsukia bomb blast'
p70
sS'det_loc'
p71
(lp72
S'India'
p73
aS'Assam'
p74
aS'Tinsukia'
p75
aS'guwahati'
p76
aS'Tinsukia,GNB Road'
p77
asS'terror_group'
p78
(lp79
S'UNITED LIBERATION FRONT OF ASOM '
p80
asS'content'
p81
VJorhat , Jan. 2 : Three persons were injured , one of them critically , in a grenade explosion on the busy GNB Road in the heart of Tinsukia town this evening . . . One of the injured was shifted to Assam Medical College and Hospital , Dibrugarh . . . Police sources said suspected Ulfa militants , who came in a blue Maruti van , threw the grenade at a shop , Shankar Glass House , owned by Kishan Minda . But the grenade missed the target and exploded outside the shop , damaging glass panes . A car parked near the shop was also damaged . . . An eyewitness said , A car stopped in front of Shankar Glass House and one person got down to buy potatoes from a roadside vendor . As soon as he got back into the car , they threw the grenade and fled . . . The police have tightened security in and around the town and are trying to locate the vehicle in which the militants were suspected to have come . . . Earlier in the day , troops of the armys 18 Jat regiment recovered an improvised explosive device ( IED ) , wrapped in a white polythene bag , from a Tata Winger passenger vehicle at Chabua in Dibrugarh district . The vehicle was going from Tinsukia to Dibrugarh . . . The police have detained eight persons , including a woman , for questioning . . . In another incident , army troops apprehended an Ulfa militant , identified as Hemkanta Changmai , at Lekhapni in Dibrugarh district today . An AK-81 was recovered from him . . . Security forces have intensified vigil in Upper Assam given the recent spurt in Ulfa activity . The forces are also on the alert in the area for Maoists .
p82
sS'injured'
p83
S'3'
p84
sS'org_unorg'
p85
S'ORGANISED'
p86
sS'O'
p87
(lp88
S'Police:53'
p89
aS'IED:204'
p90
aS'white polythene bag:210'
p91
asS'unexpl'
p92
(lp93
g65
asS'ocassion'
p94
g65
sS'link'
p95
S'http://www.telegraphindia.com/1120103/jsp/northeast/story_14954408.jsp#.VtfaDYSli1E'
p96
sS'date'
p97
S'02-01-2012'
p98
sS'target'
p99
S'PUBLIC PLACES'
p100
sS'hot_spot'
p101
S'Tinsukia,GNB Road'
p102
sS'delivery_mod'
p103
S'SHOP'
p104
sS'delivery_met'
p105
S'THROWN'
p106
sS'expl'
p107
(lp108
S'GRENADE'
p109
asS'ORG'
p110
(lp111
(lp112
S'Assam Medical College and Hospital'
p113
aS'43'
p114
aS'Others'
p115
aa(lp116
S'Ulfa'
p117
aS'57'
p118
aS'Accused'
p119
aa(lp120
S'Shankar Glass House'
p121
aS'122'
p122
aS'Others'
p123
aa(lp124
S'armys 18 Jat regiment'
p125
aS'194'
p126
aS'Others'
p127
aa(lp128
S'Ulfa'
p129
aS'261'
p130
aS'Accused'
p131
aa(lp132
S'Ulfa'
p133
aS'298'
p134
aS'Accused'
p135
aas.