(dp0
S'LOC'
p1
(lp2
(lp3
S'India'
p4
aS'38'
p5
aS'Neutral'
p6
aa(lp7
S'NEW DELHI'
p8
aS'41'
p9
aS'Neutral'
p10
aa(lp11
S'Malegaon'
p12
aS'50'
p13
aS'Event'
p14
aa(lp15
S'Mumbai'
p16
aS'110'
p17
aS'Assoc Event Location'
p18
aa(lp19
S'Nanded'
p20
aS'157'
p21
aS'Neutral'
p22
aa(lp23
S'Parbani'
p24
aS'177'
p25
aS'Source'
p26
aa(lp27
S'Purna'
p28
aS'179'
p29
aS'Source'
p30
aa(lp31
S'Jalna'
p32
aS'181'
p33
aS'Source'
p34
aa(lp35
S'Maharashtra'
p36
aS'345'
p37
aS'Neutral'
p38
aa(lp39
S'India'
p40
aS'347'
p41
aS'Neutral'
p42
aa(lp43
S'Mumbai'
p44
aS'354'
p45
aS'Neutral'
p46
aasS'PER'
p47
(lp48
sS'TIM'
p49
(lp50
sS'hot_setting'
p51
S''
p52
sS'DAT'
p53
(lp54
S'Saturday:47'
p55
aS'April:159'
p56
asS'death'
p57
g52
sS'title'
p58
S'Left parties condemn blasts in Malegaon'
p59
sS'org_unorg'
p60
g52
sS'terror_group'
p61
(lp62
g52
asS'content'
p63
VSpecial Correspondent . . A diabolic attempt to create communal tensions , says CPI -LRB- M -RRB- . . State Government must uncover motives behind the attack Ensure proper medical treatment for injured Terrorists can not weaken India . . NEW DELHI : Left parties on Saturday condemned the Malegaon bomb blasts and asked the State Government and security agencies to uncover the motives behind the attack and track down those responsible . . . In a statement , the Polit Bureau of the Communist Party of India -LRB- Marxist -RRB- said the blasts indicated a diabolic attempt to create communal tensions and provoke violence . Coming after the Mumbai train explosions , this attack should be viewed with utmost seriousness . . . `` The State Government and the concerned security agencies must uncover the motives behind this attack and track down those responsible . In this connection , the link with the blasts in Nanded in April this year which killed two Bajrang Dal activists while making bombs and the blasts in mosques in Parbani , Purna and Jalna in recent years must also be investigated , '' the statement said . . . Conveying its sympathy to all those who have lost their family members in these attacks , the Polit Bureau asked the State Government to ensure proper medical treatment for the injured and provide adequate compensation to families of the victims . . . The Polit Bureau called upon its State units to mobilise people against the designs of the extremist and terrorist groups and to foil their attempts to divide the people on communal lines . . . The Communist Party of India too condemned the serial bomb blasts and said if such an attack could take place despite an alert by the Government , the situation demanded more coordinated and effective measures against terrorists . . . In a statement , the party Central Secretariat said the terrorists would not succeed in weakening the country through such cowardly attacks targeting innocent people . `` The people of Maharashtra and India will show the same resilience of Mumbai on resisting the terrorists and maintaining the unity and harmony among the people , '' the statement said .
p64
sS'injured'
p65
g52
sS'det_loc'
p66
(lp67
S'India'
p68
aS'Maharashtra'
p69
aS'Nashik'
p70
aS'Malegaon'
p71
ag52
asS'O'
p72
(lp73
S'diabolic attempt:6'
p74
aS'communal tensions:10'
p75
aS'uncover motives:23'
p76
aS'attack:27'
p77
aS'proper medical treatment:29'
p78
aS'injured:33'
p79
aS'terrorists:34'
p80
aS'Left parties:44'
p81
aS'condemned:48'
p82
aS'Malegaon bomb blasts:50'
p83
aS'security agencies:59'
p84
aS'uncover:62'
p85
aS'motives:64'
p86
aS'attack:67'
p87
aS'track down:69'
p88
aS'blasts:94'
p89
aS'diabolic attempt:97'
p90
aS'communal tensions:101'
p91
aS'provoke violence:104'
p92
aS'train explosions:111'
p93
aS'attack:115'
p94
aS'viewed:118'
p95
aS'seriousness:121'
p96
aS'security agencies:132'
p97
aS'uncover:135'
p98
aS'motives:137'
p99
aS'attack:140'
p100
aS'track down:142'
p101
aS'responsible:145'
p102
aS'connection:149'
p103
aS'blasts:155'
p104
aS'killed:163'
p105
aS'Bajrang Dal activists:165'
p106
aS'bombs:170'
p107
aS'blasts:173'
p108
aS'mosques:175'
p109
aS'recent years:183'
p110
aS'investigated:188'
p111
aS'Conveying:197'
p112
aS'sympathy:199'
p113
aS'attacks:211'
p114
aS'medical treatment:223'
p115
aS'injured:227'
p116
aS'adequate compensation:230'
p117
aS'victims:236'
p118
aS'State units:246'
p119
aS'mobilise:249'
p120
aS'designs:253'
p121
aS'extremist:256'
p122
aS'terrorist groups:258'
p123
aS'attempts:264'
p124
aS'communal lines:270'
p125
aS'condemned:281'
p126
aS'serial bomb blasts:283'
p127
aS'attack:291'
p128
aS'Government:300'
p129
aS'situation:303'
p130
aS'demanded:304'
p131
aS'effective measures:308'
p132
aS'terrorists:311'
p133
aS'Central Secretariat:321'
p134
aS'terrorists:325'
p135
aS'succeed:328'
p136
aS'resilience:352'
p137
aS'resisting:356'
p138
aS'terrorists:358'
p139
aS'unity and harmony:362'
p140
asS'unexpl'
p141
(lp142
g52
asS'ocassion'
p143
g52
sS'link'
p144
S'http://www.thehindu.com/todays-paper/tp-national/left-parties-condemn-blasts-in-malegaon/article3073274.ece'
p145
sS'date'
p146
S'08-09-2006'
p147
sS'target'
p148
g52
sS'hot_spot'
p149
g52
sS'delivery_mod'
p150
g52
sS'delivery_met'
p151
S'PLANTED'
p152
sS'expl'
p153
(lp154
g52
asS'ORG'
p155
(lp156
(lp157
S'CPI'
p158
aS'14'
p159
aS'Others'
p160
aa(lp161
S'M'
p162
aS'16'
p163
aS'Others'
p164
aa(lp165
S'State Government'
p166
aS'20'
p167
aS'Others'
p168
aa(lp169
S'State Government'
p170
aS'56'
p171
aS'Others'
p172
aa(lp173
S'Polit Bureau'
p174
aS'81'
p175
aS'Others'
p176
aa(lp177
S'Communist Party of India'
p178
aS'85'
p179
aS'Others'
p180
aa(lp181
S'Marxist'
p182
aS'90'
p183
aS'Others'
p184
aa(lp185
S'State Government'
p186
aS'127'
p187
aS'Others'
p188
aa(lp189
S'Bajrang Dal'
p190
aS'165'
p191
aS'Others'
p192
aa(lp193
S'Polit Bureau'
p194
aS'214'
p195
aS'Others'
p196
aa(lp197
S'State Government'
p198
aS'218'
p199
aS'Others'
p200
aa(lp201
S'Polit Bureau'
p202
aS'241'
p203
aS'Others'
p204
aa(lp205
S'Communist Party of India'
p206
aS'276'
p207
aS'Others'
p208
aas.