(dp0
S'LOC'
p1
(lp2
(lp3
S'Hyderabad'
p4
aS'1'
p5
aS'Neutral'
p6
aa(lp7
S'Hyderabad'
p8
aS'22'
p9
aS'Neutral'
p10
aa(lp11
S'Dilsukhnagar'
p12
aS'24'
p13
aS'Event'
p14
aa(lp15
S'cinema'
p16
aS'64'
p17
aS'Event'
p18
aa(lp19
S'New Delhi'
p20
aS'124'
p21
aS'Neutral'
p22
aasS'PER'
p23
(lp24
(lp25
S'Vijay Kumar'
p26
aS'3'
p27
aS'Victim'
p28
aa(lp29
S'Vijay'
p30
aS'45'
p31
aS'Victim'
p32
aasS'TIM'
p33
(lp34
S'morning : 90'
p35
asS'hot_setting'
p36
S''
p37
sS'DAT'
p38
(lp39
S'Friday:89'
p40
asS'death'
p41
S'16'
p42
sS'title'
p43
S'Hyderabad bomb blasts: among 16 dead, at least three students'
p44
sS'org_unorg'
p45
S'ORGANISED'
p46
sS'terror_group'
p47
(lp48
g37
asS'content'
p49
VHyderabad : Vijay Kumar , 24 , was shopping for text books when two bombs ripped through the busy market in Hyderabad 's Dilsukhnagar neighbourhood.Vijay was scheduled to take an exam soon that would qualify him as a sub inspector in the police . Vijay died in the terror attack.Two other students also died as bombs strapped to bicycles exploded next to a cinema and a bus stand.The Prime Minister has vowed `` the guilty will not go unpunished '' for the `` dastardly attack . `` On Friday morning , police with cameras , gloves and plastic evidence bags used pointers to search through the debris . Officials from the National Investigation Agency and commandos of the National Security Guards arrived from New Delhi to help with the investigation . .
p50
sS'injured'
p51
g37
sS'det_loc'
p52
(lp53
S'India'
p54
ag37
ag37
aS'Hyderabad'
p55
aS'market'
p56
asS'O'
p57
(lp58
S'two bombs:14'
p59
aS'sub inspector:39'
p60
aS'police:43'
p61
aS'Prime Minister:69'
p62
aS'dastardly attack:84'
p63
aS'police:92'
p64
asS'unexpl'
p65
(lp66
g37
asS'ocassion'
p67
g37
sS'link'
p68
S'http://www.ndtv.com/india-news/hyderabad-bomb-blasts-among-16-dead-at-least-three-students-514191'
p69
sS'date'
p70
S'21-02-2013'
p71
sS'target'
p72
g37
sS'hot_spot'
p73
S'market'
p74
sS'delivery_mod'
p75
g37
sS'delivery_met'
p76
S'PLANTED'
p77
sS'expl'
p78
(lp79
g37
asS'ORG'
p80
(lp81
(lp82
S'National Investigation Agency'
p83
aS'112'
p84
aS'Others'
p85
aa(lp86
S'National Security Guards'
p87
aS'119'
p88
aS'Others'
p89
aas.