(dp0
S'LOC'
p1
(lp2
(lp3
S'Mehrauli'
p4
aS'8'
p5
aS'Event'
p6
aa(lp7
S'AHMEDABAD'
p8
aS'12'
p9
aS'Neutral'
p10
aa(lp11
S'Tuka Bazar'
p12
aS'34'
p13
aS'Neutral'
p14
aa(lp15
S'Modasa'
p16
aS'37'
p17
aS'Event'
p18
aa(lp19
S'Sabarkantha'
p20
aS'41'
p21
aS'Neutral'
p22
aa(lp23
S'Mehrauli'
p24
aS'62'
p25
aS'Neutral'
p26
aa(lp27
S'Delhi'
p28
aS'64'
p29
aS'Neutral'
p30
aa(lp31
S'Mehrauli'
p32
aS'68'
p33
aS'Neutral'
p34
aa(lp35
S'Jainuddin'
p36
aS'110'
p37
aS'Neutral'
p38
aa(lp39
S'Kot-ni-Rang'
p40
aS'178'
p41
aS'Source'
p42
aa(lp43
S'Kalupur'
p44
aS'181'
p45
aS'Neutral'
p46
aa(lp47
S'Ahmedabad .'
p48
aS'187'
p49
aS'Neutral'
p50
aa(lp51
S'Modasa'
p52
aS'268'
p53
aS'Neutral'
p54
aa(lp55
S'Gujarat'
p56
aS'282'
p57
aS'Neutral'
p58
aa(lp59
S'Malegaon'
p60
aS'316'
p61
aS'Event'
p62
aa(lp63
S'Maharashtra'
p64
aS'322'
p65
aS'Neutral'
p66
aa(lp67
S'Bhikhu Chowk'
p68
aS'339'
p69
aS'Event'
p70
aa(lp71
S'Malegaon'
p72
aS'350'
p73
aS'Event'
p74
aasS'PER'
p75
(lp76
(lp77
S'Manas Dasgupta'
p78
aS'1'
p79
aS'Others'
p80
aa(lp81
S'Ayub Ghori'
p82
aS'135'
p83
aS'Victim'
p84
aa(lp85
S'Madhukar Gupta'
p86
aS'272'
p87
aS'Others'
p88
aasS'TIM'
p89
(lp90
S'night : 45'
p91
aS'9.30 p.m.:104'
p92
aS'morning : 168'
p93
asS'hot_setting'
p94
S''
p95
sS'DAT'
p96
(lp97
S'Monday:44'
p98
aS'Monday:352'
p99
asS'death'
p100
S'2'
p101
sS'title'
p102
S'Two killed, 16 injured in blast in Gujarat town'
p103
sS'det_loc'
p104
(lp105
S'India'
p106
aS'Delhi'
p107
aS'South West'
p108
aS'Delhi'
p109
aS'Mehrauli'
p110
asS'terror_group'
p111
(lp112
g95
asS'content'
p113
VManas Dasgupta . . A repeat of Mehrauli incident . . AHMEDABAD : Two people were killed and 16 injured , three of them critically , in a bomb blast in the minority-dominated Tuka Bazar at Modasa town in Gujarats Sabarkantha district on Monday night . . . The police said it was almost a re-enactment of Saturdays bomb blast at Mehrauli in Delhi . As at Mehrauli , two persons riding a motorbike through the Tuka Bazar a market full of eating houses where members of the minority community gathered after breaking the days Roza dropped a bag outside a restaurant around 9.30 p.m. . A resident , Jainuddin , picked up the bag and just as he was checking its contents , the bomb exploded , killing him on the spot . Ayub Ghori , who was injured , died in hospital . . . The police cordoned off the area and were investigating the identity of the motorbike riders . . . In the morning , 17 low-intensity crude bombs were recovered from the Kot-ni-Rang area at Kalupur in the old city of Ahmedabad . A bomb squad defused them . . . An official of the squad said the bombs with shrapnel and other discarded materials were designed to create panic , not to cause grievous injuries . The bombs were kept in small tins in a bucket , which was left in a dustbin . . . Centre monitoring situation . . PTI reports : . . The Union Home Ministry is closely monitoring the situation arising out of an explosion at Modasa . Home Secretary Madhukar Gupta was in touch with senior officials of the Gujarat government and police authorities there , a Home Ministry spokesperson said . . . The Ministry appealed to the people to maintain calm and guard against rumours . . . 2 killed in Malegaon hotel blast . . In Maharashtra , two people were killed and 35 injured in a blast in a hotel in the Bhikhu Chowk area of the communally sensitive , powerloom town of Malegaon on Monday night . . . Eight others , including six policemen , were injured in stone throwing resorted to by a mob after the explosion , the police said . The mob also damaged the jeep of the sub-divisional-magistrate , the police said . The police fired in the air to disperse the mob .
p114
sS'injured'
p115
S'16'
p116
sS'org_unorg'
p117
S'ORGANISED'
p118
sS'O'
p119
(lp120
S'police:149'
p121
aS'17 low-intensity crude bombs:170'
p122
aS'small tins:228'
p123
aS'bucket:232'
p124
aS'dustbin:239'
p125
aS'Union Home Ministry:254'
p126
aS'Home Secretary:270'
p127
aS'night:353'
p128
aS'sub-divisional-magistrate:390'
p129
asS'unexpl'
p130
(lp131
g95
asS'ocassion'
p132
g95
sS'link'
p133
S'http://www.thehindu.com/todays-paper/two-killed-16-injured-in-blast-in-gujarat-town/article1348428.ece'
p134
sS'date'
p135
S'29-09-2008'
p136
sS'target'
p137
S'ROAD SIDE'
p138
sS'hot_spot'
p139
S'Mehrauli'
p140
sS'delivery_mod'
p141
S'BAG'
p142
sS'delivery_met'
p143
S'PLANTED'
p144
sS'expl'
p145
(lp146
g95
asS'ORG'
p147
(lp148
(lp149
S'PTI'
p150
aS'248'
p151
aS'Others'
p152
aas.