(dp0
S'LOC'
p1
(lp2
(lp3
S'Golghar'
p4
aS'67'
p5
aS'Accused Location'
p6
aa(lp7
S'Mayabazar'
p8
aS'74'
p9
aS'Accused Location'
p10
aa(lp11
S'Uttar Pradesh'
p12
aS'295'
p13
aS'Neutral'
p14
aa(lp15
S'Gorakhpur'
p16
aS'316'
p17
aS'Event'
p18
aasS'PER'
p19
(lp20
(lp21
S'R K Rai'
p22
aS'45'
p23
aS'Comment'
p24
aa(lp25
S'Sameer'
p26
aS'62'
p27
aS'Accused'
p28
aa(lp29
S'Iftekhar'
p30
aS'69'
p31
aS'Accused'
p32
aa(lp33
S'Rai'
p34
aS'125'
p35
aS'Comment'
p36
aa(lp37
S'P Amitabh Yash'
p38
aS'228'
p39
aS'Comment'
p40
aasS'TIM'
p41
(lp42
S'evening : 54'
p43
aS'12pm : 119'
p44
aS'4pm : 121'
p45
aS'five minutes : 270'
p46
aS'7 pm : 274'
p47
aS'yesterday : 298'
p48
asS'hot_setting'
p49
S''
p50
sS'DAT'
p51
(lp52
S'May 24:3'
p53
aS'Thursday:8'
p54
aS'Tuesday:27'
p55
aS'Tuesday:123'
p56
aS'Tuesday:286'
p57
asS'death'
p58
g50
sS'title'
p59
S'Gorakhpur blasts: Sketches released'
p60
sS'org_unorg'
p61
g50
sS'terror_group'
p62
(lp63
g50
asS'content'
p64
VGorakhpur , May 24 : Police on Thursday released the sketches of two persons allegedly involved in the serial bomb blasts that rocked the city on Tuesday and announced a reward of Rs 10,000 for information leading to their arrest . . . SSP R K Rai told a press conference here this evening that the two have been identified as Sameer ( 16 ) of Golghar and Iftekhar ( 21 ) of Mayabazar locality here . . . Their sketches have been drawn on the basis of interrogation of a bicycle shop owner , he said . . . The duo purchased the bicycle , which were used in the blasts , from the same shop at 12pm and 4pm on Tuesday , Rai said . . . The SSP said the investigation into the explosions is going on in the ` right direction ' and the police declared a reward of Rs 10,000 for the information leading to the arrest of these two people . . . Meanwhile , police have traced the shop from where cycles used in the Gorakhpur serial blasts were bought and two persons , including the shop owner , are being quizzed for clues . . . ` We have found some clues . The investigation is progressing in the right direction , ' Special Task Force Superintendent of Police P Amitabh Yash said without divulging the details . . . He said the investigators are questioning two persons , including the cycle shop owner . . . Three crude bombs kept in tiffin boxes and tied to cycles went off at five minutes interval after 7 pm in a crowded shopping area of this temple town on Tuesday , injuring five persons . . . The Uttar Pradesh government yesterday ruled out use of the deadly RDX or any timer device in the low-intensity serial blasts in Gorakhpur that left six injured . . . Bureau Report .
p65
sS'injured'
p66
S'5'
p67
sS'det_loc'
p68
(lp69
S'India'
p70
aS'Uttar Pradesh'
p71
aS'Gorakpur'
p72
ag50
ag50
asS'O'
p73
(lp74
S'serial bomb blasts:19'
p75
aS'reward:31'
p76
aS'arrest:40'
p77
aS'press conference:50'
p78
aS'sketches:81'
p79
aS'interrogation:89'
p80
aS'bicycle:92'
p81
aS'bicycle:105'
p82
aS'blasts:112'
p83
aS'investigation:134'
p84
aS'explosions:137'
p85
aS'reward:152'
p86
aS'arrest:162'
p87
aS'serial blasts:184'
p88
aS'clues:201'
p89
aS'clues:210'
p90
aS'investigation:213'
p91
aS'crude bombs:257'
p92
aS'tiffin boxes:261'
p93
aS'rdx:305'
p94
aS'timer device:308'
p95
aS'low-intensity serial blasts:312'
p96
aS'injured:320'
p97
asS'unexpl'
p98
(lp99
g50
asS'ocassion'
p100
g50
sS'link'
p101
S'http://zeenews.india.com/home/gorakhpur-blasts-sketches-released_373211.html'
p102
sS'date'
p103
S'24-05-2007'
p104
sS'target'
p105
S'MARKET PLACE'
p106
sS'hot_spot'
p107
g50
sS'delivery_mod'
p108
S'TIFFIN BOX'
p109
sS'delivery_met'
p110
S'PLANTED'
p111
sS'expl'
p112
(lp113
S'CRUDE BOMB'
p114
asS'ORG'
p115
(lp116
(lp117
S'Special Task Force'
p118
aS'222'
p119
aS'Others'
p120
aa(lp121
S'Uttar Pradesh government'
p122
aS'295'
p123
aS'Others'
p124
aas.