(dp0
S'LOC'
p1
(lp2
(lp3
S'Golaghat'
p4
aS'48'
p5
aS'Event'
p6
aa(lp7
S'Assam'
p8
aS'50'
p9
aS'Event'
p10
aa(lp11
S'Nuajan'
p12
aS'60'
p13
aS'Neutral'
p14
aa(lp15
S'Chauan'
p16
aS'62'
p17
aS'Neutral'
p18
aasS'PER'
p19
(lp20
sS'TIM'
p21
(lp22
S'2 am : 45'
p23
aS'hours : 97'
p24
asS'hot_setting'
p25
S''
p26
sS'DAT'
p27
(lp28
S'Thursday:32'
p29
aS'Thursday morning : 99'
p30
asS'death'
p31
S'5'
p32
sS'title'
p33
S'5 killed in Rajdhani Express blast in Assam'
p34
sS'det_loc'
p35
(lp36
S'India'
p37
aS'Assam'
p38
aS'Dibrugarh'
p39
aS'Dibrugarh'
p40
ag26
asS'terror_group'
p41
(lp42
g26
asS'content'
p43
VNEW DELHI : In yet another shocking incident five persons were killed and four injured when a bomb exploded in the 2423A Dibrugarh-New Delhi Rajdhani Express in the wee hours of Thursday . . . According to sources , the bomb exploded at around 2 am near Golaghat in Assam when the blast occured . The train was between Nuajan and Chauan stations . Preliminary investigations suggest that the bomb was planted on the tracks . . . However , the exact number of casualties has not been known yet as the incident occurred in wee hours of Thursday morning and the toll may go up . . . Meanwhile , government machinery has rushed to the spot and assessing the situation . The railways have also stepped up operations to rescue the passengers stranded in the train .
p44
sS'injured'
p45
S'4'
p46
sS'org_unorg'
p47
g26
sS'O'
p48
(lp49
S'killed:12'
p50
aS'injured:15'
p51
aS'bomb:18'
p52
aS'2423a dibrugarh-new delhi rajdhani express:22'
p53
aS'wee hours:29'
p54
aS'bomb:41'
p55
aS'blast:53'
p56
aS'train:57'
p57
aS'investigations:66'
p58
aS'bomb:70'
p59
aS'tracks:75'
p60
aS'government machinery:112'
p61
aS'railways:125'
p62
aS'train:138'
p63
asS'unexpl'
p64
(lp65
g26
asS'ocassion'
p66
g26
sS'link'
p67
S'http://articles.economictimes.indiatimes.com/2007-12-13/news/27677850_1_assam-golaghat-blast'
p68
sS'date'
p69
S'13-12-2007'
p70
sS'target'
p71
S'TRAIN'
p72
sS'hot_spot'
p73
g26
sS'delivery_mod'
p74
S'TRAIN'
p75
sS'delivery_met'
p76
S'PLANTED'
p77
sS'expl'
p78
(lp79
g26
asS'ORG'
p80
(lp81
s.