(dp0
S'LOC'
p1
(lp2
(lp3
S'NEW DELHI'
p4
aS'34'
p5
aS'Neutral'
p6
aa(lp7
S'Panipat'
p8
aS'239'
p9
aS'Event'
p10
aasS'PER'
p11
(lp12
(lp13
S'Lalu Prasad'
p14
aS'39'
p15
aS'Comment'
p16
aa(lp17
S'Prasad'
p18
aS'101'
p19
aS'Comment'
p20
aa(lp21
S'Prasad'
p22
aS'270'
p23
aS'Comment'
p24
aa(lp25
S'Prasad'
p26
aS'388'
p27
aS'Comment'
p28
aasS'TIM'
p29
(lp30
sS'hot_setting'
p31
S''
p32
sS'DAT'
p33
(lp34
S'Friday:42'
p35
aS'Sunday:80'
p36
asS'death'
p37
S'68'
p38
sS'title'
p39
S'Lalu announces tight security measures'
p40
sS'det_loc'
p41
(lp42
S'India'
p43
aS'Haryana'
p44
aS'Panipat'
p45
aS'Panipat'
p46
ag32
asS'terror_group'
p47
(lp48
g32
asS'content'
p49
VSpecial Correspondent . . Steps initiated to strengthen RPF , he tells Lok Sabha . . CCTVs , video cameras being installed in sensitive stations More number of sniffer dog squads . . NEW DELHI : Railway Minister Lalu Prasad on Friday announced that a number of measures , including tightening of security at railway stations and modernising the Railway Protection Force -LRB- RPF -RRB- , were being taken in the wake of firebombing of the Samjhauta Express on Sunday , which left 68 people dead . . . Making a suo motu statement in the Lok Sabha , Mr. Prasad said a number of new measures were put in place on Pakistan-bound trains . The Railways had taken steps to strengthen and modernise the RPF , besides increasing the number of sniffer dog squads and explosive detection devices . CCTVs and video cameras were being installed at all sensitive stations . Existing vacancies were being filled to augment the RPF 's strength . . . ` Intensive training is being given to the RPF to enhance its professional competence and efficiency . Steps like having only reserved accommodation in these trains , identification of individual passengers and their luggage before boarding the train and permitting excess baggage in a separate compartment are also being taken . ' . . Probe on . . He said the Bomb Disposal Squad recovered three suitcases from the accident site near Panipat and they contained Improvised Explosive Devices , kerosene and petrol . A statutory inquiry by the Commissioner of Railway Safety , Northern Circle , was on . . . Mr. Prasad said he had announced an ex-gratia of Rs . 10 lakh for the next of kin of the deceased and Rs . 50,000 for the injured , which was more than the normally paid amount . . . Compensation up to Rs . 4 lakh would be additionally payable to the affected by the Railway Claims Tribunal as per the extant rules . ' I have also ordered free rail services for relatives travelling for identification of the dead and for transportation of the bodies back . ' . . After the blasts rescue efforts were launched on a warfooting with the help of fire-fighting and medical relief teams of the Railways and local administration , Mr. Prasad said .
p50
sS'injured'
p51
g32
sS'org_unorg'
p52
g32
sS'O'
p53
(lp54
S'Steps initiated:5'
p55
aS'strengthen:8'
p56
aS'Lok Sabha:13'
p57
aS'CCTVs:17'
p58
aS'video cameras:19'
p59
aS'installed:22'
p60
aS'sensitive stations:24'
p61
aS'sniffer dog squads:29'
p62
aS'announced:43'
p63
aS'number of measures:46'
p64
aS'tightening of security:51'
p65
aS'railway stations:55'
p66
aS'modernising:58'
p67
aS'wake:72'
p68
aS'firebombing:74'
p69
aS'Samjhauta Express:77'
p70
aS'68 people dead:84'
p71
aS'suo motu:92'
p72
aS'Lok Sabha:97'
p73
aS'new measures:106'
p74
aS'Pakistan-bound trains:113'
p75
aS'Railways:117'
p76
aS'steps to strengthen:120'
p77
aS'modernise:124'
p78
aS'sniffer dog squads:133'
p79
aS'explosive detection devices:137'
p80
aS'CCTVs:141'
p81
aS'video cameras:143'
p82
aS'installed:147'
p83
aS'sensitive stations:150'
p84
aS'vacancies:154'
p85
aS'augment:159'
p86
aS"RPF 's strength:161"
p87
aS'Intensive training:168'
p88
aS'enhance:177'
p89
aS'professional competence:179'
p90
aS'efficiency:182'
p91
aS'reserved accommodation:188'
p92
aS'trains:192'
p93
aS'identification:194'
p94
aS'individual passengers:196'
p95
aS'luggage:200'
p96
aS'boarding:202'
p97
aS'train:204'
p98
aS'permitting excess baggage:206'
p99
aS'separate compartment:211'
p100
aS'Bomb Disposal Squad:228'
p101
aS'suitcases:233'
p102
aS'accident site:236'
p103
aS'Improvised Explosive Devices:243'
p104
aS'kerosene:247'
p105
aS'petrol:249'
p106
aS'statutory inquiry:252'
p107
aS'Commissioner of Railway Safety , Northern Circle:256'
p108
aS'announced:274'
p109
aS'ex-gratia of Rs . 10 lakh:276'
p110
aS'kin:286'
p111
aS'Rs . 50,000:291'
p112
aS'injured:296'
p113
aS'Compensation:309'
p114
aS'Rs . 4 lakh:312'
p115
aS'additionally payable:318'
p116
aS'Railway Claims Tribunal:325'
p117
aS'extant rules:331'
p118
aS'free rail services:339'
p119
aS'relatives travelling:343'
p120
aS'identification:346'
p121
aS'dead:349'
p122
aS'transportation:352'
p123
aS'bodies back:355'
p124
aS'blasts:363'
p125
aS'rescue:364'
p126
aS'launched:367'
p127
aS'warfooting:370'
p128
aS'fire-fighting:375'
p129
aS'medical relief teams:377'
p130
aS'Railways and local administration:382'
p131
asS'unexpl'
p132
(lp133
g32
asS'ocassion'
p134
g32
sS'link'
p135
S'http://www.thehindu.com/todays-paper/tp-national/lalu-announces-tight-security-measures/article1801632.ece'
p136
sS'date'
p137
S'18-02-2007'
p138
sS'target'
p139
S'TRAIN'
p140
sS'hot_spot'
p141
g32
sS'delivery_mod'
p142
g32
sS'delivery_met'
p143
S'PLANTED'
p144
sS'expl'
p145
(lp146
S'IED'
p147
asS'ORG'
p148
(lp149
(lp150
S'RPF'
p151
aS'9'
p152
aS'Others'
p153
aa(lp154
S'Railway Protection Force'
p155
aS'60'
p156
aS'Others'
p157
aa(lp158
S'RPF'
p159
aS'64'
p160
aS'Others'
p161
aa(lp162
S'RPF'
p163
aS'126'
p164
aS'Others'
p165
aa(lp166
S'RPF'
p167
aS'161'
p168
aS'Others'
p169
aa(lp170
S'RPF'
p171
aS'175'
p172
aS'Others'
p173
aas.