(dp0
S'LOC'
p1
(lp2
(lp3
S'Lucknow'
p4
aS'12'
p5
aS'Neutral'
p6
aa(lp7
S'Faizabad'
p8
aS'14'
p9
aS'Neutral'
p10
aasS'PER'
p11
(lp12
sS'TIM'
p13
(lp14
sS'hot_setting'
p15
S''
p16
sS'DAT'
p17
(lp18
S'Friday:22'
p19
asS'death'
p20
g16
sS'title'
p21
S'Ammonium nitrate used in UP serial blasts'
p22
sS'det_loc'
p23
(lp24
S'India'
p25
aS'Uttar Pradesh'
p26
aS'Faizabad'
p27
ag16
aS'Lucknow and Faizabad'
p28
asS'terror_group'
p29
(lp30
g16
asS'content'
p31
VAmmonium nitrate was used to make the bombs used in the Lucknow and Faizabad blasts , said Home ministry sources on Friday . The bombs were triggered off by timer devices . . . . . Details are awaited . .
p32
sS'injured'
p33
g16
sS'org_unorg'
p34
g16
sS'O'
p35
(lp36
S'bombs used in the Lucknow and Faizabad blasts:8'
p37
aS'triggered off by timer:27'
p38
asS'unexpl'
p39
(lp40
S'MECHANICAL TIMERS'
p41
asS'ocassion'
p42
g16
sS'link'
p43
S'http://www.rediff.com/news/2007/nov/23court7.htm'
p44
sS'date'
p45
S'23-11-2007'
p46
sS'target'
p47
g16
sS'hot_spot'
p48
g16
sS'delivery_mod'
p49
g16
sS'delivery_met'
p50
g16
sS'expl'
p51
(lp52
S'AMMONIUM NITRATE'
p53
asS'ORG'
p54
(lp55
s.