(dp0
S'LOC'
p1
(lp2
(lp3
S'Guwahati'
p4
aS'1'
p5
aS'Neutral'
p6
aa(lp7
S'Gate No 5'
p8
aS'16'
p9
aS'Event'
p10
aa(lp11
S'Bamunimaidan'
p12
aS'20'
p13
aS'Event'
p14
aa(lp15
S'Gate No 5'
p16
aS'94'
p17
aS'Event'
p18
aa(lp19
S'vegetable market'
p20
aS'104'
p21
aS'Neutral'
p22
aasS'PER'
p23
(lp24
(lp25
S'GP Singh'
p26
aS'41'
p27
aS'Comment'
p28
aa(lp29
S'Baba Khan'
p30
aS'142'
p31
aS'Others'
p32
aasS'TIM'
p33
(lp34
sS'hot_setting'
p35
S''
p36
sS'DAT'
p37
(lp38
sS'death'
p39
g5
sS'title'
p40
S'Blast at Guwahati, 1 killed and 10 injured'
p41
sS'org_unorg'
p42
S'ORGANISED'
p43
sS'terror_group'
p44
(lp45
g36
asS'content'
p46
VGuwahati : 1 kileld and 10 people were injured in a powerful blast at the Gate No 5 in Bamunimaidan area in the city around 11 . . . 45 am here today . . . DIG ( CWR ) GP Singh said : `` The bomb , an IED , was kept at an auto-van . . . Another cylinder also got burst creating the situation more tense . . . Ten persons were injured out of which the condition of one is stated to be critical . . . `` The Gate No 5 is usually packed with labourers at the vegetable market . . . The injured had been admitted at the GMC Hospital and MMC Hospital . . . Most of the deceased are petty labourers working in the market . . . ( With inputs from Baba Khan ) .
p47
sS'injured'
p48
S'10'
p49
sS'det_loc'
p50
(lp51
S'India'
p52
aS'Assam'
p53
aS'Kamrup'
p54
aS'Guwahati'
p55
aS'Bamunimaidan,Gate No 5'
p56
asS'O'
p57
(lp58
S'cylinder:61'
p59
asS'unexpl'
p60
(lp61
g36
asS'ocassion'
p62
g36
sS'link'
p63
S'http://www.assamtimes.org/node/413'
p64
sS'date'
p65
S'01-09-2007'
p66
sS'target'
p67
g36
sS'hot_spot'
p68
S'Bamunimaidan,Gate No 5'
p69
sS'delivery_mod'
p70
S'VAN'
p71
sS'delivery_met'
p72
S'PLANTED'
p73
sS'expl'
p74
(lp75
S'IED'
p76
asS'ORG'
p77
(lp78
(lp79
S'GMC Hospital'
p80
aS'116'
p81
aS'Others'
p82
aa(lp83
S'MMC Hospital'
p84
aS'119'
p85
aS'Others'
p86
aas.