(dp0
S'LOC'
p1
(lp2
(lp3
S'Keisampat'
p4
aS'20'
p5
aS'Event'
p6
aa(lp7
S'Imphal'
p8
aS'25'
p9
aS'Neutral'
p10
aasS'PER'
p11
(lp12
sS'TIM'
p13
(lp14
S'morning : 28'
p15
aS'9 AM : 48'
p16
asS'hot_setting'
p17
S''
p18
sS'DAT'
p19
(lp20
sS'death'
p21
g18
sS'title'
p22
S'2 Assam Rifles personnel injured in Imphal blast'
p23
sS'org_unorg'
p24
S'ORGANISED'
p25
sS'terror_group'
p26
(lp27
g18
asS'content'
p28
VImphal : Two Assam Rifles personnel were injured , one of them seriously , in a bomb blast at Keisampat in the heart of Imphal town this morning . . . Representational image . PTI . . The bomb , planted in a two-wheeler , exploded at 9 AM at a crowded bus terminal , barely one km away from the police headquarters , official sources said . . . The Assam Rifles personnel were patrolling the area . . . The injured have been shifted to a nearby hospital where the condition of one of them was stated to be serious , sources said . . . Top police officials rushed to the area . Preliminary reports said the blast could have been triggered by an IED and investigations were on .
p29
sS'injured'
p30
g18
sS'det_loc'
p31
(lp32
S'India'
p33
aS'Manipur'
p34
aS'Imphal West'
p35
aS'imphal'
p36
aS'Keisampat'
p37
asS'O'
p38
(lp39
S'police:62'
p40
asS'unexpl'
p41
(lp42
g18
asS'ocassion'
p43
g18
sS'link'
p44
S'http://www.firstpost.com/india/2-assam-rifles-personnel-injured-in-imphal-blast-444099.html'
p45
sS'date'
p46
S'05-09-2012'
p47
sS'target'
p48
g18
sS'hot_spot'
p49
S'Keisampat'
p50
sS'delivery_mod'
p51
S' TWO-WHEELER'
p52
sS'delivery_met'
p53
g18
sS'expl'
p54
(lp55
S'IED'
p56
asS'ORG'
p57
(lp58
(lp59
S'Assam Rifles'
p60
aS'4'
p61
aS'Others'
p62
aa(lp63
S'PTI'
p64
aS'35'
p65
aS'Others'
p66
aa(lp67
S'Assam Rifles'
p68
aS'72'
p69
aS'Others'
p70
aas.