(dp0
S'LOC'
p1
(lp2
(lp3
S'New Delhi'
p4
aS'1'
p5
aS'Neutral'
p6
aa(lp7
S'Uttar Pradesh'
p8
aS'14'
p9
aS'Event'
p10
aa(lp11
S'Lucknow'
p12
aS'66'
p13
aS'Event'
p14
aa(lp15
S'Varanasi'
p16
aS'68'
p17
aS'Event'
p18
aa(lp19
S'Faizabad'
p20
aS'70'
p21
aS'Event'
p22
aa(lp23
S'Uttar Pradesh'
p24
aS'72'
p25
aS'Event'
p26
aa(lp27
S'Varasani'
p28
aS'110'
p29
aS'Event'
p30
aa(lp31
S'local court'
p32
aS'117'
p33
aS'Event'
p34
aasS'PER'
p35
(lp36
sS'TIM'
p37
(lp38
sS'hot_setting'
p39
S''
p40
sS'DAT'
p41
(lp42
S'Friday:81'
p43
asS'death'
p44
g40
sS'title'
p45
S'Indian Mujahideen claims responsibility for UP blasts'
p46
sS'org_unorg'
p47
S'ORGANISED'
p48
sS'terror_group'
p49
(lp50
S'INDIAN MUJAHIDEEN'
p51
asS'content'
p52
VNew Delhi : About an hour and a half after serial blasts rocked Uttar Pradesh , Intelligence sources said little known outfit Indian Mujahideen have taken responsibility of the blast . . . Intelligence sources have told CNN-IBN that that a senior police official received an e-mail intimating him about who carried out the attack . . . Five bomb blasts rocked the cities of Lucknow , Varanasi and Faizabad in Uttar Pradesh almost within minutes of each other on Friday , throwing the security apparatus into a tizzy . . . At least 12 people were killed and many others were injured when the blasts occurred . In Varasani , the explosion occured at a local court premises during the busy court hour . . . Over 2,000 people were present in the court premises when the bomb went off . Early reports said there could be heavy casualties as it occurred in a crowded spot . . . .
p53
sS'injured'
p54
g40
sS'det_loc'
p55
(lp56
S'India'
p57
aS'Uttar Pradesh'
p58
ag40
ag40
aS'Uttar Pradesh'
p59
asS'O'
p60
(lp61
S'senior police:42'
p62
asS'unexpl'
p63
(lp64
g40
asS'ocassion'
p65
g40
sS'link'
p66
S'http://www.ibnlive.com/news/india/blast-responsibilty-276967.html'
p67
sS'date'
p68
S'23-11-2007'
p69
sS'target'
p70
g40
sS'hot_spot'
p71
S'Uttar Pradesh'
p72
sS'delivery_mod'
p73
g40
sS'delivery_met'
p74
S'PLANTED'
p75
sS'expl'
p76
(lp77
g40
asS'ORG'
p78
(lp79
(lp80
S'Indian Mujahideen'
p81
aS'23'
p82
aS'Accused'
p83
aa(lp84
S'CNN-IBN'
p85
aS'38'
p86
aS'Others'
p87
aa(lp88
S'e-mail'
p89
aS'47'
p90
aS'Others'
p91
aas.