(dp0
S'LOC'
p1
(lp2
(lp3
S'MUMBAI'
p4
aS'1'
p5
aS'Neutral'
p6
aa(lp7
S'Saifee hospital'
p8
aS'17'
p9
aS'Neutral'
p10
aa(lp11
S'Saifee'
p12
aS'17'
p13
aS'Neutral'
p14
aa(lp15
S'Saifee hospital'
p16
aS'17'
p17
aS'Neutral'
p18
aa(lp19
S'Saifee'
p20
aS'91'
p21
aS'Neutral'
p22
aa(lp23
S'Mumbai'
p24
aS'161'
p25
aS'Neutral'
p26
aa(lp27
S'Pakistan'
p28
aS'296'
p29
aS'Neutral'
p30
aa(lp31
S'Afghanistan'
p32
aS'298'
p33
aS'Neutral'
p34
aa(lp35
S'Kabutarkhana at Dadar'
p36
aS'321'
p37
aS'Neutral'
p38
aa(lp39
S'Kabutarkhana'
p40
aS'321'
p41
aS'Neutral'
p42
aa(lp43
S'Dadar'
p44
aS'323'
p45
aS'Neutral'
p46
aa(lp47
S'Opera House'
p48
aS'331'
p49
aS'Neutral'
p50
aa(lp51
S'Opera House and Zaveri Bazar'
p52
aS'331'
p53
aS'Neutral'
p54
aa(lp55
S'Zaveri Bazar'
p56
aS'344'
p57
aS'Neutral'
p58
aa(lp59
S'Opera House'
p60
aS'347'
p61
aS'Neutral'
p62
aa(lp63
S'Pakistan'
p64
aS'408'
p65
aS'Neutral'
p66
aa(lp67
S'India'
p68
aS'415'
p69
aS'Neutral'
p70
aa(lp71
S'Mumbai'
p72
aS'447'
p73
aS'Neutral'
p74
aa(lp75
S'KEM hospital'
p76
aS'575'
p77
aS'Neutral'
p78
aa(lp79
S'Maharashtra'
p80
aS'592'
p81
aS'Neutral'
p82
aa(lp83
S'Mumbai'
p84
aS'601'
p85
aS'Neutral'
p86
aa(lp87
S'Mumbai'
p88
aS'664'
p89
aS'Neutral'
p90
aasS'PER'
p91
(lp92
(lp93
S'Manmohan Singh'
p94
aS'5'
p95
aS'Others'
p96
aa(lp97
S'Sonia Gandhi'
p98
aS'11'
p99
aS'Others'
p100
aa(lp101
S'Prithviraj Chavan'
p102
aS'27'
p103
aS'Others'
p104
aa(lp105
S'Singh'
p106
aS'108'
p107
aS'Others'
p108
aa(lp109
S'Singh'
p110
aS'153'
p111
aS'Others'
p112
aa(lp113
S'P Chidambaram'
p114
aS'176'
p115
aS'Others'
p116
aa(lp117
S'Chavan'
p118
aS'241'
p119
aS'Others'
p120
aa(lp121
S'Ajit Pawar'
p122
aS'246'
p123
aS'Others'
p124
aa(lp125
S'R R Patil'
p126
aS'251'
p127
aS'Others'
p128
aa(lp129
S'Chidambaram'
p130
aS'265'
p131
aS'Others'
p132
aa(lp133
S'Chidambaram'
p134
aS'314'
p135
aS'Others'
p136
aa(lp137
S'L K Advani'
p138
aS'403'
p139
aS'Others'
p140
aa(lp141
S'Advani'
p142
aS'442'
p143
aS'Others'
p144
aa(lp145
S'Rahul Gandhi'
p146
aS'496'
p147
aS'Others'
p148
aa(lp149
S'Raj Thackeray-led'
p150
aS'523'
p151
aS'Others'
p152
aa(lp153
S'Chidambaram'
p154
aS'532'
p155
aS'Others'
p156
aa(lp157
S'Gandhi'
p158
aS'552'
p159
aS'Others'
p160
aa(lp161
S'Uddhav Thackeray'
p162
aS'563'
p163
aS'Others'
p164
aa(lp165
S'Bal Thackeray'
p166
aS'585'
p167
aS'Others'
p168
aa(lp169
S'Raj Thackeray'
p170
aS'625'
p171
aS'Others'
p172
aa(lp173
S'Gandhi'
p174
aS'631'
p175
aS'Others'
p176
aa(lp177
S'Gandhi'
p178
aS'640'
p179
aS'Others'
p180
aa(lp181
S'Gandhi'
p182
aS'653'
p183
aS'Others'
p184
aa(lp185
S'Raj'
p186
aS'669'
p187
aS'Others'
p188
aasS'TIM'
p189
(lp190
S'8.30 pm:20'
p191
aS'pm:21'
p192
asS'hot_setting'
p193
S''
p194
sS'DAT'
p195
(lp196
S'Thursday:14'
p197
aS'Wednesday:41'
p198
aS'Thursday:449'
p199
aS'Thursday morning:449'
p200
asS'death'
p201
g194
sS'title'
p202
S'PM, Sonia visit Mumbai blasts victims at Saifee'
p203
sS'org_unorg'
p204
g194
sS'terror_group'
p205
(lp206
g194
asS'content'
p207
VMUMBAI : Prime minister Manmohan Singh and Congress party leader Sonia Gandhi on Thursday arrived at Saifee hospital at 8.30 pm , along with chief minister Prithviraj Chavan , and went straight to the 6th floor , where victims of Wednesday 's serial blasts have been admitted , of which seven are in the ICU . Doctors appraised them of their condition and the entourage then went to the 5th floor , to meet other victims . They were at the hospital for 25 minutes . Eighteen victims are at Saifee , including a boy with an amputated leg . They later visited JJ Hospital too . Singh praised the state administration , saying it had risen remarkably well after the blasts . ` There has been a remarkable coordination of efforts . Now , the task is to find out who the culprits are and bring them to justice , ' Singh said , adding he had come to Mumbai to share the deep sorrow of the people . Earlier , Union home minister P Chidambaram stated that all cities were vulnerable to attacks and admitted that neither the Centre nor the state government had intelligence inputs about the serial blasts . However , he made it clear that having no prior inputs did not necessarily mean intelligence failure . The minister , who was addressing the media at the state government 's guest house , was accompanied by Chavan , deputy chief minister Ajit Pawar , home minister R R Patil and key state officials . After visiting the blast sites , Chidambaram pointed out that ammonium nitrate was used in all three blasts . He stated that the blasts were well coordinated . ` Indians are living in troubled neighborhoods , as Pakistan and Afghanistan have become epicentres of terrorism . All cities are vulnerable , ' he added . Chidambaram observed that the blast near the Kabutarkhana at Dadar was low intensity , while those at Opera House and Zaveri Bazar were of medium to high intensity . ` Zaveri Bazar and Opera House have narrow bylanes with a high density of population . Even a low intensity blast would have a great impact ... this could be why the neighborhoods were chosen for the attack , ' he said . He also appreciated the resilience shown by all Mumbaikars . Bharatiya Janata Party -LRB- BJP -RRB- leader L K Advani said that Pakistan was waging a proxy war against India through terror attacks , and added that there was no point in continuing dialogue with the neighbour until it dismantled terror camps on its soil . Advani , who arrived in Mumbai on Thursday morning , visited the blast sites as well as victims in various hospitals . The city , he said , had become a favourite target for terrorists , adding that the attacks were not an intelligence failure but the failure of government policy . Meanwhile , Rahul Gandhi 's remark that it was impossible to stop terrorist activities in the country has raised the hackles of the opposition Shiv Sena-BJP combine and the Raj Thackeray-led Maharashtra Navnirman Sena -LRB- MNS -RRB- . Chidambaram too earned the opposition 's ire for his statement that the blasts do not indicate intelligence failure . ` Gandhi 's statement smacks of gross insensitivity , ' Sena CEO Uddhav Thackeray said . He was talking informally to mediapersons after visiting KEM hospital , where he met victims . Sena chief Bal Thackeray condemned the Centre and the Maharashtra government for the ` dastardly ' attack on Mumbai , and urged Mumbaikars to arm themselves for protection in view of the apathy and indifference of those in power . MNS chief Raj Thackeray came down heavily on Gandhi for his ` foolish remark ' . ` Gandhi should remember that his father and grandmother died in terror attacks . Gandhi should have displayed sensitivity to those who died in the Mumbai blasts , ' said Raj .
p208
sS'injured'
p209
g194
sS'det_loc'
p210
(lp211
S'India'
p212
aS'Maharashtra'
p213
aS'Mumbai-City'
p214
aS'Mumbai'
p215
ag194
asS'O'
p216
(lp217
S'prime minister:3'
p218
aS'congress:8'
p219
aS'party leader:9'
p220
aS'hospital:18'
p221
aS'minister:26'
p222
aS'floor:36'
p223
aS'serial:43'
p224
aS'icu:55'
p225
aS'condition:62'
p226
aS'entourage:65'
p227
aS'floor:71'
p228
aS'hospital:82'
p229
aS'boy:95'
p230
aS'leg:99'
p231
aS'singh:108'
p232
aS'state administration:111'
p233
aS'coordination:130'
p234
aS'task:137'
p235
aS'justice:150'
p236
aS'sorrow:166'
p237
aS'union:173'
p238
aS'union home minister:173'
p239
aS'centre:191'
p240
aS'state government:194'
p241
aS'intelligence:197'
p242
aS'serial:201'
p243
aS'intelligence failure:219'
p244
aS'minister:223'
p245
aS'state government:232'
p246
aS'guest house:235'
p247
aS'deputy chief minister:243'
p248
aS'home minister:249'
p249
aS'state:256'
p250
aS'blast:262'
p251
aS'ammonium nitrate:269'
p252
aS'terrorism:303'
p253
aS'blast:318'
p254
aS'intensity:326'
p255
aS'medium:338'
p256
aS'intensity:341'
p257
aS'density:355'
p258
aS'population:357'
p259
aS'intensity blast:362'
p260
aS'impact:368'
p261
aS'attack:380'
p262
aS'resilience:390'
p263
aS'mumbaikars:394'
p264
aS'proxy war:412'
p265
aS'terror:417'
p266
aS'point:426'
p267
aS'dialogue:429'
p268
aS'neighbour:432'
p269
aS'terror:436'
p270
aS'soil:440'
p271
aS'morning:450'
p272
aS'blast:454'
p273
aS'city:465'
p274
aS'target:474'
p275
aS'intelligence failure:485'
p276
aS'failure:489'
p277
aS'government policy:491'
p278
aS'remark:499'
p279
aS'country:510'
p280
aS'opposition:536'
p281
aS'ire:538'
p282
aS'statement:541'
p283
aS'intelligence failure:548'
p284
aS'statement:554'
p285
aS'insensitivity:558'
p286
aS'sena:583'
p287
aS'centre:589'
p288
aS'government:593'
p289
aS'attack:599'
p290
aS'mumbaikars:605'
p291
aS'protection:610'
p292
aS'view:612'
p293
aS'apathy:615'
p294
aS'indifference:617'
p295
aS'power:621'
p296
aS'mns chief:623'
p297
aS'remark:636'
p298
aS'father:645'
p299
aS'grandmother:647'
p300
aS'terror:650'
p301
asS'unexpl'
p302
(lp303
g194
asS'ocassion'
p304
g194
sS'link'
p305
S'http://timesofindia.indiatimes.com/city/mumbai/PM-Sonia-visit-Mumbai-blasts-victims-at-Saifee/articleshow/9229488.cms?referral=PM'
p306
sS'date'
p307
S'13-07-2011'
p308
sS'target'
p309
S'MARKET PLACE'
p310
sS'hot_spot'
p311
g194
sS'delivery_mod'
p312
g194
sS'delivery_met'
p313
g194
sS'expl'
p314
(lp315
S'AMMONIUM NITRATE'
p316
asS'ORG'
p317
(lp318
(lp319
S'Congress'
p320
aS'8'
p321
aS'Others'
p322
aa(lp323
S'JJ Hospital'
p324
aS'104'
p325
aS'Others'
p326
aa(lp327
S'Bharatiya Janata Party'
p328
aS'396'
p329
aS'Others'
p330
aa(lp331
S'BJP'
p332
aS'400'
p333
aS'Others'
p334
aa(lp335
S'Shiv Sena-BJP'
p336
aS'518'
p337
aS'Others'
p338
aa(lp339
S'Maharashtra Navnirman Sena'
p340
aS'525'
p341
aS'Others'
p342
aa(lp343
S'MNS'
p344
aS'529'
p345
aS'Others'
p346
aa(lp347
S'Sena'
p348
aS'561'
p349
aS'Others'
p350
aa(lp351
S'Sena'
p352
aS'583'
p353
aS'Others'
p354
aa(lp355
S'MNS'
p356
aS'623'
p357
aS'Others'
p358
aas.