(dp0
S'LOC'
p1
(lp2
(lp3
S'Mumbai'
p4
aS'13'
p5
aS'Neutral'
p6
aa(lp7
S'India'
p8
aS'27'
p9
aS'Neutral'
p10
aa(lp11
S'Pakistan'
p12
aS'29'
p13
aS'Neutral'
p14
aa(lp15
S'Mumbai'
p16
aS'45'
p17
aS'Event'
p18
aa(lp19
S'Mumbai'
p20
aS'60'
p21
aS'Event'
p22
aa(lp23
S'Palestine'
p24
aS'62'
p25
aS'Neutral'
p26
aa(lp27
S'Karachi'
p28
aS'64'
p29
aS'Neutral'
p30
aa(lp31
S'Kashmir'
p32
aS'66'
p33
aS'Neutral'
p34
aasS'PER'
p35
(lp36
(lp37
S'Mirwaiz Umar Farooq'
p38
aS'6'
p39
aS'Comment'
p40
aa(lp41
S'Mirwaiz'
p42
aS'77'
p43
aS'Comment'
p44
aasS'TIM'
p45
(lp46
sS'hot_setting'
p47
S''
p48
sS'DAT'
p49
(lp50
S'Thursday : 10'
p51
asS'death'
p52
g48
sS'title'
p53
S'Hurriyat condemns Mumbai blasts'
p54
sS'org_unorg'
p55
g48
sS'terror_group'
p56
(lp57
g48
asS'content'
p58
VChairman of moderate Hurriyat faction Mirwaiz Umar Farooq on Thursday condemned the Mumbai serial blasts saying such incidents are orchestrated to derail the dialogue process between India and Pakistan . . . `` We are saddened by the huge loss of life in the Mumbai blasts and condemn it . Spilling the blood of innocents ? be it in Mumbai , Palestine , Karachi or Kashmir ? is a shameful and inhuman act , '' the Mirwaiz said in a statement .
p59
sS'injured'
p60
g48
sS'det_loc'
p61
(lp62
S'India'
p63
aS'Maharashtra'
p64
aS'Mumbai-City'
p65
aS'Mumbai'
p66
aS'Mumbai'
p67
asS'O'
p68
(lp69
g48
asS'unexpl'
p70
(lp71
g48
asS'ocassion'
p72
g48
sS'link'
p73
S'http://www.saharasamay.com/nation-news/676490448/hurriyat-condemns-mumbai-blasts.html'
p74
sS'date'
p75
S'14-07-2011'
p76
sS'target'
p77
g48
sS'hot_spot'
p78
S'Mumbai'
p79
sS'delivery_mod'
p80
g48
sS'delivery_met'
p81
g48
sS'expl'
p82
(lp83
g48
asS'ORG'
p84
(lp85
(lp86
S'Hurriyat'
p87
aS'4'
p88
aS'Others'
p89
aas.