(dp0
S'LOC'
p1
(lp2
(lp3
S'Agartala'
p4
aS'10'
p5
aS'Event'
p6
aa(lp7
S'Bhati-Avoynagar'
p8
aS'95'
p9
aS'Accused Location'
p10
aa(lp11
S'Agartala'
p12
aS'97'
p13
aS'Event'
p14
aa(lp15
S'Khowai'
p16
aS'127'
p17
aS'Accused Location'
p18
aa(lp19
S'West Tripura'
p20
aS'129'
p21
aS'Accused Location'
p22
aa(lp23
S'Bangladesh'
p24
aS'162'
p25
aS'Source'
p26
aa(lp27
S'Munshighat'
p28
aS'166'
p29
aS'Accused Location'
p30
aa(lp31
S'Chittagong'
p32
aS'169'
p33
aS'Accused Location'
p34
aa(lp35
S'Sylhet'
p36
aS'190'
p37
aS'Source'
p38
aa(lp39
S'Sidhai'
p40
aS'203'
p41
aS'Source'
p42
aa(lp43
S'Sylhet'
p44
aS'207'
p45
aS'Source'
p46
aa(lp47
S'Agartala'
p48
aS'212'
p49
aS'Event'
p50
aasS'PER'
p51
(lp52
(lp53
S'Shanti Debbarma'
p54
aS'47'
p55
aS'Accused'
p56
aa(lp57
S'Angad Santhal'
p58
aS'50'
p59
aS'Accused'
p60
aa(lp61
S'Bikash Debbarma'
p62
aS'60'
p63
aS'Accused'
p64
aa(lp65
S'Bikash'
p66
aS'115'
p67
aS'Accused'
p68
aa(lp69
S'Bikash'
p70
aS'142'
p71
aS'Accused'
p72
aa(lp73
S'Bikash'
p74
aS'221'
p75
aS'Accused'
p76
aa(lp77
S'Bikash'
p78
aS'230'
p79
aS'Accused'
p80
aasS'TIM'
p81
(lp82
sS'hot_setting'
p83
S''
p84
sS'DAT'
p85
(lp86
S'October 1:5'
p87
aS'October:5'
p88
aS'Wednesday:38'
p89
aS'October 11:92'
p90
aS'October 13:133'
p91
asS'death'
p92
g84
sS'title'
p93
S'ATTF behind Agartala serial blasts: CID'
p94
sS'det_loc'
p95
(lp96
S'India'
p97
aS'Tripura'
p98
aS'Dhalai District'
p99
aS'Agartala'
p100
ag84
asS'terror_group'
p101
(lp102
g84
asS'content'
p103
VThe mystery behind the October 1 serial blasts in Agartala that left 100 injured has been solved with the police zeroing in on the outlawed All Tripura Tiger Forceand arresting the mastermind , the CID said on Wednesday . . . Two arrested overground ATTF activists Shanti Debbarma and Angad Santhal first provided the lead during interrogation that 25-year-old Bikash Debbarma belonging to the outfit masterminded the blasts , CID sources said . . . Based on the information provided by the duo , the police raided a rented house on October 11 at Bhati-Avoynagar in Agartala and seized bomb-making material and the cover of the SIM cards used in the blasts , but Bikash had already escaped . . . He was subsequently arrested from Khowai in West Tripura district on October 13 , the sources said . . . Bikash and another insurgent of the ATTF were trained by the Bangladesh Riflesand DGFIi , the intelligence wing of the Bangladesh Army , at Munshighat , near Chittagong two months ago , the sources said . . . The explosives used were supplied from ATTF base camps in Sylhet district . They were transported by a collaborator of the ATTF from Sidhai area , bordering Sylhet , 40 km from Agartala , and taken to the house rented by Bikash , according to the sources . . . Bikash used a mobile phone to trigger the blasts himself , the sources added . .
p104
sS'injured'
p105
S'100'
p106
sS'org_unorg'
p107
g84
sS'O'
p108
(lp109
S'serial blasts in Agartala:7'
p110
aS'arresting the mastermind:30'
p111
aS'interrogation:57'
p112
aS'outfit masterminded the blasts:65'
p113
aS'raided a rented:87'
p114
aS'seized bomb-making material:99'
p115
aS'SIM cards used in the blasts:107'
p116
aS'Bangladesh Riflesand DGFIi:153'
p117
aS'intelligence wing of the Bangladesh Army:158'
p118
aS'mobile phone to trigger the blasts:233'
p119
asS'unexpl'
p120
(lp121
g84
asS'ocassion'
p122
g84
sS'link'
p123
S'http://www.rediff.com/news/2008/oct/15agar.htm'
p124
sS'date'
p125
S'01-10-2008'
p126
sS'target'
p127
g84
sS'hot_spot'
p128
g84
sS'delivery_mod'
p129
S'MOBILE PHONE'
p130
sS'delivery_met'
p131
g84
sS'expl'
p132
(lp133
g84
asS'ORG'
p134
(lp135
(lp136
S'All Tripura Tiger Forceand'
p137
aS'26'
p138
aS'Accused'
p139
aa(lp140
S'CID'
p141
aS'35'
p142
aS'Others'
p143
aa(lp144
S'ATTF'
p145
aS'45'
p146
aS'Accused'
p147
aa(lp148
S'CID'
p149
aS'70'
p150
aS'Others'
p151
aa(lp152
S'ATTF'
p153
aS'148'
p154
aS'Accused'
p155
aa(lp156
S'DGFIi'
p157
aS'155'
p158
aS'Others'
p159
aa(lp160
S'ATTF'
p161
aS'186'
p162
aS'Accused'
p163
aa(lp164
S'ATTF'
p165
aS'201'
p166
aS'Accused'
p167
aas.