(dp0
S'LOC'
p1
(lp2
(lp3
S'Uttar Pradesh'
p4
aS'1'
p5
aS'Event'
p6
aa(lp7
S'Gorakhpur'
p8
aS'15'
p9
aS'Event'
p10
aa(lp11
S'Lucknow'
p12
aS'25'
p13
aS'Neutral'
p14
aa(lp15
S'Uttar Pradesh'
p16
aS'30'
p17
aS'Event'
p18
aa(lp19
S'Gorakhpur'
p20
aS'44'
p21
aS'Event'
p22
aa(lp23
S'Gorakhpur'
p24
aS'64'
p25
aS'Event'
p26
aa(lp27
S'Gorakhpur'
p28
aS'113'
p29
aS'Event'
p30
aa(lp31
S'Gorakhpur'
p32
aS'136'
p33
aS'Event'
p34
aa(lp35
S'Faizabad'
p36
aS'179'
p37
aS'Neutral'
p38
aa(lp39
S'Uttar Pradesh'
p40
aS'197'
p41
aS'Event'
p42
aa(lp43
S'Allahabad'
p44
aS'242'
p45
aS'Neutral'
p46
aa(lp47
S'Varanasi'
p48
aS'244'
p49
aS'Neutral'
p50
aa(lp51
S'Kanpur'
p52
aS'306'
p53
aS'Neutral'
p54
aa(lp55
S'Gorakhpur'
p56
aS'318'
p57
aS'Event'
p58
aa(lp59
S'Baldev Plaza'
p60
aS'453'
p61
aS'Event'
p62
aa(lp63
S'Ganesh Hotel'
p64
aS'464'
p65
aS'Event'
p66
aa(lp67
S'Jalkal Building'
p68
aS'468'
p69
aS'Event'
p70
aa(lp71
S'Mecca mosque'
p72
aS'553'
p73
aS'Assoc Event Location'
p74
aa(lp75
S'Hyderabad'
p76
aS'556'
p77
aS'Assoc Event Location'
p78
aasS'PER'
p79
(lp80
(lp81
S'Mayawati'
p82
aS'5'
p83
aS'Comment'
p84
aa(lp85
S'Mayawati'
p86
aS'34'
p87
aS'Comment'
p88
aa(lp89
S'R.K. Chaturvedi'
p90
aS'299'
p91
aS'Comment'
p92
aa(lp93
S'Suryakant Tripathi'
p94
aS'369'
p95
aS'Comment'
p96
aa(lp97
S'Pradeep Singh'
p98
aS'438'
p99
aS'Comment'
p100
aasS'TIM'
p101
(lp102
S'today : 6'
p103
aS'today : 35'
p104
aS'today : 137'
p105
aS'7.00 p.m.:509'
p106
aS'p.m.:510'
p107
aS'five minutes : 518'
p108
aS'last week : 560'
p109
asS'hot_setting'
p110
S''
p111
sS'DAT'
p112
(lp113
S'May 23 : 27'
p114
aS'Tuesday : 141'
p115
aS'Wednesday : 157'
p116
aS'Tuesday : 542'
p117
asS'death'
p118
g111
sS'title'
p119
S'Mayawati orders thorough probe into Gorakhpur blasts'
p120
sS'det_loc'
p121
(lp122
S'India'
p123
aS'Uttar Pradesh'
p124
aS'Gorakpur'
p125
aS'Lucknow'
p126
ag111
asS'terror_group'
p127
(lp128
g111
asS'content'
p129
VUttar Pradesh Chief Minister Mayawati today said that senior officials have been rushed to Gorakhpur District to conduct a thorough probe . . . Lucknow , May 23 : Uttar Pradesh Chief Minister Mayawati today said that senior officials have been rushed to Gorakhpur District to conduct a `` thorough probe '' . . . Suspecting a `` big conspiracy '' behind the Gorakhpur serial blasts , in which six persons were injured , she said the state police chief , Principal Secretary ( home ) , Additional Director General of Police ( Law and Order ) and Additional Director General of Police ( Special Task Force ) had been sent to Gorakhpur by air to monitor the investigation . . . Traders and activists of the Hindu Yuva Vahini are observing a shutdown in Gorakhpur today in protest against Tuesday 's three bomb blasts in the town 's busiest shopping area . . . On Wednesday , police said they had recovered 10 kgs of explosives and 20 litres of ammonium nitrate from a railway station in Faizabad at around 2.00 a.m.According to the police , the explosives were recovered during a search . . Uttar Pradesh has been placed on state of high alert following the incident . . . Security has also been beefed around the famous Dwarkadheesh , Bankey Behari Ji , Daan Ghati and Krishna Balram and Gorakhnath temples and in the nearby holy towns of Allahabad and Varanasi . . . Orders for special vigil at the fair of Goverdhan where scores of pilgrims perform Parikrama of hillock Goverdhan were issued . . . Checking in yellow Zone area at the two shrines of Sri Krishna Janmasthan has also begun with special vigil at railway and bus stations , District Police Chief R.K. Chaturvedi said . . . A Kanpur report said security has been beefed up in the city following Gorakhpur blasts . . . `` Security measures have been put in place . Strict checking is on across all cinemas , railway stations , bus stations . People are being urged not to lend ears to rumours and to report if they come across any unattended object , '' said Suryakant Tripathi , a senior police officer . . . Police have been placed on alert in the city and exit points , besides the India-Nepal border . . . Local said the explosions were created to spread terror and create a rift among the people . . . `` The blasts were aimed at spreading terror among people . It targeted the harmony among people , '' said Pradeep Singh , a local . . . The first blast took place near the Baldev Plaza shopping complex . Two more bombs exploded at the Ganesh Hotel and the Jalkal Building respectively . . . The bombs were wrapped in polythene bags and packed in tiffin boxes before being planted on bicycles and a scooter parked in crowded places in the city . . . The blasts went off around 7.00 p.m. , each with an interval of about five minutes . . . The Union Home Ministry has reportedly asked the State Government to give details about the blasts . . . Tuesday 's serial blasts came after a bomb blast at the Mecca mosque in Hyderabad that killed 13 last week . . . addthis_url = location.href ; addthis_title = document.title ; addthis_pub = ` vijaytech ' ; . . a36 ( ) ; . . .
p130
sS'injured'
p131
S'6'
p132
sS'org_unorg'
p133
g111
sS'O'
p134
(lp135
S'thorough probe:20'
p136
aS'thorough probe:50'
p137
aS'big conspiracy:59'
p138
aS'serial blasts:65'
p139
aS'injured:73'
p140
aS'Law and Order:94'
p141
aS'investigation:119'
p142
aS'Traders:123'
p143
aS'activists:125'
p144
aS'three bomb blasts:143'
p145
aS'explosives:167'
p146
aS'ammonium nitrate:172'
p147
aS'railway station:176'
p148
aS'explosives:189'
p149
aS'high alert:205'
p150
aS'Dwarkadheesh:221'
p151
aS'Bankey Behari Ji:223'
p152
aS'Daan Ghati:227'
p153
aS'Krishna Balram:230'
p154
aS'Gorakhnath temples:233'
p155
aS'Goverdhan:256'
p156
aS'pilgrims:260'
p157
aS'Parikrama:262'
p158
aS'hillock Goverdhan:264'
p159
aS'Sri Krishna Janmasthan:281'
p160
aS'railway:291'
p161
aS'bus stations:293'
p162
aS'blasts:319'
p163
aS'railway stations:340'
p164
aS'bus stations:343'
p165
aS'India-Nepal border:394'
p166
aS'explosions:402'
p167
aS'terror:407'
p168
aS'blasts:420'
p169
aS'terror:425'
p170
aS'first blast:447'
p171
aS'bombs exploded:460'
p172
aS'bombs:475'
p173
aS'polythene bags:479'
p174
aS'tiffin boxes:484'
p175
aS'planted:488'
p176
aS'bicycles:490'
p177
aS'scooter parked:493'
p178
aS'blasts:538'
p179
aS'serial blasts:544'
p180
aS'bomb blast:549'
p181
asS'unexpl'
p182
(lp183
g111
asS'ocassion'
p184
g111
sS'link'
p185
S'http://www.andhranews.net/India/2007/May/23-Mayawati-orders-thorough-2239.asp'
p186
sS'date'
p187
S'22-05-2007'
p188
sS'target'
p189
S'PUBLIC PLACES'
p190
sS'hot_spot'
p191
g111
sS'delivery_mod'
p192
S'PLASTIC BAG'
p193
sS'delivery_met'
p194
S'PLANTED'
p195
sS'expl'
p196
(lp197
S'AMMONIUM NITRATE'
p198
asS'ORG'
p199
(lp200
(lp201
S'Special Task Force'
p202
aS'105'
p203
aS'Others'
p204
aa(lp205
S'Hindu Yuva Vahini'
p206
aS'128'
p207
aS'Others'
p208
aa(lp209
S'State Government'
p210
aS'531'
p211
aS'Others'
p212
aas.