(dp0
S'LOC'
p1
(lp2
(lp3
S'NEW DELHI'
p4
aS'5'
p5
aS'Neutral'
p6
aa(lp7
S'Uttar Pradesh'
p8
aS'96'
p9
aS'Event'
p10
aa(lp11
S'Agra'
p12
aS'137'
p13
aS'Neutral'
p14
aa(lp15
S'Aligarh'
p16
aS'140'
p17
aS'Neutral'
p18
aa(lp19
S'Rajasthan'
p20
aS'211'
p21
aS'Neutral'
p22
aa(lp23
S'Uttar Pradesh'
p24
aS'213'
p25
aS'Event'
p26
aa(lp27
S'Delhi'
p28
aS'216'
p29
aS'Neutral'
p30
aasS'PER'
p31
(lp32
sS'TIM'
p33
(lp34
sS'hot_setting'
p35
S''
p36
sS'DAT'
p37
(lp38
S'January 11 , 2006 : 87'
p39
asS'death'
p40
g36
sS'title'
p41
S'U.P.-based module involved?'
p42
sS'det_loc'
p43
(lp44
S'India'
p45
aS'Uttar Pradesh'
p46
ag36
ag36
ag36
asS'terror_group'
p47
(lp48
g36
asS'content'
p49
VStaff Reporter . . NEW DELHI : Although no evidence has so far emerged on the involvement of any particular outfit in the Samjhauta Express blasts , investigations are on to find out if an Uttar Pradesh-based module carried out the blasts . . . The forensic team examining the suitcase containing an unexploded bomb that was recovered from the railway tracks near the blasts site , found a mixture of chemicals wrapped in a piece of newspaper . The torn page of the newspaper dated January 11 , 2006 , belongs to a western Uttar Pradesh edition of a renowned Hindi daily . It carries an article by a news agency about the recovery of 114 live grenades from inside the Golden Temple . . . Initial enquiries have indicated that it could be the Agra or nearby Aligarh edition of the newspaper . . . ` It raises doubts about the role of an outfit like SIMI . However , at the initial stage of investigations we can not concentrate on just one organisation , ' said a police officer . . . A police source said that no arrests had been made in the case so far . . . However , some persons were questioned in Rajasthan , Uttar Pradesh and Delhi in connection with the blasts , the source said .
p50
sS'injured'
p51
g36
sS'org_unorg'
p52
g36
sS'O'
p53
(lp54
S'no evidence:9'
p55
aS'emerged:14'
p56
aS'particular outfit:20'
p57
aS'samjhauta express blasts:24'
p58
aS'investigations:28'
p59
aS'uttar pradesh-based module:36'
p60
aS'blasts:42'
p61
aS'examining:49'
p62
aS'suitcase:51'
p63
aS'unexploded bomb:54'
p64
aS'railway tracks:61'
p65
aS'blasts site:65'
p66
aS'mixture of chemicals:70'
p67
aS'western uttar pradesh edition:95'
p68
aS'article:108'
p69
aS'news agency:111'
p70
aS'114 live grenades:117'
p71
aS'golden temple:123'
p72
aS'initial enquiries:128'
p73
aS'raises doubts:150'
p74
aS'outfit:157'
p75
aS'initial stage:165'
p76
aS'investigations:168'
p77
aS'concentrate:172'
p78
aS'organisation:176'
p79
aS'police source:187'
p80
aS'no arrests:191'
p81
aS'case:198'
p82
aS'questioned:209'
p83
aS'connection:218'
p84
aS'blasts:221'
p85
asS'unexpl'
p86
(lp87
g36
asS'ocassion'
p88
g36
sS'link'
p89
S'http://www.thehindu.com/todays-paper/tp-national/upbased-module-involved/article1801397.ece'
p90
sS'date'
p91
S'18-02-2008'
p92
sS'target'
p93
S'RAILWAY'
p94
sS'hot_spot'
p95
g36
sS'delivery_mod'
p96
g36
sS'delivery_met'
p97
S'PLANTED'
p98
sS'expl'
p99
(lp100
g36
asS'ORG'
p101
(lp102
(lp103
S'forensic team'
p104
aS'47'
p105
aS'Others'
p106
aa(lp107
S'SIMI'
p108
aS'159'
p109
aS'Others'
p110
aas.