(dp0
S'LOC'
p1
(lp2
(lp3
S'New Delhi'
p4
aS'1'
p5
aS'Neutral'
p6
aa(lp7
S'Pune'
p8
aS'19'
p9
aS'Neutral'
p10
aa(lp11
S'Delhi Police'
p12
aS'28'
p13
aS'Neutral'
p14
aa(lp15
S'Delhi'
p16
aS'28'
p17
aS'Neutral'
p18
aa(lp19
S'bus stand'
p20
aS'63'
p21
aS'Neutral'
p22
aa(lp23
S'Jaipur'
p24
aS'66'
p25
aS'Neutral'
p26
aa(lp27
S'Pune'
p28
aS'86'
p29
aS'Neutral'
p30
aa(lp31
S'Delhi'
p32
aS'140'
p33
aS'Neutral'
p34
aa(lp35
S'Nizamuddin Railway Station'
p36
aS'164'
p37
aS'Neutral'
p38
aasS'PER'
p39
(lp40
(lp41
S'Landge Irfan Mustafa'
p42
aS'52'
p43
aS'Accused'
p44
aa(lp45
S'Mustafa'
p46
aS'77'
p47
aS'Accused'
p48
aa(lp49
S'SN Srivastav'
p50
aS'104'
p51
aS'Others'
p52
aa(lp53
S'Mustafa'
p54
aS'109'
p55
aS'Accused'
p56
aa(lp57
S'Asad Khan'
p58
aS'126'
p59
aS'Accused'
p60
aa(lp61
S'Imran Khan'
p62
aS'132'
p63
aS'Accused'
p64
aa(lp65
S'Sayed Firoz'
p66
aS'150'
p67
aS'Accused'
p68
aa(lp69
S'Hamza'
p70
aS'153'
p71
aS'Accused'
p72
aasS'TIM'
p73
(lp74
sS'hot_setting'
p75
S''
p76
sS'DAT'
p77
(lp78
S'1 August : 17'
p79
aS'Wednesday:34'
p80
aS'10 October : 68'
p81
aS'30 October : 121'
p82
aS'26 September:142'
p83
aS'1 October : 160'
p84
asS'death'
p85
g76
sS'title'
p86
S'Fourth accused in Pune blast arrested'
p87
sS'org_unorg'
p88
S'ORGANISED'
p89
sS'terror_group'
p90
(lp91
S'INDIAN MUJAHIDEEN'
p92
asS'content'
p93
VNew Delhi : The fourth suspected Indian Mujahideen ( IM ) operative allegedly involved in the 1 August Pune blast was arrested by the Special Cell of Delhi Police , an official said Wednesday . The other three accused were arrested earlier . . . The accused has been identified as Landge Irfan Mustafa , 30 . He was arrested near a bus stand in Jaipur on 10 October , police said . . . `` Mustafa was one of the other accused in the Pune blast . Many are still absconding , '' said Special Commissioner of Police ( Special Cell ) SN Srivastav . . . Mustafa is undergoing 20 days of police custody , which ends on 30 October . . . Asad Khan , 33 , and Imran Khan , 31 were arrested from south Delhi on 26 September . The third alleged operative , Sayed Firoz alias Hamza , 38 , was arrested on 1 October from the Nizamuddin Railway Station here .
p94
sS'injured'
p95
g76
sS'det_loc'
p96
(lp97
S'India'
p98
aS'Maharashtra'
p99
aS'Pune'
p100
aS'pune'
p101
aS'Pune'
p102
asS'O'
p103
(lp104
S'police:71'
p105
aS'Special Commissioner of Police:96'
p106
asS'unexpl'
p107
(lp108
g76
asS'ocassion'
p109
g76
sS'link'
p110
S'http://www.firstpost.com/india/fourth-accused-in-pune-blast-arrested-494126.html'
p111
sS'date'
p112
S'17-10-2012'
p113
sS'target'
p114
g76
sS'hot_spot'
p115
S'Pune'
p116
sS'delivery_mod'
p117
g76
sS'delivery_met'
p118
S'PLANTED'
p119
sS'expl'
p120
(lp121
g76
asS'ORG'
p122
(lp123
(lp124
S'Indian Mujahideen'
p125
aS'7'
p126
aS'Accused'
p127
aa(lp128
S'IM'
p129
aS'10'
p130
aS'Others'
p131
aa(lp132
S'Special Cell'
p133
aS'25'
p134
aS'Others'
p135
aas.