(dp0
S'LOC'
p1
(lp2
(lp3
S'Pune'
p4
aS'16'
p5
aS'Event'
p6
aa(lp7
S'Maharashtra'
p8
aS'71'
p9
aS'Accused Location'
p10
aasS'PER'
p11
(lp12
(lp13
S'D. Raja'
p14
aS'136'
p15
aS'Comment'
p16
aasS'TIM'
p17
(lp18
sS'hot_setting'
p19
S''
p20
sS'DAT'
p21
(lp22
sS'death'
p23
g20
sS'title'
p24
S'Left: help Maharashtra identify culprits'
p25
sS'det_loc'
p26
(lp27
S'India'
p28
aS'Maharashtra'
p29
ag20
aS'Pune'
p30
aS'Pune'
p31
asS'terror_group'
p32
(lp33
g20
asS'content'
p34
VThe Polit Bureau said media reports that there were warnings of a possible attack in Pune ` are disturbing as these attacks have taken place despite this . ' . . In a statement , the party said it was imperative in the interests of the country 's security that such lapses were rectified urgently . . . The Polit Bureau called upon the Central government to provide assistance to Maharashtra to ` identify the culprits . ' . . It also conveyed its condolences to the families of victims and wished the injured a speedy recovery . . . Bring out truth : CPI . . The Communist Party of India demanded that the government bring out the truth behind the blast and expose those responsible for it . . . Its national secretary D. Raja said the government should speak through its actions and not indulge in rhetoric stating that there was no intelligence failure .
p35
sS'injured'
p36
g20
sS'org_unorg'
p37
S'ORGANISED'
p38
sS'O'
p39
(lp40
S'party:37'
p41
aS'government:116'
p42
aS'national secretary:134'
p43
aS'rhetoric stating:150'
p44
asS'unexpl'
p45
(lp46
g20
asS'ocassion'
p47
g20
sS'link'
p48
S'http://www.thehindu.com/news/national/article106663.ece'
p49
sS'date'
p50
S'13-02-2010'
p51
sS'target'
p52
g20
sS'hot_spot'
p53
S'Pune'
p54
sS'delivery_mod'
p55
g20
sS'delivery_met'
p56
g20
sS'expl'
p57
(lp58
g20
asS'ORG'
p59
(lp60
(lp61
S'Polit Bureau'
p62
aS'2'
p63
aS'Others'
p64
aa(lp65
S'Central government'
p66
aS'65'
p67
aS'Others'
p68
aa(lp69
S'CPI'
p70
aS'105'
p71
aS'Others'
p72
aa(lp73
S'Communist Party of India'
p74
aS'109'
p75
aS'Others'
p76
aa(lp77
S'India'
p78
aS'112'
p79
aS'Others'
p80
aa(lp81
S'government'
p82
aS'116'
p83
aS'Others'
p84
aas.