(dp0
S'LOC'
p1
(lp2
(lp3
S'Assam'
p4
aS'23'
p5
aS'Event'
p6
aa(lp7
S'Guwahati'
p8
aS'31'
p9
aS'Event'
p10
aa(lp11
S'Assam'
p12
aS'58'
p13
aS'Event'
p14
aa(lp15
S'Naojan'
p16
aS'71'
p17
aS'Neutral'
p18
aa(lp19
S'Chungajan'
p20
aS'73'
p21
aS'Neutral'
p22
aa(lp23
S'Assam'
p24
aS'75'
p25
aS'Event'
p26
aa(lp27
S'Golaghat'
p28
aS'77'
p29
aS'Event'
p30
aa(lp31
S'Dibrugarh'
p32
aS'130'
p33
aS'Neutral'
p34
aa(lp35
S'Delhi'
p36
aS'132'
p37
aS'Neutral'
p38
aa(lp39
S'Dimapur'
p40
aS'163'
p41
aS'Neutral'
p42
aasS'PER'
p43
(lp44
sS'TIM'
p45
(lp46
S'1.00 a.m.:81'
p47
aS'6.00 a.m.:139'
p48
aS'a.m.:140'
p49
asS'hot_setting'
p50
S''
p51
sS'DAT'
p52
(lp53
S'Thursday morning : 26'
p54
aS'Dec 13 : 33'
p55
aS'Thursday morning : 61'
p56
aS'June 2006 : 197'
p57
asS'death'
p58
S'5'
p59
sS'title'
p60
S'Bomb blast in Assam Rajdhani Express, five killed'
p61
sS'org_unorg'
p62
g51
sS'terror_group'
p63
(lp64
g51
asS'content'
p65
VAt least five persons were dead and four others injured when a bomb exploded in the 2423 A Guwahati-Delhi Rajdhani Express in Assam early on Thursday morning . . . Guwahati , Dec 13 : At least five persons were dead and four others injured when a bomb exploded in the 2423 A Guwahati-Delhi Rajdhani Express in Assam early on Thursday morning . . . The explosion took place between Naojan and Chungajan in Assam 's Golaghat District at around 1.00 a.m. . . According to initial reports , the bomb was planted inside one of the compartments and not on the train track . There was partial damage to the tracks with just two sleepers affected . . . The train , which was on its way from Dibrugarh to Delhi , resumed its journey at around 6.00 a.m. after passengers in the affected van were shifted to a 3-tier AC bogie . . . The injured have been rushed to Dimapur . Reports suggest that the death toll could rise . . . This is the first bomb blast on the Dibrugarh-New Delhi Rajdhani , although the train has been targeted once before in June 2006 . . . addthis_url = location.href ; addthis_title = document.title ; addthis_pub = ` vijaytech ' ; . . a36 ( ) ; . . .
p66
sS'injured'
p67
S'4'
p68
sS'det_loc'
p69
(lp70
S'India'
p71
aS'Assam'
p72
aS'Golaghat'
p73
aS'Guwahati'
p74
ag51
asS'O'
p75
(lp76
S'dead:6'
p77
aS'injured:10'
p78
aS'bomb exploded:13'
p79
aS'2423 A Guwahati-Delhi Rajdhani Express:17'
p80
aS'dead:41'
p81
aS'injured:45'
p82
aS'bomb exploded:48'
p83
aS'2423 A Guwahati-Delhi Rajdhani Express:52'
p84
aS'explosion:67'
p85
aS'bomb:91'
p86
aS'planted:93'
p87
aS'train track:103'
p88
aS'3-tier AC bogie:151'
p89
aS'first bomb blast:179'
p90
aS'Dibrugarh-New Delhi Rajdhani:184'
p91
aS'targeted:193'
p92
asS'unexpl'
p93
(lp94
g51
asS'ocassion'
p95
g51
sS'link'
p96
S'http://www.andhranews.net/India/2007/December/13-Bomb-blast-Assam-Rajdhani-Express-25899.asp'
p97
sS'date'
p98
S'13-12-2007'
p99
sS'target'
p100
S'TRAIN'
p101
sS'hot_spot'
p102
g51
sS'delivery_mod'
p103
S'TRAIN'
p104
sS'delivery_met'
p105
S'PLANTED'
p106
sS'expl'
p107
(lp108
g51
asS'ORG'
p109
(lp110
s.