(dp0
S'LOC'
p1
(lp2
(lp3
S'NEW DELHI'
p4
aS'1'
p5
aS'Neutral'
p6
aa(lp7
S'Mumbai'
p8
aS'33'
p9
aS'Event'
p10
aa(lp11
S'Mumbai'
p12
aS'65'
p13
aS'Event'
p14
aa(lp15
S'Mumbai'
p16
aS'133'
p17
aS'Event'
p18
aa(lp19
S'Mumbai'
p20
aS'159'
p21
aS'Event'
p22
aa(lp23
S'Maharashtra'
p24
aS'210'
p25
aS'Neutral'
p26
aa(lp27
S'Mumbai'
p28
aS'301'
p29
aS'Event'
p30
aasS'PER'
p31
(lp32
(lp33
S'Manmohan Singh'
p34
aS'6'
p35
aS'Others'
p36
aa(lp37
S'Singh'
p38
aS'60'
p39
aS'Others'
p40
aa(lp41
S'Singh'
p42
aS'180'
p43
aS'Others'
p44
aa(lp45
S'P Chidambaram'
p46
aS'206'
p47
aS'Others'
p48
aa(lp49
S'Prithviraj Chavan'
p50
aS'213'
p51
aS'Others'
p52
aa(lp53
S'Singh'
p54
aS'216'
p55
aS'Others'
p56
aa(lp57
S'Chavan'
p58
aS'222'
p59
aS'Others'
p60
aa(lp61
S'P Chidambaram'
p62
aS'250'
p63
aS'Others'
p64
aasS'TIM'
p65
(lp66
S'5.30 PM : 67'
p67
asS'hot_setting'
p68
S''
p69
sS'DAT'
p70
(lp71
S'Thursday : 9'
p72
aS'Wednesday : 25'
p73
aS'Wednesday : 124'
p74
aS'Wednesday : 303'
p75
asS'death'
p76
g69
sS'title'
p77
S'PM to visit Mumbai, announces Rs 2 lakh for kin of deceased'
p78
sS'det_loc'
p79
(lp80
S'India'
p81
aS'Maharashtra'
p82
aS'Mumbai-City'
p83
ag69
ag69
asS'terror_group'
p84
(lp85
g69
asS'content'
p86
VNEW DELHI : Prime Minister Manmohan Singh on Thursday announced ex-gratia assistance of Rs two lakh each for the kin of the deceased in Wednesday 's terror attack and decided to visit Mumbai to personally take stock of the situation there . He also announced Rs one lakh each for the seriously injured , a PMO spokesman said . Singh will be travelling to Mumbai at 5.30 PM to personally take stock of the situation , sources said . He is expected to visit the blast sites and hospitals to meet the injured . In view of his visit , a meeting of the Council of Ministers convened this evening has been put off , the sources said . The Prime Minister on Wednesday night strongly condemned the serial bomb blasts in Mumbai and appealed to the people of the megapolis to remain calm and show a united front . ' I strongly condemn the bomb blasts in Mumbai this evening ... I appeal to the people of Mumbai to remain calm and show a united face , ' Singh had said in a statement . The Prime Minister , who was monitoring the developments related to the explosions , had spoken to home minister P Chidambaram and also Maharashtra chief minister Prithviraj Chavan . Singh had said he had asked Chavan to do whatever is possible to provide relief to the injured and to the families of the deceased . ' I have also asked Union home minister P Chidambaram to provide all possible expert assistance to the state government , ' according to the statement . Meanwhile , the Maharashtra government also announced a compensation of Rs 5 lakh to the families of those killed and Rs 50,000 to those injured in the triple bomb blasts that rocked Mumbai on Wednesday .
p87
sS'injured'
p88
g69
sS'org_unorg'
p89
g69
sS'O'
p90
(lp91
S'NEW:1'
p92
aS'Prime Minister:4'
p93
aS'ex-gratia:11'
p94
aS'Rs two lakh:14'
p95
aS'kin of the deceased:20'
p96
aS"Wednesday 's terror attack:25"
p97
aS'Rs one lakh:46'
p98
aS'seriously injured:52'
p99
aS'PMO spokesman:56'
p100
aS'visit:84'
p101
aS'blast sites:86'
p102
aS'hospitals:89'
p103
aS'condemned:127'
p104
aS'serial bomb blasts:129'
p105
aS'appealed:135'
p106
aS'remain calm:143'
p107
aS'home minister:204'
p108
aS'chief minister:211'
p109
aS'injured:233'
p110
aS'families of the deceased:237'
p111
aS'Union home minister:247'
p112
aS'expert assistance:256'
p113
aS'state government:260'
p114
aS'Maharashtra government:272'
p115
aS'compensation:277'
p116
aS'Rs 5 lakh:279'
p117
aS'killed:287'
p118
aS'50,000:290'
p119
aS'injured:293'
p120
aS'triple bomb blasts:296'
p121
asS'unexpl'
p122
(lp123
g69
asS'ocassion'
p124
g69
sS'link'
p125
S'http://timesofindia.indiatimes.com/india/PM-to-visit-Mumbai-announces-Rs-2-lakh-for-kin-of-deceased/articleshow/9223450.cms?referral=PM'
p126
sS'date'
p127
S'13-07-2011'
p128
sS'target'
p129
g69
sS'hot_spot'
p130
g69
sS'delivery_mod'
p131
g69
sS'delivery_met'
p132
g69
sS'expl'
p133
(lp134
g69
asS'ORG'
p135
(lp136
s.