(dp0
S'LOC'
p1
(lp2
(lp3
S'NEW DELHI'
p4
aS'1'
p5
aS'Neutral'
p6
aa(lp7
S'Old Delhi'
p8
aS'22'
p9
aS'Event'
p10
aa(lp11
S'Saharanpur'
p12
aS'71'
p13
aS'Neutral'
p14
aa(lp15
S'New Delhi Railway Station'
p16
aS'126'
p17
aS'Event'
p18
aa(lp19
S'Pakistans'
p20
aS'143'
p21
aS'Neutral'
p22
aasS'PER'
p23
(lp24
sS'TIM'
p25
(lp26
S'today : 27'
p27
aS'last year : 56'
p28
aS'4.15 pm : 67'
p29
aS'5 pm : 100'
p30
asS'hot_setting'
p31
S''
p32
sS'DAT'
p33
(lp34
S'Jan 6 : 4'
p35
asS'death'
p36
g32
sS'title'
p37
V22  
p38
sS'det_loc'
p39
(lp40
S'India'
p41
aS'Delhi'
p42
aS'New Delhi'
p43
aS'New Delhi'
p44
ag32
asS'terror_group'
p45
(lp46
g32
asS'content'
p47
VNEW DELHI , Jan 6 At least 12 persons were injured when a crude bomb exploded in a passenger train at Old Delhi railway station here today . . . Interestingly , the blast occurred on the eve of the annual conference of the Delhi police when the force normally highlights its achievements during the last year . . . The blast took place at around 4.15 pm in the Saharanpur bound Shamli passenger train at platform number nine at the station , the police said . . . The , train was scheduled to leave the station at 5 pm . . . Immediately after the blast , the police control room received a call saying that a bomb have been planted at the New Delhi Railway Station . . . Senior police officials have not ruled out the handiwork of Pakistans ISI in the blast . . . The police carried out thorough checks in and around the station and did not find any explosive material.The call seems to be hoax , the police said . . . The injured have been admitted to Lok Nayak Jai Prakash and Hindu Rao Hospitals and they are said to be out of danger . . . The blast took place in unreserved coach moments after the train arrived at the platform from the railway yard .
p48
sS'injured'
p49
S'12'
p50
sS'org_unorg'
p51
g32
sS'O'
p52
(lp53
S'injured:11'
p54
aS'crude bomb exploded:14'
p55
aS'blast:34'
p56
aS'annual conference:41'
p57
aS'blast:62'
p58
aS'Shamli passenger train:73'
p59
aS'platform number nine:77'
p60
aS'blast:108'
p61
aS'police control room:111'
p62
aS'bomb:120'
p63
aS'ISI:144'
p64
aS'blast:147'
p65
aS'explosive:167'
p66
aS'injured:182'
p67
aS'danger:203'
p68
aS'blast:208'
p69
aS'railway yard:224'
p70
asS'unexpl'
p71
(lp72
g32
asS'ocassion'
p73
g32
sS'link'
p74
S'http://www.tribuneindia.com/2000/20000107/main4.htm'
p75
sS'date'
p76
S'06-01-2000'
p77
sS'target'
p78
S'RAILWAY STATION'
p79
sS'hot_spot'
p80
g32
sS'delivery_mod'
p81
S'TRAIN'
p82
sS'delivery_met'
p83
S'PLANTED'
p84
sS'expl'
p85
(lp86
S'CRUDE BOMB'
p87
asS'ORG'
p88
(lp89
(lp90
S'Delhi police'
p91
aS'45'
p92
aS'Others'
p93
aa(lp94
S'Lok Nayak Jai Prakash'
p95
aS'187'
p96
aS'Others'
p97
aa(lp98
S'Hindu Rao Hospitals'
p99
aS'192'
p100
aS'Others'
p101
aas.