(dp0
S'LOC'
p1
(lp2
(lp3
S'upper Assam'
p4
aS'6'
p5
aS'Neutral'
p6
aa(lp7
S'Digboi'
p8
aS'11'
p9
aS'Neutral'
p10
aa(lp11
S'Tinsukia'
p12
aS'14'
p13
aS'Neutral'
p14
aa(lp15
S'railway track'
p16
aS'75'
p17
aS'Event'
p18
aa(lp19
S'drain'
p20
aS'89'
p21
aS'Event'
p22
aa(lp23
S'Assam'
p24
aS'127'
p25
aS'Neutral'
p26
aasS'PER'
p27
(lp28
(lp29
S'AP Tiwari'
p30
aS'47'
p31
aS'Comment'
p32
aasS'TIM'
p33
(lp34
sS'hot_setting'
p35
S''
p36
sS'DAT'
p37
(lp38
S'Monday : 18'
p39
asS'death'
p40
g36
sS'title'
p41
S'Twin Blasts in Assam on Republic Day, No Casualties Reported So Far'
p42
sS'det_loc'
p43
(lp44
S'India'
p45
aS'Assam'
p46
aS'Tinsukia'
p47
ag36
aS'oil town Digboi '
p48
asS'terror_group'
p49
(lp50
g36
asS'content'
p51
VTwo low-intensity bombs exploded in upper Assam 's oil town Digboi , in Tinsukia district , on Monday . . . This untoward incident took place when the nation was celebrating its 66th Republic Day . . . As per PTIreports , Senior Superintendent of Police AP Tiwari informed that the explosion had no impact on life or property till now . . . Of the two blasts , one took place near a railway track under dumped garbage while the other occured in the garbage under the drain . . . The nature of the blasts suggest that the bombs were made of handmade explosives as they did not have much impact . However , investigations related to the explosions are on . . . Assam was on high alert after the Union Home Ministry warned of possible terror attacks ahead of the Republic day celebrations .
p52
sS'injured'
p53
g36
sS'org_unorg'
p54
S'ORGANISED'
p55
sS'O'
p56
(lp57
S'police:46'
p58
aS'garbage:86'
p59
aS'union home ministry:134'
p60
asS'unexpl'
p61
(lp62
g36
asS'ocassion'
p63
S'REPULBIC DAY'
p64
sS'link'
p65
S'http://www.ibtimes.co.in/twin-blasts-assam-republic-day-621553'
p66
sS'date'
p67
S'26-01-2015'
p68
sS'target'
p69
g36
sS'hot_spot'
p70
S'oil town Digboi '
p71
sS'delivery_mod'
p72
S'RAILWAY TRACKS'
p73
sS'delivery_met'
p74
S'PLANTED'
p75
sS'expl'
p76
(lp77
S'LOW INTENSITY BOMB'
p78
asS'ORG'
p79
(lp80
s.