(dp0
S'LOC'
p1
(lp2
(lp3
S'Maharashtra'
p4
aS'3'
p5
aS'Neutral'
p6
aa(lp7
S'Maharashtra'
p8
aS'18'
p9
aS'Neutral'
p10
aa(lp11
S'Delhi'
p12
aS'31'
p13
aS'Neutral'
p14
aa(lp15
S'Maharashtra'
p16
aS'33'
p17
aS'Neutral'
p18
aa(lp19
S'Pune'
p20
aS'40'
p21
aS'Event'
p22
aa(lp23
S'Pune'
p24
aS'67'
p25
aS'Event'
p26
aa(lp27
S'Pune'
p28
aS'131'
p29
aS'Event'
p30
aa(lp31
S'New Delhi'
p32
aS'145'
p33
aS'Neutral'
p34
aa(lp35
S'Pune'
p36
aS'157'
p37
aS'Event'
p38
aa(lp39
S'New Delhi'
p40
aS'159'
p41
aS'Neutral'
p42
aa(lp43
S'Pune'
p44
aS'173'
p45
aS'Event'
p46
aa(lp47
S'Pune'
p48
aS'209'
p49
aS'Event'
p50
aa(lp51
S'Maharashtra'
p52
aS'257'
p53
aS'Neutral'
p54
aa(lp55
S'Delhi'
p56
aS'278'
p57
aS'Neutral'
p58
aa(lp59
S'Mumbai'
p60
aS'280'
p61
aS'Neutral'
p62
aa(lp63
S'Pune'
p64
aS'325'
p65
aS'Event'
p66
aa(lp67
S'Uttar Pradesh'
p68
aS'394'
p69
aS'Neutral'
p70
aa(lp71
S'German Bakery'
p72
aS'405'
p73
aS'Event'
p74
aa(lp75
S'German Bakery'
p76
aS'431'
p77
aS'Event'
p78
aa(lp79
S'Pune'
p80
aS'434'
p81
aS'Event'
p82
aa(lp83
S'German Bakery'
p84
aS'454'
p85
aS'Event'
p86
aa(lp87
S'Jewish Chabad House'
p88
aS'461'
p89
aS'Neutral'
p90
aa(lp91
S'Koregaon Park'
p92
aS'465'
p93
aS'Neutral'
p94
aa(lp95
S'Pune'
p96
aS'511'
p97
aS'Event'
p98
aa(lp99
S'Dena Bank'
p100
aS'528'
p101
aS'Event'
p102
aa(lp103
S'McDonalds'
p104
aS'536'
p105
aS'Event'
p106
aa(lp107
S'Bal Gandharv Theatre'
p108
aS'545'
p109
aS'Event'
p110
aa(lp111
S'Garware Bridge'
p112
aS'555'
p113
aS'Event'
p114
aa(lp115
S'Jangli Maharaj Road'
p116
aS'573'
p117
aS'Event'
p118
aa(lp119
S'German Bakery'
p120
aS'595'
p121
aS'Event'
p122
aa(lp123
S'Pune'
p124
aS'603'
p125
aS'Event'
p126
aa(lp127
S'Jangli Maharaj Road'
p128
aS'630'
p129
aS'Event'
p130
aasS'PER'
p131
(lp132
(lp133
S'Prithviraj Chavan'
p134
aS'6'
p135
aS'Others'
p136
aa(lp137
S'RK Singh'
p138
aS'94'
p139
aS'Others'
p140
aa(lp141
S'SUSHIL KUMAR SHINDE'
p142
aS'110'
p143
aS'Others'
p144
aa(lp145
S'Sushil Kumar Shinde'
p146
aS'141'
p147
aS'Others'
p148
aa(lp149
S'RK Singh'
p150
aS'221'
p151
aS'Others'
p152
aa(lp153
S'RK Singh'
p154
aS'241'
p155
aS'Others'
p156
aa(lp157
S'Gulabrao Pol'
p158
aS'319'
p159
aS'Comment'
p160
aa(lp161
S'Rakhi'
p162
aS'346'
p163
aS'Others'
p164
aa(lp165
S'Gulabrao Pol'
p166
aS'505'
p167
aS'Comment'
p168
aasS'TIM'
p169
(lp170
S'11.15 pm : 1'
p171
aS'10.50 pm : 45'
p172
aS'10.45 pm : 54'
p173
aS'10.28 pm : 72'
p174
aS'10.07 pm : 99'
p175
aS'10.06 pm : 116'
p176
aS'10.05 pm : 150'
p177
aS'10.03 pm : 199'
p178
aS'9.45 pm : 226'
p179
aS'9.19 pm : 246'
p180
aS'9.11 pm : 254'
p181
aS'9.09 pm : 284'
p182
aS'9.07 pm : 302'
p183
aS'9.04 pm : 331'
p184
aS'9.00 pm : 367'
p185
aS'8.45 pm:492'
p186
aS'8.40 pm : 517'
p187
aS'8.35 pm : 560'
p188
aS'8.30 pm : 589'
p189
aS'evening : 606'
p190
asS'hot_setting'
p191
S''
p192
sS'DAT'
p193
(lp194
S'Wednesday:175'
p195
aS'Thursday:348'
p196
aS'February 2010 : 411'
p197
aS'2010:599'
p198
asS'death'
p199
g192
sS'title'
p200
S'Pune blasts live: All blasts occurred within 1 km radius, says Chavan'
p201
sS'org_unorg'
p202
S'ORGANISED'
p203
sS'terror_group'
p204
(lp205
g192
asS'content'
p206
V11.15 pm Maharashtra Chief Minister Prithviraj Chavan . . `` All blasts occurred within 1km radius . Maharashtra deputy chief minister , state home minister , two NIA teams from Delhi , Maharashtra ATS chief are all going to Pune . '' . . 10.50 pm Total seven IEDs used . . . 10.45 pm : Pune-based Army Southern Command sends bomb disposal squads to assist Pune police . . . 10.28 pm `` One of the injured person , who carried the bomb , is in custody , '' says home secretary RK Singh . . . 10.07 pm FOUR BLASTS . FIFTH DEFUSED . SAYS HOME MINISTER SUSHIL KUMAR SHINDE . . . 10.06 pm `` Blasts occurred between 7.27pm-8 .15 pm . I had to go to Pune to attend a function , '' said Home Minister Sushil Kumar Shinde in New Delhi . . . 10.05 pm : CFSL to leave for Pune from New Delhi . . . Policemen cordon off an area after a blast in Pune on Wednesday . Four low-intensity bomb blasts in quick succession shook the city in the evening injuring at least two people . PTI . . 10.03 pm Terror angle can not be ruled out in Pune explosions as it appears to be planned attack : Home Secretary RK Singh . . . 9.45 pm `` Terror angle can not be ruled out , '' says home secretary RK Singh . . . 9.19 pm Sixth explosive defused . . . 9.11 pm : Maharashtra Anti-Terrorist Squad , bomb squad , National Investigation Agency rush for blast spots . NIA teams to fly in from Delhi and Mumbai . . . 9.09 pm : FIFTH BLAST REPORTED . ONE MORE INJURED . BLAST AT DECCAN MALL . . . 9.07 pm `` There is no terror angle . It is an act of mischief , '' Gulabrao Pol , Police Commissioner , Pune told CNN-IBN . . . 9.04 pm : The area has many shops . People have gathered to shop for Rakhi on Thursday . The low intensity blasts caused more panic while no casualties were reported so far . . . 9.00 pm : Snippets of details of emerging . In three incidents , cycles were used . This modus operandi was also seen in earlier blasts in Uttar Pradesh . . . Leaf from the past : The German Bakery blast . . In February 2010 , 17 people were killed and at least 60 injured when a bomb went off at the crowded German Bakery in Pune . An Italian woman , two Sudanese students , and an Iranian student were among those killed . The German Bakery is located close to the Jewish Chabad House in Koregaon Park . The involvement of Indian Mujahideen , the Indian arm of the Pakistan-based terror outfit Lasker-e-Taiba , was suspected in the incident . . . 8.45 pm `` We had three blasts at three different locations , '' Gulabrao Pol , Police Commissioner , Pune told CNN-IBN . . . 8.40 pm One bomb was placed on a cycle carrier outside Dena Bank , another in a dustbin outside McDonalds , one more in a cake outside the Bal Gandharv Theatre . The fourth blast was at the Garware Bridge . . . 8.35 pm Sketchy details coming in . The explosions took place on the Jangli Maharaj Road , a popular hangout for college students in the city . . . 8.30 pm Gory memories of the German Bakery blast in 2010 came alive to Pune citizens today evening as four low intensity blasts rocked the city injuring one person , police said . . . The explosions took place on the Jangli Maharaj Road , a popular hangout for college students in the city , a CNN-IBN report said .
p207
sS'injured'
p208
g192
sS'det_loc'
p209
(lp210
S'India'
p211
aS'Maharashtra'
p212
aS'Pune'
p213
aS'Pune'
p214
aS'Pune'
p215
asS'O'
p216
(lp217
S'Home Minister:139'
p218
aS'low-intensity:178'
p219
aS'police:619'
p220
asS'unexpl'
p221
(lp222
g192
asS'ocassion'
p223
g192
sS'link'
p224
S'http://www.firstpost.com/india/pune-blasts-live-all-blasts-occurred-within-1-km-radius-says-chavan-400853.html'
p225
sS'date'
p226
S'01-08-2012'
p227
sS'target'
p228
g192
sS'hot_spot'
p229
S'Pune'
p230
sS'delivery_mod'
p231
g192
sS'delivery_met'
p232
S'PLANTED'
p233
sS'expl'
p234
(lp235
S'IED'
p236
asS'ORG'
p237
(lp238
(lp239
S'NIA'
p240
aS'28'
p241
aS'Others'
p242
aa(lp243
S'ATS'
p244
aS'34'
p245
aS'Others'
p246
aa(lp247
S'PTI'
p248
aS'196'
p249
aS'Others'
p250
aa(lp251
S'Anti-Terrorist Squad'
p252
aS'258'
p253
aS'Others'
p254
aa(lp255
S'National Investigation Agency'
p256
aS'264'
p257
aS'Others'
p258
aa(lp259
S'NIA'
p260
aS'272'
p261
aS'Others'
p262
aa(lp263
S'Indian Mujahideen'
p264
aS'471'
p265
aS'Accused'
p266
aa(lp267
S'Lasker-e-Taiba'
p268
aS'482'
p269
aS'Accused'
p270
aas.