(dp0
S'LOC'
p1
(lp2
(lp3
S'Afghanistan'
p4
aS'16'
p5
aS'Neutral'
p6
aa(lp7
S'Mumbai'
p8
aS'23'
p9
aS'Event'
p10
aa(lp11
S'Mumbai'
p12
aS'158'
p13
aS'Event'
p14
aa(lp15
S'India'
p16
aS'161'
p17
aS'Neutral'
p18
aa(lp19
S'India'
p20
aS'191'
p21
aS'Neutral'
p22
aa(lp23
S'Afghanistan'
p24
aS'201'
p25
aS'Neutral'
p26
aa(lp27
S'India'
p28
aS'213'
p29
aS'Neutral'
p30
aa(lp31
S'Afghanistan'
p32
aS'220'
p33
aS'Neutral'
p34
aa(lp35
S'Mumbai'
p36
aS'307'
p37
aS'Event'
p38
aa(lp39
S'India'
p40
aS'343'
p41
aS'Neutral'
p42
aa(lp43
S'India'
p44
aS'403'
p45
aS'Neutral'
p46
aasS'PER'
p47
(lp48
(lp49
S'Zaher Shah'
p50
aS'32'
p51
aS'Others'
p52
aa(lp53
S'Atal Behari Vajpayee'
p54
aS'49'
p55
aa(lp56
S'Hamid Karzai'
p57
aS'56'
p58
aS'Others'
p59
aa(lp60
S'A.P.J. Abdul Kalam'
p61
aS'69'
p62
aS'Others'
p63
aa(lp64
S'Vajpayee'
p65
aS'81'
p66
aS'Comment'
p67
aa(lp68
S'Marshal Qasim Fahim'
p69
aS'92'
p70
aS'Others'
p71
aa(lp72
S'Yashwant Sinha'
p73
aS'101'
p74
aS'Others'
p75
aa(lp76
S'Abdullah Abdullah'
p77
aS'108'
p78
aS'Others'
p79
aa(lp80
S'Brajesh Mishra'
p81
aS'117'
p82
aS'Others'
p83
aa(lp84
S'Zalmai Rassoul'
p85
aS'124'
p86
aS'Comment'
p87
aa(lp88
S'Vajpayee'
p89
aS'134'
p90
aS'Comment'
p91
aa(lp92
S'Zaher Shah'
p93
aS'137'
p94
aS'Comment'
p95
aa(lp96
S'Vajpayee'
p97
aS'185'
p98
aS'Comment'
p99
aa(lp100
S'Karzai'
p101
aS'194'
p102
aS'Comment'
p103
aa(lp104
S'Kalam'
p105
aS'234'
p106
aS'Others'
p107
aa(lp108
S'Karzai'
p109
aS'237'
p110
aS'Comment'
p111
aa(lp112
S'Chandrika Kumaratunga'
p113
aS'282'
p114
aS'Others'
p115
aa(lp116
S'Ranil Wickremesinghe'
p117
aS'290'
p118
aS'Others'
p119
aa(lp120
S'Kalam'
p121
aS'300'
p122
aS'Others'
p123
aa(lp124
S'Vajpayee'
p125
aS'303'
p126
aS'Comment'
p127
aa(lp128
S'Kumaratunga'
p129
aS'317'
p130
aS'Comment'
p131
aa(lp132
S'Wickremesinghe'
p133
aS'354'
p134
aS'Comment'
p135
aa(lp136
S'Vajpayee'
p137
aS'375'
p138
aS'Comment'
p139
aasS'TIM'
p140
(lp141
sS'hot_setting'
p142
S''
p143
sS'DAT'
p144
(lp145
S'Monday:25'
p146
asS'death'
p147
S'50'
p148
sS'title'
p149
S'Afghanistan, Sri Lanka condemn Mumbai blasts'
p150
sS'det_loc'
p151
(lp152
S'India'
p153
aS'Maharashtra'
p154
aS'Mumbai-City'
p155
ag143
aS'Mumbai'
p156
asS'terror_group'
p157
(lp158
g143
asS'content'
p159
VAs many as six messages of condolence have been sent to the Indian leadership by Afghanistan , following the bomb blasts in Mumbai on Monday . . . While His Majesty Zaher Shah , Father of the Nation , has addressed his message to the Prime Minister , Atal Behari Vajpayee , the President , Hamid Karzai , has sent letters of condolence both to the President , A.P.J. Abdul Kalam , and the Prime Minister . . . Mr. Vajpayee has also received a letter from the first Vice-President , Marshal Qasim Fahim , the External Affairs Minister , Yashwant Sinha , from his counterpart , Abdullah Abdullah , and the National Security Adviser , Brajesh Mishra , from his counterpart , Zalmai Rassoul . . . In his message to Mr. Vajpayee , Mr. Zaher Shah said : ` Most regretfully , I have received information that the criminal terrorists undertook an anti-humanistic action in Mumbai city of India which caused a lot of injury and the death of more than 50 persons . ' . . Expressing his condolences to Mr. Vajpayee and to the people of India , Mr. Karzai wrote : ` The people of Afghanistan also present their condolences to you and to the people of India . The Transitional Islamic State of Afghanistan is fighting against these terrorist actions too . ' . . To Mr. Kalam , Mr. Karzai said : ' I pray that God Almighty may give patience to the grieved families . I hope that -LRB- the -RRB- international coalition against terrorism succeeds in removing the roots of these anti-human activities . ' . . The Sri Lankan President , Chandrika Kumaratunga , and the Prime Minister , Ranil Wickremesinghe , have also sent separate messages to Mr. Kalam and Mr. Vajpayee , on the Mumbai blasts . . . In a letter , Ms. Kumaratunga said : ` We strongly condemn such acts of terror aimed at innocent civilians . We extend our solidarity to the Government and people of India in this time of crisis . ' . . Mr. Wickremesinghe , for his part , expressed shock and horror at the twin car bomb blasts in his message to Mr. Vajpayee . . . ` We condemn this senseless act of terror against innocent people . We extend our sincere condolences also to the Government and people of India . ' .
p160
sS'injured'
p161
g143
sS'org_unorg'
p162
S'ORGANISED'
p163
sS'O'
p164
(lp165
S'Prime Minister:46'
p166
aS'President:54'
p167
aS'Vice-President:90'
p168
aS'External Affairs Minister:97'
p169
aS'National Security Adviser:113'
p170
aS'Islamic State:217'
p171
aS'Sri Lankan President:278'
p172
aS'Government:399'
p173
asS'unexpl'
p174
(lp175
g143
asS'ocassion'
p176
g143
sS'link'
p177
S'http://www.thehindu.com/2003/08/30/stories/2003083004391100.htm'
p178
sS'date'
p179
S'25-08-2003'
p180
sS'target'
p181
g143
sS'hot_spot'
p182
S'Mumbai'
p183
sS'delivery_mod'
p184
S'CAR'
p185
sS'delivery_met'
p186
S'PLANTED'
p187
sS'expl'
p188
(lp189
g143
asS'ORG'
p190
(lp191
s.