(dp0
S'LOC'
p1
(lp2
(lp3
S'Bangladesh'
p4
aS'48'
p5
aS'Neutral'
p6
aa(lp7
S'Bangladesh'
p8
aS'59'
p9
aS'Neutral'
p10
aa(lp11
S'Kishtwar'
p12
aS'69'
p13
aS'Neutral'
p14
aa(lp15
S'Jammu and Kashmir'
p16
aS'71'
p17
aS'Neutral'
p18
aa(lp19
S'Jammu and Kashmir'
p20
aS'99'
p21
aS'Neutral'
p22
aa(lp23
S'Kishtwar'
p24
aS'166'
p25
aS'Accused Location'
p26
aa(lp27
S'gate no 5'
p28
aS'197'
p29
aS'Event'
p30
aasS'PER'
p31
(lp32
(lp33
S'Wasim'
p34
aS'30'
p35
aS'Accused'
p36
aa(lp37
S'Wasim'
p38
aS'43'
p39
aS'Accused'
p40
aa(lp41
S'Wasim'
p42
aS'86'
p43
aS'Accused'
p44
aa(lp45
S'Wasim'
p46
aS'119'
p47
aS'Accused'
p48
aa(lp49
S'Wasim'
p50
aS'138'
p51
aS'Accused'
p52
aa(lp53
S'Aamir Abbas'
p54
aS'157'
p55
aS'Accused'
p56
aa(lp57
S'Abid Hussain'
p58
aS'160'
p59
aS'Accused'
p60
aa(lp61
S'Abid'
p62
aS'168'
p63
aS'Accused'
p64
aa(lp65
S'Wasim'
p66
aS'186'
p67
aS'Accused'
p68
aasS'TIM'
p69
(lp70
sS'hot_setting'
p71
S''
p72
sS'DAT'
p73
(lp74
S'Friday:9'
p75
aS'September:18'
p76
aS'September 13:192'
p77
asS'death'
p78
S'15'
p79
sS'title'
p80
S'Delhi HC blast: NIA claims arrest of chief conspirator'
p81
sS'org_unorg'
p82
S'ORGANISED'
p83
sS'terror_group'
p84
(lp85
S'HARKAT-UL-MUJAHIDEEN OR HARKAT-UL-ANSAR OR HARKAT-UL-JEHAD-E-ISLAMI'
p86
asS'content'
p87
VThe National Investigation Agency ( NIA ) on Friday claimed to have arrested the key conspirator of September 's blast at the Delhi High Court . The NIA arrested Wasim , an Indian medical student based in Bangladesh.Sources told Headlines Today that Wasim is studying medicine in Bangladesh . He and four others allegedly hatched the plot in Bangladesh and took the help of his local contacts in Kishtwar , Jammu and Kashmir to carry out the attack.The NIA is working on the theory that Wasim was lured by the Harkat-ul-Jehadi Islami in Bangladesh and his network in Jammu and Kashmir was used to send the e-mail claiming responsibility for the blast . NIA officials claimed that with Wasim 's arrest , they are on track to unearthing the conspiracy behind the blast and the plotters . Wasim 's arrest is the third in the Delhi High Court blast case . The NIA had earlier arrested Aamir Abbas and Abid Hussain , both residents of Kishtwar . Abid was arrested for sending the terror e-mail after the blast . The NIA was able to reach Wasim following the interrogation of Abbas.The September 13 bomb blast outside gate no 5 of the Delhi High Court left 15 people dead and over 70 injured . .
p88
sS'injured'
p89
S'70'
p90
sS'det_loc'
p91
(lp92
S'India'
p93
aS'Delhi'
p94
aS'New Delhi'
p95
aS'Delhi'
p96
aS'Delhi High Court'
p97
asS'O'
p98
(lp99
g72
asS'unexpl'
p100
(lp101
g72
asS'ocassion'
p102
g72
sS'link'
p103
S'http://indiatoday.intoday.in/story/nia-arrests-chief-conspirator-of-delhi-hc-blast/1/153954.html'
p104
sS'date'
p105
S'13-09-2011'
p106
sS'target'
p107
g72
sS'hot_spot'
p108
S'Delhi High Court'
p109
sS'delivery_mod'
p110
g72
sS'delivery_met'
p111
S'PLANTED'
p112
sS'expl'
p113
(lp114
g72
asS'ORG'
p115
(lp116
(lp117
S'National Investigation Agency'
p118
aS'2'
p119
aS'Others'
p120
aa(lp121
S'NIA'
p122
aS'6'
p123
aS'Others'
p124
aa(lp125
S'Delhi High Court'
p126
aS'23'
p127
aS'Others'
p128
aa(lp129
S'NIA'
p130
aS'28'
p131
aS'Others'
p132
aa(lp133
S'NIA'
p134
aS'79'
p135
aS'Others'
p136
aa(lp137
S'Harkat-ul-Jehadi Islami in Bangladesh'
p138
aS'91'
p139
aS'Accused'
p140
aa(lp141
S'e-mail'
p142
aS'107'
p143
aS'Others'
p144
aa(lp145
S'NIA'
p146
aS'114'
p147
aS'Others'
p148
aa(lp149
S'Delhi High Court'
p150
aS'146'
p151
aS'Others'
p152
aa(lp153
S'NIA'
p154
aS'153'
p155
aS'Others'
p156
aa(lp157
S'e-mail'
p158
aS'175'
p159
aS'Others'
p160
aa(lp161
S'NIA'
p162
aS'181'
p163
aS'Others'
p164
aa(lp165
S'Delhi High Court'
p166
aS'202'
p167
aS'Others'
p168
aas.