(dp0
S'LOC'
p1
(lp2
sS'PER'
p3
(lp4
sS'TIM'
p5
(lp6
sS'hot_setting'
p7
S''
p8
sS'DAT'
p9
(lp10
sS'death'
p11
g8
sS'title'
p12
S'Hyderabad blasts: toll goes up to 17'
p13
sS'org_unorg'
p14
g8
sS'terror_group'
p15
(lp16
g8
asS'content'
p17
V.
p18
sS'injured'
p19
g8
sS'det_loc'
p20
(lp21
g8
ag8
ag8
ag8
ag8
asS'O'
p22
(lp23
S'none:1'
p24
asS'unexpl'
p25
(lp26
g8
asS'ocassion'
p27
g8
sS'link'
p28
S'http://www.business-standard.com/article/current-affairs/hyderabad-blasts-toll-goes-up-to-17-113022200155_1.html'
p29
sS'date'
p30
g8
sS'target'
p31
g8
sS'hot_spot'
p32
g8
sS'delivery_mod'
p33
g8
sS'delivery_met'
p34
g8
sS'expl'
p35
(lp36
g8
asS'ORG'
p37
(lp38
s.