(dp0
S'LOC'
p1
(lp2
(lp3
S'Assam'
p4
aS'21'
p5
aS'Event'
p6
aa(lp7
S'Golaghat'
p8
aS'23'
p9
aS'Event'
p10
aa(lp11
S'Naujan'
p12
aS'52'
p13
aS'Neutral'
p14
aa(lp15
S'Sugajan'
p16
aS'54'
p17
aS'Neutral'
p18
aasS'PER'
p19
(lp20
(lp21
S'Trikal Rabha'
p22
aS'64'
p23
aS'Comment'
p24
aasS'TIM'
p25
(lp26
S'1 am : 57'
p27
aS'6am : 109'
p28
asS'hot_setting'
p29
S''
p30
sS'DAT'
p31
(lp32
S'Thursday morning : 27'
p33
asS'death'
p34
S'5'
p35
sS'title'
p36
S'Blast in Rajdhani Express in Assam, 5 killed'
p37
sS'det_loc'
p38
(lp39
S'India'
p40
aS'Assam'
p41
ag30
aS'Guwahati'
p42
ag30
asS'terror_group'
p43
(lp44
g30
asS'content'
p45
VGUWAHATI : Five people were killed and four others injured in a bomb blast in a Delhi-bound Rajdhani Express in Assam 's Golaghat district early on Thursday morning . . . The explosion , carried out by suspected militants , happened in the luggage van of the 2423A Dibrugarh-Guwahati-Delhi Rajdhani between Naujan and Sugajan at around 1 am , North Eastern railway CPRO Trikal Rabha said . . . Five people died on the spot while the four injured were rushed to Golaghat Civil hospital . The luggage van was damaged as well as small portion of track . . . The train resumed its journey at around 6am after passengers in the affected van were shifted to a 3 tier AC boggie . Top railway officials have rushed to the site .
p46
sS'injured'
p47
S'4'
p48
sS'org_unorg'
p49
g30
sS'O'
p50
(lp51
S'bomb blast:13'
p52
aS'rajdhani express:18'
p53
aS'explosion:33'
p54
aS'militants:39'
p55
aS'luggage van:44'
p56
aS'dibrugarh-guwahati-delhi rajdhani:49'
p57
aS'died:72'
p58
aS'injured:79'
p59
aS'luggage van:88'
p60
aS'train:103'
p61
aS'ac boggie:122'
p62
aS'railway:126'
p63
asS'unexpl'
p64
(lp65
g30
asS'ocassion'
p66
g30
sS'link'
p67
S'http://articles.economictimes.indiatimes.com/2007-12-13/news/28464884_1_bomb-blast-luggage-van-rajdhani-express'
p68
sS'date'
p69
S'13-12-2007'
p70
sS'target'
p71
S'TRAIN'
p72
sS'hot_spot'
p73
g30
sS'delivery_mod'
p74
g30
sS'delivery_met'
p75
S'PLANTED'
p76
sS'expl'
p77
(lp78
g30
asS'ORG'
p79
(lp80
(lp81
S'North Eastern railway'
p82
aS'60'
p83
aS'Others'
p84
aa(lp85
S'Golaghat Civil hospital'
p86
aS'83'
p87
aS'Others'
p88
aas.