(dp0
S'LOC'
p1
(lp2
(lp3
S'Hampi'
p4
aS'12'
p5
aS'Source'
p6
aa(lp7
S'Pune'
p8
aS'21'
p9
aS'Event'
p10
aa(lp11
S'Virupapura Gaddi'
p12
aS'40'
p13
aS'Neutral'
p14
aa(lp15
S'Pune'
p16
aS'45'
p17
aS'Event'
p18
aa(lp19
S'Hampi'
p20
aS'59'
p21
aS'Accused Location'
p22
aa(lp23
S'Bangalore'
p24
aS'90'
p25
aS'Accused Location'
p26
aa(lp27
S'Mumbai'
p28
aS'92'
p29
aS'Accused Location'
p30
aa(lp31
S'Pune'
p32
aS'94'
p33
aS'Accused Location'
p34
aa(lp35
S'North Main Road'
p36
aS'121'
p37
aS'Neutral'
p38
aa(lp39
S'Maharashtra'
p40
aS'186'
p41
aS'Neutral'
p42
aa(lp43
S'Hampi'
p44
aS'194'
p45
aS'Neutral'
p46
aa(lp47
S'Hampi'
p48
aS'241'
p49
aS'Neutral'
p50
aa(lp51
S'Hampi'
p52
aS'254'
p53
aS'Neutral'
p54
aa(lp55
S'Kashmir'
p56
aS'267'
p57
aS'Accused Location'
p58
aa(lp59
S'Bangalore'
p60
aS'272'
p61
aS'Accused Location'
p62
aa(lp63
S'Bengaluru International Airport'
p64
aS'284'
p65
aS'Neutral'
p66
aasS'PER'
p67
(lp68
(lp69
S'Seemanth Kumar Singh'
p70
aS'138'
p71
aS'Others'
p72
aa(lp73
S'Ishwarchandra Vidyasagar'
p74
aS'156'
p75
aS'Others'
p76
aa(lp77
S'Bilal'
p78
aS'264'
p79
aS'Accused'
p80
aasS'TIM'
p81
(lp82
sS'hot_setting'
p83
S''
p84
sS'DAT'
p85
(lp86
S'February 13:17'
p87
asS'death'
p88
S'11'
p89
sS'title'
p90
S'4 Kashmiris among 40 detained in Pune probe'
p91
sS'det_loc'
p92
(lp93
S'India'
p94
aS'Maharashtra'
p95
ag84
aS'Pune'
p96
ag84
asS'terror_group'
p97
(lp98
g84
asS'content'
p99
VBELLARY/BANGALORE : Four Kashmiri youths have been taken into custody in Hampi in connection with the February 13 explosion in Pune that left 11 persons dead . The detention was made by a team of the Maharashtra police near Virupapura Gaddi locality . The Pune blast site was littered with handicrafts items , leading the Mumbai police to Hampi . The four Kashmiris are sellers of handicrafts . The police are looking for three other persons , according to sources . Dozens of other detentions have been made in Bangalore , Mumbai and Pune on the basis of intelligence , call records and whatever ` little information ' sleuths could glean from the CCTV footage containing images of activities on North Main Road , where the German Bakery 's entrance is located . But superintendent of police Seemanth Kumar Singh denied the arrest of anybody in connection with the Pune blast . Another SP , Ishwarchandra Vidyasagar , told TOI no arrest or detentions had been made . ` Neither we nor any other state police force has arrested or detained anyone . '' The Maharashtra police team inspected various cyber cafes in Hampi , a popular haunt for foreign tourists . They questioned some foreigners , and enquired with the local police and hotel owners about people who had booked rooms for a week and left in a hurry . The police have visited some of the villages surrounding Hampi . More than 40 hotels catering to foreign tourists are located in Hampi . Three years ago , a suspected terrorist , Bilal , from Kashmir , was arrested in Bangalore . An LeT operative , he had planned to attack the Bengaluru International Airport and Wipro and Infosys offices .
p100
sS'injured'
p101
g84
sS'org_unorg'
p102
S'ORGANISED'
p103
sS'O'
p104
(lp105
S'kashmiri youths:4'
p106
aS'custody:10'
p107
aS'connection:14'
p108
aS'explosion:19'
p109
aS'mumbai police:56'
p110
aS'entrance:130'
p111
aS'superintendent of police:135'
p112
aS'arrest:143'
p113
aS'anybody:145'
p114
aS'connection:147'
p115
aS'pune blast:150'
p116
aS'state police force:175'
p117
aS'police team:187'
p118
aS'cyber:191'
p119
aS'police:213'
p120
aS'hotel:215'
p121
aS'week:225'
p122
aS'three years ago:256'
p123
aS'terrorist:262'
p124
asS'unexpl'
p125
(lp126
g84
asS'ocassion'
p127
g84
sS'link'
p128
S'http://timesofindia.indiatimes.com/india/4-Kashmiris-among-40-detained-in-Pune-probe/articleshow/5586069.cms?referral=PM'
p129
sS'date'
p130
S'13-02-2010'
p131
sS'target'
p132
g84
sS'hot_spot'
p133
g84
sS'delivery_mod'
p134
g84
sS'delivery_met'
p135
g84
sS'expl'
p136
(lp137
g84
asS'ORG'
p138
(lp139
(lp140
S'Maharashtra police'
p141
aS'37'
p142
aS'Others'
p143
aa(lp144
S'German Bakery'
p145
aS'127'
p146
aS'Others'
p147
aa(lp148
S'TOI'
p149
aS'160'
p150
aS'Others'
p151
aa(lp152
S'LeT'
p153
aS'275'
p154
aS'Accused'
p155
aa(lp156
S'Wipro'
p157
aS'288'
p158
aS'Assoc Victim'
p159
aa(lp160
S'Infosys offices'
p161
aS'290'
p162
aS'Assoc Victim'
p163
aas.