(dp0
S'LOC'
p1
(lp2
(lp3
S'SRINAGAR'
p4
aS'1'
p5
aS'Event'
p6
aa(lp7
S'Residency Road'
p8
aS'19'
p9
aS'Event'
p10
aa(lp11
S'Delhi'
p12
aS'43'
p13
aS'Neutral'
p14
aa(lp15
S'Jammu and Kashmir'
p16
aS'152'
p17
aS'Event'
p18
aa(lp19
S'Gowkadal'
p20
aS'163'
p21
aS'Event'
p22
aa(lp23
S'Srinagar'
p24
aS'222'
p25
aS'Event'
p26
aa(lp27
S'Baramula'
p28
aS'250'
p29
aS'Accused Location'
p30
aa(lp31
S'Kupwara'
p32
aS'252'
p33
aS'Accused Location'
p34
aa(lp35
S'Badgam'
p36
aS'254'
p37
aS'Accused Location'
p38
aa(lp39
S'Anantnag'
p40
aS'256'
p41
aS'Accused Location'
p42
aa(lp43
S'Pulwama'
p44
aS'258'
p45
aS'Accused Location'
p46
aa(lp47
S'Baramula'
p48
aS'289'
p49
aS'Accused Location'
p50
aa(lp51
S'Delhi'
p52
aS'346'
p53
aS'Neutral'
p54
aa(lp55
S'Delhi'
p56
aS'366'
p57
aS'Neutral'
p58
aa(lp59
S'Delhi'
p60
aS'379'
p61
aS'Neutral'
p62
aa(lp63
S'Press Colony'
p64
aS'421'
p65
aS'Neutral'
p66
aa(lp67
S'Pratap Park'
p68
aS'424'
p69
aS'Neutral'
p70
aa(lp71
S'Kashmir'
p72
aS'457'
p73
aS'Event'
p74
aa(lp75
S'Soura'
p76
aS'498'
p77
aS'Neutral'
p78
aasS'PER'
p79
(lp80
(lp81
S'Pankaj Darad'
p82
aS'51'
p83
aS'Victim'
p84
aa(lp85
S'Altaf Ahmad'
p86
aS'60'
p87
aS'Victim'
p88
aa(lp89
S'SHO'
p90
aS'63'
p91
aS'Victim'
p92
aa(lp93
S'Kothibagh'
p94
aS'65'
p95
aS'Victim'
p96
aa(lp97
S'Irfan Nazir'
p98
aS'67'
p99
aS'Victim'
p100
aa(lp101
S'Mohammad Abbas'
p102
aS'76'
p103
aS'Victim'
p104
aa(lp105
S'Mohammad Akbar'
p106
aS'79'
p107
aS'Victim'
p108
aa(lp109
S'K. Sambiya'
p110
aS'87'
p111
aS'Victim'
p112
aa(lp113
S'Irfan'
p114
aS'96'
p115
aS'Victim'
p116
aa(lp117
S'Kuldeep Sharma'
p118
aS'109'
p119
aS'Others'
p120
aa(lp121
S'Ashok Bhan'
p122
aS'144'
p123
aS'Others'
p124
aa(lp125
S'Javid Hussain Shan'
p126
aS'312'
p127
aS'Others'
p128
aa(lp129
S'Pradeep Bhatia'
p130
aS'337'
p131
aS'Others'
p132
aa(lp133
S'L.K. Advani'
p134
aS'376'
p135
aS'Others'
p136
aa(lp137
S'Sheila Dikshit'
p138
aS'382'
p139
aS'Others'
p140
aa(lp141
S'Gurbachan Jagat'
p142
aS'451'
p143
aS'Others'
p144
aa(lp145
S'Ashok Bhan'
p146
aS'461'
p147
aS'Others'
p148
aa(lp149
S'K. Rajendra'
p150
aS'466'
p151
aS'Others'
p152
aa(lp153
S'Farooq Nazki'
p154
aS'470'
p155
aS'Others'
p156
aa(lp157
S'K B Jandial'
p158
aS'478'
p159
aS'Others'
p160
aa(lp161
S'Amin War'
p162
aS'509'
p163
aS'Others'
p164
aa(lp165
S'H U Naqash'
p166
aS'512'
p167
aS'Others'
p168
aa(lp169
S'I. Tariq'
p170
aS'519'
p171
aS'Others'
p172
aasS'TIM'
p173
(lp174
S'today : 7'
p175
aS'today : 44'
p176
aS'evening : 113'
p177
aS'11 a.m. : 168'
p178
aS'12.35 p.m. : 181'
p179
aS'today : 201'
p180
aS'yesterdays : 216'
p181
aS'today : 350'
p182
aS'evening : 369'
p183
asS'hot_setting'
p184
S''
p185
sS'DAT'
p186
(lp187
S'Aug 11 : 3'
p188
aS'yesterday : 22'
p189
asS'death'
p190
S'12'
p191
sS'title'
p192
VStone throwing marks bandh Tribune News Service and agencies
p193
sS'org_unorg'
p194
g185
sS'terror_group'
p195
(lp196
S'LASHKAR-E-TAIBA'
p197
asS'content'
p198
VSRINAGAR , Aug 11 The police today confirmed that Lashkar-e-Toiba was responsible for the car bomb explosion at Residency Road here yesterday . The blast killed 12 persons . . . Six of the seriously injured in the incident were shifted to Delhi today for treatment . They are Mr Pankaj Darad , SP ( east ) , Mr Altaf Ahmad , SHO , Kothibagh , Irfan Nazir , cameraman of Zee News , constables Mohammad Abbas and Mohammad Akbar of the state police and contable K. Sambiya of the CRPF . . . Barring Irfan all injured have received burn injuries . With the death of SDPO Kuldeep Sharma late last evening , the toll in the explosion has gone up to 12 . . . Confirming the involvement of Lashkar-e-Toiba in the incident , the IGP , Kashmir Range , Dr Ashok Bhan , said the car of the Jammu and Kashmir Bank was , driven away by ultras in Gowkadal area at gunpoint around 11 a.m. . The driver was set free after the explosion at around 12.35 p.m. . . Stray incidents of stone-throwing and forcible closure of business establishments in some areas in the valley today marked the day-long bandh called by an alliance of counter-insurgent groups in protest against yesterdays killings . . . In Srinagar , work in some government and semi-government offices , banks and educational institutions was affected by the strike , but it had little impact in towns of Baramula , Kupwara , Badgam , Anantnag and Pulwama , official sources said . . . A dozen private vehicles were damaged by protesters who prevented children from going to school , the sources said . . . In Baramula a crowd indulged in stone-pelting when people refused to observe the strike . The strike was called by the alliance headed by Javid Hussain Shan , , one of the first counter-insurgents and now a member of the Legislative Council . . . The mortal remains of Pradeep Bhatia of The Hindustan Times were flown to Delhi for last rites today . The body was consigned to the flames on the banks of the Yamuna in Delhi in the evening in the presence of Home Minister L.K. Advani , Delhi Chief Minister Sheila Dikshit , MPs , and friends and relatives . Wreaths were earlier placed on the body of the photo journalist by several ministers and MPs . . . Earlier , his body bedecked with flames was brought to Press Colony at Pratap Park where a number of journalists and prominent citizens laid wreaths . Among those who paid floral tributes were the Director General of Police , Mr Gurbachan Jagat , the IG , Kashmir Range , Dr Ashok Bhan , DIG , K. Rajendra , Mr Farooq Nazki and Director of Information , Mr K B Jandial . . . The condition of three photojournalists admitted to the Sher-e-Kashmir Institute of Medical Sciences , Soura , here is stated to be stable . They are Amin War , H U Naqash of Asian Age and I. Tariq , a local photographer .
p199
sS'injured'
p200
g185
sS'det_loc'
p201
(lp202
S'India'
p203
aS'Jammu & Kashmir'
p204
ag185
aS'Srinagar'
p205
ag185
asS'O'
p206
(lp207
S'car bomb explosion:15'
p208
aS'blast:25'
p209
aS'seriously injured:35'
p210
aS'burn injuries:101'
p211
aS'explosion:119'
p212
aS'Kashmir Range:140'
p213
aS'explosion:178'
p214
aS'day-long bandh:204'
p215
aS'counter-insurgent groups:211'
p216
aS'government and semi-government offices:227'
p217
aS'banks:232'
p218
aS'educational institutions:234'
p219
aS'dozen private vehicles:267'
p220
aS'protesters:273'
p221
aS'stone-pelting:294'
p222
aS'first counter-insurgents:320'
p223
aS'Yamuna:364'
p224
aS'photo journalist:401'
p225
aS'journalists:430'
p226
aS'prominent citizens:432'
p227
aS'floral tributes:441'
p228
aS'photojournalists:488'
p229
asS'unexpl'
p230
(lp231
g185
asS'ocassion'
p232
g185
sS'link'
p233
S'http://www.tribuneindia.com/2000/20000812/main2.htm'
p234
sS'date'
p235
S'11-08-2000'
p236
sS'target'
p237
S'RESIDENCE'
p238
sS'hot_spot'
p239
g185
sS'delivery_mod'
p240
S'CAR'
p241
sS'delivery_met'
p242
g185
sS'expl'
p243
(lp244
g185
asS'ORG'
p245
(lp246
(lp247
S'Lashkar-e-Toiba'
p248
aS'10'
p249
aS'Accused'
p250
aa(lp251
S'Zee News'
p252
aS'72'
p253
aS'Others'
p254
aa(lp255
S'CRPF'
p256
aS'91'
p257
aS'Others'
p258
aa(lp259
S'Lashkar-e-Toiba'
p260
aS'132'
p261
aS'Accused'
p262
aa(lp263
S'Legislative Council'
p264
aS'328'
p265
aS'Others'
p266
aa(lp267
S'The Hindustan Times'
p268
aS'340'
p269
aS'Others'
p270
aa(lp271
S'Sher-e-Kashmir Institute of Medical Sciences'
p272
aS'492'
p273
aS'Others'
p274
aas.