(dp0
S'LOC'
p1
(lp2
(lp3
S'NEW DELHI'
p4
aS'1'
p5
aS'Neutral'
p6
aa(lp7
S'Jaipur'
p8
aS'19'
p9
aS'Event'
p10
aasS'PER'
p11
(lp12
(lp13
S'Madhukar Gupta'
p14
aS'71'
p15
aS'Others'
p16
aa(lp17
S'Shivraj Patil'
p18
aS'121'
p19
aS'Comment'
p20
aasS'TIM'
p21
(lp22
sS'hot_setting'
p23
S''
p24
sS'DAT'
p25
(lp26
sS'death'
p27
S'24'
p28
sS'title'
p29
S'Home Ministry sounds nation-wide alert'
p30
sS'org_unorg'
p31
g24
sS'terror_group'
p32
(lp33
g24
asS'content'
p34
VNEW DELHI : The Union Home Ministry tonight sounded a nation-wide alert following the serial bomb blasts in Jaipur killing over two dozen and injuring scores . ` The Home Ministry is keeping a close watch on the situation in the Pink City , ' a senior MHA official said , adding that an alert has been sounded in all states . Senior Home Ministry officials , including Home Secretary Madhukar Gupta , immediately got in touch with the state government and asked them to beef up security arrangements . Terrorists set off six bomb blasts at crowded markets in the Walled City within a span of ten minutes killing and wounding several people . MHA spokesman said Home Minister Shivraj Patil , who was on a two-day visit to Northeast , condemned the blasts . He was also in touch with his ministry officials . Bomb data squad of the elite National Security Guards has been rushed to the Pink City .
p35
sS'injured'
p36
S'20'
p37
sS'det_loc'
p38
(lp39
S'India'
p40
aS'Rajasthan'
p41
aS'Jaipur'
p42
ag24
ag24
asS'O'
p43
(lp44
S'Union Home Ministry:5'
p45
aS'nation-wide alert:11'
p46
aS'serial bomb blasts:15'
p47
aS'killing over two dozen:20'
p48
aS'injuring scores:25'
p49
aS'Home Ministry:30'
p50
aS'Pink City:42'
p51
aS'senior MHA official:47'
p52
aS'Senior Home Ministry officials:63'
p53
aS'Home Secretary:69'
p54
aS'Terrorists:91'
p55
aS'six bomb blasts:94'
p56
aS'crowded markets:98'
p57
aS'Walled City:102'
p58
aS'ten minutes:108'
p59
aS'MHA spokesman:116'
p60
aS'Home Minister:119'
p61
asS'unexpl'
p62
(lp63
g24
asS'ocassion'
p64
g24
sS'link'
p65
S'http://timesofindia.indiatimes.com/india/Home-Ministry-sounds-nation-wide-alert/articleshow/3037212.cms?'
p66
sS'date'
p67
S'13-05-2008'
p68
sS'target'
p69
g24
sS'hot_spot'
p70
g24
sS'delivery_mod'
p71
g24
sS'delivery_met'
p72
g24
sS'expl'
p73
(lp74
g24
asS'ORG'
p75
(lp76
(lp77
S'National Security Guards'
p78
aS'153'
p79
aS'Others'
p80
aas.