(dp0
S'LOC'
p1
(lp2
(lp3
S'Gorakhpur'
p4
aS'12'
p5
aS'Event'
p6
aa(lp7
S'Uttar Pradesh'
p8
aS'15'
p9
aS'Event'
p10
aa(lp11
S'Gorakhpur'
p12
aS'31'
p13
aS'Event'
p14
aa(lp15
S'Gorakhpur : 47'
p16
aS'Event'
p17
aS'Neutral'
p18
aa(lp19
S'Uttar Pradesh'
p20
aS'50'
p21
aS'Event'
p22
aa(lp23
S'Golghar Crossing'
p24
aS'78'
p25
aS'Event'
p26
aa(lp27
S'Jalkal Building'
p28
aS'84'
p29
aS'Event'
p30
aasS'PER'
p31
(lp32
(lp33
S'Baldev Plaza'
p34
aS'72'
p35
aS'Others'
p36
aa(lp37
S'P K Agarwal'
p38
aS'122'
p39
aS'Others'
p40
aasS'TIM'
p41
(lp42
S'7.15 p.m.:18'
p43
aS'p.m.:19'
p44
aS'7.15 p.m.:53'
p45
aS'p.m.:54'
p46
asS'hot_setting'
p47
S''
p48
sS'DAT'
p49
(lp50
S'Tuesday:21'
p51
aS'May 22:33'
p52
aS'Tuesday:56'
p53
asS'death'
p54
g48
sS'title'
p55
S'Six injured in Gorakhpur serial blasts'
p56
sS'det_loc'
p57
(lp58
S'India'
p59
aS'Uttar Pradesh'
p60
aS'Gorakpur'
p61
ag48
ag48
asS'terror_group'
p62
(lp63
g48
asS'content'
p64
VAt least three bomb blasts were triggered in the heart of Gorakhpur District of Uttar Pradesh around 7.15 p.m. on Tuesday , injuring at least six persons . . . Gorakhpur , May 22 : At least three bomb blasts were triggered in the heart of Gorakhpur District of Uttar Pradesh around 7.15 p.m. on Tuesday , injuring at least six persons . . . The first blast took place near Baldev Plaza , the second near Golghar Crossing and the third at Jalkal Building . . . According to reports , the bombs were kept inside lunch boxes in scooter and bicycle . . . The injured have been admitted in a nearby hospital . . . Additional District Magistrate P K Agarwal , however , denied any serious injuries . . . Security has been beefed up along the Indo-Nepal border . . . addthis_url = location.href ; addthis_title = document.title ; addthis_pub = ` vijaytech ' ; . . a36 ( ) ; . . .
p65
sS'injured'
p66
S'6'
p67
sS'org_unorg'
p68
g48
sS'O'
p69
(lp70
S'three bomb blasts:3'
p71
aS'three bomb blasts:38'
p72
aS'first blast:67'
p73
aS'bombs:94'
p74
aS'lunch boxes:98'
p75
aS'scooter:101'
p76
aS'bicycle:103'
p77
aS'injured:108'
p78
aS'Indo-Nepal border:142'
p79
asS'unexpl'
p80
(lp81
g48
asS'ocassion'
p82
g48
sS'link'
p83
S'http://www.andhranews.net/India/2007/May/22-injured-Gorakhpur-serial-blasts-2158.asp'
p84
sS'date'
p85
S'21-05-2007'
p86
sS'target'
p87
S'PUBLIC PLACES'
p88
sS'hot_spot'
p89
g48
sS'delivery_mod'
p90
S'TIFFIN BOX'
p91
sS'delivery_met'
p92
S'PLANTED'
p93
sS'expl'
p94
(lp95
g48
asS'ORG'
p96
(lp97
s.