(dp0
S'LOC'
p1
(lp2
(lp3
S'Kolkata'
p4
aS'1'
p5
aS'Neutral'
p6
aa(lp7
S'West Bengal'
p8
aS'17'
p9
aS'Neutral'
p10
aa(lp11
S'Burdwan'
p12
aS'20'
p13
aS'Event'
p14
aa(lp15
S'Kolkata'
p16
aS'45'
p17
aS'Neutral'
p18
aa(lp19
S'Bidhannagar'
p20
aS'67'
p21
aS'Neutral'
p22
aa(lp23
S'Jessore'
p24
aS'85'
p25
aS'Neutral'
p26
aa(lp27
S'Kolkata'
p28
aS'89'
p29
aS'Neutral'
p30
aa(lp31
S'Bangaldesh'
p32
aS'117'
p33
aS'Neutral'
p34
aa(lp35
S'Lalgola'
p36
aS'171'
p37
aS'Accused Location'
p38
aa(lp39
S'Murshidabad'
p40
aS'173'
p41
aS'Accused Location'
p42
aa(lp43
S'madrasa'
p44
aS'177'
p45
aS'Neutral'
p46
aa(lp47
S'Khagragarh'
p48
aS'208'
p49
aS'Event'
p50
aa(lp51
S'Bengal'
p52
aS'210'
p53
aS'Neutral'
p54
aa(lp55
S'Burdwan'
p56
aS'212'
p57
aS'Event'
p58
aasS'PER'
p59
(lp60
(lp61
S'Sajid aka Sheikh Rehmatullah'
p62
aS'8'
p63
aS'Accused'
p64
aa(lp65
S'Sajid'
p66
aS'80'
p67
aS'Accused'
p68
aa(lp69
S'Sajid'
p70
aS'92'
p71
aS'Accused'
p72
aa(lp73
S'Sajid'
p74
aS'158'
p75
aS'Accused'
p76
aa(lp77
S'Sajid'
p78
aS'167'
p79
aS'Accused'
p80
aa(lp81
S'Shakil Ahmed'
p82
aS'219'
p83
aS'Victim'
p84
aa(lp85
S'Sovan Mandal'
p86
aS'222'
p87
aS'Victim'
p88
aa(lp89
S'Shakil Ahmed'
p90
aS'244'
p91
aS'Victim'
p92
aa(lp93
S'Sovan Mandal'
p94
aS'247'
p95
aS'Victim'
p96
aasS'TIM'
p97
(lp98
S'afternoon : 42'
p99
aS'afternoon : 83'
p100
asS'hot_setting'
p101
S''
p102
sS'DAT'
p103
(lp104
S'Saturday:41'
p105
aS'Saturday:82'
p106
aS'October 2:197'
p107
asS'death'
p108
g102
sS'title'
p109
S"Sajid, Alleged Mastermind of Bengal's Burdwan Terror Module, Arrested by State Police"
p110
sS'org_unorg'
p111
S'ORGANISED'
p112
sS'terror_group'
p113
(lp114
g102
asS'content'
p115
VKolkata : In a major breakthrough , Sajid aka Sheikh Rehmatullah , the alleged mastermind of West Bengal 's Burdwan terror module and a key member of a banned Bangladeshi terror outfit , was arrested by the state police on Saturday afternoon near the Kolkata airport.A pan card and a voter ID card have been recovered from him.Sajid was arrested by the Anti-Terror Squad of the Bidhannagar Police which had tracked a courier who was to deliver money to Sajid on Saturday afternoon on Jessore Road near the Kolkata airport . Sajid is the first suspected Bangladeshi national to be arrested in the case . He is believed to be a central committee member of Jamaat-ul-Mujahideen Bangaldesh or JMB which is banned in that country . He is expected to be handed over to the National Investigation Agency -LRB- NIA -RRB- shortly.The NIA had announced a cash reward of Rs 10 lakh for any information leading to Sajid 's arrest . According to the NIA , Sajid was living at Lalgola in Murshidabad district near a madrasa that NIA has now sealed.With this arrest , the exact operations of the terror module is likely to emerge.On October 2 , a bomb had exploded in a house at Khagragarh in Bengal 's Burdwan district in which two persons , Shakil Ahmed and Sovan Mandal , were killed . Initially assumed to be a gas cylinder blast or explosion of crude bombs , investigations revealed Shakil Ahmed and Sovan Mandal were using fairly sophisticated improvised explosive devices or IEDs.Interrogation of two women arrested from the blast site revealed that a network of terror was spread across several districts in Bengal.In a house close to the blast site suspected to have been occupied by terrorists , the NIA recovered 39 IEDs eight days after the state police searched and sealed it . .
p116
sS'injured'
p117
g102
sS'det_loc'
p118
(lp119
S'India'
p120
aS'West Bengal'
p121
aS'Bardhaman'
p122
aS'Bardhaman'
p123
aS'house,Burdwan'
p124
asS'O'
p125
(lp126
S'bangladeshi terror:30'
p127
aS'police:39'
p128
aS'voter id:51'
p129
aS'bangladeshi:97'
p130
aS'central committee member:112'
p131
aS'terror module:191'
p132
aS'gas cylinder blast:233'
p133
aS'crude bombs:239'
p134
asS'unexpl'
p135
(lp136
g102
asS'ocassion'
p137
g102
sS'link'
p138
S'http://www.ndtv.com/india-news/sajid-alleged-mastermind-of-bengals-burdwan-terror-module-arrested-by-state-police-690534'
p139
sS'date'
p140
S'02-10-2014'
p141
sS'target'
p142
g102
sS'hot_spot'
p143
S'house,Burdwan'
p144
sS'delivery_mod'
p145
g102
sS'delivery_met'
p146
S'PLANTED'
p147
sS'expl'
p148
(lp149
S'LPG CYLINDER'
p150
aS'CRUDE BOMB'
p151
asS'ORG'
p152
(lp153
(lp154
S'Anti-Terror Squad'
p155
aS'63'
p156
aS'Others'
p157
aa(lp158
S'Bidhannagar Police'
p159
aS'67'
p160
aS'Others'
p161
aa(lp162
S'Jamaat-ul-Mujahideen'
p163
aS'116'
p164
aS'Accused'
p165
aa(lp166
S'Jamaat-ul-Mujahideen Bangaldesh'
p167
aS'116'
p168
aS'Accused'
p169
aa(lp170
S'JMB'
p171
aS'119'
p172
aS'Accused'
p173
aa(lp174
S'National Investigation Agency'
p175
aS'136'
p176
aS'Others'
p177
aa(lp178
S'NIA'
p179
aS'140'
p180
aS'Others'
p181
aa(lp182
S'NIA'
p183
aS'143'
p184
aS'Others'
p185
aa(lp186
S'NIA'
p187
aS'165'
p188
aS'Others'
p189
aa(lp190
S'NIA'
p191
aS'179'
p192
aS'Others'
p193
aa(lp194
S'NIA'
p195
aS'295'
p196
aS'Others'
p197
aas.