(dp0
S'LOC'
p1
(lp2
(lp3
S'Assam'
p4
aS'11'
p5
aS'Neutral'
p6
aa(lp7
S'Nalbari'
p8
aS'13'
p9
aS'Event'
p10
aa(lp11
S'Assam'
p12
aS'57'
p13
aS'Neutral'
p14
aa(lp15
S'Nalbari'
p16
aS'59'
p17
aS'Event'
p18
aa(lp19
S'Gopal Bazar'
p20
aS'75'
p21
aS'Event'
p22
aa(lp23
S'Assam'
p24
aS'98'
p25
aS'Neutral'
p26
aa(lp27
S'police station'
p28
aS'122'
p29
aS'Neutral'
p30
aa(lp31
S'Assam'
p32
aS'125'
p33
aS'Neutral'
p34
aa(lp35
S'Nalbari'
p36
aS'127'
p37
aS'Event'
p38
aa(lp39
S'Nalbari'
p40
aS'178'
p41
aS'Event'
p42
aa(lp43
S'Assam'
p44
aS'186'
p45
aS'Neutral'
p46
aa(lp47
S'Guwahati'
p48
aS'191'
p49
aS'Neutral'
p50
aasS'PER'
p51
(lp52
sS'TIM'
p53
(lp54
S'40 minutes : 42'
p55
aS'five minutes : 80'
p56
aS'12:11 PM : 88'
p57
aS'10 am : 152'
p58
aS'11:01 AM : 193'
p59
asS'hot_setting'
p60
S''
p61
sS'DAT'
p62
(lp63
S'Sunday:16'
p64
aS'Nov 22 : 18'
p65
asS'death'
p66
S'5'
p67
sS'title'
p68
S'Serial blasts rock Assam; 5 killed, 30 injured'
p69
sS'org_unorg'
p70
S'ORGANISED'
p71
sS'terror_group'
p72
(lp73
g61
asS'content'
p74
VView PhotosGuwahati , Nov 22 : Three serial blast rocked Assam 's Nalbari district on Sunday , Nov 22 , killing five people and injuring 30 others , police said . . . The explosions went off in a span of 40 minutes . . . The first two bombs exploded outside a police station in Assam 's Nalbari district , police said . . . The third blast , which took place in Gopal Bazar area , came five minutes after the first two blasts . 12:11 PM . . Two killed , 25 injured in Assam twin blasts . . At least two people have been killed and 25 others injured in a twin blasts that exploded outside a police station in Assam 's Nalbari district , police said . . . According to an offcial , the bomb was kept on a parked bicycle and it exploded around 10 am . . . Police suspect that militants of the United Liberation Front of Asom ( ULFA ) carried out the explosion . . . Nalbari district is about 70 km west of Assam 's main city of Guwahati . 11:01 AM . . OneIndia News . . .
p75
sS'injured'
p76
S'30'
p77
sS'det_loc'
p78
(lp79
S'India'
p80
aS'Assam'
p81
aS'Nalbari'
p82
aS'guwahati'
p83
aS'Nalbari'
p84
asS'O'
p85
(lp86
S'police:29'
p87
asS'unexpl'
p88
(lp89
g61
asS'ocassion'
p90
g61
sS'link'
p91
S'http://www.oneindia.com/2009/11/22/twin-blasts-rock-assam.html'
p92
sS'date'
p93
S'22-11-2009'
p94
sS'target'
p95
g61
sS'hot_spot'
p96
S'Nalbari'
p97
sS'delivery_mod'
p98
S'BYCICLE'
p99
sS'delivery_met'
p100
S'PLANTED'
p101
sS'expl'
p102
(lp103
g61
asS'ORG'
p104
(lp105
(lp106
S'United Liberation Front of Asom'
p107
aS'163'
p108
aS'Accused'
p109
aa(lp110
S'ULFA'
p111
aS'169'
p112
aS'Accused'
p113
aas.