(dp0
S'LOC'
p1
(lp2
(lp3
S'Guwahati'
p4
aS'1'
p5
aS'Event'
p6
aa(lp7
S'Assams Bongaigaon district'
p8
aS'12'
p9
aS'Event'
p10
aa(lp11
S'police checkpoint in Swahidbedi'
p12
aS'27'
p13
aS'Event'
p14
aa(lp15
S'Paglathan'
p16
aS'41'
p17
aS'Event'
p18
aasS'PER'
p19
(lp20
sS'TIM'
p21
(lp22
S'8.10 a.m.:23'
p23
asS'hot_setting'
p24
S''
p25
sS'DAT'
p26
(lp27
S'Saturday:16'
p28
asS'death'
p29
g25
sS'title'
p30
S'Two blasts in Assam'
p31
sS'det_loc'
p32
(lp33
S'India'
p34
aS'Assam'
p35
aS'Bongaigaon'
p36
aS'Guwahati'
p37
aS'lower Assams Bongaigaon district,near a police checkpoint in Swahidbedi area'
p38
asS'terror_group'
p39
(lp40
S'UNITED LIBERATION FRONT OF ASOM '
p41
asS'content'
p42
VGuwahati : Two bomb blasts by suspected ULFA militants rocked lower Assams Bongaigaon district on Saturday . The first took place at 8.10 a.m. near a police checkpoint in Swahidbedi area . The next went off five minutes later at Paglathan .
p43
sS'injured'
p44
g25
sS'org_unorg'
p45
S'ORGANISED'
p46
sS'O'
p47
(lp48
S'bomb:4'
p49
aS'five minutes:37'
p50
asS'unexpl'
p51
(lp52
g25
asS'ocassion'
p53
g25
sS'link'
p54
S'http://www.thehindu.com/todays-paper/two-blasts-in-assam/article1318191.ece'
p55
sS'date'
p56
S'16-08-2008'
p57
sS'target'
p58
g25
sS'hot_spot'
p59
S'lower Assams Bongaigaon district,near a police checkpoint in Swahidbedi area'
p60
sS'delivery_mod'
p61
g25
sS'delivery_met'
p62
S'PLANTED'
p63
sS'expl'
p64
(lp65
g25
asS'ORG'
p66
(lp67
(lp68
S'ULFA'
p69
aS'8'
p70
aS'Accused'
p71
aa(lp72
S'police'
p73
aS'27'
p74
aS'Others'
p75
aas.