(dp0
S'LOC'
p1
(lp2
(lp3
S'Imphal'
p4
aS'1'
p5
aS'Neutral'
p6
aa(lp7
S'Imphal West'
p8
aS'33'
p9
aS'Neutral'
p10
aasS'PER'
p11
(lp12
sS'TIM'
p13
(lp14
sS'hot_setting'
p15
S''
p16
sS'DAT'
p17
(lp18
S'Tuesday night:15'
p19
asS'death'
p20
S'17'
p21
sS'title'
p22
S'17 killed in Imphal blast'
p23
sS'det_loc'
p24
(lp25
S'India'
p26
aS'Manipur'
p27
aS'Imphal West'
p28
aS'Imphal'
p29
ag16
asS'terror_group'
p30
(lp31
g16
asS'content'
p32
VImphal : At least 17 people were killed and more than 30 injured on Tuesday night when unidentified militants exploded a bomb attached to a two-wheeler near a police commando complex in Imphal West district . . . Sources said the victims included a few security personnel . While 13 people died on the spot , four succumbed to injuries in hospital . The condition of many of the injured is critical , sources said . PTI .
p33
sS'injured'
p34
S'30'
p35
sS'org_unorg'
p36
g16
sS'O'
p37
(lp38
S'unidentified militants exploded:18'
p39
aS'bomb:22'
p40
aS'two-wheeler:26'
p41
aS'police commando complex:29'
p42
aS'victims:42'
p43
aS'security personnel:46'
p44
aS'injuries:60'
p45
aS'critical:72'
p46
asS'unexpl'
p47
(lp48
g16
asS'ocassion'
p49
g16
sS'link'
p50
S'http://www.thehindu.com/todays-paper/article1361488.ece'
p51
sS'date'
p52
S'21-10-2008'
p53
sS'target'
p54
g16
sS'hot_spot'
p55
g16
sS'delivery_mod'
p56
S'TWO WHEELER'
p57
sS'delivery_met'
p58
S'PLANTED'
p59
sS'expl'
p60
(lp61
g16
asS'ORG'
p62
(lp63
s.