(dp0
S'LOC'
p1
(lp2
(lp3
S'Sarojini Nagar'
p4
aS'11'
p5
aS'Event'
p6
aa(lp7
S'Paharganj'
p8
aS'27'
p9
aS'Event'
p10
aa(lp11
S'Sarojini Nagar'
p12
aS'60'
p13
aS'Event'
p14
aa(lp15
S'Paharganj'
p16
aS'71'
p17
aS'Event'
p18
aasS'PER'
p19
(lp20
sS'TIM'
p21
(lp22
S'evening : 45'
p23
asS'hot_setting'
p24
S''
p25
sS'DAT'
p26
(lp27
sS'death'
p28
g25
sS'title'
p29
VDelhi serial blasts: toll rises to 61
p30
sS'org_unorg'
p31
S'ORGANISED'
p32
sS'terror_group'
p33
(lp34
g25
asS'content'
p35
VWhile four of them , who were injured in the Sarojini Nagar blast , died in the Safdarjung hospital , two others were victims of the Paharganj explosion , police said . . . A total of 188 people had been injured in last evening 's explosions , they said . . . Most of the casualties were from Sarojini Nagar where 43 people died while 18 were killed in Paharganj . . . In Safdarjung hospital , 28 of the 41 bodies have been identified so far . Relatives could be seen in distraught condition trying to locate their kin who did not return home after the blasts last evening . Bodies of two more victims have been identified at the All India Institute of Medical Sciences ( AIIMS ) , where 16 people including seven women and five children were undergoing treatment and the condition of two was stated to be critical . I , Safdarjung , 38 victims , including 14 women and 9 children were under treatment . While nine of them were in the intensive care unit , the condition of others was serious , sources said . Twenty four people have been discharged from the two hospitals after treatment overnight . . . .
p36
sS'injured'
p37
S'4'
p38
sS'det_loc'
p39
(lp40
S'India'
p41
aS'Delhi'
p42
aS'South West'
p43
aS'Delhi'
p44
aS'Sarojini Nagar '
p45
asS'O'
p46
(lp47
S'police:30'
p48
aS'overnight:206'
p49
asS'unexpl'
p50
(lp51
g25
asS'ocassion'
p52
g25
sS'link'
p53
S'http://www.outlookindia.com/newswire/story/delhi-serial-blasts-toll-rises-to-61/332163'
p54
sS'date'
p55
S'30-10-2005'
p56
sS'target'
p57
g25
sS'hot_spot'
p58
S'Sarojini Nagar '
p59
sS'delivery_mod'
p60
g25
sS'delivery_met'
p61
S'PLANTED'
p62
sS'expl'
p63
(lp64
g25
asS'ORG'
p65
(lp66
(lp67
S'Safdarjung hospital'
p68
aS'18'
p69
aS'Others'
p70
aa(lp71
S'Safdarjung hospital'
p72
aS'76'
p73
aS'Others'
p74
aa(lp75
S'All India Institute of Medical Sciences'
p76
aS'123'
p77
aS'Others'
p78
aa(lp79
S'AIIMS'
p80
aS'130'
p81
aS'Others'
p82
aa(lp83
S'Safdarjung'
p84
aS'158'
p85
aS'Others'
p86
aas.