(dp0
S'LOC'
p1
(lp2
(lp3
S'Assams'
p4
aS'18'
p5
aS'Event'
p6
aa(lp7
S'Dhubri'
p8
aS'19'
p9
aS'Event'
p10
aa(lp11
S'Bongaigaon'
p12
aS'21'
p13
aS'Event'
p14
aa(lp15
S'Guwahati'
p16
aS'29'
p17
aS'Event'
p18
aa(lp19
S'Assam'
p20
aS'51'
p21
aS'Event'
p22
aa(lp23
S'Dhubri'
p24
aS'53'
p25
aS'Event'
p26
aa(lp27
S'Bongaigaon'
p28
aS'55'
p29
aS'Event'
p30
aa(lp31
S'Gandhi Maidan'
p32
aS'76'
p33
aS'Event'
p34
aa(lp35
S'Bongaigaon'
p36
aS'79'
p37
aS'Event'
p38
aa(lp39
S'Gauripur'
p40
aS'135'
p41
aS'Event'
p42
aa(lp43
S'Dhubri'
p44
aS'138'
p45
aS'Event'
p46
aa(lp47
S'Dhubri'
p48
aS'151'
p49
aS'Event'
p50
aasS'PER'
p51
(lp52
sS'TIM'
p53
(lp54
S'8.23 a.m.:82'
p55
aS'8.38 a.m.:157'
p56
aS'9.5:181'
p57
aS'9.5 a.m.:181'
p58
asS'hot_setting'
p59
S''
p60
sS'DAT'
p61
(lp62
S'Wednesday morning:24'
p63
aS'Aug 15 : 31'
p64
aS'Wednesday morning : 58'
p65
asS'death'
p66
g60
sS'title'
p67
S'Two injured in Assam blasts on Independence Day'
p68
sS'org_unorg'
p69
S'ORGANISED'
p70
sS'terror_group'
p71
(lp72
S'UNITED LIBERATION FRONT OF ASSAM (ULFA)'
p73
asS'content'
p74
VTwo persons were injured in suspected United Liberation Front of Asom ( ULFA ) bomb blasts in Assams Dhubri and Bongaigaon Districts on Wednesday morning . . . Guwahati , Aug 15 : Two persons were injured in suspected United Liberation Front of Asom ( ULFA ) bomb blasts in Assam 's Dhubri and Bongaigaon Districts on Wednesday morning . . . According to officials , two Improvised Explosive Devices ( IEDs ) exploded near Gandhi Maidan in Bongaigaon town at 8.23 a.m. , injuring two persons . . . The parade ground is adjacent to a police reserve and about 150 metres away from the Independence Day celebration venue . . . In another incident , two bombs exploded near a parade ground adjacent to the Mahamaya Sanskrit Tol ( school ) at Gauripur town in Dhubri . No one was injured in this blast . . . In Dhubri , first blast occurred at 8.38 a.m. when first Programmable Time Devise ( PTD ) kept near an electric transformer went off . Second blast took place at around 9.5 a.m. when a flag hosting ceremony was on . . . addthis_url = location.href ; addthis_title = document.title ; addthis_pub = ` vijaytech ' ; . . a36 ( ) ; . . .
p75
sS'injured'
p76
S'2'
p77
sS'det_loc'
p78
(lp79
S'India'
p80
aS'Assam'
p81
aS'Dhubri'
p82
aS'Guwahati'
p83
ag60
asS'O'
p84
(lp85
S'injured:4'
p86
aS'bomb blasts:15'
p87
aS'injured:37'
p88
aS'bomb blasts:48'
p89
aS'improvised explosive devices:68'
p90
aS'ieds:72'
p91
aS'independence day celebration:107'
p92
aS'two bombs exploded:118'
p93
aS'parade ground:123'
p94
aS'injured:143'
p95
aS'blast:146'
p96
aS'blast:154'
p97
aS'programmable time devise:161'
p98
aS'ptd:165'
p99
aS'blast:176'
p100
aS'flag hosting ceremony:185'
p101
asS'unexpl'
p102
(lp103
g60
asS'ocassion'
p104
S'INDEPENDENCE DAY'
p105
sS'link'
p106
S'http://www.andhranews.net/India/2007/August/15-injured-Assam-blasts-11892.asp'
p107
sS'date'
p108
S'15-08-2007'
p109
sS'target'
p110
S'PARADE GROUND'
p111
sS'hot_spot'
p112
g60
sS'delivery_mod'
p113
g60
sS'delivery_met'
p114
S'PLANTED'
p115
sS'expl'
p116
(lp117
S'IED'
p118
asS'ORG'
p119
(lp120
(lp121
S'United Liberation Front of Asom'
p122
aS'7'
p123
aS'Accused'
p124
aa(lp125
S'ULFA'
p126
aS'13'
p127
aS'Accused'
p128
aa(lp129
S'United Liberation Front of Asom'
p130
aS'40'
p131
aS'Accused'
p132
aa(lp133
S'ULFA'
p134
aS'46'
p135
aS'Accused'
p136
aa(lp137
S'Mahamaya Sanskrit Tol'
p138
aS'128'
p139
aS'Others'
p140
aas.