(dp0
S'LOC'
p1
(lp2
(lp3
S'West Bengals Bardhaman'
p4
aS'6'
p5
aS'Event'
p6
aa(lp7
S'Raghunathpur'
p8
aS'27'
p9
aS'Source'
p10
aa(lp11
S'Purulia'
p12
aS'30'
p13
aS'Source'
p14
aa(lp15
S'Purulia'
p16
aS'63'
p17
aS'Source'
p18
aasS'PER'
p19
(lp20
(lp21
S'S. K. Neelakantam'
p22
aS'67'
p23
aS'Comment'
p24
aasS'TIM'
p25
(lp26
sS'hot_setting'
p27
S''
p28
sS'DAT'
p29
(lp30
S'Saturday:33'
p31
asS'death'
p32
S'2'
p33
sS'title'
p34
S'Huge haul of gelatin sticks'
p35
sS'org_unorg'
p36
S'ORGANISED'
p37
sS'terror_group'
p38
(lp39
g28
asS'content'
p40
VDays after the blast in West Bengals Bardhaman district where two persons died , the police seized a large quantity of gelatine sticks and detonators from Raghunathpur area in Purulia district on Saturday . . . Two persons have been detained . . . Acting on a tip off we intercepted a vehicle and seized 2,700 gelatine sticks and 11,000 detonators , Purulia Superintendent of Police S. K. Neelakantam told The Hindu .
p41
sS'injured'
p42
g28
sS'det_loc'
p43
(lp44
S'India'
p45
aS'West Bengal'
p46
aS'Bardhaman'
p47
aS'Kolkata'
p48
aS'West Bengals Bardhaman district '
p49
asS'O'
p50
(lp51
S'quantity:20'
p52
aS'detonators:25'
p53
aS'district:31'
p54
aS'detained:41'
p55
aS'gelatine sticks:57'
p56
aS'and 11,000:59'
p57
aS'detonators:61'
p58
aS'superintendent:64'
p59
aS'the hindu:71'
p60
asS'unexpl'
p61
(lp62
S'DETONATORS'
p63
asS'ocassion'
p64
g28
sS'link'
p65
S'http://www.thehindu.com/todays-paper/tp-national/huge-haul-of-gelatin-sticks/article6492814.ece'
p66
sS'date'
p67
S'11-10-2014'
p68
sS'target'
p69
g28
sS'hot_spot'
p70
S'West Bengals Bardhaman district '
p71
sS'delivery_mod'
p72
S'VEHICLE'
p73
sS'delivery_met'
p74
S'PLANTED'
p75
sS'expl'
p76
(lp77
S'GELATINE STICKS'
p78
asS'ORG'
p79
(lp80
(lp81
S'police'
p82
aS'16'
p83
aS'Others'
p84
aa(lp85
S'Police'
p86
aS'66'
p87
aS'Others'
p88
aas.