(dp0
S'LOC'
p1
(lp2
(lp3
S'marketplace'
p4
aS'21'
p5
aS'Event'
p6
aa(lp7
S'Alipurduar'
p8
aS'25'
p9
aS'Event'
p10
aa(lp11
S'Assam'
p12
aS'38'
p13
aS'Neutral'
p14
aa(lp15
S'super market complex'
p16
aS'47'
p17
aS'Event'
p18
aa(lp19
S'Chowpathy'
p20
aS'52'
p21
aS'Event'
p22
aa(lp23
S'central'
p24
aS'55'
p25
aS'Neutral'
p26
aa(lp27
S'Jalpaiguri'
p28
aS'62'
p29
aS'Neutral'
p30
aa(lp31
S'north Bengal'
p32
aS'89'
p33
aS'Neutral'
p34
aa(lp35
S'Barobisa'
p36
aS'130'
p37
aS'Event'
p38
aa(lp39
S'Alipurduar'
p40
aS'133'
p41
aS'Event'
p42
aasS'PER'
p43
(lp44
(lp45
S'Ananth Kumar'
p46
aS'65'
p47
aS'Comment'
p48
aa(lp49
S'K L Tamta'
p50
aS'92'
p51
aS'Comment'
p52
aa(lp53
S'Tamta'
p54
aS'138'
p55
aS'Comment'
p56
aa(lp57
S'Sujit Das'
p58
aS'171'
p59
aS'Victim'
p60
aa(lp61
S'Tamta'
p62
aS'175'
p63
aS'Comment'
p64
aasS'TIM'
p65
(lp66
sS'hot_setting'
p67
S''
p68
sS'DAT'
p69
(lp70
S'Wednesday:28'
p71
asS'death'
p72
S'2'
p73
sS'title'
p74
S'Two killed,17 injured in Bengal bombblast'
p75
sS'org_unorg'
p76
S'ORGANISED'
p77
sS'terror_group'
p78
(lp79
S'KAMTAPUR LIBERATION ORGANISATION'
p80
aS'UNITED LIBERATION FRONT OF ASSAM (ULFA)'
p81
asS'content'
p82
VTwo persons were killed and 17 others injured when a powerful bomb strapped to a cycle exploded at a busy marketplace in north Bengals Alipurduar town on Wednesday . . . The cycle-bomb , more familiar in Assam , exploded with a deafening sound at a super market complex at busy Chowpathy in the central part of the town , the Jalpaiguri SP , Ananth Kumar , said . . . The bomb was a powerful one , though its exact nature was being ascertained , IG , north Bengal , K L Tamta said . . . Asked if it could be the handiwork of the ULFA , he said , Why should ULFA insurgents come here ? Two years ago there was a similar cycle-bomb explosion at Barobisa in the Alipurduar sub-division . . . Tamta said the whole area had been cordoned off and the injured had been admitted to a Alipurduar sub-divisional hospital . . . One of the two persons killed has been identified as Sujit Das ,27 , Tamta said . . . Extremists of Kamtapur Liberation Organisation and ULFA are active in the area . . . .
p83
sS'injured'
p84
g68
sS'det_loc'
p85
(lp86
S'India'
p87
aS'West Bengal'
p88
aS'ALIPURDUAR'
p89
ag68
aS'north Bengals Alipurduar,marketplace'
p90
asS'O'
p91
(lp92
S'SP:63'
p93
aS'IG:87'
p94
asS'unexpl'
p95
(lp96
g68
asS'ocassion'
p97
g68
sS'link'
p98
S'http://indianexpress.com/article/india/regional/two-killed-17-injured-in-bengal-bomb-blast/'
p99
sS'date'
p100
S'18-03-2009'
p101
sS'target'
p102
S'MARKETPLACE'
p103
sS'hot_spot'
p104
S'north Bengals Alipurduar,marketplace'
p105
sS'delivery_mod'
p106
S'BYCICLE'
p107
sS'delivery_met'
p108
S'PLANTED'
p109
sS'expl'
p110
(lp111
g68
asS'ORG'
p112
(lp113
(lp114
S'ULFA'
p115
aS'108'
p116
aS'Accused'
p117
aa(lp118
S'ULFA'
p119
aS'115'
p120
aS'Accused'
p121
aa(lp122
S'Alipurduar sub-divisional hospital'
p123
aS'155'
p124
aS'Others'
p125
aa(lp126
S'Kamtapur Liberation Organisation'
p127
aS'182'
p128
aS'Accused'
p129
aa(lp130
S'ULFA'
p131
aS'186'
p132
aS'Accused'
p133
aas.