(dp0
S'LOC'
p1
(lp2
(lp3
S'Guwahati'
p4
aS'13'
p5
aS'Neutral'
p6
aa(lp7
S'Chungajan railway station'
p8
aS'35'
p9
aS'Assoc Event Location'
p10
aa(lp11
S'Upper Assams Golaghat'
p12
aS'39'
p13
aS'Assoc Event Location'
p14
aa(lp15
S'Golaghat'
p16
aS'95'
p17
aS'Event'
p18
aa(lp19
S'Karbi Anglong'
p20
aS'97'
p21
aS'Event'
p22
aa(lp23
S'Khatikhati'
p24
aS'117'
p25
aS'Assoc Event Location'
p26
aa(lp27
S'Bokajan railway'
p28
aS'119'
p29
aS'Assoc Event Location'
p30
aa(lp31
S'Karbi Anglong'
p32
aS'123'
p33
aS'Assoc Event Location'
p34
aa(lp35
S'Dibrugarh-bound'
p36
aS'132'
p37
aS'Victim Location'
p38
aa(lp39
S'Kamrup'
p40
aS'135'
p41
aS'Neutral'
p42
aa(lp43
S'Tangla'
p44
aS'153'
p45
aS'Assoc Event Location'
p46
aa(lp47
S'Harisinga railway stations'
p48
aS'155'
p49
aS'Assoc Event Location'
p50
aa(lp51
S'Udalguri'
p52
aS'159'
p53
aS'Assoc Event Location'
p54
aa(lp55
S'Beltola'
p56
aS'202'
p57
aS'Neutral'
p58
aa(lp59
S'Golaghat'
p60
aS'211'
p61
aS'Event'
p62
aa(lp63
S'Dimapur'
p64
aS'391'
p65
aS'Victim Location'
p66
aa(lp67
S'Guwahati'
p68
aS'399'
p69
aS'Neutral'
p70
aa(lp71
S'Chungajan'
p72
aS'401'
p73
aS'Neutral'
p74
aa(lp75
S'Delhi'
p76
aS'421'
p77
aS'Neutral'
p78
aasS'PER'
p79
(lp80
(lp81
S'Sushanta Talukdar'
p82
aS'1'
p83
aS'Others'
p84
aa(lp85
S'Khagen Sharma'
p86
aS'78'
p87
aS'Comment'
p88
aa(lp89
S'Pradip Chandra Saloi'
p90
aS'216'
p91
aS'Comment'
p92
aa(lp93
S'Trikalagya Rabha'
p94
aS'382'
p95
aS'Comment'
p96
aasS'TIM'
p97
(lp98
S'1 p.m.:239'
p99
aS'6 a.m.:403'
p100
aS'10 a.m.:416'
p101
aS'11.45 a.m.:423'
p102
asS'hot_setting'
p103
S''
p104
sS'DAT'
p105
(lp106
S'Wednesday night:45'
p107
aS'December 3:104'
p108
aS'December 7:162'
p109
aS'November 24:206'
p110
asS'death'
p111
S'5'
p112
sS'title'
p113
S'Blast on Rajdhani Express kills five'
p114
sS'org_unorg'
p115
S'ORGANISED'
p116
sS'terror_group'
p117
(lp118
S'ALL ADIVASI NATIONAL LIBERATION ARMY'
p119
asS'content'
p120
VSushanta Talukdar . . Police suspect hand of adivasi outfit . . Guwahati : Five passengers of the 2423A Dibrugarh-Guwahati-Delhi Rajdhani Express were killed and four injured seriously in a bomb blast near the Chungajan railway station in Upper Assams Golaghat district late on Wednesday night . Police suspect that the blast could be the handiwork of the All Adivasi National Liberation Army -LRB- AANLA -RRB- . . . Inspector General of Police -LRB- Special Branch -RRB- Khagen Sharma told TheHindu that the needle of suspicion pointed to AANLA , which was active in Golaghat and Karbi Anglong districts . . . On December 3 , the outfit triggered an explosion on the tracks between the Khatikhati and Bokajan railway stations in Karbi Anglong district , causing minor damage to the Dibrugarh-bound 5959 up Kamrup Express . . . Police also suspect its hand in a blast on the tracks between the Tangla and Harisinga railway stations in Udalguri district on December 7 . . . The group had threatened to target innocent civilians and the Tarun Gogoi-led governments men to avenge the brutalities on protesters during a procession taken out by the All Adivasi Students Association of Assam at the Beltola locality here on November 24 . . . Golaghat District Superintendent of Police Pradip Chandra Saloi said the blast , suspected to have been caused by an improvised explosive device -LRB- IED -RRB- , occurred around 1 p.m. . A luggage van , containing passengers , took the entire impact of the blast , resulting in the death of five people and multiple injuries to four . . . The blast created a crater on the tracks and damaged two sleepers . The bodies of three victims were found lying outside the train and those of the two inside the luggage van . Police have sought forensic experts help to ascertain if the blast occurred on the tracks or if the IED was planted in the luggage van . Passengers of the luggage van said the train stopped only after they pulled the chain . However , the driver told the police that he did not stop the train immediately after the blast as he feared more attacks . . . Chief Public Relations Officer of Northeast Frontier Railway Trikalagya Rabha said the injured were taken to the Dimapur Civil Hospital . The train left for Guwahati from Chungajan at 6 a.m. after the luggage van was detached . It arrived here at 10 a.m. and started for Delhi at 11.45 a.m. , he added .
p121
sS'injured'
p122
S'4'
p123
sS'det_loc'
p124
(lp125
S'India'
p126
aS'Assam'
p127
aS'Golaghat'
p128
aS'Guwahati'
p129
aS'near the Chungajan railway station'
p130
asS'O'
p131
(lp132
S'Dibrugarh-Guwahati-Delhi Rajdhani Express:20'
p133
aS'Inspector General:70'
p134
aS'TheHindu:81'
p135
aS'Kamrup Express:135'
p136
aS'District Superintendent:212'
p137
aS'IED:234'
p138
aS'train:295'
p139
aS'luggage van:303'
p140
aS'IED:324'
p141
aS'luggage van:329'
p142
aS'train:339'
p143
aS'Chief Public Relations Officer:374'
p144
aS'Northeast Frontier Railway:379'
p145
aS'Dimapur Civil Hospital:391'
p146
aS'train:396'
p147
asS'unexpl'
p148
(lp149
g104
asS'ocassion'
p150
g104
sS'link'
p151
S'http://www.thehindu.com/todays-paper/blast-on-rajdhani-express-kills-five/article1967381.ece'
p152
sS'date'
p153
S'12-12-2007'
p154
sS'target'
p155
g104
sS'hot_spot'
p156
S'near the Chungajan railway station'
p157
sS'delivery_mod'
p158
S'VAN'
p159
sS'delivery_met'
p160
S'PLANTED'
p161
sS'expl'
p162
(lp163
S'IED'
p164
asS'ORG'
p165
(lp166
(lp167
S'Police'
p168
ag112
aS'Others'
p169
aa(lp170
S'adivasi'
p171
aS'9'
p172
aS'Accused'
p173
aa(lp174
S'Police'
p175
aS'48'
p176
aS'Others'
p177
aa(lp178
S'All Adivasi National Liberation Army'
p179
aS'59'
p180
aS'Accused'
p181
aa(lp182
S'AANLA'
p183
aS'65'
p184
aS'Accused'
p185
aa(lp186
S'Police'
p187
aS'73'
p188
aS'Others'
p189
aa(lp190
S'AANLA'
p191
aS'89'
p192
aS'Accused'
p193
aa(lp194
S'Police'
p195
aS'140'
p196
aS'Others'
p197
aa(lp198
S'All Adivasi Students Association of Assam'
p199
aS'194'
p200
aS'Accused'
p201
aa(lp202
S'Police'
p203
aS'215'
p204
aS'Others'
p205
aa(lp206
S'Police'
p207
aS'306'
p208
aS'Others'
p209
aa(lp210
S'forensic experts'
p211
aS'309'
p212
aS'Others'
p213
aa(lp214
S'police'
p215
aS'354'
p216
aS'Others'
p217
aas.