(dp0
S'LOC'
p1
(lp2
(lp3
S'Gujarat'
p4
aS'3'
p5
aS'Neutral'
p6
aa(lp7
S'Pune'
p8
aS'18'
p9
aS'Event'
p10
aa(lp11
S'Gujarat'
p12
aS'61'
p13
aS'Neutral'
p14
aa(lp15
S'Pune'
p16
aS'85'
p17
aS'Event'
p18
aa(lp19
S'Gujarat'
p20
aS'94'
p21
aS'Neutral'
p22
aa(lp23
S'Ahmedabad'
p24
aS'159'
p25
aS'Event'
p26
aa(lp27
S'Vadodara'
p28
aS'161'
p29
aS'Neutral'
p30
aa(lp31
S'Surat'
p32
aS'163'
p33
aS'Neutral'
p34
aa(lp35
S'Rajkot'
p36
aS'165'
p37
aS'Neutral'
p38
aa(lp39
S'Ahmedabad'
p40
aS'206'
p41
aS'Event'
p42
aa(lp43
S'Ahmedabad'
p44
aS'234'
p45
aS'Event'
p46
aasS'PER'
p47
(lp48
(lp49
S'Chittaranjan Singh'
p50
aS'49'
p51
aS'Comment'
p52
aa(lp53
S'Ajay Tomar'
p54
aS'207'
p55
aS'Others'
p56
aasS'TIM'
p57
(lp58
S'night : 20'
p59
aS'15 August : 40'
p60
aS'70 minutes : 265'
p61
asS'hot_setting'
p62
S''
p63
sS'DAT'
p64
(lp65
S'July 2008:239'
p66
asS'death'
p67
g63
sS'title'
p68
S'Gujarat on high alert in wake of Pune blasts'
p69
sS'det_loc'
p70
(lp71
S'India'
p72
aS'Maharashtra'
p73
aS'Pune'
p74
aS'Pune'
p75
aS'Pune'
p76
asS'terror_group'
p77
(lp78
g63
asS'content'
p79
VAhmedabad : Gujarat was put on high alert today following the low intensity serial bomb blasts in Pune last night , police said . . . `` High alert is in force in the state and will remain till 15 August , the Independence Day , '' said Chittaranjan Singh , In-charge Director General of Police ( DGP ) , Gujarat . . . `` After that we will review the situation and take an appropriate decision , '' he added . . . Pune blast . PTI . . The police in Gujarat has been asked to be on ` stand to ' mode to counter any untoward incident . The quick response teams ( QRTs ) and special operation groups ( SOGs ) across the state have been alerted . . . Patrolling at all sensitive and strategic locations has been intensified . Checking of suspected vehicles and those at entry and exits of cities like Ahmedabad , Vadodara , Surat and Rajkot have been intensified , police officials said . . . `` Checking at hotels , guest houses , bus and railway station have also been intensified , '' said Joint Commissioner of Police ( JCP ) , Sector I , Ahmedabad Ajay Tomar . . . `` We are taking as much precautions as we can to avert any untoward incident , '' he said . . . Ahmedabad had experienced terror in July 2008 , when a series of 20 bomb blasts rocked it , killing 56 people and injuring more than 200 , within a span of 70 minutes .
p80
sS'injured'
p81
g63
sS'org_unorg'
p82
S'ORGANISED'
p83
sS'O'
p84
(lp85
S'low intensity:12'
p86
aS'police:22'
p87
aS'hotels:179'
p88
aS'guest houses:181'
p89
aS'bus:184'
p90
aS'railway station:186'
p91
asS'unexpl'
p92
(lp93
g63
asS'ocassion'
p94
g63
sS'link'
p95
S'http://www.firstpost.com/india/gujarat-on-high-alert-in-wake-of-pune-blasts-402457.html'
p96
sS'date'
p97
S'01-08-2012'
p98
sS'target'
p99
g63
sS'hot_spot'
p100
S'Pune'
p101
sS'delivery_mod'
p102
g63
sS'delivery_met'
p103
S'PLANTED'
p104
sS'expl'
p105
(lp106
g63
asS'ORG'
p107
(lp108
(lp109
S'PTI'
p110
aS'88'
p111
aS'Others'
p112
aa(lp113
S'quick response teams'
p114
aS'113'
p115
aS'Others'
p116
aa(lp117
S'QRTs'
p118
aS'117'
p119
aS'Others'
p120
aa(lp121
S'Joint Commissioner of Police'
p122
aS'195'
p123
aS'Others'
p124
aa(lp125
S'JCP'
p126
aS'200'
p127
aS'Others'
p128
aas.