(dp0
S'LOC'
p1
(lp2
(lp3
S'Mumbai'
p4
aS'19'
p5
aS'Event'
p6
aa(lp7
S'Delhi'
p8
aS'48'
p9
aS'Neutral'
p10
aa(lp11
S'New Delhi'
p12
aS'114'
p13
aS'Neutral'
p14
aa(lp15
S'Punjab'
p16
aS'120'
p17
aS'Neutral'
p18
aa(lp19
S'Chandigarh'
p20
aS'122'
p21
aS'Neutral'
p22
aa(lp23
S'Haryana'
p24
aS'124'
p25
aS'Neutral'
p26
aa(lp27
S'West Bengal'
p28
aS'169'
p29
aS'Neutral'
p30
aa(lp31
S'Karnataka ,'
p32
aS'200'
p33
aS'Neutral'
p34
aa(lp35
S'Maharashtra'
p36
aS'226'
p37
aS'Event'
p38
aa(lp39
S'Mumbai'
p40
aS'238'
p41
aS'Neutral'
p42
aa(lp43
S'Kerala'
p44
aS'303'
p45
aS'Neutral'
p46
aa(lp47
S'Coimbatore'
p48
aS'335'
p49
aS'Neutral'
p50
aa(lp51
S'Tamil Nadu'
p52
aS'338'
p53
aS'Neutral'
p54
aa(lp55
S'Madhya Pradesh'
p56
aS'361'
p57
aS'Neutral'
p58
aa(lp59
S'Mumbai'
p60
aS'388'
p61
aS'Event'
p62
aa(lp63
S'Maharashtra'
p64
aS'450'
p65
aS'Event'
p66
aasS'PER'
p67
(lp68
(lp69
S'Deependra Pathak'
p70
aS'109'
p71
aS'Comment'
p72
aa(lp73
S'A K Deb'
p74
aS'175'
p75
aS'Comment'
p76
aa(lp77
S'H D Kumaraswamy'
p78
aS'204'
p79
aS'Others'
p80
aa(lp81
S'B S Siyal'
p82
aS'246'
p83
aS'Others'
p84
aa(lp85
S'B'
p86
aS'246'
p87
aS'Others'
p88
aa(lp89
S'Home Minister M'
p90
aS'272'
p91
aS'Others'
p92
aa(lp93
S'M P Prakash'
p94
aS'274'
p95
aS'Others'
p96
aa(lp97
S'Raman Srivastava'
p98
aS'310'
p99
aS'Comment'
p100
aa(lp101
S'Santosh Kumar Raut'
p102
aS'399'
p103
aS'Comment'
p104
aasS'TIM'
p105
(lp106
sS'hot_setting'
p107
S''
p108
sS'DAT'
p109
(lp110
S'Tuesday:21'
p111
aS'Wednesday:286'
p112
asS'death'
p113
g108
sS'title'
p114
S'Mumbai blasts: States on alert'
p115
sS'det_loc'
p116
(lp117
S'India'
p118
aS'Maharashtra'
p119
aS'Mumbai-City'
p120
aS'Mumbai'
p121
ag108
asS'terror_group'
p122
(lp123
g108
asS'content'
p124
VA red alert has been sounded across the country in the wake of the serial blasts that rocked Mumbai on Tuesday evening with state governments stepping up vigil at important places like airports , railway stations and bus stands.Additional police personnel have been deployed across national capital Delhi . Check posts have been set up at all major points in the city , including railway and bus stations , cinema halls and busy market places . Barricades have also been put up at all entry and exit points of the capital to keep a vigil and checking of vehicles has been stepped up , Additional Commissioner of Police Deependra Pathak told PTI in New Delhi . . . In Punjab , Chandigarh and Haryana , security agencies have been asked to ensure proper watch at railway stations , bus stands and crowded market places.Security has also been tightened at railway stations , airport , seaport , bus terminuses , central and state government offices and vital installations in West Bengal . State Chief Secretary A K Deb said : ` We have sounded an alert all over the state and asked for tightening of security measures . ` In Karnataka , Chief Minister H D Kumaraswamy has directed the state police to step up vigil and security across the state , particularly in areas bordering Maharashtra . The chief minister , soon after being informed about the Mumbai tragedy , asked Director General of Police B S Siyal to deploy additional forces at important locations and sensitive areas as a precautionary measure , his secretariat sources said.Kumaraswamy has also directed the Home Minister M P Prakash to convene a meeting of top police officials on Wednesday to review the situation and discuss the measures to be taken.Security has also been tightened across Kerala . State Director General of Police Raman Srivastava said additional police force has been deployed at all sensitive places . . . Meanwhile , security measures have been taken in the Coimbatore district of Tamil Nadu to meet any eventualities and vehicle checks have also been intensified . . . A high alert was also declared across Madhya Pradesh . . . ` We have sounded a high alert across the state and stepped up security at all vital installations following bomb blasts in Mumbai , ' additional director general of Police -LRB- intelligence -RRB- Santosh Kumar Raut told PTI . . . Security was tightened at airports , railway stations , bus stands , industrial units , market places , shopping complexes and other public places , he said . . . Police officials have been asked to maintain vigil , especially in areas bordering Maharashtra , Raut said . . . Vehicles entering in the state are also being checked thoroughly . .
p125
sS'injured'
p126
g108
sS'org_unorg'
p127
g108
sS'O'
p128
(lp129
S'alert:3'
p130
aS'country:9'
p131
aS'serial:15'
p132
aS'railway:35'
p133
aS'bus:38'
p134
aS'stations:151'
p135
aS'airport:153'
p136
aS'seaport:155'
p137
aS'vigil:215'
p138
aS'secretariat:265'
p139
aS'high alert:355'
p140
aS'police:395'
p141
aS'intelligence:397'
p142
asS'unexpl'
p143
(lp144
g108
asS'ocassion'
p145
g108
sS'link'
p146
S'http://www.rediff.com/news/2006/jul/11train2.htm'
p147
sS'date'
p148
S'11-07-2006'
p149
sS'target'
p150
S'PUBLIC PLACES'
p151
sS'hot_spot'
p152
g108
sS'delivery_mod'
p153
g108
sS'delivery_met'
p154
g108
sS'expl'
p155
(lp156
g108
asS'ORG'
p157
(lp158
(lp159
S'PTI'
p160
aS'112'
p161
aS'Others'
p162
aa(lp163
S'PTI'
p164
aS'403'
p165
aS'Others'
p166
aas.