(dp0
S'LOC'
p1
(lp2
(lp3
S'GUWAHATI'
p4
aS'5'
p5
aS'Neutral'
p6
aa(lp7
S'Guwahati'
p8
aS'17'
p9
aS'Neutral'
p10
aa(lp11
S'Halikuchi village'
p12
aS'101'
p13
aS'Neutral'
p14
aa(lp15
S'Kamrup'
p16
aS'104'
p17
aS'Neutral'
p18
aa(lp19
S'Birubari'
p20
aS'143'
p21
aS'Event'
p22
aa(lp23
S'Bhutnath'
p24
aS'176'
p25
aS'Event'
p26
aa(lp27
S'Bhangagarh'
p28
aS'178'
p29
aS'Event'
p30
aa(lp31
S'Guwahati'
p32
aS'249'
p33
aS'Event'
p34
aa(lp35
S'Rangiya'
p36
aS'277'
p37
aS'Accused Location'
p38
aa(lp39
S'Bhutnath'
p40
aS'287'
p41
aS'Event'
p42
aa(lp43
S'Bhutnath'
p44
aS'301'
p45
aS'Event'
p46
aa(lp47
S'Birubari'
p48
aS'325'
p49
aS'Event'
p50
aa(lp51
S'Bhangagar'
p52
aS'331'
p53
aS'Event'
p54
aa(lp55
S'Rangiya'
p56
aS'358'
p57
aS'Source'
p58
aa(lp59
S'Bhutnath'
p60
aS'362'
p61
aS'Event'
p62
aasS'PER'
p63
(lp64
(lp65
S'Sushanta Talukdar'
p66
aS'1'
p67
aS'Others'
p68
aa(lp69
S'Pranjal Deka'
p70
aS'19'
p71
aS'Accused'
p72
aa(lp73
S'Biju Sarania'
p74
aS'22'
p75
aS'Accused'
p76
aa(lp77
S'G.M. Srivastav'
p78
aS'64'
p79
aS'Comment'
p80
aa(lp81
S'Pranjal Deka'
p82
aS'70'
p83
aS'Accused'
p84
aa(lp85
S'Pranjal'
p86
aS'118'
p87
aS'Accused'
p88
aa(lp89
S'Pranjals'
p90
aS'193'
p91
aS'Accused'
p92
aa(lp93
S'P. Chidamabaram'
p94
aS'208'
p95
aS'Comment'
p96
aa(lp97
S'Pradip Chandra Saloi'
p98
aS'254'
p99
aS'Comment'
p100
aa(lp101
S'Sanjib Talukdar'
p102
aS'274'
p103
aS'Accused'
p104
aa(lp105
S'Sanjib'
p106
aS'291'
p107
aS'Accused'
p108
aa(lp109
S'Pranjal'
p110
aS'309'
p111
aS'Accused'
p112
aa(lp113
S'Bjiu Sarania'
p114
aS'311'
p115
aS'Accused'
p116
aa(lp117
S'Sanjib'
p118
aS'346'
p119
aS'Accused'
p120
aa(lp121
S'Saloi'
p122
aS'367'
p123
aS'Others'
p124
aa(lp125
S'Khagen Kalita'
p126
aS'378'
p127
aS'Accused'
p128
aa(lp129
S'Khagen'
p130
aS'397'
p131
aS'Accused'
p132
aasS'TIM'
p133
(lp134
sS'hot_setting'
p135
S''
p136
sS'DAT'
p137
(lp138
S'January 1 : 12'
p139
aS'Thursday night : 47'
p140
aS'January 1 : 146'
p141
asS'death'
p142
g5
sS'title'
p143
S'Serial blast accused killed in encounter'
p144
sS'det_loc'
p145
(lp146
S'India'
p147
aS'Assam'
p148
aS'Kamrup'
p149
aS'Guwahati'
p150
ag136
asS'terror_group'
p151
(lp152
S'UNITED LIBERATION FRONT OF ASSAM (ULFA)'
p153
asS'content'
p154
VSushanta Talukdar . . GUWAHATI : The prime accused in the January 1 serial blasts in Guwahati , Pranjal Deka alias Biju Sarania of the United Liberation Front of Asom , was killed in an encounter with a joint team of police and the Army on Thursday night . The blasts claimed five lives and injured 62 . . . Director-General of Police G.M. Srivastav told TheHindu that while Pranjal Deka was killed in the encounter another bomb-maker , who was with him at the time of encounter , managed to escape . . . The encounter took place at Halikuchi village in Kamrup district . . . The joint team launched a manhunt in search of Pranjal , a hardcore ULFA cadre after he escaped the security dragnet but not before dumping an improvised explosive device in a garbage bin at Birubari locality on January 1 . . . The IED was the first to go off and injured two persons . His two other accomplices triggered the second and the third blasts at Bhutnath and Bhangagarh . . . A day after the serial blasts , the police had released Pranjals photograph as the prime accused in the serial blasts shortly after Union Home Minister P. Chidamabaram told reporters here that Assam Police had nearly succeeded in apprehending the perpetrator of the serial blasts and they also knew him by his name , by face and his family members . . . 12 arrested . . Guwahati Senior Superintendent of Police Pradip Chandra Saloi said police have arrested 12 people in connection with the serial blasts , including an ULFA cadre Sanjib Talukdar of Rangiya who has confessed to have planted the bomb at Bhutnath . . . Sanjib has confessed that he had planted the bomb at Bhutnath while we have got the information that Pranjal alias Bjiu Sarania has assembled the other two IEDsone dumped in the garbage bin at Birubari and the other planted at Bhangagar in the city , the SSP added . . . He also said that Sanjib had confessed during interrogation that he had brought the bomb from Rangiya and planted at Bhutnath . . . Mr Saloi claimed a self styled sergeant major of ULFAs 709 Battalion Khagen Kalita had drawn the blueprint for the terror attack . . . Police are on the look-out for Khagen , he said . The city police have so far arrested 12 persons in connection with the serial blasts .
p155
sS'injured'
p156
S'62'
p157
sS'org_unorg'
p158
g136
sS'O'
p159
(lp160
S'prime accused:8'
p161
aS'january 1 serial blasts:12'
p162
aS'killed:33'
p163
aS'encounter:36'
p164
aS'joint team of police:39'
p165
aS'army:45'
p166
aS'blasts:51'
p167
aS'killed:73'
p168
aS'encounter:76'
p169
aS'bomb-maker:78'
p170
aS'time of encounter:86'
p171
aS'managed to escape:90'
p172
aS'encounter:97'
p173
aS'joint team:110'
p174
aS'launched:112'
p175
aS'escaped:126'
p176
aS'security dragnet:128'
p177
aS'dumping:133'
p178
aS'improvised explosive device:135'
p179
aS'garbage bin:140'
p180
aS'IED:152'
p181
aS'injured:160'
p182
aS'accomplices:167'
p183
aS'triggered:168'
p184
aS'serial blasts:186'
p185
aS'released:192'
p186
aS'Pranjals photograph:193'
p187
aS'prime accused:197'
p188
aS'serial blasts:201'
p189
aS'reporters:211'
p190
aS'succeeded:218'
p191
aS'apprehending the perpetrator:220'
p192
aS'serial blasts:225'
p193
aS'12 arrested:245'
p194
aS'arrested 12 people:260'
p195
aS'connection:264'
p196
aS'serial blasts:267'
p197
aS'confessed:280'
p198
aS'planted:283'
p199
aS'bomb:285'
p200
aS'confessed:293'
p201
aS'planted:297'
p202
aS'bomb:299'
p203
aS'information:307'
p204
aS'assembled:314'
p205
aS'two IEDsone dumped:317'
p206
aS'garbage bin:322'
p207
aS'planted:329'
p208
aS'SSP:337'
p209
aS'confessed:348'
p210
aS'interrogation:350'
p211
aS'bomb:356'
p212
aS'planted:360'
p213
aS'self styled sergeant:370'
p214
aS'ULFAs 709 Battalion:375'
p215
aS'drawn:381'
p216
aS'blueprint:383'
p217
aS'terror attack:386'
p218
aS'arrested 12 persons:408'
p219
aS'serial blasts:415'
p220
asS'unexpl'
p221
(lp222
g136
asS'ocassion'
p223
g136
sS'link'
p224
S'http://www.thehindu.com/todays-paper/tp-national/serial-blast-accused-killed-in-encounter/article371079.ece'
p225
sS'date'
p226
S'01-01-2009'
p227
sS'target'
p228
S'TOWN'
p229
sS'hot_spot'
p230
g136
sS'delivery_mod'
p231
S'DUSTBIN'
p232
sS'delivery_met'
p233
S'PLANTED'
p234
sS'expl'
p235
(lp236
S'IED'
p237
asS'ORG'
p238
(lp239
(lp240
S'United Liberation Front of Asom'
p241
aS'26'
p242
aS'Accused'
p243
aa(lp244
S'TheHindu'
p245
aS'67'
p246
aS'Others'
p247
aa(lp248
S'ULFA'
p249
aS'122'
p250
aS'Accused'
p251
aa(lp252
S'ULFA'
p253
aS'272'
p254
aS'Accused'
p255
aa(lp256
S'ULFAs'
p257
aS'375'
p258
aS'Accused'
p259
aas.