(dp0
S'LOC'
p1
(lp2
(lp3
S'Malegaon : 29'
p4
aS'Event'
p5
aS'Neutral'
p6
aa(lp7
S'Malegaon'
p8
aS'69'
p9
aS'Event'
p10
aa(lp11
S'Vadodara : 115'
p12
aS'Event'
p13
aS'Neutral'
p14
aa(lp15
S'Mumbai'
p16
aS'12'
p17
aS'Neutral'
p18
aa(lp19
S'Vadodara'
p20
aS'45'
p21
aS'Neutral'
p22
aa(lp23
S'Vadodara'
p24
aS'72'
p25
aS'Neutral'
p26
aasS'PER'
p27
(lp28
sS'TIM'
p29
(lp30
sS'hot_setting'
p31
S''
p32
sS'DAT'
p33
(lp34
S'October:18'
p35
aS'October 29:18'
p36
aS'September 29:27'
p37
aS'September:27'
p38
asS'death'
p39
g32
sS'title'
p40
S'Malegaon blast: Mumbai ATS team looks for Vadodara link'
p41
sS'det_loc'
p42
(lp43
S'India'
p44
aS'Maharashtra'
p45
aS'Mumbai-City'
p46
ag32
ag32
asS'terror_group'
p47
(lp48
g32
asS'content'
p49
VA team of the Anti-Terrorist Squad -LRB- ATS -RRB- of the Mumbai police visited the city on October 29 as part of their investigations into the September 29 Malegaon blast . . . Officials of the Special Operation Group -LRB- SOG -RRB- of the Vadodara police , who were part of the investigation , told Newsline that the visiting team had some specific information about links between the Malegaon blast and Vadodara . . . `` We were just asked to furnish details about some locations in the city which we did . We have not been given any information about who they were searching for and what information they had gathered about the Vadodara link with the blast , '' said an SOG official .
p50
sS'injured'
p51
g32
sS'org_unorg'
p52
g32
sS'O'
p53
(lp54
S'anti-terrorist squad:5'
p55
aS'malegaon blast:29'
p56
aS'newsline:56'
p57
aS'malegaon blast:69'
p58
asS'unexpl'
p59
(lp60
g32
asS'ocassion'
p61
g32
sS'link'
p62
S'http://archive.indianexpress.com/news/malegaon-blast--mumbai-ats-team-looks-for-vadodara-link/380032'
p63
sS'date'
p64
S'29-09-2008'
p65
sS'target'
p66
g32
sS'hot_spot'
p67
g32
sS'delivery_mod'
p68
g32
sS'delivery_met'
p69
g32
sS'expl'
p70
(lp71
g32
asS'ORG'
p72
(lp73
(lp74
S'Anti-Terrorist Squad'
p75
aS'5'
p76
aS'Others'
p77
aa(lp78
S'ATS'
p79
aS'8'
p80
aS'Others'
p81
aa(lp82
S'Special Operation Group'
p83
aS'37'
p84
aS'Others'
p85
aa(lp86
S'SOG'
p87
aS'41'
p88
aS'Others'
p89
aa(lp90
S'SOG'
p91
aS'124'
p92
aS'Others'
p93
aas.
