(dp0
S'LOC'
p1
(lp2
(lp3
S'Hyderabad'
p4
aS'13'
p5
aS'Neutral'
p6
aa(lp7
S'Dilsukhnagar'
p8
aS'57'
p9
aS'Event'
p10
aa(lp11
S'Anand Tiffin Centre'
p12
aS'120'
p13
aS'Event'
p14
aa(lp15
S'Konark theatre'
p16
aS'126'
p17
aS'Neutral'
p18
aa(lp19
S'Uttar Pradesh'
p20
aS'268'
p21
aS'Neutral'
p22
aa(lp23
S'Bihar'
p24
aS'271'
p25
aS'Neutral'
p26
aa(lp27
S'Jharkhand'
p28
aS'273'
p29
aS'Neutral'
p30
aasS'PER'
p31
(lp32
sS'TIM'
p33
(lp34
S'ten minutes : 113'
p35
aS'6:38 pm:129'
p36
aS'7:01 pm:140'
p37
asS'hot_setting'
p38
S''
p39
sS'DAT'
p40
(lp41
S'Thursday:256'
p42
aS'Feb 21 : 258'
p43
asS'death'
p44
S'16'
p45
sS'title'
p46
S'Revealed: How culprits executed Hyderabad bomb blasts'
p47
sS'det_loc'
p48
(lp49
S'India'
p50
aS'TELANGANA'
p51
ag39
aS'Hyderabad'
p52
aS'Dilsukhnagar,Hyderabad'
p53
asS'terror_group'
p54
(lp55
g39
asS'content'
p56
VView PhotosHyderabad , Feb 23 : Hours within twin bomb blasts in Hyderabad , police seem to have tracked some of the suspects who are allegedly seen in executing the terror plans . . . Closed Circuit Television ( CCTV ) camera footage , which were collected from the traffic signal near the blast site in Dilsukhnagar , captured movements of five men who allegedly had planted explosives at the blast sites . . . According to police sources , a man seems to be in his early 30s was seen reaching near the site on a bi-cycle . A bag was hung on his cycle . The suspect reached the place ten minutes before the first blast at Anand Tiffin Centre in front of Konark theatre at 6:38 pm . The second blast occurred few metres away at 7:01 pm . . . However , the face of the suspects are not clear in the footage , hence the police has sought help of experts , sources said . Meanwhile , the investigating group also announced reward between Rs 2 lakh to Rs 5 lakh to those who will provide any information regarding the suspects . . . Police officials earlier were quoted as saying , `` We are examining the images at the moment . The pictures are not too clear , but we should be able to get something out of it . '' . . Total 16 people were killed and over 100 people were injured in the twin blasts on Thursday , Feb 21 . A team of investigators reportedly would visit Uttar Pradesh , Bihar and Jharkhand soon to nab few other suspects . . . OneIndia News . . .
p57
sS'injured'
p58
S'100'
p59
sS'org_unorg'
p60
S'ORGANISED'
p61
sS'O'
p62
(lp63
S'police:15'
p64
aS'CCTV:40'
p65
asS'unexpl'
p66
(lp67
g39
asS'ocassion'
p68
g39
sS'link'
p69
S'http://www.oneindia.com/2013/02/23/revealed-how-culprits-executed-hyderabad-bomb-blasts-1157040.html'
p70
sS'date'
p71
S'23-02-2013'
p72
sS'target'
p73
g39
sS'hot_spot'
p74
S'Hyderabad'
p75
sS'delivery_mod'
p76
S'BYCICLE'
p77
sS'delivery_met'
p78
S'PLANTED'
p79
sS'expl'
p80
(lp81
g39
asS'ORG'
p82
(lp83
s.