(dp0
S'LOC'
p1
(lp2
(lp3
S'Mumbai'
p4
aS'30'
p5
aS'Neutral'
p6
aasS'PER'
p7
(lp8
(lp9
S'WASHINGTON'
p10
aS'1'
p11
aS'Comment'
p12
aasS'TIM'
p13
(lp14
sS'hot_setting'
p15
S''
p16
sS'DAT'
p17
(lp18
S'Wednesday:8'
p19
asS'death'
p20
g16
sS'title'
p21
S'Ex-U.S. Official Cites Pakistani Training for India Attackers'
p22
sS'det_loc'
p23
(lp24
S'India'
p25
ag16
ag16
ag16
ag16
asS'terror_group'
p26
(lp27
g16
asS'content'
p28
VWASHINGTON A former Defense Department official said Wednesday that American intelligence agencies had determined that former officers from Pakistans Army and its powerful Inter-Services Intelligence agency helped train the Mumbai attackers . .
p29
sS'injured'
p30
g16
sS'org_unorg'
p31
S'ORGANISED'
p32
sS'O'
p33
(lp34
S'train:28'
p35
asS'unexpl'
p36
(lp37
g16
asS'ocassion'
p38
g16
sS'link'
p39
S'http://www.nytimes.com/2008/12/04/world/asia/04india.html?_r=0'
p40
sS'date'
p41
S'03-12-2008'
p42
sS'target'
p43
g16
sS'hot_spot'
p44
g16
sS'delivery_mod'
p45
g16
sS'delivery_met'
p46
S'PLANTED'
p47
sS'expl'
p48
(lp49
g16
asS'ORG'
p50
(lp51
(lp52
S'Defense Department official'
p53
aS'4'
p54
aS'Others'
p55
aa(lp56
S'American intelligence agencies'
p57
aS'10'
p58
aS'Others'
p59
aa(lp60
S'Pakistans Army'
p61
aS'19'
p62
aS'Others'
p63
aa(lp64
S'Inter-Services Intelligence agency'
p65
aS'24'
p66
aS'Others'
p67
aas.