(dp0
S'LOC'
p1
(lp2
(lp3
S'Sivasagar'
p4
aS'32'
p5
aS'Neutral'
p6
aa(lp7
S'Laxmi cinema'
p8
aS'44'
p9
aS'Event'
p10
aa(lp11
S'Central Market'
p12
aS'49'
p13
aS'Event'
p14
aa(lp15
S'Sivasagar'
p16
aS'60'
p17
aS'Neutral'
p18
aa(lp19
S'Sivasagar'
p20
aS'80'
p21
aS'Neutral'
p22
aa(lp23
S'Sivasagar'
p24
aS'105'
p25
aS'Neutral'
p26
aa(lp27
S'Sivasagar'
p28
aS'122'
p29
aS'Neutral'
p30
aa(lp31
S'Sivasagar'
p32
aS'165'
p33
aS'Neutral'
p34
aa(lp35
S'Balijan Grant Ouguri'
p36
aS'210'
p37
aS'Accused Location'
p38
aa(lp39
S'Sivasasar'
p40
aS'223'
p41
aS'Event'
p42
aa(lp43
S'Sivasagar'
p44
aS'241'
p45
aS'Event'
p46
aa(lp47
S'fuel depot'
p48
aS'253'
p49
aS'Event'
p50
aa(lp51
S'Sonari'
p52
aS'256'
p53
aS'Event'
p54
aasS'PER'
p55
(lp56
(lp57
S'Jatindra Lahkar'
p58
aS'63'
p59
aS'Comment'
p60
aa(lp61
S'Nirup Das'
p62
aS'72'
p63
aS'Accused'
p64
aa(lp65
S'Lahkar'
p66
aS'86'
p67
aS'Comment'
p68
aa(lp69
S'A.K. Singh'
p70
aS'126'
p71
aS'Comment'
p72
aa(lp73
S'Manoj Konwar'
p74
aS'174'
p75
aS'Accused'
p76
aa(lp77
S'Konwar'
p78
aS'190'
p79
aS'Accused'
p80
aasS'TIM'
p81
(lp82
S'tonight : 34'
p83
aS'9pm : 40'
p84
aS'morning : 227'
p85
aS'night : 260'
p86
asS'hot_setting'
p87
S''
p88
sS'DAT'
p89
(lp90
S'Sunday:226'
p91
aS'Friday:259'
p92
asS'death'
p93
S'1'
p94
sS'title'
p95
S'Assam bomb blast kills 1'
p96
sS'org_unorg'
p97
S'ORGANISED'
p98
sS'terror_group'
p99
(lp100
S'ULFAS PARESH BARUA FACTION'
p101
asS'content'
p102
VJorhat , Sept. 24 : One person was killed and at least eight were injured in a bicycle bomb blast suspected to have been triggered by Ulfas Paresh Barua faction in Sivasagar town tonight . The explosion occurred around 9pm in front of Laxmi cinema in the busy Central Market area . Several shops were damaged . . . Sivasagar deputy commissioner Jatindra Lahkar said the deceased has been identified as Nirup Das , 30 . He died at Sivasagar district hospital . . . Lahkar said eight injured persons had been admitted to the hospitals in the district hospital and private hospitals in Sivasagar town . . . The condition of three was stated to be critical . . . Sivasagar superintendent of police A.K. Singh said they suspected the involvement of Ulfa and that preliminary investigation indicated that the bomb was an improvised explosive device planted on a bicycle . . . Earlier in the day , Ulfa had alleged that the Sivasagar SP was involved in the secret killing of Manoj Konwar , 30 , a human rights activist . It stated in a release that Konwar was killed because he had spoken against the misdeeds of the police official . Konwars body was recovered from Balijan Grant Ouguri village under Tingaligaon police outpost ( Charaideo sub-division ) of Sivasasar district on Sunday morning . . . This is the second bomb blast in three days in Sivasagar district . Suspected Ulfa militants had exploded a bomb near a fuel depot in Sonari town on Friday night but no one was injured .
p103
sS'injured'
p104
S'8'
p105
sS'det_loc'
p106
(lp107
S'India'
p108
aS'Assam'
p109
aS'Jorhat'
p110
aS'guwahati'
p111
aS'Sivasagar'
p112
asS'O'
p113
(lp114
g88
asS'unexpl'
p115
(lp116
g88
asS'ocassion'
p117
g88
sS'link'
p118
S'http://www.telegraphindia.com/1120925/jsp/frontpage/story_16015644.jsp#.VtfjgISli1E'
p119
sS'date'
p120
S'25-09-2012'
p121
sS'target'
p122
g88
sS'hot_spot'
p123
S'Sivasagar'
p124
sS'delivery_mod'
p125
S'BYCICLE'
p126
sS'delivery_met'
p127
S'PLANTED'
p128
sS'expl'
p129
(lp130
g88
asS'ORG'
p131
(lp132
(lp133
S'Ulfas Paresh Barua faction'
p134
aS'27'
p135
aS'Accused'
p136
aa(lp137
S'Ulfa'
p138
aS'134'
p139
aS'Accused'
p140
aa(lp141
S'Ulfa'
p142
aS'160'
p143
aS'Accused'
p144
aa(lp145
S'Tingaligaon police'
p146
aS'215'
p147
aS'Others'
p148
aa(lp149
S'Ulfa'
p150
aS'245'
p151
aS'Accused'
p152
aas.