(dp0
S'LOC'
p1
(lp2
(lp3
S'Manipur'
p4
aS'8'
p5
aS'Event'
p6
aa(lp7
S'Nagamapal'
p8
aS'32'
p9
aS'Event'
p10
aa(lp11
S'Imphal West'
p12
aS'35'
p13
aS'Event'
p14
aa(lp15
S'Manipur'
p16
aS'39'
p17
aS'Event'
p18
aasS'PER'
p19
(lp20
sS'TIM'
p21
(lp22
S'7.45 pm .:53'
p23
asS'hot_setting'
p24
S''
p25
sS'DAT'
p26
(lp27
S'Friday:18'
p28
asS'death'
p29
g5
sS'title'
p30
S'Manipur: Eight killed and 10 injured in Imphal explosion'
p31
sS'org_unorg'
p32
g25
sS'terror_group'
p33
(lp34
g25
asS'content'
p35
VGUWAHATI : In a powerful explosion in Manipur eight people were killed and over 10 injured on Friday . . . Police sources told ET , `` Militants exploded powerful bomb Nagamapal area in Imphal West district of Manipur . The bomb was planted in a shop and explosion took place around 7.45 pm . The victims of the blast are believed to be non-Manipuri persons . '' . . Sources said no militant outfit has claimed the responsibility fort the blast . `` There are several militants ' outfits operating in the state . '' .
p36
sS'injured'
p37
S'10'
p38
sS'det_loc'
p39
(lp40
S'India'
p41
aS'Manipur'
p42
aS'Imphal West'
p43
aS'Imphal'
p44
aS'Nagamapal'
p45
asS'O'
p46
(lp47
S'explosion:6'
p48
aS'killed:12'
p49
aS'injured:16'
p50
aS'militants:28'
p51
aS'bomb:31'
p52
aS'bomb:42'
p53
aS'explosion:49'
p54
aS'victims:57'
p55
aS'blast:60'
p56
aS'militant outfit:74'
p57
aS'blast:82'
p58
aS"militants ' outfits:88"
p59
asS'unexpl'
p60
(lp61
g25
asS'ocassion'
p62
g25
sS'link'
p63
S'http://articles.economictimes.indiatimes.com/2013-09-13/news/42041977_1_imphal-west-manipur-explosion'
p64
sS'date'
p65
S'13-09-2013'
p66
sS'target'
p67
S'MARKET PLACE'
p68
sS'hot_spot'
p69
g25
sS'delivery_mod'
p70
g25
sS'delivery_met'
p71
S'PLANTED'
p72
sS'expl'
p73
(lp74
g25
asS'ORG'
p75
(lp76
(lp77
S'ET'
p78
aS'25'
p79
aS'Others'
p80
aas.