(dp0
S'LOC'
p1
(lp2
(lp3
S'Sipajhar'
p4
aS'11'
p5
aa(lp6
S'tea stall'
p7
aS'71'
p8
aS'Event'
p9
aa(lp10
S'Maligaon Chariali'
p11
aS'74'
p12
aS'Event'
p13
aa(lp14
S'Guwahati'
p15
aS'77'
p16
aS'Event'
p17
aa(lp18
S'Maligaon'
p19
aS'153'
p20
aS'Event'
p21
aa(lp22
S'Assam'
p23
aS'213'
p24
aS'Neutral'
p25
aa(lp26
S'Arunachal Pradesh'
p27
aS'215'
p28
aS'Neutral'
p29
aa(lp30
S'Guwahati'
p31
aS'244'
p32
aS'Event'
p33
aa(lp34
S'Maligaon'
p35
aS'295'
p36
aS'Event'
p37
aasS'PER'
p38
(lp39
(lp40
S'Masum'
p41
aS'4'
p42
aS'Victim'
p43
aa(lp44
S'Masum'
p45
aS'46'
p46
aS'Victim'
p47
aa(lp48
S'Masum'
p49
aS'92'
p50
aS'Victim'
p51
aa(lp52
S'Jaharunnessa'
p53
aS'106'
p54
aS'Victim'
p55
aa(lp56
S'Majibur Rahman'
p57
aS'117'
p58
aS'Victim'
p59
aa(lp60
S'Pratibha Patil'
p61
aS'203'
p62
aS'Others'
p63
aa(lp64
S'Moromi Sharma'
p65
aS'227'
p66
aS'Victim'
p67
aa(lp68
S'Moromi'
p69
aS'251'
p70
aS'Victim'
p71
aa(lp72
S'Bhupen Kumar'
p73
aS'271'
p74
aS'Others'
p75
aa(lp76
S'Dipu'
p77
aS'286'
p78
aS'Others'
p79
aa(lp80
S'Bhupen'
p81
aS'308'
p82
aS'Others'
p83
aa(lp84
S'Bhupen'
p85
aS'350'
p86
aS'Others'
p87
aa(lp88
S'Abhijit Sharma'
p89
aS'352'
p90
aS'Others'
p91
aasS'TIM'
p92
(lp93
S'2 pm : 79'
p94
aS'Two hours : 100'
p95
asS'hot_setting'
p96
S''
p97
sS'DAT'
p98
(lp99
S'Monday : 156'
p100
aS'Sunday : 200'
p101
aS'October 30 : 246'
p102
aS'December 2007 : 331'
p103
asS'death'
p104
g97
sS'title'
p105
S'Assam: 8-yr-old,grandmother among thosekilled'
p106
sS'det_loc'
p107
(lp108
S'India'
p109
aS'Assam'
p110
aS'Kamrup'
p111
aS'guwahati'
p112
aS'Maligaon Chariali '
p113
asS'terror_group'
p114
(lp115
g97
asS'content'
p116
VSix days ago,eight-year-old Masum , a class II student from Sipajhar , was brought to Guwahati Medical College to be operated upon for a tumour below her left ear . Today , she was discharged . But she never made it home . . . Masum was on her way home with her father , grandmother and uncle . The family stopped for a cup of tea at a popular tea stall at Maligaon Chariali in Guwahati at 2 pm , when a powerful explosion occurred just outside the stall . Masum died on the spot . . . Two hours later , Masums grandmother Jaharunnessa ( 58 ) succumbed to injuries at a hospital . Majibur Rahman , Masums father , who has sustained grievous injuries from the explosion , is undergoing treatment at Guwahati Medical College . . . At least seven persons were killed in the blast that rocked Maligaon blast on Monday . More than 58 people , several of whom are said to be critical , are undergoing treatment at different hospitals here . . . The explosion occurred a day ahead of Prime Minister Manmohan Singhs scheduled visit to the state . On Sunday , President Pratibha Patil had left Guwahati after a four-day visit to Assam and Arunachal Pradesh . . . Masums death has brought back memories of Moromi Sharma , a 10-year-old girl , who was killed in the serial blasts that had rocked Guwahati on October 30 last year . Moromi , daughter of a carpenter , had battled for life for four days before she died . . . Bhupen Kumar ( 37 ) , who was on his way to fetch his wife Dipu , a teacher at a private school in Maligaon , too , became a victim of the blast . . . Bhupen had been struggling for several years a small-time contactor . He had just started doing fairly well . He got married in December 2007 and had called me only last week to tell me that his wife is pregnant , said Bhupen friend Abhijit Sharma . . . .
p117
sS'injured'
p118
S'58'
p119
sS'org_unorg'
p120
S'ORGANISED'
p121
sS'O'
p122
(lp123
S'Prime Minister:189'
p124
aS'President:202'
p125
asS'unexpl'
p126
(lp127
g97
asS'ocassion'
p128
g97
sS'link'
p129
S'http://indianexpress.com/article/news-archive/web/assam-8yrold-grandmother-among-those-killed/'
p130
sS'date'
p131
S'01-04-2009'
p132
sS'target'
p133
g97
sS'hot_spot'
p134
S'Maligaon Chariali '
p135
sS'delivery_mod'
p136
g97
sS'delivery_met'
p137
S'PLANTED'
p138
sS'expl'
p139
(lp140
g97
asS'ORG'
p141
(lp142
(lp143
S'Guwahati Medical College'
p144
aS'16'
p145
aS'Others'
p146
aa(lp147
S'Guwahati Medical College'
p148
aS'136'
p149
aS'Others'
p150
aas.