(dp0
S'LOC'
p1
(lp2
(lp3
S'Srinagar'
p4
aS'7'
p5
aS'Event'
p6
aa(lp7
S'Jammu and Kashmir'
p8
aS'18'
p9
aS'Event'
p10
aa(lp11
S'Pakistan'
p12
aS'83'
p13
aS'Neutral'
p14
aa(lp15
S'New Delhi'
p16
aS'145'
p17
aS'Neutral'
p18
aa(lp19
S'Jammu and Kashmir'
p20
aS'160'
p21
aS'Event'
p22
aa(lp23
S'Kerala'
p24
aS'209'
p25
aS'Neutral'
p26
aa(lp27
S'India'
p28
aS'217'
p29
aS'Neutral'
p30
aa(lp31
S'Kashmir'
p32
aS'229'
p33
aS'Event'
p34
aa(lp35
S'Srinagar'
p36
aS'259'
p37
aS'Event'
p38
aa(lp39
S'Srirangam'
p40
aS'275'
p41
aS'Neutral'
p42
aa(lp43
S'Srinagar'
p44
aS'286'
p45
aS'Event'
p46
aa(lp47
S'New Delhi'
p48
aS'294'
p49
aS'Neutral'
p50
aa(lp51
S'Kashmir Valley'
p52
aS'314'
p53
aS'Neutral'
p54
aa(lp55
S'Srivilliputtur'
p56
aS'325'
p57
aS'Neutral'
p58
aa(lp59
S'Pakistan'
p60
aS'367'
p61
aS'Neutral'
p62
aa(lp63
S'Jangareddygudem'
p64
aS'389'
p65
aS'Neutral'
p66
aa(lp67
S'Bangalore'
p68
aS'436'
p69
aS'Neutral'
p70
aasS'PER'
p71
(lp72
(lp73
S'Abhishek Mishra'
p74
aS'142'
p75
aS'Others'
p76
aa(lp77
S'Nikil V. Davis'
p78
aS'203'
p79
aS'Others'
p80
aa(lp81
S'Irinjalakuda'
p82
aS'207'
p83
aS'Others'
p84
aa(lp85
S'K. Sasidharan'
p86
aS'272'
p87
aS'Others'
p88
aa(lp89
S'P. Kannan'
p90
aS'322'
p91
aS'Others'
p92
aa(lp93
S'Gangadhararao Reddy'
p94
aS'386'
p95
aS'Others'
p96
aa(lp97
S'George Olivera'
p98
aS'433'
p99
aS'Others'
p100
aasS'TIM'
p101
(lp102
sS'hot_setting'
p103
S''
p104
sS'DAT'
p105
(lp106
S'Wednesday:23'
p107
aS'October 8:197'
p108
aS'Wednesday:261'
p109
asS'death'
p110
S'4'
p111
sS'title'
p112
S'Srinagar bomb attack'
p113
sS'det_loc'
p114
(lp115
S'India'
p116
aS'Jammu & Kashmir'
p117
aS'Srinagar'
p118
aS'Srinagar'
p119
ag104
asS'terror_group'
p120
(lp121
S'HIZB-UL-MUJAHIDEEN / HIZB-UL-MUJAHIDEEN PIR PANJAL REGIMENT'
p122
aS'LASHKAR-E-TAIBA'
p123
asS'content'
p124
VOpinion - Letters to the Editor Srinagar bomb attack . . The recent spurt in killings in Jammu and Kashmir , including Wednesday 's gruesome car bomb attack that claimed four lives and injured 45 others , is disturbing . While there can be no disputing the need for the peace process not to be derailed on the basis of such incidents , their continuance will surely test the resolve of Indian policy-makers . Peace can not be a one-way street . Pakistan should dismantle the terrorist infrastructure on its soil and should stop supporting terrorist activities . At the same time , we need to improve our intelligence set-up . We also need to win the support of the local population and make them a party to the peace initiative . Only that can guarantee lasting peace . . . Abhishek Mishra , New Delhi . . * * * . . The fresh wave of violence in Jammu and Kashmir is indicative of the growing frustration among the terrorist outfits . It is their way of responding to the growing camaraderie among the people on both sides of the Line of Control following the October 8 earthquake . . . Nikil V. Davis , Irinjalakuda , Kerala . . * * * . . India has lent a helping hand to the earthquake-affected people of Pakistan-occupied Kashmir by opening five points along the LoC to facilitate the movement of relief material . In response , so-called ` freedom fighters ' triggered a car bomb blast in Srinagar on Wednesday , killing four and injuring 45 persons . . . K. Sasidharan , Srirangam , T.N. . . * * * . . The Srinagar bomb blasts as well as those in New Delhi earlier show that the militant outfits are slowly gaining the upper hand . The security forces in the Kashmir Valley should be reinforced . . . P. Kannan , Srivilliputtur , T.N. . . * * * . . A three-pronged strategy should be adopted in the fight against terrorism : create awareness among the people and isolate the terrorists ; allow the Army to attack terrorist training camps ; pressure Pakistan , diplomatically , to dismantle the infrastructure of terrorist groups such as Hizb-ul-Mujahideen and Lashkar-e-Taiba . . . Gangadhararao Reddy , Jangareddygudem , A.P. . . * * * . . Terrorism in any form is despicable . To patronise it in the name of god and in the name of religion is a sin against god , religion , and humanity . . . George Olivera , Bangalore .
p125
sS'injured'
p126
S'45'
p127
sS'org_unorg'
p128
S'ORGANISED'
p129
sS'O'
p130
(lp131
S'Letters:3'
p132
aS'Editor Srinagar bomb attack:6'
p133
aS'spurt:14'
p134
aS'killings:16'
p135
aS'gruesome car bomb attack:25'
p136
aS'claimed:30'
p137
aS'disturbing:39'
p138
aS'peace process:51'
p139
aS'derailed:56'
p140
aS'incidents:62'
p141
aS'continuance:65'
p142
aS'test:68'
p143
aS'resolve:70'
p144
aS'Indian policy-makers:72'
p145
aS'Peace:75'
p146
aS'one-way street:80'
p147
aS'dismantle:85'
p148
aS'terrorist infrastructure:87'
p149
aS'soil:91'
p150
aS'supporting:95'
p151
aS'terrorist activities:96'
p152
aS'intelligence:109'
p153
aS'support:118'
p154
aS'local population:121'
p155
aS'peace initiative:130'
p156
aS'guarantee:136'
p157
aS'lasting peace:137'
p158
aS'fresh wave:155'
p159
aS'violence:158'
p160
aS'indicative:164'
p161
aS'growing frustration:167'
p162
aS'terrorist outfits:171'
p163
aS'responding:179'
p164
aS'growing camaraderie:182'
p165
aS'Line of Control:192'
p166
aS'earthquake:199'
p167
aS'helping hand:221'
p168
aS'earthquake-affected people:225'
p169
aS'Pakistan-occupied:228'
p170
aS'five points:232'
p171
aS'LoC:236'
p172
aS'facilitate:238'
p173
aS'movement:240'
p174
aS'relief material:242'
p175
aS'freedom fighters:250'
p176
aS'car bomb blast:255'
p177
aS'Srinagar bomb blasts:286'
p178
aS'militant outfits:300'
p179
aS'upper hand:306'
p180
aS'security forces:310'
p181
aS'reinforced:318'
p182
aS'three-pronged strategy:336'
p183
aS'adopted:340'
p184
aS'fight against terrorism:343'
p185
aS'awareness:348'
p186
aS'isolate:353'
p187
aS'terrorists:355'
p188
aS'Army:359'
p189
aS'attack terrorist training camps:361'
p190
aS'diplomatically:369'
p191
aS'dismantle:372'
p192
aS'infrastructure of terrorist groups:374'
p193
aS'Terrorism:399'
p194
aS'despicable:404'
p195
aS'patronise:407'
p196
aS'religion:419'
p197
aS'sin against god:422'
p198
aS'religion:426'
p199
aS'humanity:429'
p200
asS'unexpl'
p201
(lp202
g104
asS'ocassion'
p203
g104
sS'link'
p204
S'http://www.thehindu.com/2005/11/18/stories/2005111800131001.htm'
p205
sS'date'
p206
S'16-11-2005'
p207
sS'target'
p208
g104
sS'hot_spot'
p209
g104
sS'delivery_mod'
p210
g104
sS'delivery_met'
p211
S'PLANTED'
p212
sS'expl'
p213
(lp214
g104
asS'ORG'
p215
(lp216
(lp217
S'Hizb-ul-Mujahideen'
p218
aS'380'
p219
aS'Accused'
p220
aa(lp221
S'Lashkar-e-Taiba'
p222
aS'382'
p223
aS'Accused'
p224
aas.