(dp0
S'LOC'
p1
(lp2
(lp3
S'Bhangagarh'
p4
aS'78'
p5
aS'Event'
p6
aa(lp7
S'Bhootnath'
p8
aS'147'
p9
aS'Event'
p10
aa(lp11
S'Baralumukh'
p12
aS'165'
p13
aS'Neutral'
p14
aa(lp15
S'Birubari Tiniali'
p16
aS'215'
p17
aS'Event'
p18
aa(lp19
S'Shillong'
p20
aS'237'
p21
aS'Neutral'
p22
aa(lp23
S'Lokopriyo Gopinath Bordoloi international airport'
p24
aS'255'
p25
aS'Neutral'
p26
aa(lp27
S'Assam'
p28
aS'269'
p29
aS'Event'
p30
aasS'PER'
p31
(lp32
(lp33
S'P Chidambaram'
p34
aS'25'
p35
aS'Others'
p36
aa(lp37
S'Srivastava'
p38
aS'115'
p39
aS'Comment'
p40
aa(lp41
S'Amal Das'
p42
aS'127'
p43
aS'Victim'
p44
aa(lp45
S'Kahil Sheikh'
p46
aS'130'
p47
aS'Victim'
p48
aa(lp49
S'Chidambaram'
p50
aS'153'
p51
aS'Others'
p52
aa(lp53
S'Manmohan Singh'
p54
aS'230'
p55
aS'Others'
p56
aa(lp57
S'Chidmabaram'
p58
aS'251'
p59
aS'Others'
p60
aa(lp61
S'Tarun Gogoi'
p62
aS'287'
p63
aS'Others'
p64
aasS'TIM'
p65
(lp66
S'today : 19'
p67
aS'hours : 20'
p68
aS'two months : 46'
p69
aS'5:45 pm .:87'
p70
aS'5.30 pm : 169'
p71
aS'3.30 pm : 209'
p72
aS'tomorrow : 235'
p73
aS'two-day : 262'
p74
asS'hot_setting'
p75
S''
p76
sS'DAT'
p77
(lp78
S'January:246'
p79
asS'death'
p80
S'5'
p81
sS'title'
p82
S'Five killed, 50 injured in Guwahati serial blasts'
p83
sS'det_loc'
p84
(lp85
S'India'
p86
aS'Assam'
p87
aS'Kamrup'
p88
aS'Guwahati'
p89
ag76
asS'terror_group'
p90
(lp91
g76
asS'content'
p92
VFive people were killed and over 50 injured in three blasts set off by insurgent outfit ULFA here today hours before Union Home Minister P Chidambaram 's visit to review law and order situation in the state rocked by deadly blasts that left 88 dead two months ago . . . Three people were killed and 35 injured , including four women , when a bomb planted in front of a closed sweet shop exploded near upmarket Bhangagarh flyover on the busy Guwahati-Shillong road at around 5:45 pm . . . Two persons died on way to hospital while another succumbed to his injuries at the Guwahati Medical College Hospital , DGP G M Srivastava said . . . Two of the dead were identified as Amal Das and Kahil Sheikh . . . A bomb kept in a bicycle exploded at a market in the Bhootnath area , the route which Chidambaram was to take on his way from the airport , under Baralumukh police station around 5.30 pm in which two persons were killed and 12 others injured , official sources said . . . An Improvised Explosive Devise ( IED ) kept in a Gauhati Municipal Corporation ( GMC ) dustbin went off at around 3.30 pm injuring three persons in Birubari Tiniali area . . . The blasts came a day ahead of Prime Minister Manmohan Singh 's arrival here tomorrow enroute Shillong to inaugurate the Indian Science Congress there on January three . . . Chidmabaram arrived at the Lokopriyo Gopinath Bordoloi international airport on a two-day visit to the state to review Assam 's law and order situation and attend a meeting of the Unified Command headed by Chief Minister Tarun Gogoi . . . .
p93
sS'injured'
p94
S'50'
p95
sS'org_unorg'
p96
g76
sS'O'
p97
(lp98
S'three blasts:10'
p99
aS'insurgent outfit:15'
p100
aS'law and order situation:31'
p101
aS'blasts:41'
p102
aS'killed:55'
p103
aS'injured:58'
p104
aS'bomb planted:66'
p105
aS'sweet shop:73'
p106
aS'Guwahati-Shillong road:83'
p107
aS'bicycle:140'
p108
aS'killed:176'
p109
aS'injured:180'
p110
aS'blasts:222'
p111
aS'Unified Command:281'
p112
asS'unexpl'
p113
(lp114
g76
asS'ocassion'
p115
g76
sS'link'
p116
S'http://www.business-standard.com/article/economy-policy/five-killed-50-injured-in-guwahati-serial-blasts-109010100042_1.html'
p117
sS'date'
p118
S'01-01-2009'
p119
sS'target'
p120
S'CITY'
p121
sS'hot_spot'
p122
g76
sS'delivery_mod'
p123
g76
sS'delivery_met'
p124
S'PLANTED'
p125
sS'expl'
p126
(lp127
g76
asS'ORG'
p128
(lp129
(lp130
S'ULFA'
p131
aS'17'
p132
aS'Others'
p133
aa(lp134
S'Guwahati Medical College Hospital'
p135
aS'107'
p136
aS'Others'
p137
aa(lp138
S'Indian Science Congress'
p139
aS'241'
p140
aS'Others'
p141
aas.