(dp0
S'LOC'
p1
(lp2
(lp3
S'Nagaland'
p4
aS'9'
p5
aS'Event'
p6
aa(lp7
S'DIMAPUR/GUWAHATI'
p8
aS'13'
p9
aS'Neutral'
p10
aa(lp11
S'Nagaland'
p12
aS'47'
p13
aS'Event'
p14
aa(lp15
S'Assam'
p16
aS'49'
p17
aS'Event'
p18
aa(lp19
S'Nagaland'
p20
aS'85'
p21
aS'Event'
p22
aa(lp23
S'Dimapur'
p24
aS'90'
p25
aS'Event'
p26
aa(lp27
S'Assam'
p28
aS'97'
p29
aS'Event'
p30
aa(lp31
S'Lower Assam'
p32
aS'116'
p33
aS'Event'
p34
aa(lp35
S'Dhubri'
p36
aS'130'
p37
aS'Event'
p38
aa(lp39
S'Chirang'
p40
aS'132'
p41
aS'Event'
p42
aa(lp43
S'Bogaigaon'
p44
aS'136'
p45
aS'Event'
p46
aa(lp47
S'Nagaland'
p48
aS'154'
p49
aS'Event'
p50
aa(lp51
S'Dimapur'
p52
aS'165'
p53
aS'Event'
p54
aa(lp55
S'Guwahati'
p56
aS'195'
p57
aS'Neutral'
p58
aa(lp59
S'Upper Assam'
p60
aS'197'
p61
aS'Neutral'
p62
aa(lp63
S'Bokajan'
p64
aS'218'
p65
aS'Neutral'
p66
aa(lp67
S'Assam'
p68
aS'220'
p69
aS'Event'
p70
aa(lp71
S'Karbi Anglong'
p72
aS'222'
p73
aS'Neutral'
p74
aa(lp75
S'Hong Kong Market'
p76
aS'267'
p77
aS'Event'
p78
aa(lp79
S'Assam'
p80
aS'320'
p81
aS'Event'
p82
aa(lp83
S'Makrijhora'
p84
aS'326'
p85
aS'Event'
p86
aa(lp87
S'Dhubri'
p88
aS'330'
p89
aS'Event'
p90
aa(lp91
S'Guwahati'
p92
aS'380'
p93
aS'Neutral'
p94
aa(lp95
S'Bihar'
p96
aS'382'
p97
aS'Neutral'
p98
aa(lp99
S'Bongaigoan'
p100
aS'397'
p101
aS'Accused Location'
p102
aa(lp103
S'Abhayapuri'
p104
aS'419'
p105
aS'Event'
p106
aa(lp107
S'Santipur Bazar'
p108
aS'429'
p109
aS'Event'
p110
aa(lp111
S'Chirang'
p112
aS'432'
p113
aS'Event'
p114
aa(lp115
S'Dhaligaon'
p116
aS'463'
p117
aS'Neutral'
p118
aa(lp119
S'Baihata-Chariali'
p120
aS'485'
p121
aS'Event'
p122
aa(lp123
S'Kamrup'
p124
aS'487'
p125
aS'Event'
p126
aa(lp127
S'Jagi Road police station'
p128
aS'503'
p129
aS'Event'
p130
aa(lp131
S'Diphu'
p132
aS'524'
p133
aS'Event'
p134
aa(lp135
S'Karbi Anglong'
p136
aS'526'
p137
aS'Event'
p138
aa(lp139
S'Kokrajhar'
p140
aS'542'
p141
aS'Neutral'
p142
aasS'PER'
p143
(lp144
(lp145
S'L.R. Bishnoi'
p146
aS'354'
p147
aS'Others'
p148
aa(lp149
S'Paresh Barua'
p150
aS'617'
p151
aS'Others'
p152
aasS'TIM'
p153
(lp154
S'today : 50'
p155
aS'9.30 a.m.:169'
p156
aS'5.30 p.m.:333'
p157
aS'9.15 a.m.:439'
p158
aS'last night : 544'
p159
asS'hot_setting'
p160
S''
p161
sS'DAT'
p162
(lp163
S'OCT. 2 : 15'
p164
aS'yesterday night : 624'
p165
asS'death'
p166
S'45'
p167
sS'title'
p168
S'26 killed, 100 injured in Nagaland blasts'
p169
sS'det_loc'
p170
(lp171
S'India'
p172
aS'Assam'
p173
aS'Chirang'
p174
aS'Dimapur'
p175
ag161
asS'terror_group'
p176
(lp177
S'NATIONAL DEMOCRATIC FRONT OF BODOLAND (NDFB)'
p178
asS'content'
p179
VFront Page 26 killed , 100 injured in Nagaland blasts . . DIMAPUR/GUWAHATI , OCT. 2 . In a sudden outburst of violence in the North-East , 45 persons were killed and about 150 injured in a series of bomb blasts and firing by militants in Nagaland and Assam today . . . Twentysix persons , including women and children , were killed and over 100 injured in two powerful blasts that rocked the railway station and a nearby market in quick succession in Nagaland 's commercial town of Dimapur . . . Militants strike in Assam . . Militants belonging to the banned National Democratic Front of Bodoland -LRB- NDFB -RRB- struck terror in Lower Assam , indulging in indiscriminate shooting at weekly markets and triggering explosions in Dhubri and Chirang districts and in Bogaigaon , killing 19 persons and injuring 48 . . . Giving details of the twin blasts in Nagaland , police said the first IED explosion occurred at the Dimapur railway station at 9.30 a.m. killing 12 persons on the spot and injuring 60 . People were waiting for the arrival of the daily passenger train , running between Guwahati and Upper Assam . . . The platform was crowded with people , including schoolchildren , waiting to board the train to Bokajan in Assam 's Karbi Anglong district , when the explosive planted near the entrance detonated . . . The blast completely damaged the stationmaster 's office , the reservation and enquiry counters and blew off the roof . . . Seconds later , another blast rocked the busy Hong Kong Market area , killing 10 people on the spot and injuring 40 , police said . Four critically wounded people died at the district civil hospital . . . The police are yet to ascertain whether any militant group of the North-East was behind the twin blasts . . . In Assam , NDFB militants stormed the Makrijhora weekly market in Dhubri district at 5.30 p.m. and opened fire killing 11 persons on the spot and seriously injuring four , a top police official , L.R. Bishnoi , said . . . In a simultaneous attack in the same district , a group of militants fired at a truck going from Guwahati to Bihar and injured three . . . In another incident at the oil township of Bongaigoan , militants hurled grenades , killing three and injuring 10 . Militants hurled grenades killing two motorcyclists and injuring two at Abhayapuri . . . Militants set off a bomb at Santipur Bazar in Chirang district on the Indo-Bhutan border at 9.15 a.m. , killing one person on the spot . Another died in hospital , while 16 injured were admitted to a hospital at Dhaligaon . . . Police station attacked . . Three policemen were injured when militants hurled grenades at the police station at Baihata-Chariali in Kamrup district . . . One person was killed and another injured when ultras attacked the Jagi Road police station with grenades , police said . . . Militants fired at a train injuring 10 people at Diphu in Karbi Anglong district . . . An NDFB militant was shot dead by security forces in Kokrajhar district last night . . . The NSCN -LRB- I-M -RRB- condemned the blasts and said `` such mindless acts of terrorism , which can never achieve anything good for the people , has no place in a civilised society . '' . . ULFA rejects ceasefire . . The United Liberation Front of Asom -LRB- ULFA -RRB- has rejected the ceasefire offer by the Assam Government . The ULFA ` commander-in-chief , ' Paresh Barua , called up local newspapers yesterday night from a secret location and rejected the offer . PTI , UNI .
p180
sS'injured'
p181
S'150'
p182
sS'org_unorg'
p183
g161
sS'O'
p184
(lp185
S'26 killed:3'
p186
aS'100 injured:6'
p187
aS'Nagaland blasts:9'
p188
aS'outburst:21'
p189
aS'violence:23'
p190
aS'North-East:26'
p191
aS'killed:31'
p192
aS'injured:35'
p193
aS'bomb blasts:40'
p194
aS'militants:45'
p195
aS'Twentysix persons:54'
p196
aS'women and children:58'
p197
aS'killed:63'
p198
aS'100 injured:66'
p199
aS'two powerful blasts:69'
p200
aS'rocked:73'
p201
aS'railway station:75'
p202
aS'market:80'
p203
aS'quick succession:82'
p204
aS"Nagaland 's commercial town:85"
p205
aS'Militants strike:94'
p206
aS'Militants:100'
p207
aS'banned:104'
p208
aS'struck terror:113'
p209
aS'indiscriminate shooting:121'
p210
aS'weekly markets:124'
p211
aS'triggering explosions:127'
p212
aS'19 persons:139'
p213
aS'injuring 48:142'
p214
aS'twin blasts:151'
p215
aS'IED:160'
p216
aS'explosion:161'
p217
aS'Dimapur railway station:165'
p218
aS'killing 12 persons:171'
p219
aS'spot:176'
p220
aS'injuring 60:178'
p221
aS'arrival:186'
p222
aS'daily passenger train:189'
p223
aS'platform:203'
p224
aS'crowded:205'
p225
aS'schoolchildren:210'
p226
aS'train:216'
p227
aS'explosive:228'
p228
aS'planted:229'
p229
aS'entrance detonated:232'
p230
aS'blast:238'
p231
aS'blast:263'
p232
aS'killing 10 people:272'
p233
aS'spot:277'
p234
aS'injuring 40:279'
p235
aS'Four critically wounded:285'
p236
aS'died:289'
p237
aS'civil hospital:293'
p238
aS'militant group:306'
p239
aS'North-East:310'
p240
aS'twin blasts:314'
p241
aS'militants stormed:323'
p242
aS'weekly market:327'
p243
aS'opened fire:336'
p244
aS'spot:343'
p245
aS'injured three:384'
p246
aS'township:395'
p247
aS'militants:399'
p248
aS'grenades:401'
p249
aS'killing three:403'
p250
aS'injuring 10:406'
p251
aS'Militants:409'
p252
aS'grenades:411'
p253
aS'two motorcyclists:413'
p254
aS'Militants:423'
p255
aS'bomb:427'
p256
aS'Indo-Bhutan border:436'
p257
aS'16 injured:455'
p258
aS'admitted:458'
p259
aS'attacked:469'
p260
aS'Three policemen:472'
p261
aS'injured:475'
p262
aS'militants:477'
p263
aS'grenades:479'
p264
aS'killed:495'
p265
aS'injured:498'
p266
aS'ultras attacked:500'
p267
aS'grenades:508'
p268
aS'Militants:515'
p269
aS'train:519'
p270
aS'injuring 10 people:520'
p271
aS'militant:534'
p272
aS'shot dead:536'
p273
aS'security forces:539'
p274
aS'blasts:556'
p275
aS'such mindless acts of terrorism:560'
p276
aS'achieve:569'
p277
aS'civilised society:581'
p278
aS'ULFA rejects ceasefire:587'
p279
aS'rejected:602'
p280
aS'ceasefire:604'
p281
aS'local newspapers:622'
p282
aS'secret location:628'
p283
aS'rejected:631'
p284
asS'unexpl'
p285
(lp286
g161
asS'ocassion'
p287
g161
sS'link'
p288
S'http://www.thehindu.com/2004/10/03/stories/2004100311700100.htm'
p289
sS'date'
p290
S'02-10-2002'
p291
sS'target'
p292
S'TOWN'
p293
sS'hot_spot'
p294
g161
sS'delivery_mod'
p295
g161
sS'delivery_met'
p296
S'PLANTED'
p297
sS'expl'
p298
(lp299
S'GRENADE'
p300
asS'ORG'
p301
(lp302
(lp303
S'National Democratic Front of Bodoland'
p304
aS'105'
p305
aS'Accused'
p306
aa(lp307
S'NDFB'
p308
aS'111'
p309
aS'Accused'
p310
aa(lp311
S'NDFB'
p312
aS'322'
p313
aS'Accused'
p314
aa(lp315
S'NDFB'
p316
aS'533'
p317
aS'Accused'
p318
aa(lp319
S'NSCN'
p320
aS'550'
p321
aS'Others'
p322
aa(lp323
S'ULFA'
p324
aS'587'
p325
aS'Others'
p326
aa(lp327
S'United Liberation Front of Asom'
p328
aS'593'
p329
aS'Others'
p330
aa(lp331
S'ULFA'
p332
aS'599'
p333
aS'Others'
p334
aa(lp335
S'Assam Government'
p336
aS'608'
p337
aS'Others'
p338
aa(lp339
S'ULFA'
p340
aS'612'
p341
aS'Others'
p342
aas.
