(dp0
S'LOC'
p1
(lp2
(lp3
S'Patna'
p4
aS'22'
p5
aS'Event'
p6
aa(lp7
S'Gandhi Maidan'
p8
aS'52'
p9
aS'Event'
p10
aa(lp11
S'Patna'
p12
aS'55'
p13
aS'Event'
p14
aa(lp15
S'Dhurwa'
p16
aS'113'
p17
aS'Accused Location'
p18
aa(lp19
S'Ranchi'
p20
aS'115'
p21
aS'Neutral'
p22
aa(lp23
S'Jharkhand'
p24
aS'117'
p25
aS'Neutral'
p26
aa(lp27
S'Patna'
p28
aS'168'
p29
aS'Event'
p30
aa(lp31
S'Gandhi Maidan'
p32
aS'172'
p33
aS'Neutral'
p34
aa(lp35
S'Gujarat'
p36
aS'180'
p37
aS'Neutral'
p38
aa(lp39
S'India'
p40
aS'198'
p41
aS'Neutral'
p42
aasS'PER'
p43
(lp44
(lp45
S'Imtiyaz Ansari'
p46
aS'107'
p47
aS'Accused'
p48
aa(lp49
S'Imtiyaz'
p50
aS'158'
p51
aS'Accused'
p52
aa(lp53
S'Narendra Modi'
p54
aS'183'
p55
aS'Others'
p56
aa(lp57
S'Imtiyaz'
p58
aS'189'
p59
aS'Accused'
p60
aa(lp61
S'Mujibulla'
p62
aS'243'
p63
aS'Accused'
p64
aa(lp65
S'Hyder Ali'
p66
aS'245'
p67
aS'Accused'
p68
aa(lp69
S'Numan'
p70
aS'248'
p71
aS'Accused'
p72
aa(lp73
S'Taufiq Ansari'
p74
aS'250'
p75
aS'Accused'
p76
aasS'TIM'
p77
(lp78
sS'hot_setting'
p79
S''
p80
sS'DAT'
p81
(lp82
S'Thursday:9'
p83
asS'death'
p84
g80
sS'title'
p85
S'Patna blast case: NIA files charge sheet'
p86
sS'det_loc'
p87
(lp88
S'India'
p89
aS'Bihar'
p90
aS'Patna'
p91
ag80
aS'Patna'
p92
asS'terror_group'
p93
(lp94
S'INDIAN MUJAHIDEEN'
p95
asS'content'
p96
VThe National Investigation Agency -LRB- NIA -RRB- on Thursday filed first charge sheet in the case relating to the last years Patna serial blasts . . . The NIA has so far arrested eight suspects for their alleged involvement in the explosions . . . Investigation into the serial blasts at Gandhi Maidan and Patna railway station was handed over to the NIA . During the probe , eight accused were arrested of whom one succumbed to injuries sustained while planting a bomb at the railway station , said an NIA official . . . Since the investigation in respect of one of the accused , Imtiyaz Ansari , a resident of Dhurwa in Ranchi -LRB- Jharkhand -RRB- , has been completed , the agency filed the charge sheet against him under various provisions of the Indian Penal Code , Explosive Substances Act and other laws at an NIA special court . . . Investigations revealed that Imtiyaz along with others had planted the bombs at the Patna railway station and Gandhi Maidan , where the Hunkar rally of Gujarat Chief Minister Narendra Modi was being organised . Imtiyaz was associated with the Students Islamic Movement of India and also had very close links with the members of Indian Mujahideen , said an NIA release . . . Cash rewards ranging from Rs . 5 lakh to Rs . 10 lakh have been declared for the arrest of the absconding accused -- Mujibulla , Hyder Ali , Numan and Taufiq Ansari . Efforts are being made to track them down , an official added .
p97
sS'injured'
p98
g80
sS'org_unorg'
p99
S'ORGANISED'
p100
sS'O'
p101
(lp102
S'Indian Penal Code:137'
p103
asS'unexpl'
p104
(lp105
g80
asS'ocassion'
p106
g80
sS'link'
p107
S'http://www.thehindu.com/news/national/other-states/patna-blast-case-nia-files-charge-sheet/article5944703.ece'
p108
sS'date'
p109
S'24-04-2014'
p110
sS'target'
p111
g80
sS'hot_spot'
p112
S'Patna'
p113
sS'delivery_mod'
p114
g80
sS'delivery_met'
p115
S'PLANTED'
p116
sS'expl'
p117
(lp118
g80
asS'ORG'
p119
(lp120
(lp121
S'National Investigation Agency'
p122
aS'2'
p123
aS'Others'
p124
aa(lp125
S'NIA'
p126
aS'6'
p127
aS'Others'
p128
aa(lp129
S'NIA'
p130
aS'29'
p131
aS'Others'
p132
aa(lp133
S'NIA'
p134
aS'63'
p135
aS'Others'
p136
aa(lp137
S'NIA'
p138
aS'91'
p139
aS'Others'
p140
aa(lp141
S'NIA'
p142
aS'149'
p143
aS'Others'
p144
aa(lp145
S'Indian'
p146
aS'209'
p147
aS'Others'
p148
aa(lp149
S'Indian Mujahideen'
p150
aS'209'
p151
aS'Accused'
p152
aa(lp153
S'NIA'
p154
aS'214'
p155
aS'Others'
p156
aas.