(dp0
S'LOC'
p1
(lp2
(lp3
S'Guwahati'
p4
aS'12'
p5
aS'Event'
p6
aa(lp7
S'New Delhi'
p8
aS'25'
p9
aS'Neutral'
p10
aa(lp11
S'Guwahati'
p12
aS'42'
p13
aS'Event'
p14
aa(lp15
S'Assam'
p16
aS'92'
p17
aS'Event'
p18
aa(lp19
S'Guwahati'
p20
aS'174'
p21
aS'Event'
p22
aa(lp23
S'Athgaon'
p24
aS'176'
p25
aS'Event'
p26
aasS'PER'
p27
(lp28
(lp29
S'Manmohan Singh'
p30
aS'4'
p31
aS'Comment'
p32
aa(lp33
S'Manmohan Singh'
p34
aS'34'
p35
aS'Comment'
p36
aa(lp37
S'Shivraj Patil'
p38
aS'58'
p39
aS'Comment'
p40
aa(lp41
S'Patil'
p42
aS'124'
p43
aS'Comment'
p44
aa(lp45
S'Tarun Gogoi'
p46
aS'132'
p47
aS'Others'
p48
aa(lp49
S'S N Singh'
p50
aS'210'
p51
aS'Comment'
p52
aa(lp53
S'Singh'
p54
aS'273'
p55
aS'Comment'
p56
aasS'TIM'
p57
(lp58
S'today : 6'
p59
aS'today : 36'
p60
aS'10.45 a.m. : 187'
p61
asS'hot_setting'
p62
S''
p63
sS'DAT'
p64
(lp65
S'May 26:28'
p66
aS'Saturday:179'
p67
asS'death'
p68
S'7'
p69
sS'title'
p70
S'Manmohan, Patil condemn Guwahati blast'
p71
sS'org_unorg'
p72
g63
sS'terror_group'
p73
(lp74
S'UNITED LIBERATION FRONT OF ASSAM (ULFA)'
p75
asS'content'
p76
VPrime Minister Dr. Manmohan Singh today condemned the bomb blast in Guwahati that left seven people dead and other twenty injured . . . New Delhi , May 26 : Prime Minister Dr. Manmohan Singh today condemned the bomb blast in Guwahati that left seven people dead and other twenty injured . . . Union Home Minister Shivraj Patil also expressed condolences to the relatives of those killed . . . The Centre said that such incidents would not succeed in weakening their resolve to deal strongly with divisive forces in Assam and other northeastern states . . . Following the blast , the Home Ministry is in constant touch with the State Government and is monitoring the situation regularly . . . Patil also spoke to the Assam Chief Minister Tarun Gogoi and advised the State administration to remain vigilant and ensure that peace is maintained.At least seven people were killed and 20 injured in a powerful bomb explosion set off by the United Liberation Front of Asom ( ULFA ) in Guwahati 's Athgaon area on Saturday . . . The explosion occurred around 10.45 a.m. . The bomb was hidden in a autorickshaw parked near the Marwari Maternity Hospital , said Senior Superintendent of Police , S N Singh . . . The intensity of the blast was so high that vehicles parked nearby were destroyed and the windowpanes of a three-storyed building located nearby were broken . . . Chaos and confusion prevailed at the blast site as people attempted to flee . . . The area has been cordoned off and a rescue mission is on , Singh added . . . The injured have been admitted to the Guwahati Medical College Hospital . . . Locals have protested against the incident . . . addthis_url = location.href ; addthis_title = document.title ; addthis_pub = ` vijaytech ' ; . . a36 ( ) ; . . .
p77
sS'injured'
p78
S'20'
p79
sS'det_loc'
p80
(lp81
S'India'
p82
aS'Assam'
p83
aS'Kamrup'
p84
aS'Guwahati'
p85
ag63
asS'O'
p86
(lp87
S'bomb blast:9'
p88
aS'bomb blast:39'
p89
aS'northeastern states:95'
p90
aS'blast:102'
p91
aS'State administration:137'
p92
aS'vigilant:141'
p93
aS'powerful bomb explosion:158'
p94
aS'explosion:184'
p95
aS'bomb:191'
p96
aS'autorickshaw:196'
p97
aS'blast:220'
p98
aS'blast site:250'
p99
aS'protested:294'
p100
asS'unexpl'
p101
(lp102
g63
asS'ocassion'
p103
g63
sS'link'
p104
S'http://www.andhranews.net/India/2007/May/26-Manmohan-Patil-condemn-2522.asp'
p105
sS'date'
p106
S'26-05-2007'
p107
sS'target'
p108
S'CITY'
p109
sS'hot_spot'
p110
g63
sS'delivery_mod'
p111
S'AUTO-RICKSHAW'
p112
sS'delivery_met'
p113
S'PLANTED'
p114
sS'expl'
p115
(lp116
g63
asS'ORG'
p117
(lp118
(lp119
S'Centre'
p120
aS'73'
p121
aS'Others'
p122
aa(lp123
S'State Government'
p124
aS'113'
p125
aS'Others'
p126
aa(lp127
S'United Liberation Front of Asom'
p128
aS'165'
p129
aS'Accused'
p130
aa(lp131
S'ULFA'
p132
aS'171'
p133
aS'Accused'
p134
aa(lp135
S'Marwari Maternity Hospital'
p136
aS'200'
p137
aS'Others'
p138
aa(lp139
S'Guwahati Medical College Hospital'
p140
aS'285'
p141
aS'Others'
p142
aas.