(dp0
S'LOC'
p1
(lp2
(lp3
S'Mahabodhi Temple complex'
p4
aS'9'
p5
aS'Event'
p6
aa(lp7
S'Bodh Gaya'
p8
aS'13'
p9
aS'Event'
p10
aa(lp11
S'Bihar'
p12
aS'16'
p13
aS'Event'
p14
aa(lp15
S'Siliguri'
p16
aS'20'
p17
aS'Neutral'
p18
aa(lp19
S'West Bengal'
p20
aS'22'
p21
aS'Neutral'
p22
aa(lp23
S'India'
p24
aS'47'
p25
aS'Neutral'
p26
aa(lp27
S'Bodh Gaya'
p28
aS'82'
p29
aS'Event'
p30
aa(lp31
S'North Bengal'
p32
aS'93'
p33
aS'Neutral'
p34
aa(lp35
S'Mahabodhi Temple complex'
p36
aS'104'
p37
aS'Event'
p38
aa(lp39
S'Mahabodhi Temple complex'
p40
aS'141'
p41
aS'Event'
p42
aasS'PER'
p43
(lp44
(lp45
S'Sonal Lama'
p46
aS'61'
p47
aS'Comment'
p48
aasS'TIM'
p49
(lp50
sS'hot_setting'
p51
S''
p52
sS'DAT'
p53
(lp54
S'July 7 : 85'
p55
asS'death'
p56
g52
sS'title'
p57
S'Buddhists protest in Siliguri against Bodh Gaya blasts'
p58
sS'det_loc'
p59
(lp60
S'India'
p61
aS'Bihar'
p62
aS'Gaya'
p63
aS'Bihar'
p64
aS'Bodh Gaya'
p65
asS'terror_group'
p66
(lp67
g52
asS'content'
p68
VUpset over the recent explosions at the famed Mahabodhi Temple complex in Bodh Gaya , Bihar , Buddhists in Siliguri , West Bengal , staged silent protests . . . From women to children , the Buddhist protestors demanded more safety for their religious centres in India . . . The secretary of the All Buddhist Organisations of North-Bengal , Sonal Lama , said : `` This rally has been organised to protest against the explosions inside the Mahabodhi Temple of Bodh Gaya on July 7 by all the Buddhist groups in North Bengal . '' . . Ten bombs exploded at the Mahabodhi Temple complex , where the Buddha is believed to have attained enlightenment . Two persons were injured in the incidents , in what the government described as a `` terror '' attack . . . The Mahabodhi Temple complex was declared a world heritage site by UNESCO in 2002 . . . .
p69
sS'injured'
p70
S'2'
p71
sS'org_unorg'
p72
g52
sS'O'
p73
(lp74
S'explosions:5'
p75
aS'Buddhists:18'
p76
aS'silent protests:26'
p77
aS'Buddhist protestors:37'
p78
aS'protest:73'
p79
aS'Mahabodhi Temple:79'
p80
aS'Buddhist groups:90'
p81
aS'Ten bombs:99'
p82
aS'exploded:101'
p83
aS'Buddha:110'
p84
aS'enlightenment:116'
p85
aS'injured:121'
p86
aS'terror:134'
p87
asS'unexpl'
p88
(lp89
g52
asS'ocassion'
p90
g52
sS'link'
p91
S'http://www.business-standard.com/article/news-ani/buddhists-protest-in-siliguri-against-bodh-gaya-blasts-113071200138_1.html'
p92
sS'date'
p93
S'07-07-2013'
p94
sS'target'
p95
S'RELIGIOUS PLACES'
p96
sS'hot_spot'
p97
g52
sS'delivery_mod'
p98
S'TEMPLE'
p99
sS'delivery_met'
p100
S'PLANTED'
p101
sS'expl'
p102
(lp103
g52
asS'ORG'
p104
(lp105
(lp106
S'All Buddhist Organisations of North-Bengal'
p107
aS'55'
p108
aS'Others'
p109
aa(lp110
S'government'
p111
aS'129'
p112
aS'Others'
p113
aa(lp114
S'UNESCO'
p115
aS'151'
p116
aS'Others'
p117
aas.