(dp0
S'LOC'
p1
(lp2
(lp3
S'NEW DELHI'
p4
aS'5'
p5
aS'Neutral'
p6
aa(lp7
S'Malegaon'
p8
aS'20'
p9
aS'Event'
p10
aa(lp11
S'Congo'
p12
aS'115'
p13
aS'Neutral'
p14
aa(lp15
S'Pachmarhi'
p16
aS'161'
p17
aS'Neutral'
p18
aa(lp19
S'Madhya Pradesh'
p20
aS'163'
p21
aS'Neutral'
p22
aa(lp23
S'Congo'
p24
aS'198'
p25
aS'Neutral'
p26
aa(lp27
S'India'
p28
aS'244'
p29
aS'Neutral'
p30
aa(lp31
S'U.N.'
p32
aS'251'
p33
aS'Neutral'
p34
aa(lp35
S'Congo'
p36
aS'254'
p37
aS'Neutral'
p38
aa(lp39
S'Madhya Pradesh'
p40
aS'286'
p41
aS'Neutral'
p42
aasS'PER'
p43
(lp44
(lp45
S'Sandeep Dikshit'
p46
aS'1'
p47
aS'Others'
p48
aa(lp49
S'S. P. S. Dhillon'
p50
aS'92'
p51
aS'Comment'
p52
aa(lp53
S'Srikant Purohit'
p54
aS'121'
p55
aS'Accused'
p56
aa(lp57
S'Dhillon'
p58
aS'170'
p59
aS'Comment'
p60
aa(lp61
S'Purohit'
p62
aS'293'
p63
aS'Accused'
p64
aasS'TIM'
p65
(lp66
sS'hot_setting'
p67
S''
p68
sS'DAT'
p69
(lp70
S'Thursday:42'
p71
aS'Wednesday:126'
p72
aS'September 29:135'
p73
aS'November 7 , 2008 : 303'
p74
asS'death'
p75
g68
sS'title'
p76
S'A freak case: Army'
p77
sS'det_loc'
p78
(lp79
S'India'
p80
aS'Maharashtra'
p81
ag68
aS'Malegaon'
p82
aS'Malegaon'
p83
asS'terror_group'
p84
(lp85
g68
asS'content'
p86
VSandeep Dikshit . . NEW DELHI : The arrest of a serving officer for his alleged complicity in the Malegaon bomb blasts has hurt the Armys prestige but this was a freak incident , a senior Army officer said here on Thursday . . . The Armys prestige has been hurt after our officers name came up in case . This is a freak incident . We have our own mechanisms for keeping a check on these kinds of things , the Deputy Chief of the Army Staff , Lt. Gen. S. P. S. Dhillon , told journalists here after a send-off for troops from a Gorkha battalion on a U.N. peacekeeping mission in Congo . . . Lt. Col. Srikant Purohit was arrested on Wednesday for allegedly supplying money and explosives for the September 29 blast . . . From the intelligence cadre of the Army , he was posted at the Army Corps Training College and Centre at Pachmarhi in Madhya Pradesh . . . Lt. Gen. Dhillon said the Army would initiate action against the officer after receiving a report from the Maharashtra Polices Anti-Terrorism Squad . . . On the peacekeeping mission in Congo , he said , Our troops have been doing good work there and will continue to do so . This despite pressure from rebels . Recently , militants injured an officer and a jawan in rocket firing on their armoured personnel carriers . . . India has the largest representation in the U.N. mission in Congo with over 4,500 troops out of 17,000 peacekeepers deployed there . . . Corrections and Clarifications . . It is the Army Educational Corps Training College and Centre , atPachmarhi in Madhya Pradesh . A report ' -LSB- Purohit arrest -RSB- A freak case : Army ' -LRB- November 7 , 2008 -RRB- gave it , incorrectly , as the Army Corps Training Collegeand Centre .
p87
sS'injured'
p88
g68
sS'org_unorg'
p89
S'ORGANISED'
p90
sS'O'
p91
(lp92
S'deputy chief:83'
p93
asS'unexpl'
p94
(lp95
g68
asS'ocassion'
p96
g68
sS'link'
p97
S'http://www.thehindu.com/todays-paper/tp-national/a-freak-case-army/article1371169.ece'
p98
sS'date'
p99
S'06-11-2008'
p100
sS'target'
p101
g68
sS'hot_spot'
p102
S'Malegaon'
p103
sS'delivery_mod'
p104
g68
sS'delivery_met'
p105
S'PLANTED'
p106
sS'expl'
p107
(lp108
g68
asS'ORG'
p109
(lp110
(lp111
S'Gorkha battalion on a U.N.'
p112
aS'107'
p113
aS'Others'
p114
aa(lp115
S'Army Corps Training College and Centre'
p116
aS'154'
p117
aS'Others'
p118
aa(lp119
S'Maharashtra Polices Anti-Terrorism Squad'
p120
aS'186'
p121
aS'Others'
p122
aa(lp123
S'Army Educational Corps Training College and Centre'
p124
aS'276'
p125
aS'Others'
p126
aa(lp127
S'Army Corps Training Collegeand Centre'
p128
aS'315'
p129
aS'Others'
p130
aas.