(dp0
S'LOC'
p1
(lp2
(lp3
S'BANGALORE'
p4
aS'1'
p5
aS'Event'
p6
aa(lp7
S'Mysore'
p8
aS'39'
p9
aS'Neutral'
p10
aa(lp11
S'Richmond Town'
p12
aS'70'
p13
aasS'PER'
p14
(lp15
(lp16
S'Vittal Mallaya'
p17
aS'58'
p18
aS'Others'
p19
aasS'TIM'
p20
(lp21
S'1.20 pm:28'
p22
aS'1.25 pm:36'
p23
aS'1.40 pm:43'
p24
aS'2.10 pm:49'
p25
aS'2.25 pm:55'
p26
aS'2.35 pm:63'
p27
asS'hot_setting'
p28
S''
p29
sS'DAT'
p30
(lp31
S'Friday:20'
p32
asS'death'
p33
g29
sS'title'
p34
S'Bangalore blasts: When and where'
p35
sS'org_unorg'
p36
g29
sS'terror_group'
p37
(lp38
g29
asS'content'
p39
VBANGALORE : Following is the sequence in which the seven bomb blasts rocked the country 's IT hub on Friday . -LRB- Watch -RRB- First blast : 1.20 pm , Madiwala bus depotSecond blast : 1.25 pm , Mysore roadThird blast : 1.40 pm , AdugudiFourth blast : 2.10 pm , KoramanglaFifth blast : 2.25 pm , Vittal Mallaya roadSixth blast : 2.35 pm , Langford TownSeventh blast : Richmond Town .
p40
sS'injured'
p41
g29
sS'det_loc'
p42
(lp43
S'India'
p44
aS'Karnataka'
p45
aS'Bangalore Urban'
p46
ag29
ag29
asS'O'
p47
(lp48
S'seven bomb blasts:10'
p49
aS"bomb blasts rocked the country 's IT hub:11"
p50
asS'unexpl'
p51
(lp52
g29
asS'ocassion'
p53
g29
sS'link'
p54
S'http://timesofindia.indiatimes.com/india/Bangalore-blasts-When-and-where/articleshow/3280128.cms?referral=PM'
p55
sS'date'
p56
S'25-07-2008'
p57
sS'target'
p58
g29
sS'hot_spot'
p59
g29
sS'delivery_mod'
p60
g29
sS'delivery_met'
p61
g29
sS'expl'
p62
(lp63
g29
asS'ORG'
p64
(lp65
s.