(dp0
S'LOC'
p1
(lp2
(lp3
S'Kolkata'
p4
aS'1'
p5
aS'Neutral'
p6
aa(lp7
S'Burdwan'
p8
aS'15'
p9
aS'Event'
p10
aa(lp11
S'West Bengal'
p12
aS'21'
p13
aS'Neutral'
p14
aa(lp15
S'Kolkata'
p16
aS'43'
p17
aS'Neutral'
p18
aa(lp19
S'West Bengal'
p20
aS'51'
p21
aS'Neutral'
p22
aa(lp23
S'Khagragarh'
p24
aS'65'
p25
aS'Event'
p26
aa(lp27
S'Burdwan'
p28
aS'67'
p29
aS'Event'
p30
aa(lp31
S'Burdwan'
p32
aS'124'
p33
aS'Event'
p34
aa(lp35
S'Kolkata'
p36
aS'131'
p37
aS'Neutral'
p38
aa(lp39
S'Burdwan'
p40
aS'181'
p41
aS'Event'
p42
aasS'PER'
p43
(lp44
sS'TIM'
p45
(lp46
sS'hot_setting'
p47
S''
p48
sS'DAT'
p49
(lp50
S'October 2:11'
p51
aS'Saturday:18'
p52
asS'death'
p53
g48
sS'title'
p54
S'Burdwan Blast: National Investigation Agency Moves Court For Custody of Accused'
p55
sS'det_loc'
p56
(lp57
S'India'
p58
aS'West Bengal'
p59
ag48
aS'Burdwan'
p60
aS'Burdwan'
p61
asS'terror_group'
p62
(lp63
S'JAMIAT-UL-MUJAHIDEEN'
p64
asS'content'
p65
VKolkata : The National Investigation Agency which is probing the October 2 explosion in Burdwan , on Saturday approached a West Bengal court seeking the custody of the accused arrested in the case as well as transfer of the case to a Kolkata court , an official said.Earlier , the West Bengal CID had been probing the blast that occurred in a house in Khagragarh in Burdwan killing two suspected Jamaat-ul-Mujahideen militants and injuring another . Four people including two women have been arrested in this connection . `` The National Investigation Agency or NIA today moved an application seeking custody of the accused that are now in CID custody . The agency has also requested to transfer the case from this -LRB- Burdwan -RRB- court to a court in Kolkata , '' a public prosecutor said.Having filed a first information report under the relevant laws including the Unlawful Activities -LRB- Prevention -RRB- Act -LRB- UAPA -RRB- , an NIA team visited the CID headquarters in the city seeking documents and materials seized during the investigation.An NIA team also visited Burdwan police station in whose jurisdiction the explosion had occurred . .
p66
sS'injured'
p67
g48
sS'org_unorg'
p68
S'ORGANISED'
p69
sS'O'
p70
(lp71
S'CID:53'
p72
aS'CID:109'
p73
aS'CID:164'
p74
asS'unexpl'
p75
(lp76
g48
asS'ocassion'
p77
g48
sS'link'
p78
S'http://www.ndtv.com/india-news/burdwan-blast-national-investigation-agency-moves-court-for-custody-of-accused-678086'
p79
sS'date'
p80
S'02-10-2014'
p81
sS'target'
p82
g48
sS'hot_spot'
p83
S'Burdwan'
p84
sS'delivery_mod'
p85
g48
sS'delivery_met'
p86
S'PLANTED'
p87
sS'expl'
p88
(lp89
g48
asS'ORG'
p90
(lp91
(lp92
S'National Investigation Agency'
p93
aS'4'
p94
aS'Others'
p95
aa(lp96
S'Jamaat-ul-Mujahideen'
p97
aS'71'
p98
aS'Accused'
p99
aa(lp100
S'National Investigation Agency'
p101
aS'91'
p102
aS'Others'
p103
aa(lp104
S'NIA'
p105
aS'95'
p106
aS'Others'
p107
aa(lp108
S'NIA'
p109
aS'160'
p110
aS'Others'
p111
aa(lp112
S'NIA'
p113
aS'177'
p114
aS'Others'
p115
aa(lp116
S'Burdwan police'
p117
aS'181'
p118
aS'Others'
p119
aas.