(dp0
S'LOC'
p1
(lp2
(lp3
S'Upper Assam'
p4
aS'22'
p5
aS'Neutral'
p6
aa(lp7
S'Sivasagar'
p8
aS'26'
p9
aS'Event'
p10
aa(lp11
S'Sivasagar'
p12
aS'39'
p13
aS'Event'
p14
aa(lp15
S'Sonari'
p16
aS'94'
p17
aS'Event'
p18
aa(lp19
S'Central Market'
p20
aS'109'
p21
aS'Event'
p22
aa(lp23
S'Sivasagar'
p24
aS'115'
p25
aS'Event'
p26
aa(lp27
S'Sivasagar'
p28
aS'134'
p29
aS'Event'
p30
aa(lp31
S'Dibrugarh'
p32
aS'183'
p33
aS'Neutral'
p34
aasS'PER'
p35
(lp36
(lp37
S'A K Singh'
p38
aS'41'
p39
aS'Comment'
p40
aa(lp41
S'Lulu Das'
p42
aS'143'
p43
aS'Victim'
p44
aa(lp45
S'Das'
p46
aS'160'
p47
aS'Victim'
p48
aasS'TIM'
p49
(lp50
S'night : 29'
p51
aS'9 pm .:36'
p52
asS'hot_setting'
p53
S''
p54
sS'DAT'
p55
(lp56
S'Monday:28'
p57
asS'death'
p58
S'1'
p59
sS'title'
p60
S'Assam: ULFA blast kills1'
p61
sS'det_loc'
p62
(lp63
S'India'
p64
aS'Assam'
p65
aS'Sivasagar'
p66
aS'Sivasagar'
p67
aS'Sivasagar'
p68
asS'terror_group'
p69
(lp70
S'UNITED LIBERATION FRONT OF ASSAM (ULFA)'
p71
asS'content'
p72
VOne person was killed and seven were injured , three of them seriously , in a powerful explosion that rocked the Upper Assam town of Sivasagar on Monday night . The explosion occurred at around 9 pm . Sivasagar SP A K Singh blamed the anti-talk faction of the United Liberation Front of Asom ( ULFA ) for it . . . It is the handiwork of the ULFA which has been trying to cause mischief in the district in the past few weeks . They had recently triggered off an explosion in Sonari town too , the SP said . The explosion that occurred in the busy Central Market in the heart of Sivasagar town was caused by a device that was apparently kept on a bicycle . . . Reports from Sivasagar said the dead has been identified as one Lulu Das , a shopkeeper who was just coming out after shutting down his shop . While Das died on the way to the hospital , two of the injured have been shifted to the Assam Medical College Hospital in Dibrugarh . . . .
p73
sS'injured'
p74
S'7'
p75
sS'org_unorg'
p76
S'ORGANISED'
p77
sS'O'
p78
(lp79
S'SP:99'
p80
asS'unexpl'
p81
(lp82
g54
asS'ocassion'
p83
g54
sS'link'
p84
S'http://indianexpress.com/article/news-archive/web/assam-ulfa-blast-kills-1/'
p85
sS'date'
p86
S'24-09-2012'
p87
sS'target'
p88
g54
sS'hot_spot'
p89
S'Sivasagar'
p90
sS'delivery_mod'
p91
S'BYCICLE'
p92
sS'delivery_met'
p93
S'PLANTED'
p94
sS'expl'
p95
(lp96
g54
asS'ORG'
p97
(lp98
(lp99
S'United Liberation Front of Asom'
p100
aS'50'
p101
aS'Accused'
p102
aa(lp103
S'ULFA'
p104
aS'56'
p105
aS'Accused'
p106
aa(lp107
S'ULFA'
p108
aS'69'
p109
aS'Accused'
p110
aa(lp111
S'Assam Medical College Hospital'
p112
aS'178'
p113
aS'Others'
p114
aas.