(dp0
S'LOC'
p1
(lp2
(lp3
S'Hyderabad'
p4
aS'18'
p5
aS'Event'
p6
aa(lp7
S'Hyderabad'
p8
aS'37'
p9
aS'Event'
p10
aa(lp11
S'Kishanbagah'
p12
aS'49'
p13
aS'Accused Location'
p14
aa(lp15
S'Lumbini Park'
p16
aS'75'
p17
aS'Event'
p18
aa(lp19
S'South Bakulia'
p20
aS'155'
p21
aS'Accused Location'
p22
aa(lp23
S'Chittagong'
p24
aS'158'
p25
aS'Accused Location'
p26
aa(lp27
S'Bangladesh'
p28
aS'161'
p29
aS'Accused Location'
p30
aa(lp31
S'Hyderabad'
p32
aS'222'
p33
aS'Event'
p34
aa(lp35
S'Bangalore'
p36
aS'227'
p37
aS'Neutral'
p38
aa(lp39
S'Hyderabad'
p40
aS'261'
p41
aS'Event'
p42
aasS'PER'
p43
(lp44
(lp45
S'Imran'
p46
aS'7'
p47
aS'Comment'
p48
aa(lp49
S'Bilal'
p50
aS'10'
p51
aS'Accused'
p52
aa(lp53
S'Rizwan Ghazi'
p54
aS'44'
p55
aS'Accused'
p56
aa(lp57
S'Shafia Rafsanjani'
p58
aS'81'
p59
aS'Others'
p60
aa(lp61
S'Ghazi'
p62
aS'121'
p63
aS'Accused'
p64
aa(lp65
S'Shafia'
p66
aS'141'
p67
aS'Others'
p68
aa(lp69
S'Ghazi'
p70
aS'150'
p71
aS'Accused'
p72
aa(lp73
S'Shafia'
p74
aS'197'
p75
aS'Others'
p76
aa(lp77
S'Syed Imran Khan'
p78
aS'245'
p79
aS'Comment'
p80
aa(lp81
S'Shahid Bilal'
p82
aS'254'
p83
aS'Accused'
p84
aasS'TIM'
p85
(lp86
sS'hot_setting'
p87
S''
p88
sS'DAT'
p89
(lp90
S'September 4 , 2007 : 20'
p91
aS'August 25 : 35'
p92
asS'death'
p93
g88
sS'title'
p94
S'Breakthrough in Hyderabad bomb blasts'
p95
sS'org_unorg'
p96
g88
sS'terror_group'
p97
(lp98
S'HUJI'
p99
asS'content'
p100
Va7 ( ) ; . . Imran reveals that Bilal had planned in the blasts . . Hyderabad , September 4 , 2007 . . The police , in a major breakthrough in the August 25 Hyderabad bomb blasts , almost concluded that Rizwan Ghazi who fled his Kishanbagah residence just before the police raid a couple of days ago , was the bomber was planted the Improvised Explosive Device ( IED ) at Lumbini Park . His sister , Shafia Rafsanjani , was arrested the same day . She had obtained a ration card , driving license and a PAN card with the same address . . . The breakthrough came when the police seized the driving license of Ghazi and compared the picture with the sketch that was drawn by experts few days back . During interrogation , Shafia is understood to have told the police that Ghazi and she hail from South Bakulia of Chittagong district in Bangladesh . . . The police also seized some incriminating material including a couple of bags , iron balls and telephone numbers of some Bangladeshi contacts . According to a senior official investigating the case , Shafia will be taken into police custody again for questioning in a day or two . Meanwhile , a day after two suspects in the Hyderabad blasts were brought to Bangalore for a forensic test including polygraph , brain mapping and narco analysis , one of the suspects Syed Imran Khan revealed that Huji South India commander Shahid Bilal was the man behind the Hyderabad blasts . . . a36 ( ) ; . . .
p101
sS'injured'
p102
g88
sS'det_loc'
p103
(lp104
S'India'
p105
aS'Andhra Pradesh'
p106
ag88
aS'Hyderabad'
p107
ag88
asS'O'
p108
(lp109
S'blasts:15'
p110
aS'bomb blasts:38'
p111
aS'Improvised Explosive Device:68'
p112
aS'IED:72'
p113
aS'arrested:85'
p114
aS'PAN card:101'
p115
aS'driving license:118'
p116
aS'experts:133'
p117
aS'interrogation:139'
p118
aS'iron balls:178'
p119
aS'telephone numbers:181'
p120
aS'Bangladeshi contacts:185'
p121
aS'two suspects:218'
p122
aS'blasts:223'
p123
aS'forensic test:230'
p124
aS'polygraph:233'
p125
aS'brain mapping:235'
p126
aS'narco analysis:238'
p127
aS'suspects:244'
p128
aS'blasts:262'
p129
asS'unexpl'
p130
(lp131
g88
asS'ocassion'
p132
g88
sS'link'
p133
S'http://www.andhranews.net/state/2007/September/4-Breakthrough-Hyderabad-bomb-blasts.asp'
p134
sS'date'
p135
S'25-08-2007'
p136
sS'target'
p137
S'CITY'
p138
sS'hot_spot'
p139
g88
sS'delivery_mod'
p140
g88
sS'delivery_met'
p141
S'PLANTED'
p142
sS'expl'
p143
(lp144
S'IED'
p145
asS'ORG'
p146
(lp147
(lp148
S'Huji'
p149
aS'250'
p150
aS'Others'
p151
aas.