(dp0
S'LOC'
p1
(lp2
(lp3
S'Burdwan'
p4
aS'4'
p5
aS'Event'
p6
aa(lp7
S'West Bengal'
p8
aS'17'
p9
aS'Neutral'
p10
aa(lp11
S'Madrasa'
p12
aS'37'
p13
aS'Neutral'
p14
aa(lp15
S'Burdwan'
p16
aS'39'
p17
aS'Event'
p18
aa(lp19
S'Khagragarh'
p20
aS'79'
p21
aS'Event'
p22
aa(lp23
S'West Bengal'
p24
aS'93'
p25
aS'Neutral'
p26
aa(lp27
S'madrasa'
p28
aS'118'
p29
aS'Neutral'
p30
aa(lp31
S'Simulia'
p32
aS'120'
p33
aS'Neutral'
p34
aa(lp35
S'madrasa'
p36
aS'162'
p37
aS'Neutral'
p38
aa(lp39
S'Burdwan'
p40
aS'172'
p41
aS'Event'
p42
aa(lp43
S'madrasa'
p44
aS'188'
p45
aS'Neutral'
p46
aa(lp47
S'Nadia'
p48
aS'247'
p49
aS'Neutral'
p50
aa(lp51
S'Birbhum'
p52
aS'249'
p53
aS'Neutral'
p54
aa(lp55
S'Assam'
p56
aS'256'
p57
aS'Neutral'
p58
aasS'PER'
p59
(lp60
(lp61
S'Alima Bibi'
p62
aS'127'
p63
aS'Accused'
p64
aa(lp65
S'Rajira'
p66
aS'130'
p67
aS'Accused'
p68
aa(lp69
S'Razia Bibi'
p70
aS'132'
p71
aS'Accused'
p72
aa(lp73
S'Sanjeev Kumar Singh'
p74
aS'150'
p75
aS'Others'
p76
aa(lp77
S'Vikram Kharate'
p78
aS'157'
p79
aS'Others'
p80
aa(lp81
S'SMH Meerza'
p82
aS'176'
p83
aS'Others'
p84
aasS'TIM'
p85
(lp86
sS'hot_setting'
p87
S''
p88
sS'DAT'
p89
(lp90
S'October 2:23'
p91
aS'Sunday:34'
p92
asS'death'
p93
g88
sS'title'
p94
S'Burdwan Blast: National Investigation Agency Team Visits Madrasa'
p95
sS'det_loc'
p96
(lp97
S'India'
p98
aS'West Bengal'
p99
ag88
aS'Burdwan'
p100
aS'building in Burdwan'
p101
asS'terror_group'
p102
(lp103
S'JAMIAT-UL-MUJAHIDEEN'
p104
asS'content'
p105
VThe building in Burdwan where an explosion occurred on October 2Kolkatta : Probing the explosion in West Bengal which took place on October 2 , a National Investigation Agency or NIA team on Sunday visited a Madrasa in Burdwan district , where people suspected to be involved in the incident were reported to have got militant training.Six people , including two women , have been arrested in connection with the explosion at a house in the district 's Khagragarh area . The blast killed two suspected Jamaat-ul-Mujahideen militants , and injured one.The West Bengal CID , which was probing the incident before the National Investigation Agency -LRB- NIA -RRB- took over , came to know about the madrasa in Simulia area from the two women - Alima Bibi and Rajira alias Razia Bibi - arrested in connection with the case.The NIA team , led by Inspector General of Police Sanjeev Kumar Singh and Superintendent of Police Vikram Kharate , visited the madrasa and inspected things . The team was accompanied by Burdwan Superintendent of Police SMH Meerza . `` The team spent nearly an hour at the madrasa , where the two arrested women had received militant training , including how to fire a gun , '' said a police officer.Following an order by a special NIA court , the central agency has taken over documents , case records and material seized by the state police and the CID.The NIA has also deputed additional teams to Nadia and Birbhum districts and a few places in Assam to track , locate and apprehend people involved in the case.Besides , the NIA has sought the public 's cooperation in providing information relating to whereabouts of the accused people . .
p106
sS'injured'
p107
g88
sS'org_unorg'
p108
S'ORGANISED'
p109
sS'O'
p110
(lp111
S'Inspector General of Police:146'
p112
aS'Police:156'
p113
aS'Superintendent of Police:173'
p114
aS'police:210'
p115
aS'police:236'
p116
asS'unexpl'
p117
(lp118
g88
asS'ocassion'
p119
g88
sS'link'
p120
S'http://www.ndtv.com/india-news/burdwan-blast-national-investigation-agency-team-visits-madrasa-678446'
p121
sS'date'
p122
S'02-10-2014'
p123
sS'target'
p124
g88
sS'hot_spot'
p125
S'building in Burdwan'
p126
sS'delivery_mod'
p127
g88
sS'delivery_met'
p128
S'PLANTED'
p129
sS'expl'
p130
(lp131
g88
asS'ORG'
p132
(lp133
(lp134
S'National Investigation Agency'
p135
aS'27'
p136
aS'Others'
p137
aa(lp138
S'NIA'
p139
aS'31'
p140
aS'Others'
p141
aa(lp142
S'Jamaat-ul-Mujahideen'
p143
aS'87'
p144
aS'Accused'
p145
aa(lp146
S'CID'
p147
aS'95'
p148
aS'Others'
p149
aa(lp150
S'National Investigation Agency'
p151
aS'104'
p152
aS'Others'
p153
aa(lp154
S'NIA'
p155
aS'108'
p156
aS'Others'
p157
aa(lp158
S'NIA'
p159
aS'141'
p160
aS'Others'
p161
aa(lp162
S'NIA'
p163
aS'217'
p164
aS'Others'
p165
aa(lp166
S'NIA'
p167
aS'240'
p168
aS'Others'
p169
aa(lp170
S'NIA'
p171
aS'270'
p172
aS'Others'
p173
aas.