(dp0
S'LOC'
p1
(lp2
(lp3
S'New Delhi'
p4
aS'5'
p5
aS'Neutral'
p6
aa(lp7
S'Hyderabad'
p8
aS'22'
p9
aS'Event'
p10
aa(lp11
S'Hyderabad'
p12
aS'112'
p13
aS'Event'
p14
aa(lp15
S'Hyderabad'
p16
aS'166'
p17
aS'Event'
p18
aa(lp19
S'Andhra Pradesh'
p20
aS'196'
p21
aS'Neutral'
p22
aa(lp23
S'Dilsukh Nagar'
p24
aS'210'
p25
aS'Event'
p26
aa(lp27
S'Hyderabad'
p28
aS'214'
p29
aS'Event'
p30
aa(lp31
S'Anand Kishan Centre'
p32
aS'229'
p33
aS'Event'
p34
aa(lp35
S'Konark theater'
p36
aS'233'
p37
aS'Event'
p38
aa(lp39
S'Venkatadri movie theater'
p40
aS'236'
p41
aS'Event'
p42
aasS'PER'
p43
(lp44
(lp45
S'Manmohan Singh'
p46
aS'11'
p47
aS'Comment'
p48
aa(lp49
S'Manmohan Singh'
p50
aS'102'
p51
aS'Comment'
p52
aasS'TIM'
p53
(lp54
S'evening : 25'
p55
aS'7pm : 246'
p56
aS'7:01 pm:255'
p57
aS'7:06 pm:263'
p58
asS'hot_setting'
p59
S''
p60
sS'DAT'
p61
(lp62
S'Thursday:24'
p63
asS'death'
p64
g60
sS'title'
p65
S'Hyderabad blasts: PM appeals for calm, announces Rs 2 lakh for dead'
p66
sS'det_loc'
p67
(lp68
S'India'
p69
ag60
ag60
aS'Hyderabad'
p70
aS'Hyderabad'
p71
asS'terror_group'
p72
(lp73
g60
asS'content'
p74
VZeenews Bureau . . New Delhi : Prime Minister Dr Manmohan Singh has strongly condemned the bomb blasts that occurred in Hyderabad on Thursday evening . The Prime Ministers Office posted on Twitter , ` This is a dastardly attack , the guilty will not go unpunished ( sic ) ' . . . And added , ' I appeal to the public to remain calm and maintain peace . ' . . The Union Cabinet which was in a meeting when the blasts took place , was informed about the incident . . . ` The Prime Minister , Dr. Manmohan Singh , has strongly condemned the bomb blasts in Hyderabad . While expressing shock and grief over the loss of lives in the blasts , the Prime Minister has appealed to the public to remain calm and maintain peace , ' an official statement said . . . PM also announced Rs 2 lakh each to next of kin of those killed in Hyderabad blasts and Rs 50,000 each to those seriously injured , agencies reported . . . PM has also directed the central agencies to extend all possible help to the Andhra Pradesh state authorities in relief operations . . . Three bomb blasts rocked Dilsukh Nagar area of Hyderabad city near a bus stop . The blasts took place at three points - Anand Kishan Centre , Konark theater and Venkatadri movie theater . The blasts happened simultaneously at around 7pm . . . The first blast occurred at 7:01 pm . The second blast happened at 7:06 pm . The blasts have been said to have been caused by tiffin bombs . One bomb has been found to be un exploded near a foot bridge . . . As per reports more than 50 people have have been injured in the blasts and have been rushed to the nearby hospital .
p75
sS'injured'
p76
S'50'
p77
sS'org_unorg'
p78
S'ORGANISED'
p79
sS'O'
p80
(lp81
S'zeenews bureau:1'
p82
aS'union cabinet:75'
p83
aS'prime minister:98'
p84
aS'tiffin bombs:276'
p85
aS'foot bridge:290'
p86
asS'unexpl'
p87
(lp88
g60
asS'ocassion'
p89
g60
sS'link'
p90
S'http://zeenews.india.com/news/nation/hyderabad-blasts-pm-appeals-for-calm-announces-rs-2-lakh-for-dead_830672.html'
p91
sS'date'
p92
S'21-02-2013'
p93
sS'target'
p94
g60
sS'hot_spot'
p95
S'Hyderabad'
p96
sS'delivery_mod'
p97
g60
sS'delivery_met'
p98
S'PLANTED'
p99
sS'expl'
p100
(lp101
g60
asS'ORG'
p102
(lp103
s.