(dp0
S'LOC'
p1
(lp2
(lp3
S'Assam'
p4
aS'2'
p5
aS'Neutral'
p6
aa(lp7
S'GUWAHATI'
p8
aS'12'
p9
aS'Neutral'
p10
aa(lp11
S'Dhemaji'
p12
aS'46'
p13
aS'Event'
p14
aa(lp15
S'Borjhar'
p16
aS'177'
p17
aS'Neutral'
p18
aa(lp19
S'Guwahati'
p20
aS'179'
p21
aS'Neutral'
p22
aa(lp23
S'Dispur'
p24
aS'204'
p25
aS'Neutral'
p26
aa(lp27
S'Panabazar'
p28
aS'230'
p29
aS'Neutral'
p30
aasS'PER'
p31
(lp32
(lp33
S'Sushanta Talukdar'
p34
aS'8'
p35
aS'Others'
p36
aa(lp37
S'Tarun Gogoi'
p38
aS'308'
p39
aS'Comment'
p40
aasS'TIM'
p41
(lp42
S'12-hour : 70'
p43
asS'hot_setting'
p44
S''
p45
sS'DAT'
p46
(lp47
S'AUG. 18 : 14'
p48
aS'August 15:49'
p49
asS'death'
p50
g45
sS'title'
p51
S'Assam bandh near-total'
p52
sS'org_unorg'
p53
S'ORGANISED'
p54
sS'terror_group'
p55
(lp56
S'UNITED LIBERATION FRONT OF ASSAM (ULFA)'
p57
asS'content'
p58
VNational Assam bandh near-total . . By Sushanta Talukdar . . GUWAHATI , AUG. 18 . Assam today observed a near-total bandh to protest against the killing of schoolchildren in a bomb blast by the banned United Liberation Front of Asom -LRB- ULFA -RRB- in Dhemaji district on August 15 . There were no reports of any violence , barring a few incidents of stonethrowing . . . The 12-hour bandh , called separately by the All-Assam Students ' Union and the State unit of the CPI -LRB- M -RRB- , evoked a spontaneous response . The Opposition Asom Gana Parishad also supported the bandh . . . Life came to a standstill in the Brahmaputra Valley with traders downing their shutters ; education institutions , banks and other financial institutions remained closed . . . The roads in the city and districts wore a deserted look with public and private vehicles remaining off the road . Although trains and flights were running normally , passengers were stranded at the Lokapriya Gopinath Bardoloi International Airport at Borjhar and Guwahati railway stations as no taxis or other public transport was available . . . Attendance in Government offices , particularly the State Secretariat at Dispur , was thin . The State-run Assam Transport Corporation did not ply any buses in the city . . . Students burnt tyres in the Panabazar locality to prevent the movement of vehicles . Police made preventive arrests of about 20 AASU leaders and activists last night and released them this evening . . . Condemning the ULFA for the attack on the schoolchildren , the AASU held the State Government responsible for their deaths . . . The student body accused the State Government of failing to protect the lives and property of the people and demanded that the Chief Minister , Tarun Gogoi , resign owning moral responsibility .
p59
sS'injured'
p60
g45
sS'det_loc'
p61
(lp62
S'India'
p63
aS'Assam'
p64
aS'Dhemaji'
p65
aS'GUWAHATI'
p66
aS'Dhemaji'
p67
asS'O'
p68
(lp69
S'Police:239'
p70
aS'Chief Minister:305'
p71
asS'unexpl'
p72
(lp73
g45
asS'ocassion'
p74
g45
sS'link'
p75
S'http://www.thehindu.com/2004/08/19/stories/2004081909181100.htm'
p76
sS'date'
p77
S'15-08-2004'
p78
sS'target'
p79
g45
sS'hot_spot'
p80
S'Dhemaji'
p81
sS'delivery_mod'
p82
g45
sS'delivery_met'
p83
S'PLANTED'
p84
sS'expl'
p85
(lp86
g45
asS'ORG'
p87
(lp88
(lp89
S'United Liberation Front of Asom'
p90
aS'37'
p91
aS'Accused'
p92
aa(lp93
S'ULFA'
p94
aS'43'
p95
aS'Accused'
p96
aa(lp97
S"All-Assam Students ' Union and the State unit"
p98
aS'77'
p99
aS'Others'
p100
aa(lp101
S'CPI'
p102
aS'87'
p103
aS'Others'
p104
aa(lp105
S'Opposition Asom Gana Parishad'
p106
aS'98'
p107
aS'Others'
p108
aa(lp109
S'Lokapriya Gopinath Bardoloi International Airport'
p110
aS'171'
p111
aS'Others'
p112
aa(lp113
S'Assam Transport Corporation'
p114
aS'211'
p115
aS'Others'
p116
aa(lp117
S'AASU'
p118
aS'246'
p119
aS'Others'
p120
aa(lp121
S'ULFA'
p122
aS'262'
p123
aS'Accused'
p124
aa(lp125
S'AASU'
p126
aS'271'
p127
aS'Others'
p128
aa(lp129
S'State Government'
p130
aS'274'
p131
aS'Others'
p132
aa(lp133
S'State Government'
p134
aS'288'
p135
aS'Others'
p136
aas.