(dp0
S'LOC'
p1
(lp2
(lp3
S'Bihar'
p4
aS'1'
p5
aS'Neutral'
p6
aa(lp7
S'Mahabodhi temple'
p8
aS'10'
p9
aS'Event'
p10
aa(lp11
S'Bodh Gaya'
p12
aS'37'
p13
aa(lp14
S'Mahabodhi temple'
p15
aS'90'
p16
aS'Event'
p17
aa(lp18
S'Bodh Gaya'
p19
aS'93'
p20
aasS'PER'
p21
(lp22
(lp23
S'Nitish Kumar'
p24
aS'4'
p25
aS'Others'
p26
aa(lp27
S'Lalu Prasad Yadav'
p28
aS'102'
p29
aS'Others'
p30
aa(lp31
S'Ramvilas Paswan'
p32
aS'121'
p33
aS'Comment'
p34
aasS'TIM'
p35
(lp36
sS'hot_setting'
p37
S''
p38
sS'DAT'
p39
(lp40
sS'death'
p41
g38
sS'title'
p42
S'We had always been on alert: Nitish'
p43
sS'org_unorg'
p44
S'ORGANISED'
p45
sS'terror_group'
p46
(lp47
g38
asS'content'
p48
VBihar Chief Minister Nitish Kumar , who visited the Mahabodhi temple condemned the attack but maintained that security had been provided to the religious site . Any condemnation of this incident would not be enough . Bodh Gaya is a sacred pilgrimage site and the key location for the faith of millions across the world . To carry out such an attack at such a place in condemnable , he said . The government had always been on the alert and taken steps to ensure the security of the Mahabodhi temple and Bodh Gaya in general . . . RJD chief Lalu Prasad Yadav held the government responsible for failing to act upon intelligence inputs . . . LJP leader Ramvilas Paswan demanded Mr. Kumars resignation on moral grounds for failing to prevent the attack despite intelligence inputs .
p49
sS'injured'
p50
g38
sS'det_loc'
p51
(lp52
S'India'
p53
aS'Bihar'
p54
aS'Gaya'
p55
ag38
aS'Mahabodhi temple,Bodh Gaya'
p56
asS'O'
p57
(lp58
S'government:74'
p59
asS'unexpl'
p60
(lp61
g38
asS'ocassion'
p62
g38
sS'link'
p63
S'http://www.thehindu.com/news/national/other-states/we-had-always-been-on-alert-nitish/article4891411.ece?ref=relatedNews'
p64
sS'date'
p65
S'07-07-2013'
p66
sS'target'
p67
g38
sS'hot_spot'
p68
S'Mahabodhi temple,Bodh Gaya'
p69
sS'delivery_mod'
p70
g38
sS'delivery_met'
p71
S'PLANTED'
p72
sS'expl'
p73
(lp74
g38
asS'ORG'
p75
(lp76
(lp77
S'LJP'
p78
aS'119'
p79
aS'Others'
p80
aas.