(dp0
S'LOC'
p1
(lp2
(lp3
S'Chhattisgarh'
p4
aS'21'
p5
aS'Neutral'
p6
aa(lp7
S'Chhattisgarh'
p8
aS'104'
p9
aS'Neutral'
p10
aa(lp11
S'Dantewada'
p12
aS'272'
p13
aS'Neutral'
p14
aa(lp15
S'Chhattisgarh'
p16
aS'276'
p17
aS'Neutral'
p18
aa(lp19
S'Chhattisgarh'
p20
aS'347'
p21
aS'Neutral'
p22
aa(lp23
S'Nadeli'
p24
aS'356'
p25
aS'Neutral'
p26
aa(lp27
S'Raigarh'
p28
aS'359'
p29
aS'Neutral'
p30
aa(lp31
S'Jindal airport'
p32
aS'382'
p33
aS'Neutral'
p34
aa(lp35
S'Raigarh'
p36
aS'385'
p37
aS'Neutral'
p38
aa(lp39
S'Delhi'
p40
aS'390'
p41
aS'Neutral'
p42
aa(lp43
S'Chhattisgarh'
p44
aS'508'
p45
aS'Neutral'
p46
aa(lp47
S'India'
p48
aS'518'
p49
aS'Neutral'
p50
aa(lp51
S'Chhattisgarh'
p52
aS'523'
p53
aS'Event'
p54
aa(lp55
S'US'
p56
aS'550'
p57
aS'Neutral'
p58
aa(lp59
S'Chhattisgarh'
p60
aS'746'
p61
aS'Event'
p62
aa(lp63
S'US'
p64
aS'843'
p65
aS'Neutral'
p66
aa(lp67
S'United States'
p68
aS'865'
p69
aS'Neutral'
p70
aa(lp71
S'Chhattisgarh'
p72
aS'872'
p73
aS'Event'
p74
aa(lp75
S'US'
p76
aS'891'
p77
aS'Neutral'
p78
aa(lp79
S'US'
p80
aS'916'
p81
aS'Neutral'
p82
aa(lp83
S'Chhattisgarh'
p84
aS'965'
p85
aS'Event'
p86
aa(lp87
S'Chhattisgarh'
p88
aS'1011'
p89
aS'Event'
p90
aa(lp91
S'Chhattisgarh'
p92
aS'1199'
p93
aS'Event'
p94
aa(lp95
S'Chhattisgarh'
p96
aS'1345'
p97
aS'Event'
p98
aa(lp99
S'Bastar'
p100
aS'1356'
p101
aS'Neutral'
p102
aa(lp103
S'Chhattisgarh'
p104
aS'1422'
p105
aS'Event'
p106
aa(lp107
S'Chhattisgarh'
p108
aS'1470'
p109
aS'Event'
p110
aa(lp111
S'Sukma'
p112
aS'1485'
p113
aS'Neutral'
p114
aa(lp115
S'Madhya Pradesh'
p116
aS'1536'
p117
aS'Neutral'
p118
aa(lp119
S'Chhattisgarh'
p120
aS'1579'
p121
aS'Event'
p122
aa(lp123
S'Chattisgarh'
p124
aS'1766'
p125
aS'Event'
p126
aa(lp127
S'Chhattisgarh'
p128
aS'1808'
p129
aS'Event'
p130
aa(lp131
S'Malegaon'
p132
aS'1990'
p133
aS'Neutral'
p134
aa(lp135
S'India'
p136
aS'2020'
p137
aS'Neutral'
p138
aa(lp139
S'United States'
p140
aS'2043'
p141
aS'Neutral'
p142
aa(lp143
S'Andhra Pradesh'
p144
aS'2317'
p145
aS'Neutral'
p146
aa(lp147
S'Raipur'
p148
aS'2461'
p149
aS'Neutral'
p150
aa(lp151
S'India'
p152
aS'2492'
p153
aS'Neutral'
p154
aa(lp155
S'Chhattisgarh'
p156
aS'2522'
p157
aS'Event'
p158
aa(lp159
S'Bastar'
p160
aS'2624'
p161
aS'Neutral'
p162
aa(lp163
S'Dandakaranya'
p164
aS'2743'
p165
aS'Neutral'
p166
aa(lp167
S'Chhattisgarh'
p168
aS'2774'
p169
aS'Event'
p170
aa(lp171
S'Chhattisgarh'
p172
aS'2807'
p173
aS'Event'
p174
aa(lp175
S'Bastar'
p176
aS'2817'
p177
aS'Neutral'
p178
aa(lp179
S'Kerala'
p180
aS'2824'
p181
aS'Neutral'
p182
aa(lp183
S'Madhya Pradesh'
p184
aS'3099'
p185
aS'Neutral'
p186
aa(lp187
S'Chhattisgarh'
p188
aS'3116'
p189
aS'Event'
p190
aa(lp191
S'Chhattisgarh'
p192
aS'3286'
p193
aS'Event'
p194
aa(lp195
S'Nandeli'
p196
aS'3316'
p197
aS'Neutral'
p198
aa(lp199
S'Raigarh'
p200
aS'3318'
p201
aS'Neutral'
p202
aa(lp203
S'Jagdalpur'
p204
aS'3370'
p205
aS'Neutral'
p206
aa(lp207
S'Jagdalpur'
p208
aS'3385'
p209
aS'Neutral'
p210
aa(lp211
S'Chhattisgarh'
p212
aS'3422'
p213
aS'Event'
p214
aa(lp215
S'Chattisgarh'
p216
aS'3547'
p217
aS'Event'
p218
aa(lp219
S'Chhattisgarh'
p220
aS'3562'
p221
aS'Event'
p222
aa(lp223
S'Chhattisgarh'
p224
aS'3580'
p225
aS'Event'
p226
aa(lp227
S'Chhattisgarh'
p228
aS'3593'
p229
aS'Event'
p230
aa(lp231
S'Chhattisgarh'
p232
aS'3629'
p233
aS'Event'
p234
aa(lp235
S'Jagdalpur'
p236
aS'3735'
p237
aS'Neutral'
p238
aa(lp239
S'Jagdalpur'
p240
aS'3744'
p241
aS'Neutral'
p242
aa(lp243
S'Chhattisgarh'
p244
aS'3746'
p245
aS'Neutral'
p246
aa(lp247
S'Sukma'
p248
aS'3786'
p249
aS'Neutral'
p250
aa(lp251
S'Jagdalpur'
p252
aS'3788'
p253
aS'Neutral'
p254
aa(lp255
S'Sukma'
p256
aS'3811'
p257
aS'Neutral'
p258
aa(lp259
S'Chhattisgarh'
p260
aS'3853'
p261
aS'Neutral'
p262
aa(lp263
S'Chattisgarh'
p264
aS'3978'
p265
aS'Neutral'
p266
aa(lp267
S'Chhattisgarh'
p268
aS'4017'
p269
aS'Neutral'
p270
aa(lp271
S'Chhattisgarh'
p272
aS'4042'
p273
aS'Neutral'
p274
aa(lp275
S'Chhattisgarh'
p276
aS'4236'
p277
aS'Neutral'
p278
aa(lp279
S'Chhattisgarh'
p280
aS'4247'
p281
aS'Neutral'
p282
aa(lp283
S'Medanta Hosital'
p284
aS'4281'
p285
aS'Neutral'
p286
aa(lp287
S'Gurgaon'
p288
aS'4284'
p289
aS'Neutral'
p290
aa(lp291
S'Gurgaon'
p292
aS'4306'
p293
aS'Neutral'
p294
aa(lp295
S'Madhya Pradesh'
p296
aS'4395'
p297
aS'Neutral'
p298
aa(lp299
S'Madhya Pardesh'
p300
aS'4410'
p301
aS'Neutral'
p302
aa(lp303
S'Chhattisgarh'
p304
aS'4413'
p305
aS'Neutral'
p306
aa(lp307
S'Bhopal'
p308
aS'4436'
p309
aS'Neutral'
p310
aa(lp311
S'Madhya Pradesh'
p312
aS'4452'
p313
aS'Neutral'
p314
aa(lp315
S'Chhattisgarh'
p316
aS'4481'
p317
aS'Neutral'
p318
aa(lp319
S'Madhya Pradesh'
p320
aS'4486'
p321
aS'Neutral'
p322
aa(lp323
S'Madhya Pradesh'
p324
aS'4527'
p325
aS'Neutral'
p326
aa(lp327
S'Bhopal'
p328
aS'4538'
p329
aS'Neutral'
p330
aa(lp331
S'Chhattisgarh'
p332
aS'4586'
p333
aS'Neutral'
p334
aa(lp335
S'Darba Ghat'
p336
aS'4679'
p337
aS'Neutral'
p338
aa(lp339
S'Maoist'
p340
aS'4702'
p341
aS'Neutral'
p342
aa(lp343
S'Chhattisgarh'
p344
aS'4746'
p345
aS'Neutral'
p346
aa(lp347
S'Chhattisgarh'
p348
aS'4761'
p349
aS'Neutral'
p350
aa(lp351
S'Nandeli'
p352
aS'4798'
p353
aS'Neutral'
p354
aa(lp355
S'Chhattisgarh'
p356
aS'4847'
p357
aS'Neutral'
p358
aa(lp359
S'Chhattisgarh'
p360
aS'4870'
p361
aS'Neutral'
p362
aa(lp363
S'New York'
p364
aS'4922'
p365
aS'Neutral'
p366
aa(lp367
S'Delhi'
p368
aS'4985'
p369
aS'Neutral'
p370
aa(lp371
S'Raipur'
p372
aS'4990'
p373
aS'Neutral'
p374
aa(lp375
S'Chhattisgarh'
p376
aS'4998'
p377
aS'Neutral'
p378
aa(lp379
S'Madhya Pradesh'
p380
aS'5041'
p381
aS'Neutral'
p382
aa(lp383
S'Chhattisgarh'
p384
aS'5052'
p385
aS'Neutral'
p386
aa(lp387
S'Madhya Pradesh'
p388
aS'5058'
p389
aS'Neutral'
p390
aa(lp391
S'Chhattisgarh'
p392
aS'5088'
p393
aS'Neutral'
p394
aa(lp395
S'Madhya Pradesh'
p396
aS'5093'
p397
aS'Neutral'
p398
aa(lp399
S'Chhattisgarh'
p400
aS'5172'
p401
aS'Neutral'
p402
aa(lp403
S'Raipur airport'
p404
aS'5225'
p405
aS'Neutral'
p406
aa(lp407
S'Chhattisgarh'
p408
aS'5245'
p409
aS'Neutral'
p410
aa(lp411
S'Raipur'
p412
aS'5269'
p413
aS'Neutral'
p414
aa(lp415
S'Delhi'
p416
aS'5288'
p417
aS'Neutral'
p418
aa(lp419
S'Darbha Ghati Valley'
p420
aS'5306'
p421
aS'Neutral'
p422
aa(lp423
S'Sukma'
p424
aS'5314'
p425
aS'Neutral'
p426
aa(lp427
S'Bastar'
p428
aS'5318'
p429
aS'Neutral'
p430
aa(lp431
S'Raipur'
p432
aS'5337'
p433
aS'Neutral'
p434
aa(lp435
S'Gurgaon'
p436
aS'5378'
p437
aS'Neutral'
p438
aa(lp439
S'Chhattisgarh'
p440
aS'5434'
p441
aS'Neutral'
p442
aa(lp443
S'Bijapur'
p444
aS'5528'
p445
aS'Neutral'
p446
aa(lp447
S'bijapur'
p448
aS'5547'
p449
aS'Neutral'
p450
aa(lp451
S'Gurgaon'
p452
aS'5597'
p453
aS'Neutral'
p454
aa(lp455
S'Medanta hospital'
p456
aS'5599'
p457
aS'Neutral'
p458
aa(lp459
S'Chhattisgarh'
p460
aS'5619'
p461
aS'Neutral'
p462
aa(lp463
S'Chhattisgarh'
p464
aS'5641'
p465
aS'Neutral'
p466
aa(lp467
S'Chhattisgarh'
p468
aS'5663'
p469
aS'Neutral'
p470
aa(lp471
S'Chhattisgarh'
p472
aS'5717'
p473
aS'Neutral'
p474
aa(lp475
S'Chhattisgarh'
p476
aS'5898'
p477
aS'Neutral'
p478
aa(lp479
S'Raipur'
p480
aS'5935'
p481
aS'Neutral'
p482
aa(lp483
S'Chhattisgarh'
p484
aS'5978'
p485
aS'Neutral'
p486
aa(lp487
S'Raigarh'
p488
aS'6065'
p489
aS'Neutral'
p490
aa(lp491
S'Kharsiya'
p492
aS'6095'
p493
aS'Neutral'
p494
aa(lp495
S'Raipur'
p496
aS'6130'
p497
aS'Neutral'
p498
aa(lp499
S'Bilaspur'
p500
aS'6132'
p501
aS'Neutral'
p502
aa(lp503
S'Rajnandgaon'
p504
aS'6134'
p505
aS'Neutral'
p506
aa(lp507
S'Korba'
p508
aS'6136'
p509
aS'Neutral'
p510
aa(lp511
S'Chhattisgarh'
p512
aS'6150'
p513
aS'Neutral'
p514
aa(lp515
S'Chhattisgarh'
p516
aS'6188'
p517
aS'Neutral'
p518
aa(lp519
S'Raipur'
p520
aS'6274'
p521
aS'Neutral'
p522
aa(lp523
S'Raipur ,'
p524
aS'6274'
p525
aS'Neutral'
p526
aa(lp527
S'Chhattisgarh'
p528
aS'6440'
p529
aS'Neutral'
p530
aa(lp531
S'Gurgaon'
p532
aS'6456'
p533
aS'Neutral'
p534
aa(lp535
S'Medanta hospital'
p536
aS'6458'
p537
aS'Neutral'
p538
aa(lp539
S'Chhattisgarh'
p540
aS'6461'
p541
aS'Neutral'
p542
aa(lp543
S'Delhi'
p544
aS'6492'
p545
aS'Neutral'
p546
aa(lp547
S'Raipur'
p548
aS'6517'
p549
aS'Neutral'
p550
aa(lp551
S'Raipur'
p552
aS'6529'
p553
aS'Neutral'
p554
aa(lp555
S'Dharba Ghat'
p556
aS'6544'
p557
aS'Neutral'
p558
aa(lp559
S'Gandhi Bhavan'
p560
aS'6588'
p561
aS'Neutral'
p562
aa(lp563
S'Chhattisgarh'
p564
aS'6638'
p565
aS'Neutral'
p566
aa(lp567
S'Chhattisgarh'
p568
aS'6675'
p569
aS'Neutral'
p570
aa(lp571
S'Chhattisgarh'
p572
aS'6745'
p573
aS'Neutral'
p574
aa(lp575
S'Jagdalpur'
p576
aS'6755'
p577
aS'Neutral'
p578
aa(lp579
S'Gujarat'
p580
aS'6794'
p581
aS'Neutral'
p582
aa(lp583
S'Chhattisgarh'
p584
aS'6904'
p585
aS'Neutral'
p586
aa(lp587
S'Madhya Pradesh'
p588
aS'6909'
p589
aS'Neutral'
p590
aa(lp591
S'Chhattisgarh'
p592
aS'6915'
p593
aS'Neutral'
p594
aa(lp595
S'Madhya Pradesh'
p596
aS'6923'
p597
aS'Neutral'
p598
aa(lp599
S'Darbha Ghat'
p600
aS'7009'
p601
aS'Neutral'
p602
aa(lp603
S'Indias'
p604
aS'7217'
p605
aS'Neutral'
p606
aa(lp607
S'Chhattisgarh'
p608
aS'7222'
p609
aS'Neutral'
p610
aa(lp611
S'Sukma'
p612
aS'7251'
p613
aS'Neutral'
p614
aa(lp615
S'Raipur'
p616
aS'7259'
p617
aS'Neutral'
p618
aa(lp619
S'Chhattisgarh'
p620
aS'7264'
p621
aS'Neutral'
p622
aa(lp623
S'Chhattisgarh'
p624
aS'7391'
p625
aS'Neutral'
p626
aa(lp627
S'Indias'
p628
aS'7431'
p629
aS'Neutral'
p630
aa(lp631
S'West Bengal'
p632
aS'7649'
p633
aS'Neutral'
p634
aa(lp635
S'Naxalbari'
p636
aS'7653'
p637
aS'Neutral'
p638
aa(lp639
S'Narayanpur'
p640
aS'7745'
p641
aS'Neutral'
p642
aa(lp643
S'Chhattisgarh'
p644
aS'7748'
p645
aS'Neutral'
p646
aasS'PER'
p647
(lp648
(lp649
S'Shinde'
p650
aS'2016'
p651
aS'Others'
p652
aa(lp653
S'T S Sudhir'
p654
aS'2502'
p655
aS'Others'
p656
aa(lp657
S'Umesh Patel'
p658
aS'4755'
p659
aa(lp660
S'Shinde'
p661
aS'4'
p662
aS'Comment'
p663
aa(lp664
S'Sushilkumar Shinde'
p665
aS'17'
p666
aS'Comment'
p667
aa(lp668
S'Raman Singh'
p669
aS'107'
p670
aS'Comment'
p671
aa(lp672
S'Shinde'
p673
aS'133'
p674
aS'Comment'
p675
aa(lp676
S'Sukma'
p677
aS'274'
p678
aS'Others'
p679
aa(lp680
S'Sushilkumar Shinde'
p681
aS'326'
p682
aS'Comment'
p683
aa(lp684
S'Nand Kumar Patel'
p685
aS'329'
p686
aS'Others'
p687
aa(lp688
S'Kumar Patel'
p689
aS'330'
p690
aS'Others'
p691
aa(lp692
S'Kumar Patel'
p693
aS'330'
p694
aS'Others'
p695
aa(lp696
S'Sushilkumar Shinde'
p697
aS'339'
p698
aS'Comment'
p699
aa(lp700
S'Nand Kumar Patel'
p701
aS'350'
p702
aS'Others'
p703
aa(lp704
S'Shinde'
p705
aS'373'
p706
aS'Others'
p707
aa(lp708
S'VC Shukla'
p709
aS'405'
p710
aS'Victim'
p711
aa(lp712
S'VC Shukla'
p713
aS'421'
p714
aS'Victim'
p715
aa(lp716
S'AK Dubey'
p717
aS'487'
p718
aS'Others'
p719
aa(lp720
S'Sushilkumar Shinde'
p721
aS'505'
p722
aS'Comment'
p723
aa(lp724
S'Sushilkumar Shinde'
p725
aS'513'
p726
aS'Comment'
p727
aa(lp728
S'Shinde'
p729
aS'542'
p730
aS'Comment'
p731
aa(lp732
S'KC Deo'
p733
aS'622'
p734
aS'Others'
p735
aa(lp736
S'Deo'
p737
aS'695'
p738
aS'Others'
p739
aa(lp740
S'Jairam Ramesh'
p741
aS'716'
p742
aS'Comment'
p743
aa(lp744
S'Mahendra Karma'
p745
aS'776'
p746
aS'Others'
p747
aa(lp748
S'Nand Kumar Patel'
p749
aS'779'
p750
aS'Others'
p751
aa(lp752
S'Shinde'
p753
aS'850'
p754
aS'Comment'
p755
aa(lp756
S'Shinde'
p757
aS'853'
p758
aS'Comment'
p759
aa(lp760
S'Bhakta Charan Das'
p761
aS'1003'
p762
aS'Others'
p763
aa(lp764
S'Raman Singh'
p765
aS'1045'
p766
aS'Others'
p767
aa(lp768
S'Das'
p769
aS'1050'
p770
aS'Others'
p771
aa(lp772
S'Raman Singh'
p773
aS'1078'
p774
aS'Others'
p775
aa(lp776
S'Karma'
p777
aS'1138'
p778
aS'Others'
p779
aa(lp780
S'Das'
p781
aS'1141'
p782
aS'Others'
p783
aa(lp784
S'KC Deo'
p785
aS'1150'
p786
aS'Others'
p787
aa(lp788
S'Marshal NAK Browne'
p789
aS'1312'
p790
aS'Others'
p791
aa(lp792
S'Raman Singh'
p793
aS'1338'
p794
aS'Others'
p795
aa(lp796
S'Raman Singh'
p797
aS'1382'
p798
aS'Others'
p799
aa(lp800
S'Prashant Mishra'
p801
aS'1407'
p802
aS'Others'
p803
aa(lp804
S'Raman Singh'
p805
aS'1450'
p806
aS'Others'
p807
aa(lp808
S'Raman Singh'
p809
aS'1473'
p810
aS'Others'
p811
aa(lp812
S'Kantilal Bhuria'
p813
aS'1541'
p814
aS'Others'
p815
aa(lp816
S'Mishra'
p817
aS'1559'
p818
aS'Others'
p819
aa(lp820
S'Prashant Mishra'
p821
aS'1572'
p822
aS'Others'
p823
aa(lp824
S'Mishra'
p825
aS'1602'
p826
aS'Others'
p827
aa(lp828
S'Karma'
p829
aS'1626'
p830
aS'Others'
p831
aa(lp832
S'Karma'
p833
aS'1633'
p834
aS'Others'
p835
aa(lp836
S'Divesh Patel'
p837
aS'1653'
p838
aS'Others'
p839
aa(lp840
S'Nandkumar Patel'
p841
aS'1658'
p842
aS'Others'
p843
aa(lp844
S'Nandkumar Patel'
p845
aS'1693'
p846
aS'Others'
p847
aa(lp848
S'Daulat Rohra'
p849
aS'1715'
p850
aS'Others'
p851
aa(lp852
S'Karma'
p853
aS'1727'
p854
aS'Others'
p855
aa(lp856
S'Mahender Karma'
p857
aS'1756'
p858
aS'Others'
p859
aa(lp860
S'Nandkumar Patel'
p861
aS'1759'
p862
aS'Others'
p863
aa(lp864
S'Raman Singh'
p865
aS'1797'
p866
aS'Others'
p867
aa(lp868
S'Raman Singh'
p869
aS'1811'
p870
aS'Others'
p871
aa(lp872
S'RPN Singh'
p873
aS'1852'
p874
aS'Others'
p875
aa(lp876
S'RPN Singh'
p877
aS'1861'
p878
aS'Others'
p879
aa(lp880
S'Singh'
p881
aS'1944'
p882
aS'Others'
p883
aa(lp884
S'Sushilkumar Shinde'
p885
aS'2032'
p886
aS'Comment'
p887
aa(lp888
S'Prakash Javadekar'
p889
aS'2061'
p890
aS'Comment'
p891
aa(lp892
S'Shinde'
p893
aS'2068'
p894
aS'Comment'
p895
aa(lp896
S'VC Shukla'
p897
aS'2093'
p898
aS'Victim'
p899
aa(lp900
S'Naresh Trehan'
p901
aS'2110'
p902
aS'Comment'
p903
aa(lp904
S'VC Shukla'
p905
aS'2117'
p906
aS'Victim'
p907
aa(lp908
S'Trehan'
p909
aS'2170'
p910
aS'Comment'
p911
aa(lp912
S'Shukla'
p913
aS'2179'
p914
aS'Victim'
p915
aa(lp916
S'Jairam Ramesh'
p917
aS'2203'
p918
aS'Comment'
p919
aa(lp920
S'Jairam Ramesh'
p921
aS'2210'
p922
aS'Comment'
p923
aa(lp924
S'Ramesh'
p925
aS'2229'
p926
aS'Comment'
p927
aa(lp928
S'Ramesh'
p929
aS'2303'
p930
aS'Comment'
p931
aa(lp932
S'RPN Singh'
p933
aS'2355'
p934
aS'Comment'
p935
aa(lp936
S'RPN Singh'
p937
aS'2363'
p938
aS'Comment'
p939
aa(lp940
S'Mahendra Kumar'
p941
aS'2409'
p942
aS'Others'
p943
aa(lp944
S'Nand Kumar Patel'
p945
aS'2412'
p946
aS'Others'
p947
aa(lp948
S'VC Shukla'
p949
aS'2416'
p950
aS'Victim'
p951
aa(lp952
S'Singh'
p953
aS'2441'
p954
aS'Comment'
p955
aa(lp956
S'RPN Singh'
p957
aS'2468'
p958
aS'Comment'
p959
aa(lp960
S'Bharat'
p961
aS'2498'
p962
aS'Comment'
p963
aa(lp964
S'Mahendra Karma'
p965
aS'2553'
p966
aS'Others'
p967
aa(lp968
S'Gudsa Usendi'
p969
aS'2564'
p970
aS'Comment'
p971
aa(lp972
S'Karma'
p973
aS'2582'
p974
aS'Comment'
p975
aa(lp976
S'Nand Kumar Patel'
p977
aS'2595'
p978
aS'Comment'
p979
aa(lp980
S'Nand Kumar Patel'
p981
aS'2602'
p982
aS'Comment'
p983
aa(lp984
S'Mahendra Karma'
p985
aS'2627'
p986
aS'Others'
p987
aa(lp988
S'Mahendra Karma'
p989
aS'2650'
p990
aS'Others'
p991
aa(lp992
S'Raman Singh'
p993
aS'2659'
p994
aS'Others'
p995
aa(lp996
S'Karma'
p997
aS'2684'
p998
aS'Others'
p999
aa(lp1000
S'Nand Kumar Patel'
p1001
aS'2691'
p1002
aS'Others'
p1003
aa(lp1004
S'VC Shukla'
p1005
aS'2695'
p1006
aS'Victim'
p1007
aa(lp1008
S'Raman Singh'
p1009
aS'2777'
p1010
aS'Others'
p1011
aa(lp1012
S'Mukesh Gupta'
p1013
aS'2929'
p1014
aS'Comment'
p1015
aa(lp1016
S'Gupta'
p1017
aS'3011'
p1018
aS'Comment'
p1019
aa(lp1020
S'Manak Agrawal'
p1021
aS'3151'
p1022
aS'Comment'
p1023
aa(lp1024
S'Manak'
p1025
aS'3151'
p1026
aS'Comment'
p1027
aa(lp1028
S'Sudarshan'
p1029
aS'3183'
p1030
aS'Accused'
p1031
aa(lp1032
S'Katakam Sudarshan'
p1033
aS'3195'
p1034
aS'Accused'
p1035
aa(lp1036
S'Sudarshan'
p1037
aS'3230'
p1038
aS'Accused'
p1039
aa(lp1040
S'Nand Kumar Patel'
p1041
aS'3271'
p1042
aS'Others'
p1043
aa(lp1044
S'Nand Kumar Patel'
p1045
aS'3289'
p1046
aS'Others'
p1047
aa(lp1048
S'Dinesh'
p1049
aS'3295'
p1050
aS'Others'
p1051
aa(lp1052
S'Patel'
p1053
aS'3325'
p1054
aS'Others'
p1055
aa(lp1056
S'Umesh'
p1057
aS'3329'
p1058
aS'Others'
p1059
aa(lp1060
S'Rahul Gandhi'
p1061
aS'3341'
p1062
aS'Others'
p1063
aa(lp1064
S'Raman Singh'
p1065
aS'3346'
p1066
aS'Others'
p1067
aa(lp1068
S'Ajit Jogi'
p1069
aS'3425'
p1070
aS'Comment'
p1071
aa(lp1072
S'Jogi'
p1073
aS'3483'
p1074
aS'Comment'
p1075
aa(lp1076
S'Nand Kumar Patel'
p1077
aS'3614'
p1078
aS'Others'
p1079
aa(lp1080
S'Ajit Jogi'
p1081
aS'3845'
p1082
aS'Comment'
p1083
aa(lp1084
S'Ajit Jogi'
p1085
aS'3856'
p1086
aS'Comment'
p1087
aa(lp1088
S'Jogi'
p1089
aS'3914'
p1090
aS'Comment'
p1091
aa(lp1092
S'AK Antony'
p1093
aS'3997'
p1094
aS'Others'
p1095
aa(lp1096
S'AK Antony'
p1097
aS'4021'
p1098
aS'Others'
p1099
aa(lp1100
S'Shukla'
p1101
aS'4067'
p1102
aS'Victim'
p1103
aa(lp1104
S'Naresh Trehan'
p1105
aS'4079'
p1106
aS'Others'
p1107
aa(lp1108
S'VC Shukla'
p1109
aS'4088'
p1110
aS'Victim'
p1111
aa(lp1112
S'Shukla'
p1113
aS'4135'
p1114
aS'Victim'
p1115
aa(lp1116
S'Shukla'
p1117
aS'4160'
p1118
aS'Victim'
p1119
aa(lp1120
S'Sonia'
p1121
aS'4200'
p1122
aS'Comment'
p1123
aa(lp1124
S'Sonia Gandhi'
p1125
aS'4212'
p1126
aS'Comment'
p1127
aa(lp1128
S'Rahul Gandhi'
p1129
aS'4243'
p1130
aS'Others'
p1131
aa(lp1132
S'Manmohan Singh'
p1133
aS'4254'
p1134
aS'Comment'
p1135
aa(lp1136
S'Sonia Gandhi'
p1137
aS'4259'
p1138
aS'Comment'
p1139
aa(lp1140
S'VC Shukla'
p1141
aS'4273'
p1142
aS'Victim'
p1143
aa(lp1144
S'VC Shukla'
p1145
aS'4294'
p1146
aS'Victim'
p1147
aa(lp1148
S'Shukla'
p1149
aS'4318'
p1150
aS'Victim'
p1151
aa(lp1152
S'Shukla'
p1153
aS'4367'
p1154
aS'Victim'
p1155
aa(lp1156
S'Kantilal Bhuria'
p1157
aS'4505'
p1158
aS'Others'
p1159
aa(lp1160
S'Ajay Singh'
p1161
aS'4512'
p1162
aS'Others'
p1163
aa(lp1164
S'RPN Singh'
p1165
aS'4567'
p1166
aS'Others'
p1167
aa(lp1168
S'RPN Singh'
p1169
aS'4575'
p1170
aS'Others'
p1171
aa(lp1172
S'RK Singh'
p1173
aS'4666'
p1174
aS'Others'
p1175
aa(lp1176
S'Gagannam'
p1177
aS'4704'
p1178
aS'Others'
p1179
aa(lp1180
S'Ramesh'
p1181
aS'4708'
p1182
aS'Others'
p1183
aa(lp1184
S'Nand Kumar Patel'
p1185
aS'4764'
p1186
aS'Victim'
p1187
aa(lp1188
S'Umesh'
p1189
aS'4800'
p1190
aS'Comment'
p1191
aa(lp1192
S'Shinde'
p1193
aS'4851'
p1194
aS'Comment'
p1195
aa(lp1196
S'Raman Singh'
p1197
aS'4880'
p1198
aS'Others'
p1199
aa(lp1200
S'Raman Singh'
p1201
aS'4893'
p1202
aS'Others'
p1203
aa(lp1204
S'Sushilkumar Shinde'
p1205
aS'4915'
p1206
aS'Comment'
p1207
aa(lp1208
S'Sonia'
p1209
aS'4943'
p1210
aS'Comment'
p1211
aa(lp1212
S'VC Shukla'
p1213
aS'4946'
p1214
aS'Victim'
p1215
aa(lp1216
S'Manmohan Singh'
p1217
aS'4954'
p1218
aS'Comment'
p1219
aa(lp1220
S'Sonia Gandhi'
p1221
aS'4959'
p1222
aS'Comment'
p1223
aa(lp1224
S'VC Shukla'
p1225
aS'4965'
p1226
aS'Victim'
p1227
aa(lp1228
S'LK Advani'
p1229
aS'5011'
p1230
aS'Comment'
p1231
aa(lp1232
S'Shukla'
p1233
aS'5015'
p1234
aS'Victim'
p1235
aa(lp1236
S'Kantilal Bhuria'
p1237
aS'5112'
p1238
aS'Others'
p1239
aa(lp1240
S'Ajay Singh'
p1241
aS'5119'
p1242
aS'Others'
p1243
aa(lp1244
S'Bhuria'
p1245
aS'5161'
p1246
aS'Others'
p1247
aa(lp1248
S'Raman Singh'
p1249
aS'5175'
p1250
aS'Others'
p1251
aa(lp1252
S'Kumar Patel'
p1253
aS'5219'
p1254
aS'Victim'
p1255
aa(lp1256
S'Sonia'
p1257
aS'5228'
p1258
aS'Comment'
p1259
aa(lp1260
S'Nand Kumar Patel'
p1261
aS'5247'
p1262
aS'Victim'
p1263
aa(lp1264
S'Dinesh Patel'
p1265
aS'5253'
p1266
aS'Comment'
p1267
aa(lp1268
S'Manmohan Singh'
p1269
aS'5274'
p1270
aS'Comment'
p1271
aa(lp1272
S'Sonia Gandhi'
p1273
aS'5279'
p1274
aS'Comment'
p1275
aa(lp1276
S'Vidya Charan Shukla'
p1277
aS'5388'
p1278
aS'Victim'
p1279
aa(lp1280
S'Shukla'
p1281
aS'5390'
p1282
aS'Victim'
p1283
aa(lp1284
S'Jairam Ramesh'
p1285
aS'5417'
p1286
aS'Comment'
p1287
aa(lp1288
S'Jairam Ramesh'
p1289
aS'5425'
p1290
aS'Comment'
p1291
aa(lp1292
S'VC Shukla'
p1293
aS'5563'
p1294
aS'Victim'
p1295
aa(lp1296
S'LK Advani'
p1297
aS'5569'
p1298
aS'Comment'
p1299
aa(lp1300
S'LK Advani'
p1301
aS'5575'
p1302
aS'Comment'
p1303
aa(lp1304
S'VC Shukla'
p1305
aS'5582'
p1306
aS'Victim'
p1307
aa(lp1308
S'Shukla'
p1309
aS'5602'
p1310
aS'Victim'
p1311
aa(lp1312
S'Advani'
p1313
aS'5607'
p1314
aS'Comment'
p1315
aa(lp1316
S'Manmohan Singh'
p1317
aS'5867'
p1318
aS'Comment'
p1319
aa(lp1320
S'Sonia Gandhi'
p1321
aS'5930'
p1322
aS'Comment'
p1323
aa(lp1324
S'Shailesh Trivedi'
p1325
aS'6027'
p1326
aS'Others'
p1327
aa(lp1328
S'Nand Kumar Patel'
p1329
aS'6074'
p1330
aS'Others'
p1331
aa(lp1332
S'Patel'
p1333
aS'6101'
p1334
aS'Others'
p1335
aa(lp1336
S'Sonia Gandhi'
p1337
aS'6145'
p1338
aS'Comment'
p1339
aa(lp1340
S'Sonia Gandhi'
p1341
aS'6156'
p1342
aS'Comment'
p1343
aa(lp1344
S'Gandhi'
p1345
aS'6205'
p1346
aS'Comment'
p1347
aa(lp1348
S'Manmohan Singh'
p1349
aS'6269'
p1350
aS'Comment'
p1351
aS'Others'
p1352
aa(lp1353
S'VC Shukla'
p1354
aS'6412'
p1355
aS'Victim'
p1356
aa(lp1357
S'VC Shukla'
p1358
aS'6424'
p1359
aS'Victim'
p1360
aa(lp1361
S'Shukla'
p1362
aS'6452'
p1363
aS'Victim'
p1364
aa(lp1365
S'AK Dubey'
p1366
aS'6468'
p1367
aS'Others'
p1368
aa(lp1369
S'Medanta'
p1370
aS'6471'
p1371
aS'Others'
p1372
aa(lp1373
S'Shukla'
p1374
aS'6474'
p1375
aS'Victim'
p1376
aa(lp1377
S'Sheila Dikshit'
p1378
aS'6495'
p1379
aS'Others'
p1380
aa(lp1381
S'Shukla'
p1382
aS'6499'
p1383
aS'Victim'
p1384
aa(lp1385
S'Manmohan Singh'
p1386
aS'6511'
p1387
aS'Comment'
p1388
aa(lp1389
S'Sonia Gandhi'
p1390
aS'6514'
p1391
aS'Comment'
p1392
aa(lp1393
S'Manmohan Singh'
p1394
aS'6522'
p1395
aS'Comment'
p1396
aa(lp1397
S'Sonia Gandhi'
p1398
aS'6525'
p1399
aS'Comment'
p1400
aa(lp1401
S'Mahendra Karma'
p1402
aS'6616'
p1403
aS'Others'
p1404
aa(lp1405
S'Nand Kumar'
p1406
aS'6622'
p1407
aS'Others'
p1408
aa(lp1409
S'Manish Tewari'
p1410
aS'6660'
p1411
aS'Others'
p1412
aa(lp1413
S'Tewari'
p1414
aS'6702'
p1415
aS'Others'
p1416
aa(lp1417
S'Modi'
p1418
aS'6719'
p1419
aS'Comment'
p1420
aa(lp1421
S'Raman Singh'
p1422
aS'6750'
p1423
aS'Others'
p1424
aa(lp1425
S'Narendra Modi'
p1426
aS'6797'
p1427
aS'Comment'
p1428
aa(lp1429
S'Darbha Ghati'
p1430
aS'6804'
p1431
aS'Others'
p1432
aa(lp1433
S'Nandkumar'
p1434
aS'6992'
p1435
aS'Others'
p1436
aa(lp1437
S'Nand kumar'
p1438
aS'7003'
p1439
aS'Others'
p1440
aa(lp1441
S'Nandkumar Patel'
p1442
aS'7058'
p1443
aS'Others'
p1444
aa(lp1445
S'Mahendra Karma'
p1446
aS'7111'
p1447
aS'Others'
p1448
aa(lp1449
S'Karma'
p1450
aS'7126'
p1451
aS'Others'
p1452
aa(lp1453
S'Salwa Judum'
p1454
aS'7132'
p1455
aS'Others'
p1456
aa(lp1457
S'M. Gupta'
p1458
aS'7242'
p1459
aS'Others'
p1460
aa(lp1461
S'Ram Niwas'
p1462
aS'7294'
p1463
aS'Others'
p1464
aa(lp1465
S'RK Vij'
p1466
aS'7318'
p1467
aS'Comment'
p1468
aa(lp1469
S'Sonia Gandhi'
p1470
aS'7341'
p1471
aS'Comment'
p1472
aa(lp1473
S'Manmohan Singh'
p1474
aS'7362'
p1475
aS'Comment'
p1476
aa(lp1477
S'Mahendra Karma'
p1478
aS'7384'
p1479
aS'Others'
p1480
aa(lp1481
S'Vidya Charan Shukla'
p1482
aS'7447'
p1483
aS'Others'
p1484
aa(lp1485
S'Nand Kumar Patel'
p1486
aS'7479'
p1487
aS'Others'
p1488
aa(lp1489
S'Vij'
p1490
aS'7487'
p1491
aS'Comment'
p1492
aa(lp1493
S'Vij'
p1494
aS'7511'
p1495
aS'Comment'
p1496
aa(lp1497
S'Vij'
p1498
aS'7564'
p1499
aS'Comment'
p1500
aa(lp1501
S'Mao Zedong'
p1502
aS'7670'
p1503
aS'Others'
p1504
aa(lp1505
S'Singh'
p1506
aS'7692'
p1507
aS'Others'
p1508
aasS'TIM'
p1509
(lp1510
S'3.18 pm : 1'
p1511
aS'2.45 pm : 248'
p1512
aS'1pm : 278'
p1513
aS'2.43 pm : 322'
p1514
aS'11 am : 387'
p1515
aS'. 1.55 pm:401'
p1516
aS'1.55 pm:402'
p1517
aS'11.03 am : 502'
p1518
aS'9.29 am : 604'
p1519
aS'8.47 am : 728'
p1520
aS'6.57 pm : 838'
p1521
aS'5.46 pm : 989'
p1522
aS'10.50 am : 1161'
p1523
aS'9.00 am : 1326'
p1524
aS'1.30 pm : 1447'
p1525
aS'11.40 am : 1555'
p1526
aS'10.30 am : 1614'
p1527
aS'4 . 20 pm : 1788'
p1528
aS'4 . 00 pm : 1836'
p1529
aS'2 . 00 pm : 2011'
p1530
aS'12.10 pm : 2084'
p1531
aS'24 hours : 2187'
p1532
aS'11.39 am : 2192'
p1533
aS'10.33 am : 2336'
p1534
aS'9.47 am : 2514'
p1535
aS'7.25 pm : 2771'
p1536
aS'6:05 pm : 2913'
p1537
aS'4 . 10 pm : 3084'
p1538
aS'morning : 3161'
p1539
aS'2pm : 3163'
p1540
aS'afternoon : 3166'
p1541
aS'3 . 35 pm : 3176'
p1542
aS'3 . 20 pm : 3266'
p1543
aS'3.12 pm : 3361'
p1544
aS'1 . 43 pm : 3570'
p1545
aS'1 . 35 pm : 3676'
p1546
aS'1 . 30 pm : 3726'
p1547
aS'evening : 3757'
p1548
aS'1 . 06 pm : 3833'
p1549
aS'12 . 51 pm : 3985'
p1550
aS'12:15 pm : 4062'
p1551
aS'11 . 25 am : 4195'
p1552
aS'night : 4250'
p1553
aS'morning : 4264'
p1554
aS'11 . 20 am : 4268'
p1555
aS'12 noon : 4379'
p1556
aS'11 . 00 : 4385'
p1557
aS'10 . 30 am : 4552'
p1558
aS'9 . 45 am : 4688'
p1559
aS'9 . 10 am : 4740'
p1560
aS'9 . 00 am : 4839'
p1561
aS'3.57 pm : 4938'
p1562
aS'3.29 pm : 5033'
p1563
aS'two-minute : 5198'
p1564
aS'3.04 pm : 5214'
p1565
aS'2.42 pm : 5405'
p1566
aS'1.49 pm : 5560'
p1567
aS'1.42 pm : 5660'
p1568
aS'1.08 pm : 5853'
p1569
aS'12.39 pm : 6142'
p1570
aS'12.18 pm : 6250'
p1571
aS'11.52 am : 6407'
p1572
aS'morning : 6463'
p1573
aS'11.19 am : 6508'
p1574
aS'10.10 am : 6643'
p1575
aS'9.25 am : 6716'
p1576
aS'9.15 am : 6901'
p1577
aS'8.09 am : 6987'
p1578
asS'hot_setting'
p1579
S''
p1580
sS'DAT'
p1581
(lp1582
S'Saturday:25'
p1583
aS'Thursday:96'
p1584
aS'Saturday:304'
p1585
aS'Friday:498'
p1586
aS'Wednesday:520'
p1587
aS"Saturday 's:744"
p1588
aS'Saturday:744'
p1589
aS'30 May : 833'
p1590
aS'23 May : 918'
p1591
aS'Friday:967'
p1592
aS'Saturday:1234'
p1593
aS'Wednesday:1318'
p1594
aS'3 June : 1429'
p1595
aS'29 May : 1443'
p1596
aS'Wednesday:1468'
p1597
aS'Saturday:1488'
p1598
aS'Saturday:1594'
p1599
aS'Saturday ,:1594'
p1600
aS'28 May : 1783'
p1601
aS'Tuesday:1805'
p1602
aS'Saturday:1832'
p1603
aS'Tuesday:1864'
p1604
aS'Saturday:2374'
p1605
aS'May 28 , 2013 : 2508'
p1606
aS'Saturday:2533'
p1607
aS'27 May : 2767'
p1608
aS'25 May : 2946'
p1609
aS'Saturday:3208'
p1610
aS'Saturday:3305'
p1611
aS'Monday:3428'
p1612
aS'Monday:3697'
p1613
aS'Saturday:3756'
p1614
aS'Monday:3859'
p1615
aS'Saturday:4249'
p1616
aS'Sunday:4263'
p1617
aS'Sunday:4314'
p1618
aS'Monday:4402'
p1619
aS'Saturday:4422'
p1620
aS'Sunday:4446'
p1621
aS'Sunday:4517'
p1622
aS'May 27 , 2013 : 4546'
p1623
aS'Monday:4578'
p1624
aS'Saturday:4589'
p1625
aS'Monday:4669'
p1626
aS'Sunday:4920'
p1627
aS'May:4934'
p1628
aS'2011:5523'
p1629
aS'Saturday:5693'
p1630
aS'Saturday:6284'
p1631
aS'May:6361'
p1632
aS'May:6864'
p1633
aS'Saturday:6948'
p1634
aS'Saturday:7248'
p1635
aS'December:7609'
p1636
aS'1967:7659'
p1637
aS'2010:7728'
p1638
asS'death'
p1639
g1580
sS'title'
p1640
S'Chhattisgarh attack live: Shinde calls for joint operations in all Naxal areas'
p1641
sS'org_unorg'
p1642
S'ORGANISED'
p1643
sS'terror_group'
p1644
(lp1645
g1580
asS'content'
p1646
V3.18 pm : Shinde calls for joint operations in all Naxal areas . . Home Minister Sushilkumar Shinde who is Chhattisgarh has said that Saturday 's attack on a Congress rally was ` bigger than an act of terrorism ' and said that thehe was in favour of joint operations in all Naxal affected areas . `` Whatever the ideology may be , we can not agree to an ideology where one human being kills another human being '' , he said . . . The Home Minister who returned from the United states on Thursday added that they would work together with Chhattisgarh Chief Minister Raman Singh in a judicial inquiry ordered by the state.The Minister added that the NIA had also begun its probe into the attack . . . Shinde also refused to get drawn into debates about the role of intelligence agencies in preventing the attack , saying that he was not sure at this stage if there was an intelligence failure or not . `` It looks like there have been some lapses , but until the inquiry is completed , it is too early to say '' , he said . . . He also refused to comment on the number of Naxals believed to have been killed in the attack . `` I do n't want to reveal the number of Naxals killed now . . this is n't the time for that '' , he said . . . 2.45 pm : Maoist cadres stopping civilian vehicles near attack site . . Maoists cadres have checked civilian vehicles crossing the state highway connecting Dantewada and Sukma in Chhattisgarh around 1pm , Times Now reported . The spot is 50 km away from the ambush site where a Congress convoy was attacked by the Maoists last Saturday . Security forces have been rushed to the spot where the checking took place . . . 2.43 pm Home Minister Sushilkumar Shinde visits Nand Kumar Patel 's family . . Union Home Minister Sushilkumar Shinde today visited the family of slain Chhattisgarh Congress chief Nand Kumar Patel at his native Nadeli village in Raigarh district and assured them of justice and his full support . . . Shinde , accompanied by senior officials , landed at Jindal airport in Raigarh around 11 am from Delhi and directly went to the village by helicopter . . . 1.55 pm : VC Shukla 's condition showing signs of improvement . . Former Union Minister and Congress leader VC Shukla , who was injured in the Chhattisgarh Maoist attack , has shown further signs of improvement , but he is still critical and remains in ICU . . . `` He has shown further signs of improvement during the last 24 hours . He is still in ICU and remains critical . A team of multi-specialist doctors is taking care of him , '' AK Dubey , Medical Superintendent of Medanta Hospital told reporters on Friday . . . 11.03 am : Sushilkumar Shinde reaches Chhattisgarh . . Home Minister Sushilkumar Shinde who arrived in India on Wednesday has reached Chhattisgarh , six days after the attack that wiped out most of the Congress state leadership . . . Shinde justified his decision to stay in the US despite the attack , because he had an eye appointment and said that he had ` prior permission ' to extend his visit . . . The Home Minister will meet with the state Congress leadership , and will also be briefed on the latest developments in the NIA investigation . . . 9.29 am : What 's the point in calling Naxals terrorists ? . . Congress Tribal Affairs Minister KC Deo has said that calling Naxals ` terrorists ' will not serve any purpose . . . `` Calling them terrorists ... is it going to help or improve the situation ? You can use different terms but ultimately you have to get at the root of the problem ... we have to preempt such happenings in the future and also take the path of development and empower the people , `` Deo told NDTV . . . His comments are almost in direct contrast to that of Minister of Rural Affairs Minister Jairam Ramesh who said that the Naxals were terrorists . . . 8.47 am : 27-30 kg explosives used in ambush . . An initial forensic report on Saturday 's Chhattisgarh ambush reportedly states that about 27-30 kg of explosive - ammonium nitrate - was used in the attack by Maoists which killed 24 people including two Senior Congress leaders Mahendra Karma and Nand Kumar Patel , NDTV reported . . . The report also says that explosives were triggered using a ` command wire mechanism ' . . . Meanwhile Zee News in its own report , said that aelectric detonator was used along with a command wire in the attack . . . Updates for 30 May end . . 6.57 pm : Stayed in US for doctor 's appointment , says Shinde . . Shinde , seeking to explain his extended leave of absence in the United States despite the Naxal attack in Chhattisgarh that wiped out almost the whole State party leadership , said that he extended his stay in the US because he had an appointment with a world famous ` doctor of the eye ' . `` I took prior permission to stay in US beyond 23 May '' , he said . . . `` There was no need for me to issue a statement because I was already in touch with my officials '' , he added in response to a question . However he stated that he would go to Chhattisgarh on Friday , and repeated the Congress stance that the attack was in fact an `` attack on democracy '' . . . 5.46 pm : Salwa Judum was not our idea , says Cong . . Bhakta Charan Das of the Congress party in Chhattisgarh has said that contrary to popular belief , Congress was not in support of the controversial Salwa Judum programme . `` Salwa Judum was never our idea , it was the idea of Raman Singh '' , said Das in comments to CNN-IBN . . He also called for the resignation of the Chief Minister . The Congress has been upping calls for the resignation of Raman Singh and his government over the brutal Naxal attack which literally wiped out the top state leadership of the party . The Naxals later said in a statement that Karma was the main target of the attack because of Salwa Judum . . . `` We never supported salwa judum . We had our differences over salwa judum with Karma '' , Das was quoted as saying . Tribal affairs minister KC Deo had also criticised the initiative earlier / . . 10.50 am : Indian Air Force upping surveillance in Naxal areas . . The Indian Air Force is upgrading its surveillance capacity in Maoist-hit areas after the recent failure of unmanned aerial vehicles ( UAVs ) operating in Chhattisgarh , reported DNA . . . According to the report , . . UAVs operating in the area failed to detect the movements of more than 200 Maoists who ambushed a Congress convoy on Saturday , an IAF officer said . At least 27 people were killed and 30 injured in the attack . . . So , the IAF is now planning to acquire foliage penetrating radars to deploy in Maoist-hit areas under thick forest cover . Technology is the key to solving this ( Maoist ) problem ... . . the IAF is in the process of acquiring sophisticated equipment for better surveillance capability in thick forests , Air Chief Marshal NAK Browne said here on Wednesday . . . More here . . 9.00 am : Cong to boycott CM 's all-party meet . . Raman Singh , the Chief Minister of Chhattisgarh has called for an all-party meeting today to discuss the Bastar bloodbath which killed 24 people including senior Congress leaders . . . However Congress is set to boycott the meeting sticking to their demand for Raman Singh 's resignation for the security lapse . . . The Chhatisgarh government has also appointed a one-man commission under High Court judge Justice Prashant Mishra for a judicial enquiry into the attack . A special session of the Chhattisgarh Assembly has also been called on 3 June to discuss the Naxal issue . . . End of updates for 29 May . . 1.30 pm : Raman Singh had prior knowledge about Naxal attack , alleges MP Congress . . Madhya Pradesh Congress on Wednesday criticised Chhattisgarh Chief Minister Raman Singh over the Maoist attack on Congress ' Parivartan Yatra in Sukma district on Saturday , which left 27 people , including senior party leaders , dead . . . `` Maoists killed Congress leaders by taking their names . The Chief Minister had prior knowledge about the Naxal attack , but failed to provide security to the Parivartan Yatra , '' Madhya Pradesh Congress Committee president Kantilal Bhuria alleged while talking to PTI . Read more here . . . 11.40 am : Justice Mishra to probe attack , submit report in 3 months . . Justice Prashant Mishra a sitting judge of the Chhattisgarh High Court has been appointed to probe the attack on a Congress envoy last Saturday , media reports said . . . Mishra , will submit his report within three months . . . 10.30 am : Multiple bullet wounds , over 78 stab wounds on Karma . . The report adds that Karma suffered 78 stab wounds , wounds made with a blunt object and also bullet wounds . . . For Divesh Patel , son of Nandkumar Patel , the post mortem reports say that he had an axe injury on his head and that lead to his death . But there are also bullet wounds found on his body . Nandkumar Patel was also stabbed multiple times and there were also bullet wounds . . . Previously PTI reported quoting Congress leader Daulat Rohra , who had survived the attack as saying that when Karma identified himself to the Maoists , they took him aside and shot him dead , pumping in about 50 rounds . . . The post mortem report of Mahender Karma and Nandkumar Patel have been submitted to the Chattisgarh police . The post mortem reports add he bled to death . . . Updates for 28 May end . . 4 . 20 pm : Congress demands resignation of Raman Singh . . The Congress party on Tuesday demanded that Chhattisgarh Chief Minister Raman Singh resign immediately following a failure on his government 's security lapse leading to the death of 27 people on Saturday . . . 4 . 00 pm : Let NIA investigate , no one will be spared , says RPN Singh . . Minister of State for Home RPN Singh on Tuesday conceded that there was a security lapse but assured that action would be taken against those responsible irrespective of whether they were central , state or police officals . . . Speaking exclusively to CNN-IBN , Singh said the attack was extremely unfortunate . . . `` There was a security lapse , the Standard Operating Procedures which were issued were not followed by the state police ... anyone found guilty will not be spared . '' . . Singh also said it is unfortunate that the NIA was brought under suspicion by the BJP . `` It is unfortunate that our offices are being dismantled by BJP . . they ( NIA ) have a good record in solving cases . . just because Malegaon was investigated by NIA to put the blame on them is unfortunate , '' the minister said . . . 2 . 00 pm : Shinde should return to India immediately : BJP . . BJP has demanded that Home Minister Sushilkumar Shinde , who is on an official visit to the United States , return to the country immediately . . . Speaking to the media , BJP spokesperson Prakash Javadekar said , `` Home Minister Shinde should take the first flight available and return to the country . '' . . 12.10 pm : Slight improvement in former union minister VC Shukla 's condition . . In a medical bulletin issued by the Vedanta Hospital , Dr Naresh Trehan said that former union minister VC Shukla 's condition continued to be critical though he has shown slight improvements . `` He seems to have showed some improvement with respect to kidney function etc. . However , given his age and the trauma that he has gone through , we have to be very cautious , '' said Trehan . . . He also expressed hope that Shukla will show some definite improvements in next 24 hours . . . 11.39 am : We will win war against naxals , says Jairam Ramesh . . Rural development Minister Jairam Ramesh has slammed against intellectuals who ` romanticise maoists ' . In an exclusive interview with CNN-IBN , Ramesh said that there was nothing ideological about Maoists anymore , as they were extortionists and criminals . . . He added that there was no possibility of initiating a dialogue with them as they did not believe in Indian democracy . `` We will win the war against Naxalism . We will persevere we will bring political devt , we will use force '' , he said . . . In the interview Ramesh added that the rest of the country needed to take an example from Andhra Pradesh and raise Greyhound commandos in every state , backed up by job opportunities and welfare . . 10.33 am : With 24 dead how can Maoists say they were only targeting a few people ? asks RPN Singh . . MoS ( Home ) RPN Singh hit out at the Maoist statement claiming responsibility for Saturday 's attack on a Congress rally saying , `` 24 are dead and they are trying to say they were targeting only a few people '' . . The Maoists in their statement named Mahendra Kumar , Nand Kumar Patel and VC Shukla as the main targets of the attack and said they `` regret the killing of innocents and lower Congress functionaries '' . . Singh added that the government had set up an NIA team , adding that the Home Secretary is already in Raipur for a security review . . RPN Singh says `` I m nt going to respond to letter written by Maoists '' . Bravo ! Y shd d Govt of India react to what thugs fm Bharat write . . T S Sudhir ( @Iamtssudhir ) May 28 , 2013 . . 9.47 am : Maoists officially claim responsibility for Chhattisgarh attack . . The Maoists have officially claimed responsibility for Saturday 's attack on a Congress rally that killed 27 people including architect of the controversial Salwa Judum movement , Mahendra Karma . . . In a four-page media statement , Gudsa Usendi , spokesperson for the Dandakaranya Special Zonal Committee , CPI ( Maoist ) , said that Karma was the prime target of the attack along with state Congress leader Nand Kumar Patel . . . `` Nand Kumar Patel was suppressing people . It was in his tenure in the Centre when paramilitary forces were deployed in the Bastar area . Mahendra Karma and his family have been exploiting tribals for long . They were into land grabbing and committed atrocities on tribals . Mahendra Karma had such a good relationship with CM Raman Singh , that the media used to call him the 16th minister of his cabinet , '' the statement said . . . `` Karma was the prime target along with Nand Kumar Patel and VC Shukla but we regret killing of innocents and lower Congress functionaries , '' it added . . . In the note , the rebels have also put forward seven key demands . They want Operation Green Hunt to end and paramilitary forces to be sent back from Dandakaranya . They also want revolutionaries and `` innocent '' tribals to be released from jail unconditionally . . . End of updates for 27 May . . 7.25 pm : Chhattisgarh Chief Minister Raman Singh . . `` The massive attack on democracy is not just scary , it is also shameful . NIA is co-investigating the case . The NIA , the Chhattisgarh Policeinquiryand the judicialinquirywill run parallel to each other . Bastar is bigger than the state of Kerala . Thousands of kilometres of highways are there . The difference between police stations are over 100 kilometers . It is not easy to secure such a huge region . The Centre and state must act together . Despite the incident , the morale of the forces are high and they are going to interior places . The total action plan must be jointly made by the state and the Centre . We will keep the fight on fordemocracy , '' Singh told Times Now . . . 6:05 pm : Additional Director General of Police says adequate security provided . . Additional Director Mukesh Gupta says that they had provided adequate security for the Congress rally which was attacked on 25 May that resulted in the deaths of many senior party leaders . . . `` Security was provided to the Congress convoy , '' he told CNN-IBN in an exclusive interview . . . The senior police official said that except for a couple of incidents in the past they had not witnessed such an attempt on a political convoy before . . . Gupta also denied that there was a leak of information from within the security personnel which allowed the Maoists to plan the attack . . . `` The movement is so well known and there are moles everywhere , '' he said . . . He promised to have a proper inquiry and if someone was found to not have done their duty properly , then action would be taken . . . 4 . 10 pm : Congress says MP bandh a success . . The day-long Madhya Pradesh shutdown call given by the Congress to protest Saturdays Naxal attack on its leaders in Chhattisgarh was a success , the party said . . . Barring few incidents of police action against the Congress workers , the bandh was successful throughout the state , state Congress media department chairman Manak Agrawal said . . . The shutdown was from morning to 2pm in the afternoon . . . Read more here . . . 3 . 35 pm : CPI-Maoist 's Sudarshan behind attack ? . . A central member of the CPI-Maoist Katakam Sudarshan , could be behind the attack on a Congress convoy on Saturday , CNN-IBN reported . . . Sources have told the channel that the Intelligence Bureau had sent a generic alert that Sudarshan was active in the area and could be planning something . But since the warning was not specific , the forces at the ground could not take effective measures to counter it . . . 3 . 20 pm : Nand Kumar Patel , son honoured with state funeral . . The final rites of Chhattisgarh Congress chief Nand Kumar Patel and his son Dinesh , who were killed in the Naxal attack on Saturday , were performed with state honours at their native village Nandeli in Raigarh district on day . . . Patel 's younger son Umesh performed the rites , in the presence of Congress Vice President Rahul Gandhi , Chief Minister Raman Singh and a host of other leaders . Read more here . . . 3.12 pm : NIA team reach attack site at Jagdalpur . . A special team from the National Investigation Agency have now arrived in Jagdalpur , the scene of the attack on a Congress convoy that killed 27 people , including two state leaders . . . The NIA has taken over the investigation . . . Congress leader and former Chhattisgarh chief minister Ajit Jogi on Monday said a full investigation will be conducted on whether the attack was pre-planned and whether someone else was involved . . . `` NIA will investigate this Naxal attack , whether it was pre-planned , whether someone else was involved or not we will get to know , '' he said . . . Jogi said he was n't aware of convoy routes having been changed and said he heard of them from reports . `` Do n't know much about routes being changed as I was traveling by a helicopter , but I heard in news reports . '' . . `` Party leadership is shocked , the people who were with us in the growth of Chattisgarh are gone . '' . . Meanwhile a special MHA team will go to Chhattisgarh tomorrow to review strategy . . . 1 . 43 pm : 2,000 paramilitary jawans sent to Chhattisgarh . . The Centre has rushed 2,000 additional paramilitary force personnel to Chhattisgarh in the wake of the Naxal attack on Congress leaders that claimed 27 lives , including that of PCC chief Nand Kumar Patel . . . The decision was taken following a request from the Chhattisgarh government which sought more forces to provide security to political leaders as well as to engage in anti-Naxal operations , official sources said today , adding that the units will be in the state in a day or two . Read more here . . . 1 . 35 pm : Home Ministry sends advisory to all Naxal hit states . . Ministry of Home Affairs on Monday issued an advisory to all nine Naxal affected states asking them to revamp security to political workers and ensure that their activities are not affected . . . 1 . 30 pm : Major security lapses at Jagdalpur . . There were major security lapses at Jagdalpur , Chhattisgarh , where Naxalites ambushed a Congress party convoy on Saturday evening . . . Here are some of the lapses : . . 1 Maoist build-up on the darba plateau went undetected . . 2 State highway 211 from Sukma to Jagdalpur should have been sanitised . . 3 There were no sweeps to disrupt Maoist build-ups . . 4 All Congress leaders in Sukma travelled together ; presenting a plum target . . 5 There were no means of getting in reinforcements . . . 1 . 06 pm : NIA will probe all angles , says Ajit Jogi . . Congress leader and former Chhattisgarh chief minister Ajit Jogi on Monday said a full investigation will be conducted on whether the attack was pre-planned and whether someone else was involved . . . `` NIA will investigate this Naxal attack , whether it was pre-planned , whether someone else was involved or not we will get to know , '' he said . . . Jogi said he was n't aware of convoy routes having been changed and said he heard of them from reports . `` Do n't know much about routes being changed as I was traveling by a helicopter , but I heard in news reports . '' . . `` Party leadership is shocked , the people who were with us in the growth of Chattisgarh are gone . '' . . 12 . 51 pm : No plans to move-in Army , says AK Antony . . Amid reports of the Army moving in to assist security forces in Naxal hit areas of Chhattisgarh , Defence Minister AK Antony has denied any such proposal . . . `` There is no proposal on Army joining anti-Naxal operations in Chhattisgarh , but we will extend all support to State and para-military forces , '' he said . . . 12:15 pm : Doctors say Shukla 's health on ventilator , treatment to take long . . Naresh Trehan of the Medanta Hospital where Congress leader VC Shukla is admitted has said that the politician leader 's condition is still critical . . . `` He is critical and will remain so for a few days.But he is stable and we hope he will be fine , '' he said . . . Shukla had three gunshot wounds , two in the chest and one in the abdomen , the doctor said . . . He said that Shukla was conscious but was on the ventilator as he continued to battle for his life . Given his age , his recovery could take a long time , the doctor said . . . 11 . 25 am : Sonia expected to call meeting over Naxal attack . . Congress Chief Sonia Gandhi is expected to call a meeting later today to take stock of the investigations into the Naxal attack on Congress leaders in Chhattisgarh . . . Congress Vice President Rahul Gandhi arrived at Chhattisgarh late Saturday night while Prime Minister Manmohan Singh and Congress Chief Sonia Gandhi arrived early Sunday morning . . . 11 . 20 am : VC Shukla still critical . . Doctors at Medanta Hosital in Gurgaon have said that the condition of senior Congress leader VC Shukla continues to be critical . He is recovering at the Gurgaon hospital where he was operated upon on Sunday . . . Shukla suffered three bullet injuries , with a bullet scraping through his lung and liver causing serious damage . Doctors have also said that that his condition is stable , but he is still not out of danger . . . A team of specialised doctors regularly check on Shukla and a detailed update of his health is expected at around 12 noon today . . . 11 . 00 am : Congress calls for bandh in Madhya Pradesh . . Congress workers on Monday attempted to enforce a complete bandh in Madhya Pardesh and Chhattisgarh following the attack on a Congress rally on Saturday . . . Youth Congress workers were seen trying to convince shops in Bhopal to shut down in support . . . On Sunday , the Congress party in Madhya Pradesh called for a bandh , condemning the attack . . . `` We strongly condemn the dastardly act that killed number of our former colleagues . As Chhattisgarh was a part of Madhya Pradesh before the division , therefore gave a bandh call tomorrow in protest , '' state Congress president Kantilal Bhuria and Leader of Opposition , Ajay Singh told reporters on Sunday . . . Congress calls for statewide bandh in Madhya Pradesh , party workers force some shops to shutdown in Bhopal twitter.com/ANI_news/statu . . ANI ( @ANI_news ) May 27 , 2013 . . 10 . 30 am : Action will be taken against whoever is responsible , says RPN Singh . . Minister of State Home RPN Singh on Monday said there were security lapses in the Chhattisgarh attack on Saturday that killed 27 people . . . The minister also said that action will be taken against whoever is responsible . '' There have been security lapses . . I have asked the NIA to probe . The buck has to stop somewhere . Punishment has to be meted out to someone , whoever is responsible . . at the centre level or state level , '' he said . . . Meanwhile , Home Secretary RK Singh on Monday said that a NIA team will be leaving for Darba Ghat to investigate the attack . . . 9 . 45 am : Mastermind behind Congress attack identified ? . . A Maoist leader Gagannam also known as Ramesh has been reportedly identified as the ` mastermind ' of the attack , Times Now reported . The Sukma attack at a Congress rally left 27 people dead . . . 9 . 10 am : Slain Chhattisgarh Cong chiefs son seeks CBI probe . . Umesh Patel , the son of Chhattisgarh Congress chief Nand Kumar Patel who was killed in Saturdays Naxal attack , has sought CBI probe into the incident suspecting political conspiracy behind the tragedy . . . Talking with mediapersons at his native village Nandeli , Umesh said the fact that Naxals were asking for senior party leaders by calling out their names indicated that there was some political conspiracy behind the killing of his father and brother . Read more here . . . 9 . 00 am : NIA to probe Chhattisgarh attack , says Shinde . . The National Investigation Agency ( NIA ) will probe the Maoist attack on Congress leaders in Chhattisgarh after the Centre received a go-ahead from Chief Minister Raman Singh for the same . . . `` I have spoken to Raman Singh and he has agreed for probe by NIA ... the probe by the central agency '' , Union Home Minister Sushilkumar Shinde told PTI on Sunday from New York . Read more here . . . Updates for 26 May end . . 3.57 pm : PM , Sonia visit injured VC Shukla in hospital . . Prime Minister Manmohan Singh and Congress President Sonia Gandhi visited injured Congress leader VC Shukla in hospital . . . The Prime Minister and Congress President had stopped by the Medanta hospital in Delhi shortly after returning from Raipur , where they addressed Congress leaders in Chhattisgarh and visited the injured in hospital . . . Earlier BJP leader LK Advani who visited Shukla said that the 84-year-old Congress leader was stable after an operation . . . https://twitter.com/PMOIndia/status/338616953885319170 . . 3.29 pm : Congress calls for bandh in Madhya Pradesh . . Strongly condemning the naxal attack in neighbouring Chhattisgarh , the Opposition Congress in Madhya Pradesh today gave a call for state bandh in protest . . . `` We strongly condemn the dastardly act that killed number of our former colleagues . As Chhattisgarh was a part of Madhya Pradesh before the division , therefore gave a bandh call tomorrow in protest , '' state Congress president Kantilal Bhuria and Leader of Opposition , Ajay Singh told reporters . . . `` It was a major lapse as the state government failed to provide security to the ` Parivartan Yatra ' despite having knowledge about the threat to the Congress leaders from the naxalites , '' Bhuria said . . . They demanded the immediate resignation of Chhattisgarh Chief Minister Raman Singh as well as the imposition of President 's rule in the state . . . The Congress leaders also observed a two-minute silence as a mark of respect to those killed in the attack . . . 3.04 pm : Congress leaderNand Kumar Patel 's body taken to Raipur airport for Sonia , PM to pay tribute . . The bodies of slain leader of opposition in the Chhattisgarh assembly Nand Kumar Patel and his son Dinesh Patel , who were among those killed by Maoist insurgents , were brought to the Raipur airport for Prime Minister Manmohan Singh and UPA chairperson Sonia Gandhi to pay their tributes before leaving for Delhi , reports IANS . . . The Congress leader and his son were among those killed at Darbha Ghati Valley , about 35 km from Sukma in the restive Bastar region , in an attack by Maoists waiting in ambush as a convoy of Congress leaders returning to Raipur from a rally passed a forested area . . . The prime minister and the UPA chairperson who visited victims of the attack and addressed the state Congress party , are set to head straight to the Medanta Hospital in Gurgaon to enquire after the health of former union minister Vidya Charan Shukla , 84 , who received three bullet injuries in the attack . . . 2.42 pm : Attack proves Naxals have no respect for democracy : Jairam Ramesh . . Minister for Rural development Jairam Ramesh has said that the Naxal attack in Chhattisgarh proves that the Maoists have no respect for democracy . . . `` I was present with all those who have been targetted and killed . This proves that Naxals have no respect for democracy . It is the aam sabha that give oxygen to democracy . This is an attack on democracy and an attack on the Congress party - the party had taken steps to encourage political processes on the ground . Naxals were scared of the impact of development on villagers . . . In 2011 oct when I visited Bijapur first , out of 157 , only 80 villages had MRNEGS . Yesterday when in I was in bijapur , I saw it is present in 111 villages . . . 1.49 pm : VC Shukla is stable , says LK Advani . . BJP leader LK Advani who visited veteran Congress leader VC Shukla in hospital has said that he is stable . Speaking to reporters outside Gurgaon 's Medanta hospital where Shukla is being treated , Advani also said that the naxal attack on a Congress rally in Chhattisgarh was `` one of the most audacious attacks '' . . . `` Need concerted efforts to tackle Naxal menace in Chhattisgarh . I have also spoken to the PM regarding this issue '' , he added . . . 1.42 pm : Chhattisgarh on high alert , MHA seeks report . . The Ministry of Home Affairs has sought a report in to the deadly Maoist attack on a Congress rally on Saturday that has killed 27 people . The state has also been put on high alert . . . The MHA reportedly wants the Chhattisgarh state government to detail the kind of security that was in place for the Congress rally . . . The attack has puts question marks on the elaborate sophisticated and costly intelligence and security set up that the police have acquired and put in place over the years . Besides helicopters , it includes a drone . The Additional Director General Police in charge of intelligence had no answer as to why the ambush party of 500 plus armed men could not be detected in time . . . Even worse is the fact that this sort of assembly was not even foreseen in spite of reports that the Maoists had met ten days back before deciding to attack the leaders during the yatra . . . ( More on that here ) . . 1.08 pm : PM announces compensation to dead and injured . . Prime Minister Manmohan Singh has announced an ex gratia relief of Rs 5 lakh from the PM 's National Relief Fund to the families of those who have lost their lives in the Chhattisgarh naxal attack and Rs 50000 from the Prime Minister 's National Relief Fund to those injured , tweeted the PMO . . . The Prime Minister as well as Congress leader Sonia Gandhi who arrived in Raipur earlier this morning , have visited the injured in hospital and also addressed a condolence meeting at the Congress state headquarters . . . Meanwhile Congress workers today disrupted rail and road servcies during the day-long bandh called by the party in Chhattisgarh to press for the dismissal of the BJP government in the wake of deadly Maoist attack . . . The bandh has also been called to demand imposition of President 's rule in the state following alleged breakdown in law and order , Chhattisgarh Congress media cell president Shailesh Trivedi had said yesterday . . . In support of the day-long bandh , the party workers disrupted road and rail traffic in several parts of the state . . . Congressmen stopped movement of trains in Raigarh , the home district of state Congress chief Nand Kumar Patel , who was killed in the attack . The agitating workers also ransacked the PWD rest house of Kharsiya , the native place of Patel , police said . . . While private buses and autorickshaws went off the roads , all shops and business establishments remained closed in several prominent cities including Raipur , Bilaspur , Rajnandgaon , Korba and others . . . 12.39 pm : Sonia Gandhi salutes bravery of Chhattisgarh leaders . . Congress President Sonia Gandhi has told a meeting of Chhattisgarh Congress leaders that she saluted their bravery and shared their pain . . . `` I appreciate courage and bravery of Congress leaders in Chhattisgarh '' , she was quoted as saying by PTI . . . Meanwhile this image of Gandhi and the Prime Minister meeting victims was tweeted out by the PMO account : . . https://twitter.com/PMOIndia/status/338552257937301504 . . The Prime Minister meanwhile said , `` Those who have lost their lives in this barbaric attack are martyrs of democracy '' . . . 12.18 pm : ` These lives must not go in vain ' , says PM . . Prime Minister Manmohan Singh who is in Raipur , has visited Congress members and policemen injured in Saturday 's Naxal attack and said the incident underscored the need to keep fighting Naxal extremism . `` We have to be more determined in fighting Naxal extremism . These lives should not go in vain '' , he was quoted as saying on his official Twitter account . . . `` This incident should be treated as an inspiration in our fight against forces of extremism and violence.I pray for the souls of the departed . May God give their family members strength in this moment of grief '' , he added . . . The PMO account also tweeted out a picture of the Prime Minister interacting with injured at the hospital : . . https://twitter.com/PMOIndia/status/338543498712186881 . . https://twitter.com/PMOIndia/status/338548742779179008 . . 11.52 am : Cong leader VC Shukla remains critical , says hospital . . Veteran Congress leader VC Shukla , who suffered gunshot injuries in the Maoist attack on a Congress rally in Chhattisgarh remains critical , said hospital authorities . . . The 84-year-old Shukla was airlifted to Gurgaon 's Medanta hospital from Chhattisgarh this morning . . . Dr AK Dubey from Medanta confirmed that Shukla is being treated for gunshot wounds , and said his condition remained critical . . . Meanwhile Delhi Chief Minister Sheila Dikshit has visited Shukla at hospital , NDTV reported . . . 11.19 am : Manmohan Singh , Sonia Gandhi reach Raipur . . Prime Minister Manmohan Singh and Sonia Gandhi have reached Raipur in the wake of the deadly Maoist attack that has killed 27 people in Dharba Ghat . . . The PM accompanied by the Congress President are first scheduled to visit the hospital where those injured in cross fire are being treated to take stock of the situation . Later they will visit the Chhattisgarh Congress Headquarters , Gandhi Bhavan where acondolencemeetinghas been scheduled to take place . . . The deadly attack wiped out all the top leadership in the state including Salwa Judum architect Mahendra Karma and state Congress leader Nand Kumar . . . The two are also likely to meet state leaders in the Chhattisgarh government . . . 10.10 am : Tewari calls for detailed investigation into incident . . Minister of Information and Broadcasting Manish Tewari , has conveyed his sympathies to the families of those killed in the Chhattisgarh attack , saying that `` as someone who has witnessed terrorism first hand , I can understand what families are going through '' . . . Tewari added that the entire incident needs detailed investigation and examination . . . 9.25 am : Modi condemns attack , calls for zero tolerance policy . . Even as political parties closed ranks to condemn the attack on a Congress rally in Chhattisgarh , state Chief Minister Raman Singh has reached the Jagdalpur area , along with four ministers . . . A massive man-hunt is underway for the perpetrators of the attack that wiped out the top Congress leadership in the state and killed 27 people . . . Meanwhile Gujarat Chief Minister Narendra Modi has termed the attack in Darbha Ghati as gruesome , and said that the government needed to adopt a zero tolerance policy towards Terrorism and Naxalism . . . `` Time has come to adopt policy of Zero Tolerance towards Terrorism & Naxalism . Condolences to families of deceased & respects to policemen who laid down their lives . My prayers with the injured . May they recover quickly . The need of the hour is to stand together as a nation and vow to fight this menace that threatens our democracy , he said on his Twitter feed . . . 9.15 am : Chhattisgarh police want border with Madhya Pradesh sealed . . The Chhattisgarh police have reportedly asked their counterparts in Madhya Pradesh to help them seal the border of the state , so that the Naxals responsible for the attack that killed 27 people on Saturday can not escape across the border . . . A massive manhunt is underway in the area to find the perpetrators of the attack that practically wiped out the top Congress leadership in the state . . . 8.09 am : Congress Chief Nandkumar 's body found . . The body of Congress leader Nand kumar has been discovered in Darbha Ghat , reported CNN-IBN . The body had reportedly been found in a ditch . A badly mutilated body found next to him is believed to be of his son who was abducted along him . . . However police have not officially confirmed this . . . Nandkumar Patel was executed after he was abducted . Along with his body and the body believed to be that of his son , police recovered 10 bodies , taking the death toll of the attack to 27 . . . Meanwhile doctors have said that an autopsy will be carried out on Mahendra Karma , who is believed to be the main target of this attack . Karma was the man behind the Salwa Judum operation that was carried out against the Maoists in the state . He had been pulled out of his official vehicle and executed at point blank range , news channels reported . . . Congress members have declared three days of mourning and called for a bandh in the state . . . Background to attack : . . About 200 suspected Maoist rebels set off a land mine and opened fire on a convoy of cars carrying local leaders and supporters of Indias ruling Congress party in Chhattisgarh , killing at least 17 people and wounding 24 others , police said . . . Senior police officer M. Gupta said the attack occurred Saturday in the Sukma area , about 245 kilometers south of Raipur , the capital of Chhattisgarh state . . . The convoy was attacked in a forested area as the Congress members were returning to the state capital after attending a party rally , said Ram Niwas , a state police official . . . Two state party leaders and five police officers were among those killed , said RK Vij , another police officer . Other victims were party supporters . . . We are devastated , said Congress party President Sonia Gandhi , who denounced what she called a dastardly attack on the countrys democratic values . . . Prime Minister Manmohan Singh said the government would take firm action against the perpetrators . . . Police identified one of those killed as Mahendra Karma , a Congress leader in Chhattisgarh state who founded a local militia , the Salwa Judum , to combat the Maoist rebels . The anti-rebel militia had to be reined in after it was accused of atrocities against tribals indigenous people at the bottom of Indias rigid social ladder . . . The wounded Congress party members , among them 83-year-old Vidya Charan Shukla , a former federal minister , were taken to a local hospital , police said . . . The suspected rebels also took away a local party leader , Nand Kumar Patel , and his son , Vij said . . . The Press Trust of India news agency said the attackers blocked the road by felling trees . . . Vij said the suspected rebels triggered a land mine blast that blew up one of the cars in the convoy . The attackers then fired at the Congress party leaders and their supporters before fleeing . . . Police recovered 16 bodies from the scene , and 25 wounded people were hospitalized , Vij said . One of the wounded later died in the hospital , he said . . . The Congress party is the main opposition party in the state . It has stepped up political activities ahead of state elections scheduled to be held by December . . . The rebels , known as Naxalites , have been fighting the central government for more than four decades , demanding land and jobs for tenant farmers and the poor . They take their name from the West Bengal village of Naxalbari where the movement began in 1967 . The fighters were inspired by Chinese Communist revolutionary leader Mao Zedong and have drawn support from displaced tribal populations opposed to corporate exploitation and official corruption . . . Prime Minister Singh has called the rebels Indias biggest internal security threat . They are now present in 20 of Indias 28 states and have thousands of fighters , according to the Home Ministry . . . In 2010 , Maoist rebels killed 27 paramilitary troops in an ambush in a dense forest in the Narayanpur district of Chhattisgarh state .
p1647
sS'injured'
p1648
g1580
sS'det_loc'
p1649
(lp1650
S'India'
p1651
aS'Chattisgarh'
p1652
ag1580
ag1580
aS'Chhattisgarh'
p1653
asS'O'
p1654
(lp1655
S'naxal:53'
p1656
aS'home minister:87'
p1657
aS'27-30 kg explosives:731'
p1658
aS'ambush:736'
p1659
aS'salwa judum:992'
p1660
aS'government:1820'
p1661
aS'home minister:2066'
p1662
aS'home secretary:2456'
p1663
aS'salwa judum movement:2549'
p1664
aS'buses:6110'
p1665
aS'autorickshaws:6112'
p1666
asS'unexpl'
p1667
(lp1668
g1580
asS'ocassion'
p1669
g1580
sS'link'
p1670
S'http://www.firstpost.com/india/chhattisgarh-attack-live-shinde-calls-for-joint-operations-in-all-naxal-areas-815801.html'
p1671
sS'date'
p1672
S'31-05-2013'
p1673
sS'target'
p1674
g1580
sS'hot_spot'
p1675
S'Chhattisgarh'
p1676
sS'delivery_mod'
p1677
g1580
sS'delivery_met'
p1678
S'PLANTED'
p1679
sS'expl'
p1680
(lp1681
g1580
asS'ORG'
p1682
(lp1683
(lp1684
S'Congress'
p1685
aS'30'
p1686
aS'Others'
p1687
aa(lp1688
S'NIA'
p1689
aS'121'
p1690
aS'Others'
p1691
aa(lp1692
S'Maoist'
p1693
aS'251'
p1694
aS'Others'
p1695
aa(lp1696
S'Maoists'
p1697
aS'261'
p1698
aS'Others'
p1699
aa(lp1700
S'Congress'
p1701
aS'296'
p1702
aS'Others'
p1703
aa(lp1704
S'Maoists'
p1705
aS'302'
p1706
aS'Others'
p1707
aa(lp1708
S'Congress'
p1709
aS'419'
p1710
aS'Others'
p1711
aa(lp1712
S'Chhattisgarh Maoist'
p1713
aS'429'
p1714
aS'Others'
p1715
aa(lp1716
S'Medanta Hospital'
p1717
aS'493'
p1718
aS'Others'
p1719
aa(lp1720
S'Congress'
p1721
aS'536'
p1722
aS'Others'
p1723
aa(lp1724
S'Congress'
p1725
aS'585'
p1726
aS'Others'
p1727
aa(lp1728
S'NIA'
p1729
aS'599'
p1730
aS'Others'
p1731
aa(lp1732
S'Congress'
p1733
aS'618'
p1734
aS'Others'
p1735
aa(lp1736
S'NDTV'
p1737
aS'697'
p1738
aS'Others'
p1739
aa(lp1740
S'Maoists'
p1741
aS'766'
p1742
aS'Others'
p1743
aa(lp1744
S'Congress'
p1745
aS'774'
p1746
aS'Others'
p1747
aa(lp1748
S'NDTV'
p1749
aS'783'
p1750
aS'Others'
p1751
aa(lp1752
S'Zee News'
p1753
aS'807'
p1754
aS'Others'
p1755
aa(lp1756
S'Congress'
p1757
aS'972'
p1758
aS'Others'
p1759
aa(lp1760
S'Congress'
p1761
aS'1008'
p1762
aS'Others'
p1763
aa(lp1764
S'Congress'
p1765
aS'1020'
p1766
aS'Others'
p1767
aa(lp1768
S'Congress'
p1769
aS'1069'
p1770
aS'Others'
p1771
aa(lp1772
S'Indian Air Force'
p1773
aS'1164'
p1774
aS'Others'
p1775
aa(lp1776
S'Indian Air Force'
p1777
aS'1175'
p1778
aS'Others'
p1779
aa(lp1780
S'Maoists'
p1781
aS'1227'
p1782
aS'Others'
p1783
aa(lp1784
S'Congress'
p1785
aS'1231'
p1786
aS'Others'
p1787
aa(lp1788
S'IAF'
p1789
aS'1237'
p1790
aS'Others'
p1791
aa(lp1792
S'IAF'
p1793
aS'1259'
p1794
aS'Others'
p1795
aa(lp1796
S'Maoist'
p1797
aS'1286'
p1798
aS'Others'
p1799
aa(lp1800
S'IAF'
p1801
aS'1293'
p1802
aS'Others'
p1803
aa(lp1804
S'Congress'
p1805
aS'1364'
p1806
aS'Others'
p1807
aa(lp1808
S'Congress'
p1809
aS'1370'
p1810
aS'Others'
p1811
aa(lp1812
S'Chhatisgarh government'
p1813
aS'1394'
p1814
aS'Others'
p1815
aa(lp1816
S'High Court'
p1817
aS'1403'
p1818
aS'Others'
p1819
aa(lp1820
S'MP'
p1821
aS'1460'
p1822
aS'Others'
p1823
aa(lp1824
S'Congress'
p1825
aS'1461'
p1826
aS'Others'
p1827
aa(lp1828
S'Madhya Pradesh Congress'
p1829
aS'1464'
p1830
aS'Others'
p1831
aa(lp1832
S'Maoist'
p1833
aS'1477'
p1834
aS'Others'
p1835
aa(lp1836
S'Congress'
p1837
aS'1480'
p1838
aS'Others'
p1839
aa(lp1840
S'Maoists'
p1841
aS'1505'
p1842
aS'Others'
p1843
aa(lp1844
S'Congress'
p1845
aS'1507'
p1846
aS'Others'
p1847
aa(lp1848
S'PTI'
p1849
aS'1547'
p1850
aS'Others'
p1851
aa(lp1852
S'Congress'
p1853
aS'1591'
p1854
aS'Others'
p1855
aa(lp1856
S'PTI'
p1857
aS'1710'
p1858
aS'Others'
p1859
aa(lp1860
S'Congress'
p1861
aS'1713'
p1862
aS'Others'
p1863
aa(lp1864
S'Congress'
p1865
aS'1793'
p1866
aS'Others'
p1867
aa(lp1868
S'Congress'
p1869
aS'1802'
p1870
aS'Others'
p1871
aa(lp1872
S'NIA'
p1873
aS'1842'
p1874
aS'Others'
p1875
aa(lp1876
S'state police'
p1877
aS'1930'
p1878
aS'Others'
p1879
aa(lp1880
S'NIA'
p1881
aS'1952'
p1882
aS'Others'
p1883
aa(lp1884
S'BJP'
p1885
aS'1959'
p1886
aS'Others'
p1887
aa(lp1888
S'BJP'
p1889
aS'1972'
p1890
aS'Others'
p1891
aa(lp1892
S'NIA'
p1893
aS'1977'
p1894
aS'Others'
p1895
aa(lp1896
S'NIA'
p1897
aS'1994'
p1898
aS'Others'
p1899
aa(lp1900
S'BJP'
p1901
aS'2023'
p1902
aS'Others'
p1903
aa(lp1904
S'BJP'
p1905
aS'2026'
p1906
aS'Others'
p1907
aa(lp1908
S'BJP'
p1909
aS'2059'
p1910
aS'Others'
p1911
aa(lp1912
S'Vedanta Hospital'
p1913
aS'2106'
p1914
aS'Others'
p1915
aa(lp1916
S'Maoists'
p1917
aS'2237'
p1918
aS'Others'
p1919
aa(lp1920
S'Maoists'
p1921
aS'2344'
p1922
aS'Others'
p1923
aa(lp1924
S'Maoist'
p1925
aS'2369'
p1926
aS'Others'
p1927
aa(lp1928
S'Congress'
p1929
aS'2379'
p1930
aS'Others'
p1931
aa(lp1932
S'Maoists'
p1933
aS'2404'
p1934
aS'Others'
p1935
aa(lp1936
S'Congress'
p1937
aS'2436'
p1938
aS'Others'
p1939
aa(lp1940
S'NIA'
p1941
aS'2450'
p1942
aS'Others'
p1943
aa(lp1944
S'Maoists'
p1945
aS'2482'
p1946
aS'Others'
p1947
aa(lp1948
S'Maoists'
p1949
aS'2517'
p1950
aS'Others'
p1951
aa(lp1952
S'Maoists'
p1953
aS'2527'
p1954
aS'Others'
p1955
aa(lp1956
S'Congress'
p1957
aS'2538'
p1958
aS'Others'
p1959
aa(lp1960
S'Dandakaranya Special Zonal Committee'
p1961
aS'2570'
p1962
aS'Others'
p1963
aa(lp1964
S'CPI'
p1965
aS'2575'
p1966
aS'Others'
p1967
aa(lp1968
S'Maoist'
p1969
aS'2577'
p1970
aS'Others'
p1971
aa(lp1972
S'Congress'
p1973
aS'2593'
p1974
aS'Others'
p1975
aa(lp1976
S'Congress'
p1977
aS'2705'
p1978
aS'Others'
p1979
aa(lp1980
S'NIA'
p1981
aS'2797'
p1982
aS'Others'
p1983
aa(lp1984
S'NIA'
p1985
aS'2804'
p1986
aS'Others'
p1987
aa(lp1988
S'Congress'
p1989
aS'2940'
p1990
aS'Others'
p1991
aa(lp1992
S'Congress'
p1993
aS'2967'
p1994
aS'Others'
p1995
aa(lp1996
S'Congress'
p1997
aS'3089'
p1998
aS'Others'
p1999
aa(lp2000
S'MP'
p2001
aS'3091'
p2002
aS'Others'
p2003
aa(lp2004
S'Congress'
p2005
aS'3106'
p2006
aS'Others'
p2007
aa(lp2008
S'Congress'
p2009
aS'3135'
p2010
aS'Others'
p2011
aa(lp2012
S'Congress'
p2013
aS'3147'
p2014
aS'Others'
p2015
aa(lp2016
S'Congress'
p2017
aS'3205'
p2018
aS'Others'
p2019
aa(lp2020
S'Intelligence Bureau'
p2021
aS'3222'
p2022
aS'Others'
p2023
aa(lp2024
S'Congress'
p2025
aS'3287'
p2026
aS'Others'
p2027
aa(lp2028
S'Congress'
p2029
aS'3338'
p2030
aS'Others'
p2031
aa(lp2032
S'NIA'
p2033
aS'3364'
p2034
aS'Others'
p2035
aa(lp2036
S'National Investigation Agency'
p2037
aS'3378'
p2038
aS'Others'
p2039
aa(lp2040
S'Congress'
p2041
aS'3394'
p2042
aS'Others'
p2043
aa(lp2044
S'NIA'
p2045
aS'3409'
p2046
aS'Others'
p2047
aa(lp2048
S'Congress'
p2049
aS'3418'
p2050
aS'Others'
p2051
aa(lp2052
S'NIA'
p2053
aS'3452'
p2054
aS'Others'
p2055
aa(lp2056
S'Congress'
p2057
aS'3602'
p2058
aS'Others'
p2059
aa(lp2060
S'Congress'
p2061
aS'3752'
p2062
aS'Others'
p2063
aa(lp2064
S'Maoist'
p2065
aS'3771'
p2066
aS'Others'
p2067
aa(lp2068
S'Congress'
p2069
aS'3808'
p2070
aS'Others'
p2071
aa(lp2072
S'NIA'
p2073
aS'3838'
p2074
aS'Others'
p2075
aa(lp2076
S'Congress'
p2077
aS'3849'
p2078
aS'Others'
p2079
aa(lp2080
S'NIA'
p2081
aS'3883'
p2082
aS'Others'
p2083
aa(lp2084
S'Medanta Hospital'
p2085
aS'4083'
p2086
aS'Others'
p2087
aa(lp2088
S'Congress'
p2089
aS'4086'
p2090
aS'Others'
p2091
aa(lp2092
S'Congress'
p2093
aS'4210'
p2094
aS'Others'
p2095
aa(lp2096
S'Congress'
p2097
aS'4233'
p2098
aS'Others'
p2099
aa(lp2100
S'Congress'
p2101
aS'4240'
p2102
aS'Others'
p2103
aa(lp2104
S'Congress'
p2105
aS'4257'
p2106
aS'Others'
p2107
aa(lp2108
S'Congress'
p2109
aS'4292'
p2110
aS'Others'
p2111
aa(lp2112
S'Congress'
p2113
aS'4390'
p2114
aS'Others'
p2115
aa(lp2116
S'Congress'
p2117
aS'4399'
p2118
aS'Others'
p2119
aa(lp2120
S'Congress'
p2121
aS'4419'
p2122
aS'Others'
p2123
aa(lp2124
S'Congress'
p2125
aS'4427'
p2126
aS'Others'
p2127
aa(lp2128
S'Congress'
p2129
aS'4449'
p2130
aS'Others'
p2131
aa(lp2132
S'Congress'
p2133
aS'4503'
p2134
aS'Others'
p2135
aa(lp2136
S'Congress'
p2137
aS'4521'
p2138
aS'Others'
p2139
aa(lp2140
S'NIA'
p2141
aS'4623'
p2142
aS'Others'
p2143
aa(lp2144
S'NIA'
p2145
aS'4673'
p2146
aS'Others'
p2147
aa(lp2148
S'Congress'
p2149
aS'4695'
p2150
aS'Others'
p2151
aa(lp2152
S'Sukma'
p2153
aS'4727'
p2154
aS'Others'
p2155
aa(lp2156
S'Congress'
p2157
aS'4731'
p2158
aS'Others'
p2159
aa(lp2160
S'CBI'
p2161
aS'4751'
p2162
aS'Others'
p2163
aa(lp2164
S'CBI'
p2165
aS'4777'
p2166
aS'Others'
p2167
aa(lp2168
S'NIA'
p2169
aS'4844'
p2170
aS'Others'
p2171
aa(lp2172
S'National Investigation Agency'
p2173
aS'4855'
p2174
aS'Others'
p2175
aa(lp2176
S'NIA'
p2177
aS'4859'
p2178
aS'Others'
p2179
aa(lp2180
S'Maoist'
p2181
aS'4864'
p2182
aS'Others'
p2183
aa(lp2184
S'Congress'
p2185
aS'4867'
p2186
aS'Others'
p2187
aa(lp2188
S'NIA'
p2189
aS'4902'
p2190
aS'Others'
p2191
aa(lp2192
S'PTI'
p2193
aS'4918'
p2194
aS'Others'
p2195
aa(lp2196
S'Congress'
p2197
aS'4957'
p2198
aS'Others'
p2199
aa(lp2200
S'Congress'
p2201
aS'4963'
p2202
aS'Others'
p2203
aa(lp2204
S'Congress'
p2205
aS'4976'
p2206
aS'Others'
p2207
aa(lp2208
S'Medanta hospital'
p2209
aS'4982'
p2210
aS'Others'
p2211
aa(lp2212
S'Congress'
p2213
aS'4995'
p2214
aS'Others'
p2215
aa(lp2216
S'BJP'
p2217
aS'5009'
p2218
aS'Others'
p2219
aa(lp2220
S'Congress'
p2221
aS'5020'
p2222
aS'Others'
p2223
aa(lp2224
S'Congress'
p2225
aS'5036'
p2226
aS'Others'
p2227
aa(lp2228
S'Congress'
p2229
aS'5056'
p2230
aS'Others'
p2231
aa(lp2232
S'Congress'
p2233
aS'5110'
p2234
aS'Others'
p2235
aa(lp2236
S'Congress'
p2237
aS'5154'
p2238
aS'Others'
p2239
aa(lp2240
S'Congress'
p2241
aS'5193'
p2242
aS'Others'
p2243
aa(lp2244
S'Congress'
p2245
aS'5217'
p2246
aS'Others'
p2247
aa(lp2248
S'Maoist'
p2249
aS'5262'
p2250
aS'Others'
p2251
aa(lp2252
S'UPA'
p2253
aS'5277'
p2254
aS'Others'
p2255
aa(lp2256
S'IANS'
p2257
aS'5291'
p2258
aS'Others'
p2259
aa(lp2260
S'Congress'
p2261
aS'5296'
p2262
aS'Others'
p2263
aa(lp2264
S'Maoists'
p2265
aS'5325'
p2266
aS'Others'
p2267
aa(lp2268
S'Congress'
p2269
aS'5333'
p2270
aS'Others'
p2271
aa(lp2272
S'UPA'
p2273
aS'5353'
p2274
aS'Others'
p2275
aa(lp2276
S'Congress'
p2277
aS'5365'
p2278
aS'Others'
p2279
aa(lp2280
S'Medanta Hospital'
p2281
aS'5375'
p2282
aS'Others'
p2283
aa(lp2284
S'Hospital'
p2285
aS'5376'
p2286
aS'Others'
p2287
aa(lp2288
S'Minister for Rural development'
p2289
aS'5421'
p2290
aS'Others'
p2291
aa(lp2292
S'Maoists'
p2293
aS'5438'
p2294
aS'Others'
p2295
aa(lp2296
S'Congress'
p2297
aS'5493'
p2298
aS'Others'
p2299
aa(lp2300
S'BJP'
p2301
aS'5573'
p2302
aS'Others'
p2303
aa(lp2304
S'Congress'
p2305
aS'5580'
p2306
aS'Others'
p2307
aa(lp2308
S'Congress'
p2309
aS'5616'
p2310
aS'Others'
p2311
aa(lp2312
S'MHA'
p2313
aS'5668'
p2314
aS'Others'
p2315
aa(lp2316
S'Maoist'
p2317
aS'5686'
p2318
aS'Others'
p2319
aa(lp2320
S'Congress'
p2321
aS'5690'
p2322
aS'Others'
p2323
aa(lp2324
S'MHA'
p2325
aS'5713'
p2326
aS'Others'
p2327
aa(lp2328
S'state government'
p2329
aS'5718'
p2330
aS'Others'
p2331
aa(lp2332
S'Congress'
p2333
aS'5732'
p2334
aS'Others'
p2335
aa(lp2336
S'Maoists'
p2337
aS'5827'
p2338
aS'Others'
p2339
aa(lp2340
S'National Relief Fund'
p2341
aS'5883'
p2342
aS'Others'
p2343
aa(lp2344
S'National Relief Fund'
p2345
aS'5909'
p2346
aS'Others'
p2347
aa(lp2348
S'PMO'
p2349
aS'5918'
p2350
aS'Others'
p2351
aa(lp2352
S'Congress'
p2353
aS'5928'
p2354
aS'Others'
p2355
aa(lp2356
S'Congress'
p2357
aS'5954'
p2358
aS'Others'
p2359
aa(lp2360
S'Congress'
p2361
aS'5961'
p2362
aS'Others'
p2363
aa(lp2364
S'BJP'
p2365
aS'5986'
p2366
aS'Others'
p2367
aa(lp2368
S'Maoist'
p2369
aS'5993'
p2370
aS'Others'
p2371
aa(lp2372
S'Chhattisgarh Congress'
p2373
aS'6022'
p2374
aS'Others'
p2375
aa(lp2376
S'Congress chief'
p2377
aS'6072'
p2378
aS'Others'
p2379
aa(lp2380
S'Congress chief'
p2381
aS'6072'
p2382
aS'Others'
p2383
aa(lp2384
S'Congress'
p2385
aS'6072'
p2386
aS'Others'
p2387
aa(lp2388
S'PWD'
p2389
aS'6091'
p2390
aS'Others'
p2391
aa(lp2392
S'Congress'
p2393
aS'6154'
p2394
aS'Others'
p2395
aa(lp2396
S'Congress'
p2397
aS'6185'
p2398
aS'Others'
p2399
aa(lp2400
S'PTI'
p2401
aS'6197'
p2402
aS'Others'
p2403
aa(lp2404
S'PMO'
p2405
aS'6217'
p2406
aS'Others'
p2407
aa(lp2408
S'Congress'
p2409
aS'6278'
p2410
aS'Others'
p2411
aa(lp2412
S'PMO'
p2413
aS'6381'
p2414
aS'Others'
p2415
aa(lp2416
S'Congress'
p2417
aS'6422'
p2418
aS'Others'
p2419
aa(lp2420
S'Maoist'
p2421
aS'6433'
p2422
aS'Others'
p2423
aa(lp2424
S'Congress'
p2425
aS'6437'
p2426
aS'Others'
p2427
aa(lp2428
S'NDTV'
p2429
aS'6503'
p2430
aS'Others'
p2431
aa(lp2432
S'Maoist'
p2433
aS'6536'
p2434
aS'Others'
p2435
aa(lp2436
S'Congress'
p2437
aS'6554'
p2438
aS'Others'
p2439
aa(lp2440
S'Congress'
p2441
aS'6585'
p2442
aS'Others'
p2443
aa(lp2444
S'Congress'
p2445
aS'6620'
p2446
aS'Others'
p2447
aa(lp2448
S'Congress'
p2449
aS'6742'
p2450
aS'Others'
p2451
aa(lp2452
S'Congress'
p2453
aS'6781'
p2454
aS'Others'
p2455
aa(lp2456
S'Twitter'
p2457
aS'6896'
p2458
aS'Others'
p2459
aa(lp2460
S'Congress'
p2461
aS'6979'
p2462
aS'Others'
p2463
aa(lp2464
S'Congress'
p2465
aS'6990'
p2466
aS'Others'
p2467
aa(lp2468
S'Congress'
p2469
aS'7001'
p2470
aS'Others'
p2471
aa(lp2472
S'Maoists'
p2473
aS'7141'
p2474
aS'Others'
p2475
aa(lp2476
S'Congress'
p2477
aS'7168'
p2478
aS'Others'
p2479
aa(lp2480
S'Maoist'
p2481
aS'7196'
p2482
aS'Others'
p2483
aa(lp2484
S'Congress'
p2485
aS'7219'
p2486
aS'Others'
p2487
aa(lp2488
S'Congress'
p2489
aS'7279'
p2490
aS'Others'
p2491
aa(lp2492
S'Congress'
p2493
aS'7338'
p2494
aS'Others'
p2495
aa(lp2496
S'Congress'
p2497
aS'7388'
p2498
aS'Others'
p2499
aa(lp2500
S'Maoist'
p2501
aS'7406'
p2502
aS'Others'
p2503
aa(lp2504
S'Congress'
p2505
aS'7440'
p2506
aS'Others'
p2507
aa(lp2508
S'Press Trust of India'
p2509
aS'7493'
p2510
aS'Others'
p2511
aa(lp2512
S'Congress'
p2513
aS'7538'
p2514
aS'Others'
p2515
aa(lp2516
S'Congress'
p2517
aS'7583'
p2518
aS'Others'
p2519
aa(lp2520
S'Maoist'
p2521
aS'7730'
p2522
aS'Others'
p2523
aas.