(dp0
S'LOC'
p1
(lp2
(lp3
S'HYDERABAD'
p4
aS'5'
p5
aS'Neutral'
p6
aa(lp7
S'Mumbai'
p8
aS'204'
p9
aS'Neutral'
p10
aa(lp11
S'Hyderabad'
p12
aS'212'
p13
aS'Neutral'
p14
aasS'PER'
p15
(lp16
(lp17
S'M. Rajeev'
p18
aS'1'
p19
aS'Others'
p20
aa(lp21
S'P. Chandra Sekharan'
p22
aS'27'
p23
aS'Others'
p24
aa(lp25
S'Chandra Sekharan'
p26
aS'61'
p27
aS'Comment'
p28
aS'Others'
p29
aa(lp30
S'Chandra Sekharan'
p31
aS'145'
p32
aS'Comment'
p33
aasS'TIM'
p34
(lp35
sS'hot_setting'
p36
S''
p37
sS'DAT'
p38
(lp39
S'Sunday:68'
p40
aS'1993:206'
p41
asS'death'
p42
S'40'
p43
sS'title'
p44
S'Set up national explosives control bureau'
p45
sS'org_unorg'
p46
g37
sS'terror_group'
p47
(lp48
g37
asS'content'
p49
VM. Rajeev . . HYDERABAD : In the light of the twin bomb blasts that claimed over 40 lives in the city , eminent forensic scientist P. Chandra Sekharan has urged the Centre to establish a National Explosives Control Bureau -LRB- NECB -RRB- on the lines of the Narcotics Control Bureau . . . Condemning the bomb blasts , Prof. Chandra Sekharan said in a statement on Sunday that the time had come for the Centre to tighten the web of manufacture , possession , transport and use of explosives in the country as a whole . . . Though there were rules and legislation to prevent unlawful and malicious use of explosives , terrorists and other anti-social elements were not only using explosives meant for civilian activities , but also those exclusively meant for military operations , he said . . . Prof. Chandra Sekharan , who submitted proposals to the Centre for setting up the NECB and permitting the States to enact stringent laws , acknowledged that the country could not ban the production of explosives because they had their rightful uses in both civilian and military operations . . . However , the serial bomb blasts starting from those in Mumbai in 1993 to the present ones in Hyderabad showed the inadequacy in the system to prevent blasts in crowded places . . . Citing stringent regulations on the use of explosives that were in force in several countries , he said there were no similar provisions in any State or city in the country .
p50
sS'injured'
p51
g37
sS'det_loc'
p52
(lp53
S'India'
p54
aS'Andhra Pradesh'
p55
ag37
aS'Hyderabad'
p56
ag37
asS'O'
p57
(lp58
S'light:9'
p59
aS'twin bomb blasts:12'
p60
aS'claimed:16'
p61
aS'city:22'
p62
aS'eminent forensic scientist:24'
p63
aS'urged:31'
p64
aS'Centre:33'
p65
aS'establish:35'
p66
aS'bomb blasts:57'
p67
aS'statement:66'
p68
aS'Centre:76'
p69
aS'tighten:78'
p70
aS'web of manufacture:80'
p71
aS'possession:84'
p72
aS'transport:86'
p73
aS'explosives:90'
p74
aS'country:93'
p75
aS'rules:103'
p76
aS'legislation:105'
p77
aS'prevent unlawful:107'
p78
aS'malicious:110'
p79
aS'explosives:113'
p80
aS'terrorists:115'
p81
aS'anti-social elements:118'
p82
aS'explosives:124'
p83
aS'civilian activities:127'
p84
aS'military operations:136'
p85
aS'proposals:150'
p86
aS'Centre:153'
p87
aS'permitting:160'
p88
aS'States:162'
p89
aS'enact:164'
p90
aS'stringent laws:165'
p91
aS'acknowledged:168'
p92
aS'country:171'
p93
aS'explosives:178'
p94
aS'rightful uses:183'
p95
aS'civilian and military operations:187'
p96
aS'serial bomb blasts:197'
p97
aS'inadequacy:215'
p98
aS'prevent blasts:220'
p99
aS'stringent regulations:229'
p100
aS'explosives:235'
p101
aS'in force:238'
p102
aS'provisions:250'
p103
aS'State:253'
p104
asS'unexpl'
p105
(lp106
g37
asS'ocassion'
p107
g37
sS'link'
p108
S'http://www.thehindu.com/todays-paper/article1899988.ece'
p109
sS'date'
p110
S'25-08-2007'
p111
sS'target'
p112
S'PUBLIC PLACES'
p113
sS'hot_spot'
p114
g37
sS'delivery_mod'
p115
g37
sS'delivery_met'
p116
S'PLANTED'
p117
sS'expl'
p118
(lp119
g37
asS'ORG'
p120
(lp121
(lp122
S'National Explosives Control Bureau'
p123
aS'37'
p124
aS'Others'
p125
aa(lp126
S'NECB'
p127
aS'42'
p128
aS'Others'
p129
aa(lp130
S'Narcotics Control Bureau'
p131
aS'49'
p132
aS'Others'
p133
aa(lp134
S'NECB'
p135
aS'158'
p136
aS'Others'
p137
aas.