(dp0
S'LOC'
p1
(lp2
(lp3
S'Bhubaneshwar'
p4
aS'1'
p5
aS'Neutral'
p6
aa(lp7
S'Odisha'
p8
aS'22'
p9
aS'Event'
p10
aa(lp11
S'Malkangiri'
p12
aS'24'
p13
aS'Event'
p14
aa(lp15
S'Chhattisgarh'
p16
aS'50'
p17
aS'Neutral'
p18
aa(lp19
S'Chhattisgarh'
p20
aS'73'
p21
aS'Neutral'
p22
aa(lp23
S'Bhubaneswar'
p24
aS'208'
p25
aS'Neutral'
p26
aasS'PER'
p27
(lp28
(lp29
S'Soumendra Priyadarshi'
p30
aS'130'
p31
aS'Comment'
p32
aa(lp33
S'Akhileswar Singh'
p34
aS'137'
p35
aS'Comment'
p36
aa(lp37
S'Devdutt Singh'
p38
aS'184'
p39
aS'Comment'
p40
aasS'TIM'
p41
(lp42
sS'hot_setting'
p43
S''
p44
sS'DAT'
p45
(lp46
S'May:75'
p47
asS'death'
p48
S'14'
p49
sS'title'
p50
S'14 Maoists killed in encounter in Odisha'
p51
sS'org_unorg'
p52
S'ORGANISED'
p53
sS'terror_group'
p54
(lp55
g44
asS'content'
p56
VBhubaneshwar : At least 14 Maoists , including a woman , have been killed in a fierce encounter with police in Odisha 's Malkangiri district today , an official said.The gun battle , which lasted for several minutes , took place in a forest close to the border with Chhattisgarh . The Maoists who were killed are suspected to have been involved in the attack on a convoy of Congress leaders in Chhattisgarh in May this year.Today 's encounter was carried out jointly by a team of Special Operations Group -LRB- SOG -RRB- and District Voluntary Force -LRB- DVF -RRB- which raided the site and retaliated when the extremists fired at them . `` Fourteen Maoists were killed . Arms were also seized , '' Inspector General of Police Soumendra Priyadarshi told IANS.Malkangiri Superintendent of Police Akhileswar Singh , who led the operation , said some explosive materials , arms and ammunition as well as Maoist literature were seized from the site.Describing the operation as a major success in the drive against left-wing extremists in the region , Deputy Inspector General of Police Devdutt Singh said a massive search operation has been launched in the forest after the encounter.Malkangiri , over 600 kilometres from state capital of Bhubaneswar , is a known Maoist stronghold . .
p57
sS'injured'
p58
g44
sS'det_loc'
p59
(lp60
S'India'
p61
aS'Orissa'
p62
ag44
aS'Bhubaneshwar'
p63
aS'Odisha'
p64
asS'O'
p65
(lp66
S'police:20'
p67
aS'Congress:70'
p68
aS'Police:129'
p69
aS'Police:136'
p70
aS'Deputy Inspector General:179'
p71
asS'unexpl'
p72
(lp73
g44
asS'ocassion'
p74
g44
sS'link'
p75
S'http://www.ndtv.com/india-news/14-maoists-killed-in-encounter-in-odisha-534577'
p76
sS'date'
p77
S'14-09-2013'
p78
sS'target'
p79
g44
sS'hot_spot'
p80
S'Odisha'
p81
sS'delivery_mod'
p82
g44
sS'delivery_met'
p83
g44
sS'expl'
p84
(lp85
g44
asS'ORG'
p86
(lp87
(lp88
S'Special Operations Group'
p89
aS'88'
p90
aS'Others'
p91
aa(lp92
S'SOG'
p93
aS'92'
p94
aS'Others'
p95
aa(lp96
S'District Voluntary Force'
p97
aS'95'
p98
aS'Others'
p99
aa(lp100
S'DVF'
p101
aS'99'
p102
aS'Others'
p103
aas.