(dp0
S'LOC'
p1
(lp2
(lp3
S'Varanasi'
p4
aS'19'
p5
aS'Event'
p6
aa(lp7
S'Jammu and Kashmir.A'
p8
aS'74'
p9
aS'Assoc Event Location'
p10
aa(lp11
S'Srinagar'
p12
aS'126'
p13
aS'Neutral'
p14
aasS'PER'
p15
(lp16
(lp17
S'Abu Feroz'
p18
aS'34'
p19
aS'Accused'
p20
aa(lp21
S'Feroz'
p22
aS'84'
p23
aS'Comment'
p24
aa(lp25
S'Muneer Ahmed Khan'
p26
aS'127'
p27
aS'Comment'
p28
aa(lp29
S'Khan'
p30
aS'163'
p31
aS'Comment'
p32
aasS'TIM'
p33
(lp34
sS'hot_setting'
p35
S''
p36
sS'DAT'
p37
(lp38
S'Thursday:10'
p39
aS'Tuesday:14'
p40
asS'death'
p41
S'20'
p42
sS'title'
p43
S'Aftermath: Lashkar-e-Qahab owns up for Varanasi blasts'
p44
sS'det_loc'
p45
(lp46
S'India'
p47
aS'Uttar Pradesh'
p48
aS'Varanasi'
p49
ag36
ag36
asS'terror_group'
p50
(lp51
S'LASHKAR-E-QAHAB'
p52
asS'content'
p53
VSRINAGAR : A hitherto unknown militant outfit Lashkar-e-Qahab on Thursday claimed responsibility for Tuesday 's twin blasts in Varanasi in which 20 people were killed and over 50 injured.A caller introducing himself as Abu Feroz , a spokesman of the outfit , contacted a private TV channel here claiming responsibility for the twin blasts and threatened similar attacks in other cities unless the government stopped its ` catch and kill ' campaign in Jammu and Kashmir.A staff of the TV channel said that Feroz spoke in Urdu with a heavy Punjabi accent.Police said they had heard the name of the militant outfit for the first time and that it could be an offshoot of some militant outfits active in the state . . . SSP Srinagar Muneer Ahmed Khan said they could not say with authority that the outfit was an offshoot of the Lashkar-e-Taiba . ` We will sift through the records to see if there is any link , ' Khan said .
p54
sS'injured'
p55
S'50'
p56
sS'org_unorg'
p57
S'ORGANISED'
p58
sS'O'
p59
(lp60
S'srinagar:1'
p61
aS'hitherto:4'
p62
aS'outfit:7'
p63
aS'outfit:41'
p64
aS'private TV channel:45'
p65
aS'catch and kill:68'
p66
aS'campaign:72'
p67
aS'urdu:87'
p68
aS'heavy Punjabi accent.Police:90'
p69
aS'militant:101'
p70
aS'offshoot:113'
p71
aS'SSP Srinagar:125'
p72
asS'unexpl'
p73
(lp74
g36
asS'ocassion'
p75
g36
sS'link'
p76
S'http://timesofindia.indiatimes.com/india/Aftermath-Lashkar-e-Qahab-owns-up-for-Varanasi-blasts/articleshow/1444021.cms?referral=PM'
p77
sS'date'
p78
S'07-03-2006'
p79
sS'target'
p80
S'CITIZENS'
p81
sS'hot_spot'
p82
g36
sS'delivery_mod'
p83
g36
sS'delivery_met'
p84
g36
sS'expl'
p85
(lp86
S'BOMB'
p87
asS'ORG'
p88
(lp89
(lp90
S'Lashkar-e-Qahab'
p91
aS'8'
p92
aS'Accused'
p93
aa(lp94
S'Lashkar-e-Taiba'
p95
aS'145'
p96
aS'Assoc Accused'
p97
aas.