(dp0
S'LOC'
p1
(lp2
(lp3
S'Assam'
p4
aS'28'
p5
aS'Neutral'
p6
aa(lp7
S'Guwahati'
p8
aS'33'
p9
aS'Neutral'
p10
aa(lp11
S'Bhangagarh'
p12
aS'74'
p13
aS'Neutral'
p14
aa(lp15
S'Bhootnath'
p16
aS'130'
p17
aS'Event'
p18
aa(lp19
S'Birubari Tiniali'
p20
aS'194'
p21
aS'Victim Location'
p22
aa(lp23
S'Assam'
p24
aS'244'
p25
aS'Neutral'
p26
aasS'PER'
p27
(lp28
(lp29
S'P. Chidambaram'
p30
aS'42'
p31
aS'Others'
p32
aa(lp33
S'G.M. Srivastava'
p34
aS'105'
p35
aS'Comment'
p36
aa(lp37
S'Amal Das'
p38
aS'114'
p39
aS'Victim'
p40
aa(lp41
S'Chidambaram'
p42
aS'136'
p43
aS'Others'
p44
aa(lp45
S'Manmohan Singh'
p46
aS'205'
p47
aS'Others'
p48
aa(lp49
S'Chidambaram'
p50
aS'226'
p51
aS'Others'
p52
aa(lp53
S'Tarun Gogoi'
p54
aS'275'
p55
aS'Others'
p56
aasS'TIM'
p57
(lp58
S'5.30 pm : 152'
p59
aS'3.30 pm : 188'
p60
asS'hot_setting'
p61
S''
p62
sS'DAT'
p63
(lp64
S'Thursday:36'
p65
aS'Friday:211'
p66
aS'January:223'
p67
aS'January 3:223'
p68
asS'death'
p69
S'5'
p70
sS'title'
p71
S'5 killed, 50 injured in New Year day bombings in Assam'
p72
sS'org_unorg'
p73
S'ORGANISED'
p74
sS'terror_group'
p75
(lp76
S'UNITED LIBERATION FRONT OF ASSAM (ULFA)'
p77
asS'content'
p78
VFive people were killed and over 50 injured in three blasts allegedly set off by insurgent outfit United Liberation Front of Asom ( ULFA ) in the Assam 's important city , Guwahati , on Thursday hours before Union Home Minister P. Chidambaram 's visit to the state.Three people were killed and 35 injured , including four women , when a bomb planted in front of a closed sweet shop exploded near upmarket Bhangagarh flyover on the busy Guwahati-Shillong road at around 5:45 pm.Two persons died on way to hospital while another succumbed to his injuries at the Guwahati Medical College Hospital , DGP G.M. Srivastava said.Two of the dead were identified as Amal Das and Kahil Sheikh.A bomb kept in a bicycle exploded at a market in the Bhootnath area , the route which Chidambaram was to take on his way from the airport , under Baralumukh police station around 5.30 pm in which two persons were killed and 12 others injured , official sources said.An improvised explosive devise ( IED ) kept in a Gauhati Municipal Corporation ( GMC ) dustbin went off at around 3.30 pm injuring three people in Birubari Tiniali area.The blasts came a day ahead of Prime Minister Manmohan Singh 's arrival here on Friday en route Shillong to inaugurate the Indian Science Congress there on January 3 . Chidambaram arrived at the Lokopriyo Gopinath Bordoloi international airport on a two-day visit to the state to review Assam 's law and order situation in the wake of deadly blasts that left 88 dead two months ago and attend a meeting of the Unified Command headed by Chief Minister Tarun Gogoi . .
p79
sS'injured'
p80
S'50'
p81
sS'det_loc'
p82
(lp83
S'India'
p84
aS'Assam'
p85
ag62
aS'guwahati'
p86
aS'Assam'
p87
asS'O'
p88
(lp89
S'Union Home Minister:39'
p90
aS'sweet shop:69'
p91
aS'DGP:104'
p92
aS'Prime Minister:203'
p93
aS'Lokopriyo Gopinath Bordoloi international airport:230'
p94
asS'unexpl'
p95
(lp96
g62
asS'ocassion'
p97
g62
sS'link'
p98
S'http://indiatoday.intoday.in/story/5+killed,+50+injured+in+New+Year+day+bombings+in+Assam/1/24137.html'
p99
sS'date'
p100
S'01-01-2009'
p101
sS'target'
p102
g62
sS'hot_spot'
p103
S'market in the Bhootnath,Assam'
p104
sS'delivery_mod'
p105
S'BYCICLE'
p106
sS'delivery_met'
p107
S'PLANTED'
p108
sS'expl'
p109
(lp110
S'IED'
p111
asS'ORG'
p112
(lp113
(lp114
S'United Liberation Front of Asom'
p115
aS'18'
p116
aS'Accused'
p117
aa(lp118
S'ULFA'
p119
aS'24'
p120
aS'Accused'
p121
aa(lp122
S'Guwahati Medical College Hospital'
p123
aS'99'
p124
aS'Others'
p125
aa(lp126
S'Baralumukh police'
p127
aS'148'
p128
aS'Others'
p129
aa(lp130
S'Gauhati Municipal Corporation'
p131
aS'177'
p132
aS'Others'
p133
aa(lp134
S'GMC'
p135
aS'181'
p136
aS'Others'
p137
aa(lp138
S'Indian Science Congress'
p139
aS'218'
p140
aS'Others'
p141
aas.