(dp0
S'LOC'
p1
(lp2
(lp3
S'NEW DELHI'
p4
aS'1'
p5
aS'Neutral'
p6
aa(lp7
S'Jaipur'
p8
aS'19'
p9
aS'Event'
p10
aa(lp11
S'Delhi'
p12
aS'67'
p13
aS'Neutral'
p14
aa(lp15
S'Aligargh'
p16
aS'71'
p17
aS'Neutral'
p18
aasS'PER'
p19
(lp20
(lp21
S'Ajay Chaturvedi'
p22
aS'57'
p23
aS'Comment'
p24
aasS'TIM'
p25
(lp26
sS'hot_setting'
p27
S''
p28
sS'DAT'
p29
(lp30
sS'death'
p31
S'60'
p32
sS'title'
p33
S'Four RAF companies rushed to Jaipur'
p34
sS'det_loc'
p35
(lp36
S'India'
p37
aS'Rajasthan'
p38
aS'Jaipur'
p39
ag28
ag28
asS'terror_group'
p40
(lp41
g28
asS'content'
p42
VNEW DELHI : About 400 personnel of the Rapid action Force -LRB- RAF -RRB- have been rushed to Jaipur following the serial blasts in the pink city which claimed 60 lives and left 150 injured . ` We have rushed four companies of the RAF to the pink city after the blasts ' , CRPF spokesperson Ajay Chaturvedi said . Two of these companies are from Delhi and two from Aligargh , he said .
p43
sS'injured'
p44
S'150'
p45
sS'org_unorg'
p46
g28
sS'O'
p47
(lp48
S'400 personnel:5'
p49
aS'rushed:17'
p50
aS'serial blasts:22'
p51
aS'pink city:26'
p52
aS'claimed 60 lives:29'
p53
aS'150 injured:34'
p54
aS'spokesperson:56'
p55
asS'unexpl'
p56
(lp57
g28
asS'ocassion'
p58
g28
sS'link'
p59
S'http://timesofindia.indiatimes.com/india/Four-RAF-companies-rushed-to-Jaipur/articleshow/3037475.cms?'
p60
sS'date'
p61
S'13-05-2008'
p62
sS'target'
p63
g28
sS'hot_spot'
p64
g28
sS'delivery_mod'
p65
g28
sS'delivery_met'
p66
g28
sS'expl'
p67
(lp68
g28
asS'ORG'
p69
(lp70
(lp71
S'Rapid action Force'
p72
aS'9'
p73
aS'Others'
p74
aa(lp75
S'RAF'
p76
aS'13'
p77
aS'Others'
p78
aa(lp79
S'RAF'
p80
aS'45'
p81
aS'Others'
p82
aa(lp83
S'CRPF'
p84
aS'55'
p85
aS'Others'
p86
aas.