(dp0
S'LOC'
p1
(lp2
(lp3
S'Bangalore'
p4
aS'4'
p5
aS'Event'
p6
aa(lp7
S'Kerala'
p8
aS'113'
p9
aS'Accused Location'
p10
aa(lp11
S'Bijapur'
p12
aS'118'
p13
aS'Accused Location'
p14
aa(lp15
S'Karnataka'
p16
aS'121'
p17
aS'Accused Location'
p18
aa(lp19
S'India'
p20
aS'164'
p21
aS'Neutral'
p22
aa(lp23
S'Kerala'
p24
aS'184'
p25
aS'Neutral'
p26
aa(lp27
S'Bangalore'
p28
aS'200'
p29
aS'Neutral'
p30
aa(lp31
S'Kerala'
p32
aS'233'
p33
aS'Assoc Event Location'
p34
aa(lp35
S'Bangalore'
p36
aS'257'
p37
aS'Accused Location'
p38
aa(lp39
S'Hyderabad .'
p40
aS'261'
p41
aS'Accused Location'
p42
aa(lp43
S'Hyderabad'
p44
aS'267'
p45
aS'Accused Location'
p46
aa(lp47
S'Kerala'
p48
aS'285'
p49
aS'Neutral'
p50
aa(lp51
S'Kerala'
p52
aS'307'
p53
aS'Assoc Event Location'
p54
aa(lp55
S'Bangalore'
p56
aS'343'
p57
aS'Event'
p58
aa(lp59
S'Bangalore'
p60
aS'368'
p61
aS'Event'
p62
aa(lp63
S'Bangalore'
p64
aS'377'
p65
aS'Accused Location'
p66
aa(lp67
S'Bangalore'
p68
aS'431'
p69
aS'Accused Location'
p70
aasS'PER'
p71
(lp72
(lp73
S'Riaz Bhatkal'
p74
aS'50'
p75
aS'Accused'
p76
aa(lp77
S'Mohammad Sami'
p78
aS'80'
p79
aS'Accused'
p80
aa(lp81
S'Safrudeen'
p82
aS'83'
p83
aS'Accused'
p84
aa(lp85
S'Abdul Sattar'
p86
aS'87'
p87
aS'Accused'
p88
aa(lp89
S'Munaaf'
p90
aS'90'
p91
aS'Accused'
p92
aa(lp93
S'Zakaria Abdul Jaleel'
p94
aS'92'
p95
aS'Accused'
p96
aa(lp97
S'Muhammad Faizal'
p98
aS'96'
p99
aS'Accused'
p100
aa(lp101
S'Mujeeb'
p102
aS'99'
p103
aS'Accused'
p104
aa(lp105
S'Badaruddin'
p106
aS'101'
p107
aS'Accused'
p108
aa(lp109
S'Sami'
p110
aS'115'
p111
aS'Accused'
p112
aa(lp113
S'Bhatkal'
p114
aS'137'
p115
aS'Assoc Accused'
p116
aa(lp117
S'Tauqeer'
p118
aS'139'
p119
aS'Assoc Accused'
p120
aa(lp121
S'Abdul Subhan'
p122
aS'141'
p123
aS'Assoc Accused'
p124
aa(lp125
S'Shankar Bidri'
p126
aS'206'
p127
aS'Comment'
p128
aa(lp129
S'Abdul Sattar'
p130
aS'251'
p131
aS'Accused'
p132
aa(lp133
S'Sattar'
p134
aS'263'
p135
aS'Accused'
p136
aa(lp137
S'Sattar'
p138
aS'309'
p139
aS'Others'
p140
aa(lp141
S'Bhatkal'
p142
aS'346'
p143
aS'Assoc Accused'
p144
aa(lp145
S'Tauqeer'
p146
aS'348'
p147
aS'Assoc Accused'
p148
aa(lp149
S'Sattar'
p150
aS'358'
p151
aS'Accused'
p152
aa(lp153
S'Sami'
p154
aS'410'
p155
aS'Comment'
p156
aa(lp157
S'Tauqueer'
p158
aS'417'
p159
aS'Others'
p160
aa(lp161
S'Tauqueer'
p162
aS'427'
p163
aS'Assoc Accused'
p164
aasS'TIM'
p165
(lp166
sS'hot_setting'
p167
S''
p168
sS'DAT'
p169
(lp170
S'July 25:36'
p171
aS'2008:39'
p172
aS'Saturday:202'
p173
aS'January 19:270'
p174
asS'death'
p175
g168
sS'title'
p176
S'Bangalore serial blasts case cracked'
p177
sS'org_unorg'
p178
S'ORGANISED'
p179
sS'terror_group'
p180
(lp181
S'LASHKAR-E-TAIBA'
p182
aS'STUDENTS ISLAMIC MOVEMENT OF INDIA'
p183
asS'content'
p184
V. . The Bangalore serial blasts case has been cracked . . . . . Seven months after the terrorists attack on the city , the Anti Terrorist Cell hasrevealed that the serial blasts of July 25 , 2008 , were carried out by associates of key Lashkar-e-Tayiba operative Riaz Bhatkal , who continues to remain elusive.Investigating agencies havein their custody nine persons , including a father-son duo . The four men in the custody of the police are Mohammad Sami , Safrudeen , his father Abdul Sattar , Munaaf , Zakaria Abdul Jaleel , Muhammad Faizal , Mujeeb and Badaruddin . Eight of the arrested men hail from different parts of Kerala while Sami hails from Bijapur in north Karnataka . . . ATC sources told rediff.com that all the arrested persons are associated with Bhatkal and Tauqeer alias Abdul Subhan -- the techie who is considered to be instrumental in setting up the tech wing of the Students Islamic Movement of India . Explaining the manner in which the blasts were carried out , the ATC said that these men from Kerala had planted the bombs by disguising themselves as labourers . Addressing a press conference in Bangalore on Saturday , Police Commissioner Shankar Bidri told media persons that the intention was create havoc and also a sensation . These youth are misguided and belong to a terror module in Kerala , he added.How the plot was revealed : The entire plot was unveiled following the statements of Abdul Sattar , whose custody the Bangalore police got from Hyderabad . Sattar was arrested by Hyderabad Police on January 19 . The custody of the rest of the accused was sought from the Kerala Police.During the interrogation , it was revealed that all the accused belonged to a terror module run by the Lashkar in Kerala . Sattar , who is an electronics engineer , said he had expertise in preparing bombs . It was he who fitted the bombs with the timer devices , which were finally used in the Bangalore blasts . Bhatkal and Tauqeer ordered the module to carry out the blasts . Sattar was told to send his son and others to Bangalore to plant the bombs . The accused reached Bangalore in a Scorpio vehicle . They then disguised themselves as labourers and planted nine bombs in different places . One person was killed in the blasts.Sattar also confirmed the statement given by Sami , who had earlier said that Tauqueer had played a major role in the blasts . Tauqueer was present in Bangalore at the time of the blasts and supervised the operation , he also said . .
p185
sS'injured'
p186
g168
sS'det_loc'
p187
(lp188
S'India'
p189
aS'Karnataka'
p190
aS'Bangalore Urban'
p191
ag168
ag168
asS'O'
p192
(lp193
S'terrorists:20'
p194
aS'associates:45'
p195
aS'techie:145'
p196
aS'atc:178'
p197
aS'havoc:216'
p198
aS'terror module:230'
p199
aS'a terror module:299'
p200
aS'accused:375'
p201
asS'unexpl'
p202
(lp203
S'TIMER'
p204
asS'ocassion'
p205
g168
sS'link'
p206
S'http://www.rediff.com/news/2009/feb/07beng-bangalore-serial-blasts-case-cracked.htm'
p207
sS'date'
p208
S'25-07-2008'
p209
sS'target'
p210
S'CITIZENS'
p211
sS'hot_spot'
p212
g168
sS'delivery_mod'
p213
g168
sS'delivery_met'
p214
S'PLANTED'
p215
sS'expl'
p216
(lp217
S'BOMB'
p218
asS'ORG'
p219
(lp220
(lp221
S'Anti Terrorist Cell'
p222
aS'27'
p223
aS'Others'
p224
aa(lp225
S'Lashkar-e-Tayiba'
p226
aS'48'
p227
aS'Accused'
p228
aa(lp229
S'ATC'
p230
aS'125'
p231
aS'Others'
p232
aa(lp233
S'rediff.com'
p234
aS'128'
p235
aS'Others'
p236
aa(lp237
S'Students Islamic Movement of India'
p238
aS'160'
p239
aS'Assoc Accused'
p240
aa(lp241
S'ATC'
p242
aS'178'
p243
aS'Others'
p244
aas.