(dp0
S'LOC'
p1
(lp2
(lp3
S'West Bengal'
p4
aS'8'
p5
aS'Neutral'
p6
aa(lp7
S'Bardhaman'
p8
aS'26'
p9
aS'Event'
p10
aasS'PER'
p11
(lp12
(lp13
S'Shakil Ahmad'
p14
aS'64'
p15
aS'Victim'
p16
aa(lp17
S'Sovon Mondal'
p18
aS'67'
p19
aS'Accused'
p20
aa(lp21
S'Nurul Hasan Choudhury'
p22
aS'124'
p23
aS'Others'
p24
aa(lp25
S'Shakil Ahmad'
p26
aS'155'
p27
aS'Victim'
p28
aasS'TIM'
p29
(lp30
sS'hot_setting'
p31
S''
p32
sS'DAT'
p33
(lp34
S'October 2:22'
p35
asS'death'
p36
S'2'
p37
sS'title'
p38
S'NIA may probe Bengal blast'
p39
sS'org_unorg'
p40
S'ORGANISED'
p41
sS'terror_group'
p42
(lp43
g32
asS'content'
p44
VEven as the ruling Trinamool Congress in West Bengal came under attack from opposition parties for alleged terror links following the October 2 blast in Bardhaman district reportedly in the house of a party member , a Union Home Ministry official indicated that the National Investigation Agency -LRB- NIA -RRB- might take over the investigation . . . Two men , identified as Shakil Ahmad and Sovon Mondal , were killed in the blast . . . The government has taken cognisance of the incident and may transfer the case to the NIA for further investigations if necessary , the official said . Preliminary findings by Central agencies indicated that the two men killed in the blast at the house of TMC leader Nurul Hasan Choudhury could be linked to an extremist group . . . The local police have purportedly seized several watch dials and SIM cards from the house , rented to Shakil Ahmad .
p45
sS'injured'
p46
g32
sS'det_loc'
p47
(lp48
S'India'
p49
aS'West Bengal'
p50
aS'Bardhaman'
p51
aS'Bardhaman'
p52
aS'Bardhaman'
p53
asS'O'
p54
(lp55
S'union home ministry:38'
p56
aS'police:139'
p57
asS'unexpl'
p58
(lp59
g32
asS'ocassion'
p60
g32
sS'link'
p61
S'http://www.thehindu.com/todays-paper/nia-may-probe-bengal-blast/article6474293.ece'
p62
sS'date'
p63
S'02-10-2014'
p64
sS'target'
p65
g32
sS'hot_spot'
p66
S'Bardhaman'
p67
sS'delivery_mod'
p68
g32
sS'delivery_met'
p69
S'PLANTED'
p70
sS'expl'
p71
(lp72
g32
asS'ORG'
p73
(lp74
(lp75
S'Trinamool Congress'
p76
aS'5'
p77
aS'Others'
p78
aa(lp79
S'National Investigation Agency'
p80
aS'45'
p81
aS'Others'
p82
aa(lp83
S'NIA'
p84
aS'49'
p85
aS'Others'
p86
aa(lp87
S'NIA'
p88
aS'93'
p89
aS'Others'
p90
aa(lp91
S'TMC'
p92
aS'122'
p93
aS'Others'
p94
aas.