(dp0
S'LOC'
p1
(lp2
(lp3
S'Alipurduar'
p4
aS'20'
p5
aS'Event'
p6
aa(lp7
S'Bengal'
p8
aS'24'
p9
aS'Event'
p10
aasS'PER'
p11
(lp12
sS'TIM'
p13
(lp14
S'today : 25'
p15
asS'hot_setting'
p16
S''
p17
sS'DAT'
p18
(lp19
sS'death'
p20
S'1'
p21
sS'title'
p22
S'Update: Alipurduar bomb blast kills one, injures 12'
p23
sS'org_unorg'
p24
g17
sS'terror_group'
p25
(lp26
g17
asS'content'
p27
VAt least one person was killed and 12 others injured when a bomb rigged to a cycle exploded at Alipurduar town in north Bengal today .
p28
sS'injured'
p29
S'12'
p30
sS'det_loc'
p31
(lp32
S'India'
p33
aS'West Bengal'
p34
ag17
aS'Bengal'
p35
ag17
asS'O'
p36
(lp37
S'killed:6'
p38
aS'injured:10'
p39
aS'bomb:13'
p40
aS'cycle exploded:17'
p41
asS'unexpl'
p42
(lp43
g17
asS'ocassion'
p44
g17
sS'link'
p45
S'http://www.business-standard.com/article/economy-policy/update-alipurduar-bomb-blast-kills-one-injures-12-109031800136_1.html'
p46
sS'date'
p47
g17
sS'target'
p48
S'TOWN'
p49
sS'hot_spot'
p50
g17
sS'delivery_mod'
p51
g17
sS'delivery_met'
p52
S'PLANTED'
p53
sS'expl'
p54
(lp55
g17
asS'ORG'
p56
(lp57
s.