(dp0
S'LOC'
p1
(lp2
(lp3
S'Hyderabad'
p4
aS'27'
p5
aS'Event'
p6
aa(lp7
S'Andhra Pradesh'
p8
aS'58'
p9
aS'Neutral'
p10
aa(lp11
S'Hyderabad'
p12
aS'71'
p13
aS'Event'
p14
aa(lp15
S'Pakistan'
p16
aS'84'
p17
aS'Neutral'
p18
aa(lp19
S'Bangladesh'
p20
aS'86'
p21
aS'Neutral'
p22
aa(lp23
S'Andhra Pradesh'
p24
aS'197'
p25
aS'Neutral'
p26
aa(lp27
S'Bangladesh'
p28
aS'214'
p29
aS'Neutral'
p30
aa(lp31
S'Pakistan'
p32
aS'216'
p33
aS'Neutral'
p34
aa(lp35
S'Hyderabad'
p36
aS'224'
p37
aS'Event'
p38
aa(lp39
S'Mecca Masjid'
p40
aS'226'
p41
aS'Event'
p42
aa(lp43
S'India'
p44
aS'238'
p45
aS'Neutral'
p46
aa(lp47
S'Bangladesh'
p48
aS'289'
p49
aS'Neutral'
p50
aa(lp51
S'Pakistan'
p52
aS'291'
p53
aS'Neutral'
p54
aasS'PER'
p55
(lp56
(lp57
S'Iftekhar Ahmed Chowdhury'
p58
aS'4'
p59
aS'Others'
p60
aa(lp61
S'Y S Rajasekhara Reddy'
p62
aS'62'
p63
aS'Others'
p64
aa(lp65
S'Reddy'
p66
aS'69'
p67
aS'Others'
p68
aa(lp69
S'Reddy'
p70
aS'95'
p71
aS'Comment'
p72
aa(lp73
S'Pranab Mukherjee'
p74
aS'148'
p75
aS'Comment'
p76
aasS'TIM'
p77
(lp78
sS'hot_setting'
p79
S''
p80
sS'DAT'
p81
(lp82
S'Saturday : 17'
p83
aS'May : 229'
p84
asS'death'
p85
g80
sS'title'
p86
S"Dhaka rejects Delhi's claim of Bangladesh link"
p87
sS'det_loc'
p88
(lp89
S'India'
p90
aS'TELANGANA'
p91
ag80
ag80
aS'Hyderabad'
p92
asS'terror_group'
p93
(lp94
g80
asS'content'
p95
VForeign Affairs Adviser Iftekhar Ahmed Chowdhury yesterday rejected the Indian claims of a Bangladeshi link with Saturday 's twin bomb blasts in the Indian city of Hyderabad , describing them as ` baseless ' . `` The allegations are baseless , I reject them , '' he told journalists at the foreign ministry on allegations made by Andhra Pradesh Chief Minister Y S Rajasekhara Reddy earlier yesterday . Reddy in Hyderabad alleged that `` all available information point towards the terrorist groups of Pakistan and Bangladesh '' . The adviser said he would contest Reddy 's claims . He said the Bangladesh government would never retreat from protecting the country 's interests in the face of any wrongful allegations , adding , however , that he would examine these particular allegations . Earlier , the adviser condemned the attacks in a letter to Indian External Affairs Minister Pranab Mukherjee , and said , `` Such abhorrent violence is a blot on the conscience of humanity , '' he said . `` Our thoughts today are with those who lost their dear ones in this dastardly act , '' he wrote in the letter . Yesterday the Andhra Pradesh chief minister also went so far as to point to so called terrorist organisations in Bangladesh and Pakistan for the explosion that had ripped through Hyderabad 's Mecca Masjid last May . `` The terrorists who do n't want India to make economic progress and the international organisations which want to destabilise our country are behind the blasts , '' he fumed . `` Most of the times , external terrorist organisations are responsible for such ghastly acts . We ( state governments ) can not have intelligence networks in Bangladesh and Pakistan , '' he said .
p96
sS'injured'
p97
g80
sS'org_unorg'
p98
S'ORGANISED'
p99
sS'O'
p100
(lp101
S'Indian:10'
p102
aS'Bangladeshi:14'
p103
aS'Chief Minister:60'
p104
asS'unexpl'
p105
(lp106
g80
asS'ocassion'
p107
g80
sS'link'
p108
S'http://www.thedailystar.net/news-detail-1650'
p109
sS'date'
p110
S'25-08-2007'
p111
sS'target'
p112
g80
sS'hot_spot'
p113
S'Hyderabad'
p114
sS'delivery_mod'
p115
g80
sS'delivery_met'
p116
S'PLANTED'
p117
sS'expl'
p118
(lp119
g80
asS'ORG'
p120
(lp121
(lp122
S'Foreign Affairs'
p123
aS'1'
p124
aS'Others'
p125
aa(lp126
S'Bangladesh government'
p127
aS'102'
p128
aS'Others'
p129
aa(lp130
S'Indian External Affairs Minister'
p131
aS'144'
p132
aS'Others'
p133
aa(lp134
S'economic progress and the international organisations'
p135
aS'241'
p136
aS'Others'
p137
aas.