(dp0
S'LOC'
p1
(lp2
(lp3
S'Varanasi : 17'
p4
aS'Event'
p5
aS'Neutral'
p6
aa(lp7
S'Varanasi'
p8
aS'57'
p9
aS'Event'
p10
aa(lp11
S'New Delhi'
p12
aS'63'
p13
aS'Neutral'
p14
aa(lp15
S'Sankat Mochan temple'
p16
aS'104'
p17
aS'Event'
p18
aa(lp19
S'India'
p20
aS'127'
p21
aS'Neutral'
p22
aa(lp23
S'Varanasi'
p24
aS'163'
p25
aS'Event'
p26
aa(lp27
S'Uttar Pradesh'
p28
aS'197'
p29
aS'Neutral'
p30
aasS'PER'
p31
(lp32
(lp33
S'Mulayam Singh Yadav'
p34
aS'187'
p35
aS'Comment'
p36
aasS'TIM'
p37
(lp38
S'night : 19'
p39
aS'45 minutes : 137'
p40
asS'hot_setting'
p41
S''
p42
sS'DAT'
p43
(lp44
sS'death'
p45
S'21'
p46
sS'title'
p47
S'India puts security forces on alert as 21 die in bomb blasts'
p48
sS'det_loc'
p49
(lp50
S'India'
p51
aS'Uttar Pradesh'
p52
aS'Varanasi'
p53
aS'Varanasi'
p54
aS'Varanasi'
p55
asS'terror_group'
p56
(lp57
S'ISLAMIC TERRORIST OUTFITS'
p58
asS'content'
p59
VA series of bomb blasts killed at least 21 people in the Indian holy city of Varanasi last night . . . Security forces across the country were on high alert as intelligence officials hinted that the explosions , which also injured more than 60 people , were the work of Islamic militants . . . Varanasi , 450 miles east of New Delhi , is one of Hinduism 's holiest cities and is filled with pilgrims visiting temples and bathing in the holy waters of the Ganges , which runs through the city . . . The first blast at the crowded Sankat Mochan temple killed 10 worshippers . Witnesses said debris , body parts and blood covered the temple 's floor . . . India factfile . . Eleven more people died in explosions 45 minutes later at a station a few miles away and inside a nearby train . A fourth bomb was defused in a residential district of Varanasi . . . `` The entire country is shocked by the blasts and is trying to cope with the situation , '' said Mulayam Singh Yadav , chief minister of the state of Uttar Pradesh .
p60
sS'injured'
p61
S'60'
p62
sS'org_unorg'
p63
S'ORGANISED'
p64
sS'O'
p65
(lp66
S'chief minister:191'
p67
asS'unexpl'
p68
(lp69
g42
asS'ocassion'
p70
g42
sS'link'
p71
S'http://www.telegraph.co.uk/news/worldnews/asia/india/1512434/India-puts-security-forces-on-alert-as-21-die-in-bomb-blasts.html'
p72
sS'date'
p73
S'07-03-2006'
p74
sS'target'
p75
S'TEMPLE'
p76
sS'hot_spot'
p77
S'Varanasi,Sankat Mochan temple'
p78
sS'delivery_mod'
p79
S'TEMPLE'
p80
sS'delivery_met'
p81
S'PLANTED'
p82
sS'expl'
p83
(lp84
g42
asS'ORG'
p85
(lp86
(lp87
S'Islamic'
p88
aS'52'
p89
aS'Accused'
p90
aas.