(dp0
S'LOC'
p1
(lp2
(lp3
S'Mahabodhi'
p4
aS'16'
p5
aS'Event'
p6
aa(lp7
S'Bodh Gaya'
p8
aS'19'
p9
aS'Event'
p10
aa(lp11
S'Bihar'
p12
aS'25'
p13
aS'Neutral'
p14
aasS'PER'
p15
(lp16
(lp17
S'Vinod Mistry'
p18
aS'44'
p19
aS'Others'
p20
aa(lp21
S'Nitish Kumar'
p22
aS'62'
p23
aS'Comment'
p24
aasS'TIM'
p25
(lp26
sS'hot_setting'
p27
S''
p28
sS'DAT'
p29
(lp30
sS'death'
p31
g28
sS'title'
p32
S'Bodh Gaya blasts: temple reopens, monks hold special prayers'
p33
sS'org_unorg'
p34
S'ORGANISED'
p35
sS'terror_group'
p36
(lp37
g28
asS'content'
p38
VBodh Gaya : A day after multiple blasts , regular prayers were organised at the Mahabodhi temple in Bodh Gaya . Earlier , the Bihar Police released the CCTV footage of one of the blasts . They have also detained a man named Vinod Mistry , whose identity card was found at the blast site , for questioning . Chief Minister Nitish Kumar said he will ask the Centre to appoint the Central Industrial Security Forces -LRB- CISF -RRB- to guard the world-famous temple .
p39
sS'injured'
p40
g28
sS'det_loc'
p41
(lp42
S'India'
p43
aS'Bihar'
p44
aS'Gaya'
p45
ag28
aS'Mahabodhi temple'
p46
asS'O'
p47
(lp48
g28
asS'unexpl'
p49
(lp50
g28
asS'ocassion'
p51
g28
sS'link'
p52
S'http://www.ndtv.com/cheat-sheet/bodh-gaya-blasts-temple-reopens-monks-hold-special-prayers-527741'
p53
sS'date'
p54
S'07-07-2013'
p55
sS'target'
p56
S'RELIGIOUS PLACES'
p57
sS'hot_spot'
p58
S'Mahabodhi temple'
p59
sS'delivery_mod'
p60
g28
sS'delivery_met'
p61
S'PLANTED'
p62
sS'expl'
p63
(lp64
g28
asS'ORG'
p65
(lp66
(lp67
S'Bihar Police'
p68
aS'25'
p69
aS'Others'
p70
aa(lp71
S'Central Industrial Security Forces'
p72
aS'73'
p73
aS'Others'
p74
aa(lp75
S'CISF'
p76
aS'78'
p77
aS'Others'
p78
aas.