(dp0
S'LOC'
p1
(lp2
(lp3
S'Assam'
p4
aS'26'
p5
aS'Event'
p6
aa(lp7
S'Assam'
p8
aS'52'
p9
aS'Event'
p10
aa(lp11
S'Fakiragram'
p12
aS'73'
p13
aS'Assoc Event Location'
p14
aa(lp15
S'Kokrajhar'
p16
aS'75'
p17
aS'Assoc Event Location'
p18
aa(lp19
S'Sesapani'
p20
aS'135'
p21
aS'Neutral'
p22
aa(lp23
S'Nagajan'
p24
aS'162'
p25
aS'Event'
p26
aa(lp27
S'Tinsukia'
p28
aS'164'
p29
aS'Event'
p30
aa(lp31
S'Panbari'
p32
aS'231'
p33
aS'Event'
p34
aa(lp35
S'Dhubri'
p36
aS'233'
p37
aS'Event'
p38
aa(lp39
S'Agartala'
p40
aS'293'
p41
aS'Neutral'
p42
aa(lp43
S'Tripura'
p44
aS'302'
p45
aS'Event'
p46
aa(lp47
S'Jirania'
p48
aS'348'
p49
aS'Event'
p50
aa(lp51
S'Tripura'
p52
aS'354'
p53
aS'Neutral'
p54
aasS'PER'
p55
(lp56
sS'TIM'
p57
(lp58
S'night : 29'
p59
aS'9 a.m.:41'
p60
aS'15 minutes : 95'
p61
aS'48 hours : 115'
p62
aS'20 minutes : 143'
p63
aS'night : 167'
p64
aS'afternoon : 264'
p65
aS'night : 322'
p66
aS'night : 362'
p67
asS'hot_setting'
p68
S''
p69
sS'DAT'
p70
(lp71
S'Friday:28'
p72
aS'Friday:166'
p73
asS'death'
p74
S'4'
p75
sS'title'
p76
S'4 killed as militants step up violence'
p77
sS'det_loc'
p78
(lp79
S'India'
p80
aS'Assam'
p81
ag69
aS'Assam'
p82
aS'upper and lower Assam '
p83
asS'terror_group'
p84
(lp85
S' UNITED LIBERATION FRONT OF ASOM'
p86
asS'content'
p87
VAfter a brief lull , the ULFA and the Bodo militant outfit , NDFB , carried out a number of attacks in upper and lower Assam on Friday night , killing four persons . . . A bomb detonated around 9 a.m. by the NDFB militants snapped the rail link between Assam and the rest of the country . Nine wagons of a cement-laden goods train were derailed in the blast between Fakiragram and Kokrajhar stations . It is suspected that the militants ' target was a passenger train which had passed that area 15 minutes earlier . Railway officials said here today that the line restoration work had started but might take another 48 hours to restore the link . In another incident , militants fired at an armed police post at nearby Sesapani and the exchange of fire continued for 20 minutes . None was injured . . . The ULFA hijacked an Oil India Ltd. staff bus at Nagajan in Tinsukia on Friday night and drove it to a CISF camp . As a havildar opened the gate , he was shot dead . Another jawan was injured and died later . In the retaliatory fire by the CISF jawans , one militant was killed , while the others escaped . Earlier , they threw a rocket-propelled grenade on an oil tanker which was empty.Later , at Panbari in Dhubri the ULFA attacked a CRPF post . One militant was killed while a civilian driver and two CRPF jawans were injured . Senior civil and police officials met here this afternoon and reviewed the security scenario in view of the stepped up activities of the militants . . . Rocket attacks on security forces . . PTI reports from Agartala : . . For the first time in Tripura , militants used rockets to attack security forces even as they killed four persons in separate incidents since last night , police said today . . . Two groups of the banned All-Tripura Tiger Force -LRB- ATTF -RRB- fired rockets at a CRPF camp in Jirania and the battalion headquarters of Tripura State Rifles in the same area last night , the police said . . . The attacks appeared to be planned as the rockets were fired at the same time . No casualty was reported in the rocket attack .
p88
sS'injured'
p89
g69
sS'org_unorg'
p90
S'ORGANISED'
p91
sS'O'
p92
(lp93
S'militants:46'
p94
aS'derailed:68'
p95
aS'militants:83'
p96
aS'Railway officials:99'
p97
aS'militants:126'
p98
aS'havildar:178'
p99
aS'jawan:189'
p100
aS'militant:206'
p101
aS'militant:242'
p102
aS'civilian driver:247'
p103
aS'Senior civil:256'
p104
aS'Rocket:283'
p105
aS'PTI:290'
p106
aS'militants:304'
p107
aS'rockets:306'
p108
aS'fired rockets:341'
p109
aS'battalion headquarters:351'
p110
aS'rocket attack:392'
p111
asS'unexpl'
p112
(lp113
S'DETONATORS'
p114
asS'ocassion'
p115
g69
sS'link'
p116
S'http://www.thehindu.com/2003/06/22/stories/2003062205061000.htm'
p117
sS'date'
p118
S'20-06-2003'
p119
sS'target'
p120
g69
sS'hot_spot'
p121
S'upper and lower Assam '
p122
sS'delivery_mod'
p123
S'TRAIN'
p124
sS'delivery_met'
p125
S'PLANTED'
p126
sS'expl'
p127
(lp128
S'ROCKET-PROPELLED GRENADE'
p129
asS'ORG'
p130
(lp131
(lp132
S'ULFA'
p133
aS'7'
p134
aS'Accused'
p135
aa(lp136
S'Bodo militant'
p137
aS'10'
p138
aS'Accused'
p139
aa(lp140
S'NDFB'
p141
aS'14'
p142
aS'Accused'
p143
aa(lp144
S'NDFB'
p145
aS'45'
p146
aS'Accused'
p147
aa(lp148
S'armed police'
p149
aS'130'
p150
aS'Others'
p151
aa(lp152
S'ULFA'
p153
aS'153'
p154
aS'Accused'
p155
aa(lp156
S'Oil India Ltd.'
p157
aS'156'
p158
aS'Others'
p159
aa(lp160
S'CISF'
p161
aS'173'
p162
aS'Accused'
p163
aa(lp164
S'CISF'
p165
aS'202'
p166
aS'Accused'
p167
aa(lp168
S'ULFA'
p169
aS'235'
p170
aS'Accused'
p171
aa(lp172
S'CRPF'
p173
aS'238'
p174
aS'Accused'
p175
aa(lp176
S'CRPF'
p177
aS'251'
p178
aS'Accused'
p179
aa(lp180
S'police'
p181
aS'259'
p182
aS'Others'
p183
aa(lp184
S'security forces'
p185
aS'286'
p186
aS'Others'
p187
aa(lp188
S'security forces'
p189
aS'309'
p190
aS'Others'
p191
aa(lp192
S'police'
p193
aS'324'
p194
aS'Others'
p195
aa(lp196
S'All-Tripura Tiger Force'
p197
aS'335'
p198
aS'Accused'
p199
aa(lp200
S'ATTF'
p201
aS'339'
p202
aS'Accused'
p203
aa(lp204
S'CRPF'
p205
aS'345'
p206
aS'Accused'
p207
aa(lp208
S'Tripura State Rifles'
p209
aS'354'
p210
aS'Others'
p211
aa(lp212
S'police'
p213
aS'365'
p214
aS'Others'
p215
aas.