(dp0
S'LOC'
p1
(lp2
(lp3
S'Jaipur'
p4
aS'8'
p5
aS'Event'
p6
aa(lp7
S'Goa'
p8
aS'53'
p9
aS'Neutral'
p10
aa(lp11
S'Panaji'
p12
aS'60'
p13
aS'Neutral'
p14
aa(lp15
S'Goan beaches'
p16
aS'107'
p17
aS'Neutral'
p18
aa(lp19
S'railway stations'
p20
aS'110'
p21
aS'Neutral'
p22
aa(lp23
S'Dabolim'
p24
aS'115'
p25
aS'Neutral'
p26
aa(lp27
S'bus stands'
p28
aS'117'
p29
aS'Neutral'
p30
aa(lp31
S'market areas'
p32
aS'120'
p33
aS'Neutral'
p34
aa(lp35
S'Bihar'
p36
aS'168'
p37
aS'Neutral'
p38
aa(lp39
S'Patna'
p40
aS'177'
p41
aS'Neutral'
p42
aa(lp43
S'Bihar'
p44
aS'185'
p45
aS'Neutral'
p46
aa(lp47
S'Karnataka'
p48
aS'251'
p49
aS'Neutral'
p50
aa(lp51
S'Bangalore'
p52
aS'259'
p53
aS'Neutral'
p54
aa(lp55
S'Karnataka'
p56
aS'263'
p57
aS'Neutral'
p58
aa(lp59
S'Bangalore'
p60
aS'300'
p61
aS'Neutral'
p62
aa(lp63
S'UP'
p64
aS'325'
p65
aS'Neutral'
p66
aa(lp67
S'Varanasi'
p68
aS'330'
p69
aS'Neutral'
p70
aa(lp71
S'Varanasi'
p72
aS'333'
p73
aS'Neutral'
p74
aa(lp75
S'Varanasi'
p76
aS'358'
p77
aS'Neutral'
p78
aa(lp79
S'Uttar pradesh'
p80
aS'437'
p81
aS'Neutral'
p82
aa(lp83
S'Tamil Nadu'
p84
aS'499'
p85
aS'Neutral'
p86
aa(lp87
S'Chennai'
p88
aS'508'
p89
aS'Neutral'
p90
aa(lp91
S'Chennai'
p92
aS'515'
p93
aS'Neutral'
p94
aasS'PER'
p95
(lp96
(lp97
S'Kishan Kumar'
p98
aS'85'
p99
aS'Comment'
p100
aa(lp101
S'Kumar'
p102
aS'163'
p103
aS'Comment'
p104
aa(lp105
S'Anil Sinha'
p106
aS'218'
p107
aS'Comment'
p108
aa(lp109
S'S N Sabat'
p110
aS'372'
p111
aS'Comment'
p112
aa(lp113
S'Mahesh Kumar Gupta'
p114
aS'467'
p115
aS'Comment'
p116
aasS'TIM'
p117
(lp118
S'night : 19'
p119
aS'Night : 55'
p120
aS'night : 137'
p121
asS'hot_setting'
p122
S''
p123
sS'DAT'
p124
(lp125
S'Tuesday:18'
p126
aS'Saturday:306'
p127
asS'death'
p128
S'63'
p129
sS'title'
p130
S'India on alert, security stepped up'
p131
sS'det_loc'
p132
(lp133
S'India'
p134
aS'Rajasthan'
p135
aS'Jaipur'
p136
aS'Jaipur'
p137
aS'Jaipur'
p138
asS'terror_group'
p139
(lp140
g123
asS'content'
p141
VNew Delhi : The serial blasts in Jaipur that killed 63 people and injured over 150 on Tuesday night sent shockwaves across the country . Alert was sounded across various states and security was stepped up in all major metros and tourist hotspots . Given below is a wrap-up : . . Goa : Night vigil on . . Panaji : The Goa police declared alert in the tourist state and stepped-up security in the crowded areas . . . Inspector General of Police Kishan Kumar said all police stations in Goa have been asked to conduct strict patrolling , especially at crowded places such as Goan beaches , railway stations , airport at Dabolim , bus stands , market areas and others . . . In order to avoid risk , the alert declared last night will continue for few days in the state . '' I have also directed all police stations to get hold of suspicious persons , '' Kumar added . . . Bihar : Security up at vital installations . . Patna : A high alert was sounded in Bihar and all police stations have been put on maximum alert with specific instructions to officials to tighten vigil around places of religious importance , Additional Director General ( Law and Order ) Anil Sinha told PTI . . . The government railway police too has been alerted and security stepped up around vital installations , including properties of railway , he said . . . Karnataka : Poll-bound and on alert . . Bangalore : Police in Karnataka have stepped up security throughout the state as a precautionary measure . . . Police said a vigil is being maintained at busy areas , railway stations , bus stations , markets , malls and also Bangalore airport . . . Last Saturday , a bomb exploded in a Hubli court . None were injured in the incident . . . UP : Terror flashback for Varanasi . . Varanasi : A red alert has been sounded in the temple city with increased deployment . . . A red alert has been declared in Varanasi and deployment at sensitive places has been enhanced , DIG , Police , S N Sabat , told PTI . . . He said checking of vehicles at sensitive places has been intensified and extra forces have been deployed in and around the important temples and vital installations . . . `` Though there is no specific threat of any terror attack in the city we are leaving nothing to chance '' , he said . . . Uttar pradesh Home department has directed all District Magistrates to keep a close watch in their respective areas and gear up all intelligence machinery . . . State Home secretary Mahesh Kumar Gupta asked the DMs to put in place a drill for security checkup . . . Directive to this effect have been sent to all District Magistrates . . . Tamil Nadu : All entry points blocked . . Chennai : Security has been tightened in Chennai and police said that vehicles entering the city would be thoroughly checked . Places where people converge in large numbers like railway stations and bus stands have been brought under security cover . . . People moving around in a suspicious manner would be questioned , they added . . . .
p142
sS'injured'
p143
S'150'
p144
sS'org_unorg'
p145
S'ORGANISED'
p146
sS'O'
p147
(lp148
S'Inspector General of Police:81'
p149
aS'Police:278'
p150
aS'DIG:368'
p151
asS'unexpl'
p152
(lp153
g123
asS'ocassion'
p154
g123
sS'link'
p155
S'http://www.ibnlive.com/news/india/india-on-alert-security-stepped-up-289194.html'
p156
sS'date'
p157
S'13-05-2008'
p158
sS'target'
p159
g123
sS'hot_spot'
p160
S'Jaipur'
p161
sS'delivery_mod'
p162
g123
sS'delivery_met'
p163
S'PLANTED'
p164
sS'expl'
p165
(lp166
g123
asS'ORG'
p167
(lp168
(lp169
S'Goa police'
p170
aS'63'
p171
aS'Others'
p172
aa(lp173
S'PTI'
p174
aS'221'
p175
aS'Others'
p176
aa(lp177
S'government railway police'
p178
aS'226'
p179
aS'Others'
p180
aa(lp181
S'Hubli court'
p182
aS'313'
p183
aS'Others'
p184
aa(lp185
S'PTI'
p186
aS'377'
p187
aS'Others'
p188
aas.