(dp0
S'LOC'
p1
(lp2
(lp3
S'Assam'
p4
aS'24'
p5
aS'Neutral'
p6
aa(lp7
S'Central Market'
p8
aS'47'
p9
aS'Neutral'
p10
aa(lp11
S'Lakshmi talkies'
p12
aS'50'
p13
aS'Neutral'
p14
aa(lp15
S'Sibsagar'
p16
aS'60'
p17
aS'Neutral'
p18
aasS'PER'
p19
(lp20
sS'TIM'
p21
(lp22
S'night : 27'
p23
aS'9 pm:63'
p24
asS'hot_setting'
p25
S''
p26
sS'DAT'
p27
(lp28
S'Monday:26'
p29
asS'death'
p30
g26
sS'title'
p31
S'8 injured in blast in Assam'
p32
sS'det_loc'
p33
(lp34
S'India'
p35
aS'Assam'
p36
aS'Sivasagar'
p37
aS'guwahati'
p38
aS'Assam'
p39
asS'terror_group'
p40
(lp41
g26
asS'content'
p42
VView PhotosSibsagar , Sept 24 : Eight persons were injured , one of them seriously , when a blast rocked this town in Assam late Monday night . . . Police said the blast , suspected to be caused by an IED , was triggered between Central Market and Lakshmi talkies in the heart of the headquarters town of Sibsagar district at 9 pm . The injured were taken to Sibsagar Civil Hospital and another private hospital nearby . . . Glass panes of some nearby constructions were broken by the impact of the blast . . . .
p43
sS'injured'
p44
S'8'
p45
sS'org_unorg'
p46
S'ORGANISED'
p47
sS'O'
p48
(lp49
g26
asS'unexpl'
p50
(lp51
g26
asS'ocassion'
p52
g26
sS'link'
p53
S'http://www.oneindia.com/2012/09/25/8-injured-in-blast-in-assam-1075529.html'
p54
sS'date'
p55
S'24-09-2012'
p56
sS'target'
p57
g26
sS'hot_spot'
p58
S'Assam'
p59
sS'delivery_mod'
p60
g26
sS'delivery_met'
p61
S'PLANTED'
p62
sS'expl'
p63
(lp64
S'IED'
p65
asS'ORG'
p66
(lp67
(lp68
S'Sibsagar Civil Hospital'
p69
aS'71'
p70
aS'Others'
p71
aas.