(dp0
S'LOC'
p1
(lp2
(lp3
S'Pune'
p4
aS'17'
p5
aS'Event'
p6
aa(lp7
S'Pune'
p8
aS'104'
p9
aS'Event'
p10
aa(lp11
S'Pune'
p12
aS'223'
p13
aS'Event'
p14
aa(lp15
S'Delhi'
p16
aS'248'
p17
aS'Neutral'
p18
aa(lp19
S'Kanpur'
p20
aS'250'
p21
aS'Neutral'
p22
aa(lp23
S'Indore'
p24
aS'252'
p25
aS'Neutral'
p26
aa(lp27
S'Indore'
p28
aS'292'
p29
aS'Neutral'
p30
aa(lp31
S'Delhi'
p32
aS'307'
p33
aS'Neutral'
p34
aa(lp35
S'Kanpur'
p36
aS'309'
p37
aS'Neutral'
p38
aa(lp39
S'Indore'
p40
aS'311'
p41
aS'Neutral'
p42
aa(lp43
S'Pune'
p44
aS'396'
p45
aS'Event'
p46
aasS'PER'
p47
(lp48
(lp49
S'Manmohan Singh'
p50
aS'21'
p51
aS'Comment'
p52
aa(lp53
S'Singh'
p54
aS'47'
p55
aS'Others'
p56
aa(lp57
S'P. Chidambaram'
p58
aS'55'
p59
aS'Others'
p60
aa(lp61
S'Chidambaram'
p62
aS'201'
p63
aS'Others'
p64
aa(lp65
S'Shiv Shanker Menon'
p66
aS'416'
p67
aS'Others'
p68
aa(lp69
S'G.K. Pillai'
p70
aS'422'
p71
aS'Others'
p72
aa(lp73
S'K.C. Verma'
p74
aS'427'
p75
aS'Others'
p76
aa(lp77
S'Rajiv Mathur'
p78
aS'432'
p79
aS'Others'
p80
aasS'TIM'
p81
(lp82
sS'hot_setting'
p83
S''
p84
sS'DAT'
p85
(lp86
S'Sunday:24'
p87
aS'Saturday:112'
p88
aS'February 17:294'
p89
asS'death'
p90
g84
sS'title'
p91
S'Manmohan reviews situation'
p92
sS'org_unorg'
p93
S'ORGANISED'
p94
sS'terror_group'
p95
(lp96
g84
asS'content'
p97
VAfter a detailed review of the internal security situation in the wake of bomb blast in Pune , Prime Minister Manmohan Singh on Sunday directed the Union and Maharashtra governments to take coordinated and effective action to speedily investigate the terror attack . . . Dr. Singh who discussed the situation with Home Minister P. Chidambaram , directed speedy investigation so that the culprits responsible for this heinous act are identified and brought to justice at the earliest , a spokesman of the Prime Ministers Office said . The Prime Minister was briefed by the Home Minister about investigations being carried out in Pune in the aftermath of the blast on Saturday . . . The Prime Minister expressed his deepest condolences and sympathies to the families of all those killed and injured in the incident and announced relief from the Prime Ministers National Relief Fund of Rs . 2 lakh to the next of kin of those killed , and Rs . 1 lakh to those injured . He said that the government would extend whatever help was required by the families of those killed and injured in the incident . . . Earlier in the day , Mr. Chidambaram presided over a high-level meeting in the Home Ministry which reviewed the security situation across the country in the wake of Pune bomb blast in which nine persons were killed and 32 injured . . . The Home Ministry sounded an alert in three cities - Delhi , Kanpur and Indore - following inputs from intelligence agencies that public places in these cities may be on the radar screen of terrorists . The opposition Bharatiya Janata Party -LRB- BJP -RRB- is scheduled to hold its three-day national executive meeting in Indore from February 17 . . . We have intelligence inputs that terrorists may target Delhi , Kanpur and Indore . We have shared the information with all concerned and asked the state governments to take necessary action , a Home Ministry official said . . . A general advisory has already been sent to all states asking them to take necessary security steps in crowded localities , railway stations , bus terminals , vital installations , airports and other places . . . Preliminary probe has revealed that RDX and ammonium nitrate were used in the explosion that ripped through German bakery in Pune . . . The high-level security review meeting at the Home Ministry was attended by the National Security Adviser Shiv Shanker Menon , Home Secretary G.K. Pillai , RAW chief K.C. Verma , IB Director Rajiv Mathur and other senior officials of the Ministry .
p98
sS'injured'
p99
S'32'
p100
sS'det_loc'
p101
(lp102
S'India'
p103
aS'Maharashtra'
p104
aS'Pune'
p105
aS'Pune'
p106
aS'Pune'
p107
asS'O'
p108
(lp109
S'Prime Minister:19'
p110
aS'Home Minister:53'
p111
aS'government:174'
p112
aS'RDX:381'
p113
aS'ammonium nitrate:383'
p114
asS'unexpl'
p115
(lp116
g84
asS'ocassion'
p117
g84
sS'link'
p118
S'http://www.thehindu.com/news/national/article106482.ece'
p119
sS'date'
p120
S'13-02-2010'
p121
sS'target'
p122
g84
sS'hot_spot'
p123
S'Pune'
p124
sS'delivery_mod'
p125
g84
sS'delivery_met'
p126
S'PLANTED'
p127
sS'expl'
p128
(lp129
g84
asS'ORG'
p130
(lp131
(lp132
S'Maharashtra governments'
p133
aS'29'
p134
aS'Others'
p135
aa(lp136
S'Bharatiya Janata Party'
p137
aS'276'
p138
aS'Others'
p139
aa(lp140
S'BJP'
p141
aS'280'
p142
aS'Others'
p143
aas.