(dp0
S'LOC'
p1
(lp2
(lp3
S'Bihar'
p4
aS'3'
p5
aS'Event'
p6
aa(lp7
S'Patna'
p8
aS'20'
p9
aS'Event'
p10
aa(lp11
S'Maniyari'
p12
aS'53'
p13
aS'Accused Location'
p14
aa(lp15
S'Patna'
p16
aS'65'
p17
aS'Event'
p18
aa(lp19
S'Kalyanpur'
p20
aS'125'
p21
aS'Neutral'
p22
aa(lp23
S'Patna'
p24
aS'167'
p25
aS'Event'
p26
aa(lp27
S'Darbhanga'
p28
aS'251'
p29
aS'Accused Location'
p30
aasS'PER'
p31
(lp32
(lp33
S'Taqui Akhtar'
p34
aS'6'
p35
aS'Comment'
p36
aa(lp37
S'Mohammad Tahseen Akhtar'
p38
aS'25'
p39
aS'Accused'
p40
aa(lp41
S'Monu'
p42
aS'29'
p43
aS'Accused'
p44
aa(lp45
S'Taqui Akhtar'
p46
aS'76'
p47
aS'Comment'
p48
aa(lp49
S'Monu'
p50
aS'129'
p51
aS'Accused'
p52
aa(lp53
S'Tahseen Akhtar'
p54
aS'133'
p55
aS'Accused'
p56
aa(lp57
S'Monu'
p58
aS'136'
p59
aS'Accused'
p60
aa(lp61
S'Yasin Bhatkal'
p62
aS'150'
p63
aS'Accused'
p64
aa(lp65
S'Narendra Modi'
p66
aS'176'
p67
aS'Others'
p68
aa(lp69
S'Monu'
p70
aS'184'
p71
aS'Accused'
p72
aa(lp73
S'Mohammad Jahrul Haque'
p74
aS'187'
p75
aS'Others'
p76
aa(lp77
S'Wasim Akhtar'
p78
aS'199'
p79
aS'Others'
p80
aa(lp81
S'Monu'
p82
aS'209'
p83
aS'Accused'
p84
aa(lp85
S'Wasim Akhtar'
p86
aS'220'
p87
aS'Others'
p88
aa(lp89
S'Bhatkal'
p90
aS'265'
p91
aS'Accused'
p92
aasS'TIM'
p93
(lp94
sS'hot_setting'
p95
S''
p96
sS'DAT'
p97
(lp98
S'Wednesday:39'
p99
aS'January , 2011 : 49'
p100
aS'Sunday:169'
p101
asS'death'
p102
g96
sS'title'
p103
S"Patna serial blasts mastermind's uncle disowns him"
p104
sS'det_loc'
p105
(lp106
S'India'
p107
aS'Bihar'
p108
aS'Patna'
p109
ag96
ag96
asS'terror_group'
p110
(lp111
S'INDIAN MUJAHIDEEN'
p112
asS'content'
p113
VSAMASTIPUR -LRB- Bihar -RRB- : Taqui Akhtar , a leader of ruling JD -LRB- U -RRB- and uncle of Patna rally serial blasts mastermind Mohammad Tahseen Akhtar alias Monu , disowned him and sought his severest punishment on Wednesday . ` After division of our ancestral property in January , 2011 at Maniyari village , 8km from the district headquarters and 60 km from Patna , we have no ties with his family , ' Taqui Akhtar , JD -LRB- U -RRB- district general secretary told reporters here . ` We have nothing to do with him and his family after division of our ancestral property , ' he stressed , adding he had already stated it in the complaint he lodged with the Kalyanpur police station after Monu left home . Tahseen Akhtar alias Monu is considered as number two in the Indian Mujahideen -LRB- IM -RRB- after Yasin Bhatkal and investigations have pointed out that he is the mastermind behind the serial blasts in Patna on Sunday before BJP 's prime ministerial candidate Narendra Modi was to address a rally . Monu 's grandfather Mohammad Jahrul Haque had retired as a police inspector . His father Wasim Akhtar is the eldest of the five brothers and Monu is eldest among the three sons , villagers said . Wasim Akhtar is a marginal farmer and his two younger sons are studying in school . The fugitive IM activist did his matriculation from Maniyari High School and had gone to Darbhanga in connection with preparation for engineering examination where he came in contact with Bhatkal , villagers added .
p114
sS'injured'
p115
g96
sS'org_unorg'
p116
g96
sS'O'
p117
(lp118
S'patna rally serial blasts:20'
p119
aS'serial blasts mastermind:22'
p120
aS'severest punishment:36'
p121
aS'ancestral property:46'
p122
aS'mastermind behind:161'
p123
aS'mastermind behind the serial blasts:161'
p124
aS'rally:182'
p125
aS'marginal farmer:224'
p126
aS'fugitive:237'
p127
asS'unexpl'
p128
(lp129
g96
asS'ocassion'
p130
g96
sS'link'
p131
S'http://timesofindia.indiatimes.com/india/Patna-serial-blasts-masterminds-uncle-disowns-him/articleshow/24942139.cms'
p132
sS'date'
p133
S'27-10-2013'
p134
sS'target'
p135
g96
sS'hot_spot'
p136
g96
sS'delivery_mod'
p137
g96
sS'delivery_met'
p138
g96
sS'expl'
p139
(lp140
g96
asS'ORG'
p141
(lp142
(lp143
S'Kalyanpur police station'
p144
aS'125'
p145
aS'Others'
p146
aa(lp147
S'Indian Mujahideen'
p148
aS'144'
p149
aS'Accused'
p150
aa(lp151
S'IM'
p152
aS'147'
p153
aS'Accused'
p154
aa(lp155
S'BJP'
p156
aS'171'
p157
aS'Others'
p158
aa(lp159
S'IM'
p160
aS'238'
p161
aS'Accused'
p162
aa(lp163
S'Maniyari High School'
p164
aS'244'
p165
aS'Others'
p166
aas.