(dp0
S'LOC'
p1
(lp2
(lp3
S'VARANASI'
p4
aS'1'
p5
aS'Assoc Event Location'
p6
aa(lp7
S'Dashashwamedh Ghat'
p8
aS'50'
p9
aS'Event'
p10
aa(lp11
S'Babri Masjid'
p12
aS'192'
p13
aS'Neutral'
p14
aasS'PER'
p15
(lp16
sS'TIM'
p17
(lp18
S'6:20 pm : 201'
p19
asS'hot_setting'
p20
S''
p21
sS'DAT'
p22
(lp23
S'Wednesday:37'
p24
aS'Tuesday evening:76'
p25
aS'Tuesday:76'
p26
aS'Tuesday evening:76'
p27
aS'1992 : 195'
p28
asS'death'
p29
g5
sS'title'
p30
S'No shrapnels in Varanasi bomb: Police'
p31
sS'det_loc'
p32
(lp33
S'India'
p34
aS'Uttar Pradesh'
p35
ag21
aS'varanasi'
p36
aS'Dashashwamedh Ghat'
p37
asS'terror_group'
p38
(lp39
S'INDIAN MUJAHIDEEN'
p40
asS'content'
p41
VVARANASI : The low-intensity bomb used in the blast here did not have shrapnels in it and all the injured were hit by pieces of wall that broke following the explosion , police sources said on Wednesday . They said the bomb kept near the steps leading to the Dashashwamedh Ghat was placed in such a way that the maximum impact was directed to the ground where the ` arti ' was being held on Tuesday evening . Though the nature of explosives is yet to be ascertained , the sources said there were no burn or shrapnel injuries . Meanwhile , of the 37 injured in the blasts , one is said to be in a critical condition . Forensic experts are examining the blast scene to find clues about the exact nature of the explosives used . An improvised explosive device -LRB- IED -RRB- was recovered from a metal dustbin at the site of the blast . Banned terror outfit Indian Mujahideen -LRB- IM -RRB- has claimed responsibility for the blast in e-mails sent to media houses and said it ` attributed ' the attack to the demolition of Babri Masjid in 1992 . The blast occurred at 6:20 pm when thousands of devotees and some foreign tourists had assembled at the ghat for the Ganga arti ritual . The blast left a child dead and 37 others injured .
p42
sS'injured'
p43
S'37'
p44
sS'org_unorg'
p45
S'ORGANISED'
p46
sS'O'
p47
(lp48
S'varanasi:1'
p49
aS'bomb:5'
p50
aS'blast:9'
p51
aS'shrapnels:14'
p52
aS'wall:26'
p53
aS'explosion:31'
p54
aS'police:33'
p55
aS'bomb:42'
p56
aS'way:57'
p57
aS'maximum impact:60'
p58
aS'ground:66'
p59
aS'arti:70'
p60
aS'condition:119'
p61
aS'Forensic experts:121'
p62
aS'blast scene:126'
p63
aS'ied:145'
p64
aS'metal dustbin:151'
p65
aS'site:155'
p66
aS'blast:158'
p67
aS'terror outfit:161'
p68
aS'im:166'
p69
aS'responsibility:170'
p70
aS'blast:173'
p71
aS'attack:187'
p72
aS'demolition:190'
p73
aS'blast:198'
p74
aS'pm:202'
p75
aS'ghat:215'
p76
aS'ganga arti ritual:218'
p77
aS'ganga:218'
p78
aS'arti ritual:219'
p79
aS'blast:223'
p80
aS'child:226'
p81
asS'unexpl'
p82
(lp83
g21
asS'ocassion'
p84
S'RITUAL'
p85
sS'link'
p86
S'http://timesofindia.indiatimes.com/city/varanasi/No-shrapnels-in-Varanasi-bomb-Police/articleshow/7064110.cms'
p87
sS'date'
p88
S'07-12-2010'
p89
sS'target'
p90
S'RELIGIOUS PLACES'
p91
sS'hot_spot'
p92
g21
sS'delivery_mod'
p93
S'DUSTBIN'
p94
sS'delivery_met'
p95
S'PLACED'
p96
sS'expl'
p97
(lp98
S'IED'
p99
aS'BOMB'
p100
asS'ORG'
p101
(lp102
(lp103
S'Indian Mujahideen'
p104
aS'163'
p105
aS'Accused'
p106
aa(lp107
S'IM'
p108
aS'166'
p109
aS'Accused'
p110
aas.