(dp0
S'LOC'
p1
(lp2
(lp3
S'NEW DELHI'
p4
aS'5'
p5
aS'Neutral'
p6
aa(lp7
S'Guwahati'
p8
aS'24'
p9
aS'Event'
p10
aa(lp11
S'Assam'
p12
aS'36'
p13
aS'Neutral'
p14
aasS'PER'
p15
(lp16
(lp17
S'Madhukar Gupta'
p18
aS'29'
p19
aS'Comment'
p20
aa(lp21
S'Gupta'
p22
aS'50'
p23
aS'Comment'
p24
aasS'TIM'
p25
(lp26
sS'hot_setting'
p27
S''
p28
sS'DAT'
p29
(lp30
S'Monday:11'
p31
asS'death'
p32
g28
sS'title'
p33
S'Centre seeks report'
p34
sS'det_loc'
p35
(lp36
S'India'
p37
aS'Assam'
p38
ag28
aS'Guwahati'
p39
aS'Guwahati'
p40
asS'terror_group'
p41
(lp42
g28
asS'content'
p43
VSpecial Correspondent . . NEW DELHI : The Centre on Monday sought a report from the Assam government on the bomb blast in Guwahati . Union Home Secretary Madhukar Gupta , who spoke to the Assam Chief Secretary , advised him to strengthen security arrangements . . . Mr. Gupta assured all help to trace those involved in the explosion . . . The blast has evoked concern in the Home Ministry and the security establishment here . Sources said the worry was that elements related to the terror network could possibly use the occasion of the Lok Sabha poll campaign to strike at poll meetings .
p44
sS'injured'
p45
g28
sS'org_unorg'
p46
g28
sS'O'
p47
(lp48
S'Chief Secretary:37'
p49
aS'Home Ministry:71'
p50
asS'unexpl'
p51
(lp52
g28
asS'ocassion'
p53
g28
sS'link'
p54
S'http://www.thehindu.com/todays-paper/tp-national/centre-seeks-report/article299587.ece'
p55
sS'date'
p56
S'06-04-2009'
p57
sS'target'
p58
g28
sS'hot_spot'
p59
S'Guwahati'
p60
sS'delivery_mod'
p61
g28
sS'delivery_met'
p62
g28
sS'expl'
p63
(lp64
g28
asS'ORG'
p65
(lp66
(lp67
S'Assam government'
p68
aS'17'
p69
aS'Others'
p70
aas.