(dp0
S'LOC'
p1
(lp2
(lp3
S'Delhi'
p4
aS'218'
p5
aS'Neutral'
p6
aa(lp7
S'Ahmedabad'
p8
aS'233'
p9
aS'Neutral'
p10
aa(lp11
S'Orissa'
p12
aS'288'
p13
aS'Neutral'
p14
aa(lp15
S'Gujarat'
p16
aS'299'
p17
aS'Neutral'
p18
aa(lp19
S'Gujarat'
p20
aS'320'
p21
aS'Neutral'
p22
aa(lp23
S'Rajasthan'
p24
aS'322'
p25
aS'Neutral'
p26
aa(lp27
S'Maharashtra'
p28
aS'324'
p29
aS'Neutral'
p30
aa(lp31
S'Madhya Pradesh'
p32
aS'326'
p33
aS'Neutral'
p34
aa(lp35
S'Uttar Pradesh'
p36
aS'329'
p37
aS'Neutral'
p38
aa(lp39
S'Andhra Pradesh'
p40
aS'332'
p41
aS'Neutral'
p42
aa(lp43
S'Karnataka'
p44
aS'335'
p45
aS'Neutral'
p46
aa(lp47
S'Rajasthan'
p48
aS'338'
p49
aS'Neutral'
p50
aa(lp51
S'Gujarat'
p52
aS'340'
p53
aS'Neutral'
p54
aa(lp55
S'Mumbai'
p56
aS'342'
p57
aS'Neutral'
p58
aa(lp59
S'Jaipur'
p60
aS'393'
p61
aS'Neutral'
p62
aa(lp63
S'Ahmedabad'
p64
aS'395'
p65
aS'Neutral'
p66
aa(lp67
S'Jaipur'
p68
aS'425'
p69
aS'Neutral'
p70
aa(lp71
S'Ahmedabad'
p72
aS'427'
p73
aS'Neutral'
p74
aasS'PER'
p75
(lp76
(lp77
S'Amarnath'
p78
aS'280'
p79
aS'Others'
p80
aasS'TIM'
p81
(lp82
S'5 minutes : 9'
p83
asS'hot_setting'
p84
S''
p85
sS'DAT'
p86
(lp87
S'July 26 : 236'
p88
aS'2002 : 298'
p89
asS'death'
p90
g85
sS'title'
p91
S'There will be more bomb attacks, warns Indian Mujahideen'
p92
sS'det_loc'
p93
(lp94
S'India'
p95
aS'Delhi'
p96
aS'New Delhi'
p97
aS'New Delhi'
p98
ag85
asS'terror_group'
p99
(lp100
S'INDIAN MUJAHIDEEN'
p101
asS'content'
p102
Vdoweshowbellyad = 0 ; . . `` Within 5 minutes from now ... this time with the Message of Death , dreadfully terrorising you for your sins , '' the email said . `` And thus our promise will be fulfilled . Inshallah , '' it read . The outfit further challenged the police and security agencies to stop the serial blasts . `` Do whatever you want and stop us if you can , '' the mail said . The mail , which was sent from ` Arbi Hindi ' , from the e-mail ID of al_arbi_delhi@yahoo.com, also contained a video clip and an attached document , which the group claimed was evidence of its hand in the serial blasts . The clip showed a series of photographs of victims from previous blasts along with the caption `` our jihad '' . . . The Indian Mujahideen , in an attached document running into 13 pages , said that it is solely responsible for the serial blasts . `` The Indian Mujahideen the homegrown jehadi militia of Islam have once again attacked to make you face the disastrous consequences of the injustice and oppression inflicted upon the Muslims all over the country , '' the attached document said . . . The group claimed that the Delhi blasts were the direct result of the raids carried out before and after the Ahmedabad blasts on July 26 . `` This accurately planned deadly strike is just another reaction to all those pre-and post-26 July harassments imposed by your ATS and police on the innocent Muslims , '' the Indian Mujahideen said . . . The email refers to the Amarnath land issue and violence against Christians in Orissa . . . The Babri Masjid demolition and the 2002 Gujarat riots are also cited in the attached document . The document attacks the Central government and the state governments of Gujarat , Rajasthan , Maharashtra , Madhya Pradesh , Uttar Pradesh , Andhra Pradesh and Karnataka . The Rajasthan , Gujarat and Mumbai ATS , which are investigating blasts cases , also come under attack from the terror outfit . . . The document ends with a taunt to security agencies , saying that the security agencies till now had been unable to trace the earlier two emails it had sent before the Jaipur and Ahmedabad blasts . The terror outfit further warned of more attacks . . . In a similar fashion , the Indian Mujahideen had claimed responsibility for the serial blasts in Jaipur and Ahmedabad by sending emails to media houses . The emails were posted from fictitious accounts .
p103
sS'injured'
p104
g85
sS'org_unorg'
p105
g85
sS'O'
p106
(lp107
S'Message of Death:18'
p108
aS'dreadfully terrorising:22'
p109
aS'email:31'
p110
aS'outfit:50'
p111
aS'police and security agencies:54'
p112
aS'serial blasts:61'
p113
aS'Arbi Hindi:89'
p114
aS'e-mail ID:95'
p115
aS'al_arbi_delhi@yahoo.com:98'
p116
aS'video clip:102'
p117
aS'document:107'
p118
aS'evidence:114'
p119
aS'serial blasts:120'
p120
aS'photographs of victims:129'
p121
aS'our jihad:140'
p122
aS'document:153'
p123
aS'serial blasts:167'
p124
aS'jehadi militia of Islam:176'
p125
aS'injustice:193'
p126
aS'inflicted:196'
p127
aS'Muslims:199'
p128
aS'blasts:219'
p129
aS'blasts:234'
p130
aS'harassments:255'
p131
aS'Muslims:265'
p132
aS'email:276'
p133
aS'Amarnath land issue:280'
p134
aS'violence:284'
p135
aS'Christians:286'
p136
aS'Babri Masjid:293'
p137
aS'Gujarat riots:299'
p138
aS'blasts:348'
p139
aS'terror outfit:357'
p140
aS'security agencies:369'
p141
aS'security agencies:375'
p142
aS'emails:387'
p143
aS'blasts:396'
p144
aS'terror outfit:399'
p145
aS'attacks:405'
p146
aS'serial blasts:422'
p147
aS'emails:430'
p148
aS'emails:436'
p149
aS'fictitious accounts:440'
p150
asS'unexpl'
p151
(lp152
g85
asS'ocassion'
p153
g85
sS'link'
p154
S'http://articles.economictimes.indiatimes.com/2008-09-14/news/28459521_1_serial-blasts-ahmedabad-blasts-delhi-blasts'
p155
sS'date'
p156
S'13-09-2008'
p157
sS'target'
p158
S'MARKET PLACE'
p159
sS'hot_spot'
p160
g85
sS'delivery_mod'
p161
g85
sS'delivery_met'
p162
S'PLANTED'
p163
sS'expl'
p164
(lp165
g85
asS'ORG'
p166
(lp167
(lp168
S'Indian Mujahideen'
p169
aS'147'
p170
aS'Accused'
p171
aa(lp172
S'Indian Mujahideen'
p173
aS'172'
p174
aS'Accused'
p175
aa(lp176
S'ATS'
p177
aS'259'
p178
aS'Others'
p179
aa(lp180
S'Indian Mujahideen'
p181
aS'269'
p182
aS'Accused'
p183
aa(lp184
S'Central government'
p185
aS'313'
p186
aS'Others'
p187
aa(lp188
S'state governments'
p189
aS'317'
p190
aS'Others'
p191
aa(lp192
S'ATS'
p193
aS'343'
p194
aS'Others'
p195
aa(lp196
S'Indian Mujahideen'
p197
aS'415'
p198
aS'Accused'
p199
aas.