(dp0
S'LOC'
p1
(lp2
(lp3
S'Pune'
p4
aS'33'
p5
aS'Event'
p6
aa(lp7
S'Hyderabad'
p8
aS'47'
p9
aS'Event'
p10
aa(lp11
S'Delhi'
p12
aS'105'
p13
aS'Neutral'
p14
aa(lp15
S'Pune'
p16
aS'130'
p17
aS'Neutral'
p18
aa(lp19
S'Jaipur'
p20
aS'149'
p21
aS'Neutral'
p22
aa(lp23
S'Jaipur'
p24
aS'161'
p25
aS'Neutral'
p26
aa(lp27
S'Pul Prehladpur'
p28
aS'253'
p29
aS'Neutral'
p30
aa(lp31
S'Delhi'
p32
aS'257'
p33
aS'Neutral'
p34
aasS'PER'
p35
(lp36
(lp37
S'Maqbool'
p38
aS'66'
p39
aS'Accused'
p40
aa(lp41
S'Maqbool'
p42
aS'78'
p43
aS'Accused'
p44
aa(lp45
S'Langde Irfan'
p46
aS'144'
p47
aS'Accused'
p48
aa(lp49
S'Irfan'
p50
aS'157'
p51
aS'Accused'
p52
aa(lp53
S'Raju Bhai'
p54
aS'191'
p55
aS'Accused'
p56
aa(lp57
S'Asad Khan'
p58
aS'220'
p59
aS'Assoc Accused'
p60
aa(lp61
S'Imran Khan'
p62
aS'239'
p63
aS'Assoc Accused'
p64
aa(lp65
S'Syed Firoze'
p66
aS'259'
p67
aS'Assoc Accused'
p68
aasS'TIM'
p69
(lp70
S'five days : 270'
p71
asS'hot_setting'
p72
S''
p73
sS'DAT'
p74
(lp75
S'Friday morning : 49'
p76
aS'August 1 : 94'
p77
aS'August 1 : 128'
p78
aS'August 17 : 137'
p79
aS'October 10 : 168'
p80
aS'September 26 : 247'
p81
asS'death'
p82
g73
sS'title'
p83
S'Pune blasts: Key IM suspect arrested'
p84
sS'org_unorg'
p85
g73
sS'terror_group'
p86
(lp87
S'INDIAN MUJAHIDEEN'
p88
asS'content'
p89
VZeenews Bureau . . New Delhi : In a significant development , a suspected terrorist belonging to the terror outfit Indian Mujahideen ( IM ) , believed to be involved in the Pune serial blasts , was arrested by the Special Cell of Delhi Police in Hyderabad on Friday morning . . . According to reports , the IM operative who has been identified as Maqbool was picked up following an intelligence tip-off about his movement . Maqbool is accused of making the Improvised Explosive Device that was used in the blast on August 1 . The IM terrorist is currently being deported to Delhi for further interrogation by the Special Cell of Delhi Police . . . This is the fifth arrest in connection with the August 1 Pune serial blasts . . . On August 17 , another suspected IM terrorist Langde Irfan was arrested in Jaipur by the Delhi Police . . . Irfan was apprehended from Jaipur ` s Sindhi bus stand on October 10 by a team of Delhi Police ` s Special Cell . . . Police is still on the lookout for one Raju Bhai , who allegedly arranged hideouts for three of the arrested persons , and another unidentified person . Delhi Police had earlier arrested three suspected IM operatives - Asad Khan ( 33 ) , who is a recruiter , motivator and ideologue of the IM , and Imran Khan ( 31 ) were arrested on September 26 from their hideout in Pul Prehladpur in south Delhi while Syed Firoze ( 38 ) was nabbed from Nizamuddin Railway station five days later . . . With Agency Inputs .
p90
sS'injured'
p91
g73
sS'det_loc'
p92
(lp93
S'India'
p94
aS'Maharashtra'
p95
aS'Pune'
p96
aS'Pune'
p97
ag73
asS'O'
p98
(lp99
S'terrorist:15'
p100
aS'terror outfit:19'
p101
aS'serial blasts:34'
p102
aS'arrested:38'
p103
aS'special cell:41'
p104
aS'accused:80'
p105
aS'improvised explosive device:84'
p106
aS'blast:92'
p107
aS'terrorist:99'
p108
aS'interrogation:108'
p109
aS'special cell:111'
p110
aS'serial blasts:131'
p111
aS'terrorist:143'
p112
aS'arrested:147'
p113
aS'sindhi bus stand:164'
p114
aS'special cell:178'
p115
aS'arrested:214'
p116
aS'motivator and ideologue:231'
p117
aS'arrested:245'
p118
aS'nizamuddin railway station:267'
p119
asS'unexpl'
p120
(lp121
g73
asS'ocassion'
p122
g73
sS'link'
p123
S'http://zeenews.india.com/news/nation/pune-blasts-key-im-suspect-arrested_807675.html'
p124
sS'date'
p125
S'01-08-2012'
p126
sS'target'
p127
S'CITY'
p128
sS'hot_spot'
p129
g73
sS'delivery_mod'
p130
g73
sS'delivery_met'
p131
S'PLANTED'
p132
sS'expl'
p133
(lp134
S'IED'
p135
asS'ORG'
p136
(lp137
(lp138
S'Indian Mujahideen'
p139
aS'21'
p140
aS'Accused'
p141
aa(lp142
S'IM'
p143
aS'24'
p144
aS'Accused'
p145
aa(lp146
S'Delhi Police'
p147
aS'44'
p148
aS'Others'
p149
aa(lp150
S'IM'
p151
aS'59'
p152
aS'Accused'
p153
aa(lp154
S'IM'
p155
aS'98'
p156
aS'Accused'
p157
aa(lp158
S'Delhi Police'
p159
aS'114'
p160
aS'Others'
p161
aa(lp162
S'IM'
p163
aS'142'
p164
aS'Accused'
p165
aa(lp166
S'Delhi Police'
p167
aS'152'
p168
aS'Others'
p169
aa(lp170
S'Delhi Police'
p171
aS'174'
p172
aS'Others'
p173
aa(lp174
S'Delhi Police'
p175
aS'210'
p176
aS'Others'
p177
aa(lp178
S'IM'
p179
aS'217'
p180
aS'Accused'
p181
aa(lp182
S'IM'
p183
aS'236'
p184
aS'Accused'
p185
aas.