(dp0
S'LOC'
p1
(lp2
(lp3
S'Bangladesh'
p4
aS'1'
p5
aS'Victim Location'
p6
aa(lp7
S'India'
p8
aS'4'
p9
aS'Neutral'
p10
aa(lp11
S'Bardhaman'
p12
aS'11'
p13
aS'Event'
p14
aa(lp15
S'Bangladesh'
p16
aS'64'
p17
aS'Victim Location'
p18
aa(lp19
S'India'
p20
aS'112'
p21
aS'Neutral'
p22
aa(lp23
S'Bangladesh'
p24
aS'159'
p25
aS'Victim Location'
p26
aa(lp27
S'Beldanga'
p28
aS'170'
p29
aS'Neutral'
p30
aa(lp31
S'Murshidabad'
p32
aS'172'
p33
aS'Neutral'
p34
aa(lp35
S'Khagragarh'
p36
aS'183'
p37
aS'Neutral'
p38
aa(lp39
S'Bardhaman'
p40
aS'185'
p41
aS'Event'
p42
aasS'PER'
p43
(lp44
(lp45
S'Asaduzzaman Khan'
p46
aS'99'
p47
aS'Comment'
p48
aa(lp49
S'Shakeel Ahmed'
p50
aS'145'
p51
aS'Victim'
p52
aa(lp53
S'Khan'
p54
aS'231'
p55
aS'Comment'
p56
aasS'TIM'
p57
(lp58
sS'hot_setting'
p59
S''
p60
sS'DAT'
p61
(lp62
S'October 2:44'
p63
aS'2009:161'
p64
asS'death'
p65
g60
sS'title'
p66
S'Dhaka seeks Bardhaman blast details'
p67
sS'det_loc'
p68
(lp69
S'India'
p70
aS'West Bengal'
p71
aS'Bardhaman'
p72
aS'Bardhaman'
p73
aS'Bardhaman'
p74
asS'terror_group'
p75
(lp76
S'ISLAMIC TERRORIST OUTFITS'
p77
asS'content'
p78
VBangladesh has asked India to share any details of the Bardhaman blast investigation that point to the hand of Islamist terror groups on its soil . . . The West Bengal police are investigating if any of the four people arrested for the October 2 blast at the house of a local Trinamool Congress supporter have links with underground or terrorist groups in Bangladesh . . . Along with certain explosives , literature used for making bombs was found at the site of the blast . . . Expressing concern over the incident , Bangladeshs junior Home Minister Asaduzzaman Khan told The Hindu over phone : We have good relations with India . We share all information on sensitive issues . We would like the Indian Government to do the same in this case . . . The prime suspect in the blast , Shakeel Ahmed , who died on the spot , had allegedly crossed over from Bangladesh in 2009 . He had earlier rented a house in Beldanga in Murshidabad and only a few months ago rented the one in Khagragarh in Bardhaman , where the explosion occurred . . . The Minister said the Government of Bangladesh has not allowed its territory to be used for anti-Indian activities . . . We have dismantled several camps along the border which were involved in such activities , Mr. Khan said .
p79
sS'injured'
p80
g60
sS'org_unorg'
p81
S'ORGANISED'
p82
sS'O'
p83
(lp84
S'home minister:97'
p85
asS'unexpl'
p86
(lp87
g60
asS'ocassion'
p88
g60
sS'link'
p89
S'http://www.thehindu.com/todays-paper/tp-national/dhaka-seeks-bardhaman-blast-details/article6479804.ece'
p90
sS'date'
p91
S'02-10-2014'
p92
sS'target'
p93
g60
sS'hot_spot'
p94
S'Bardhaman'
p95
sS'delivery_mod'
p96
g60
sS'delivery_met'
p97
S'ACCIDENTAL'
p98
sS'expl'
p99
(lp100
g60
asS'ORG'
p101
(lp102
(lp103
S'Islamist terror'
p104
aS'20'
p105
aS'Accused'
p106
aa(lp107
S'West Bengal police'
p108
aS'30'
p109
aS'Others'
p110
aa(lp111
S'Trinamool Congress'
p112
aS'53'
p113
aS'Others'
p114
aa(lp115
S'The Hindu'
p116
aS'102'
p117
aS'Others'
p118
aa(lp119
S'Indian Government'
p120
aS'126'
p121
aS'Others'
p122
aa(lp123
S'Government of Bangladesh'
p124
aS'198'
p125
aS'Others'
p126
aas.