(dp0
S'LOC'
p1
(lp2
(lp3
S'Assam'
p4
aS'7'
p5
aS'Event'
p6
aa(lp7
S'GUWAHATI'
p8
aS'15'
p9
aS'Event'
p10
aa(lp11
S'Assam'
p12
aS'47'
p13
aS'Event'
p14
aa(lp15
S'Dhemaji'
p16
aS'70'
p17
aS'Event'
p18
aa(lp19
S'upper Assam'
p20
aS'82'
p21
aS'Event'
p22
aa(lp23
S'Assam'
p24
aS'83'
p25
aS'Event'
p26
aa(lp27
S'Jorhat'
p28
aS'85'
p29
aS'Event'
p30
aa(lp31
S'Tinsukia'
p32
aS'124'
p33
aS'Source'
p34
aa(lp35
S'Dhubri:130'
p36
aS'Source'
p37
aS'Neutral'
p38
aasS'PER'
p39
(lp40
(lp41
S'Sushanta Talukdar'
p42
aS'11'
p43
aS'Accused'
p44
aasS'TIM'
p45
(lp46
S'night : 33'
p47
aS'night : 74'
p48
aS'tonight : 87'
p49
asS'hot_setting'
p50
S''
p51
sS'DAT'
p52
(lp53
S'APRIL 3 : 17'
p54
aS'Saturday:32'
p55
asS'death'
p56
g51
sS'title'
p57
S'ULFA triggers two blasts  in Assam'
p58
sS'org_unorg'
p59
S'ORGANISED'
p60
sS'terror_group'
p61
(lp62
S'UNITED LIBERATION FRONT OF ASOM '
p63
asS'content'
p64
VNational ULFA triggers two blasts in Assam . . By Sushanta Talukdar . . GUWAHATI , APRIL 3 . The United Liberation Front of Asom has triggered two more blasts since Saturday night , even as police today recovered five explosive devices from different parts of Assam . . . A panchayat office was badly damaged in a blast suspected to have been triggered by the militant outfit in Dhemaji district late last night . . . Another blast occurred in upper Assam 's Jorhat town tonight when militants lobbed a grenade . . . A major tragedy was averted when a device recovered near the blast site was defused by explosive experts . . . Police also recovered an explosive device in Tinsukia and three crude bombs in Dhubri district .
p65
sS'injured'
p66
g51
sS'det_loc'
p67
(lp68
S'India'
p69
aS'Assam'
p70
aS'Dhemaji'
p71
aS'GUWAHATI'
p72
aS'Assam'
p73
asS'O'
p74
(lp75
S'panchayat office:52'
p76
aS'militant:67'
p77
aS'.:75'
p78
aS'another blast:78'
p79
aS'when:88'
p80
aS'militants:89'
p81
aS'grenade:92'
p82
asS'unexpl'
p83
(lp84
g51
asS'ocassion'
p85
g51
sS'link'
p86
S'http://www.thehindu.com/2005/04/04/stories/2005040407011100.htm'
p87
sS'date'
p88
S'02-04-2005'
p89
sS'target'
p90
g51
sS'hot_spot'
p91
S'Assam'
p92
sS'delivery_mod'
p93
g51
sS'delivery_met'
p94
g51
sS'expl'
p95
(lp96
S'CRUDE BOMB'
p97
asS'ORG'
p98
(lp99
(lp100
S'National ULFA'
p101
aS'1'
p102
aS'Accused'
p103
aa(lp104
S'United Liberation Front of Asom'
p105
aS'21'
p106
aS'Accused'
p107
aa(lp108
S'police'
p109
aS'37'
p110
aS'Others'
p111
aa(lp112
S'Police'
p113
aS'117'
p114
aS'Others'
p115
aas.