(dp0
S'LOC'
p1
(lp2
(lp3
S'Bardhaman'
p4
aS'9'
p5
aS'Event'
p6
aa(lp7
S'Baburbagh'
p8
aS'300'
p9
aS'Neutral'
p10
aa(lp11
S'Burdwan'
p12
aS'330'
p13
aS'Event'
p14
aasS'PER'
p15
(lp16
(lp17
S'Dilip Adak'
p18
aS'72'
p19
aS'Comment'
p20
aa(lp21
S'Abdul Hakim'
p22
aS'112'
p23
aS'Accused'
p24
aa(lp25
S'Hashem Molla'
p26
aS'130'
p27
aS'Accused'
p28
aa(lp29
S'Gulsana Bibi'
p30
aS'146'
p31
aS'Accused'
p32
aa(lp33
S'Alima Bibi'
p34
aS'149'
p35
aS'Accused'
p36
aa(lp37
S'Rajnath Singh'
p38
aS'230'
p39
aS'Comment'
p40
aa(lp41
S'Kauser'
p42
aS'271'
p43
aS'Accused'
p44
aa(lp45
S'Mukul Roy'
p46
aS'324'
p47
aS'Others'
p48
aasS'TIM'
p49
(lp50
sS'hot_setting'
p51
S''
p52
sS'DAT'
p53
(lp54
S'2008:36'
p55
aS'Wednesday:50'
p56
aS'Tuesday:129'
p57
aS'Monday:139'
p58
aS'October 2:163'
p59
aS'Sunday:168'
p60
aS'Thursday:356'
p61
asS'death'
p62
g52
sS'title'
p63
S'Blast accused slapped with cases under UAPA Act'
p64
sS'det_loc'
p65
(lp66
S'India'
p67
aS'West Bengal'
p68
aS'Bardhaman'
p69
ag52
aS'Bardhaman'
p70
asS'terror_group'
p71
(lp72
g52
asS'content'
p73
VSix days after the blast in West Bengals Bardhaman district , the four accused arrested in the case have been charged under sections of the Unlawful Activities Prevention Act -LRB- UAPA -RRB- , Amended , 2008 , officials of the Criminal Investigation Department -LRB- CID -RRB- said here on Wednesday . . . We have charged all the four accused including two women under several sections of the UAPA Act , Dilip Adak , Deputy Inspector General of CID , told The Hindu . . . The accused have also been charged under IPC sections 121A , 122 and 123 relating to waging war against the State . . . While Abdul Hakim , an accused present at the site when the blast occurred , was arrested on Tuesday Hashem Molla , another accused , was arrested on Monday . . . Two women -- Gulsana Bibi and Alima Bibi -- who were present in the building after the blast occurred on October 2 were arrested on Sunday . . . Earlier , the women were charged under several sections of the Indian Penal Code . During the day , the two were brought to the CID headquarters in the city for interrogation . The other accused were brought to the city earlier . . . Meanwhile , the Union Home Ministry has given a report to Home Minister Rajnath Singh about the blast . . . Other houses searched . . Meanwhile , the police conducted searches at two houses which are in the vicinity of the house where the blast took place . . . The police suspect Kauser , one of the accused who is at large and whose sketch police have released , used the houses . . . At one of the houses at Baburbagh , the police seized firearms and bullets along with other documents . . . The All India Trinamool Congress led by general secretary Mukul Roy held a rally in Burdwan town alleging that the BJP is spreading canards against the State government . . . The BJP State unit will take out a rally on Thursday .
p74
sS'injured'
p75
g52
sS'org_unorg'
p76
S'ORGANISED'
p77
sS'O'
p78
(lp79
S'Unlawful Activities Prevention:26'
p80
aS'IPC sections 121A , 122 and 123:94'
p81
aS'Indian Penal Code:183'
p82
aS'Home Minister:228'
p83
aS'police:246'
p84
asS'unexpl'
p85
(lp86
g52
asS'ocassion'
p87
g52
sS'link'
p88
S'http://www.thehindu.com/todays-paper/blast-accused-slapped-with-cases-under-uapa-act/article6483252.ece'
p89
sS'date'
p90
S'02-10-2014'
p91
sS'target'
p92
g52
sS'hot_spot'
p93
S'Bardhaman'
p94
sS'delivery_mod'
p95
g52
sS'delivery_met'
p96
S'PLANTED'
p97
sS'expl'
p98
(lp99
g52
asS'ORG'
p100
(lp101
(lp102
S'Criminal Investigation Department'
p103
aS'41'
p104
aS'Others'
p105
aa(lp106
S'CID'
p107
aS'45'
p108
aS'Others'
p109
aa(lp110
S'The Hindu'
p111
aS'82'
p112
aS'Others'
p113
aa(lp114
S'All India Trinamool Congress'
p115
aS'316'
p116
aS'Others'
p117
aa(lp118
S'BJP'
p119
aS'335'
p120
aS'Others'
p121
aa(lp122
S'State government'
p123
aS'341'
p124
aS'Others'
p125
aa(lp126
S'BJP'
p127
aS'347'
p128
aS'Others'
p129
aas.