(dp0
S'LOC'
p1
(lp2
(lp3
S'Guwahati'
p4
aS'13'
p5
aS'Event'
p6
aa(lp7
S'Assam'
p8
aS'37'
p9
aS'Event'
p10
aa(lp11
S'Assam'
p12
aS'105'
p13
aS'Event'
p14
aa(lp15
S'Kokrajhar'
p16
aS'110'
p17
aS'Event'
p18
aa(lp19
S'Barpeta road'
p20
aS'112'
p21
aS'Event'
p22
aa(lp23
S'Bongaingaon'
p24
aS'115'
p25
aS'Event'
p26
aa(lp27
S'Kokrajhar'
p28
aS'213'
p29
aS'Neutral'
p30
aa(lp31
S'Assam'
p32
aS'292'
p33
aS'Event'
p34
aa(lp35
S'India'
p36
aS'294'
p37
aS'Neutral'
p38
aa(lp39
S'Assam'
p40
aS'369'
p41
aS'Event'
p42
aa(lp43
S'Kokrajhar'
p44
aS'525'
p45
aS'Event'
p46
aasS'PER'
p47
(lp48
(lp49
S'Sushanta Talukdar'
p50
aS'1'
p51
aS'Others'
p52
aa(lp53
S'Shivraj Patil'
p54
aS'60'
p55
aS'Others'
p56
aa(lp57
S'Patil'
p58
aS'97'
p59
aS'Others'
p60
aa(lp61
S'Patil'
p62
aS'128'
p63
aS'Others'
p64
aa(lp65
S'Tarun Gogoi'
p66
aS'139'
p67
aS'Others'
p68
aa(lp69
S'Manmohan Singh'
p70
aS'231'
p71
aS'Others'
p72
aa(lp73
S'Sonia Gandhi'
p74
aS'236'
p75
aS'Others'
p76
aa(lp77
S'Subhas Das'
p78
aS'356'
p79
aS'Comment'
p80
aa(lp81
S'R. Chandranthan'
p82
aS'471'
p83
aS'Others'
p84
aa(lp85
S'Patil'
p86
aS'530'
p87
aS'Others'
p88
aasS'TIM'
p89
(lp90
S'afternoon : 123'
p91
aS'yesterdays : 285'
p92
aS'5.12 p.m.:347'
p93
asS'hot_setting'
p94
S''
p95
sS'DAT'
p96
(lp97
S'Friday:29'
p98
aS'Thursdays : 33'
p99
aS'Saturday:246'
p100
asS'death'
p101
S'75'
p102
sS'title'
p103
S'Assam blasts death toll 75'
p104
sS'org_unorg'
p105
g95
sS'terror_group'
p106
(lp107
S'INDIAN MUJAHIDEEN'
p108
asS'content'
p109
VSushanta Talukdar . . Little known Islamist outfit claims responsibility . . Guwahati : A little known terrorist outfit the Islamic Security Force -LRB- Indian Mujahideen -RRB- on Friday claimed responsibility for Thursdays serial blasts in Assam and warned of more such attacks in the State and in the rest of the country . . . Union Home Minister Shivraj Patil arrived in the State to take stock of the situation and review the security measures in the wake the blasts . Soon after his arrival at the Lokpriya Gopinath Bardoloi international airport here , Mr. Patil flew to the others places in Lower Assam where the blasts occurred Kokrajhar , Barpeta road and Bongaingaon and returned to the city in the afternoon . . . Mr. Patil reviewed the situation at a high-level meeting with Chief Minister Tarun Gogoi and top security officials . He said it was too early to speculate on the perpetrators of the blasts ; besides doing so would adversely affect the investigation . He , however , gave the assurance that those responsible for the blasts would be severely punished . . . Meanwhile , the death toll has gone up to 75 , with 12 more dying of injuries in city hospitals and one in Kokrajhar . The death toll in the city has gone up to 43 . . . Prime Minister Manmohan Singh and Congress President Sonia Gandhi are scheduled to arrive in the State on Saturday to take stock of the situation and visit the blast sites . . . A local television news channel News Live claimed to have received an SMS saying : We ISF -LRB- IM -RRB- take the responsibility of yesterdays blast . We warn all of Assam and India of situations like this in future . We thank all our holy members and partners . Ameen . . . Managing Editor of News Live Syed Zarir Hussain told The Hindu that the input desk of the news channel received the SMS purportedly sent from a cell-phone -LRB- No. 98640-93690 -RRB- at 5.12 p.m. . . Principal Secretary -LRB- Home -RRB- Subhas Das said the police were studying the message . . . The Assam police , in its initial report to the Home Department , said the needle of suspicion pointed to Islamic terror outfits , the Harkat-ul Jihadi Islami -LRB- HUJI -RRB- and the Jamaat-ul Mujahideen Bangladesh -LRB- JMB -RRB- . Based on initial forensic findings , the police said car bombs were used in the all three places in the city and plastic explosives were used to maximise collateral damage . A team of explosives experts of the NSG collected evidence from the sites . . . The State government has ordered a Special Task Force , headed by Inspector-General -LRB- STF -RRB- R. Chandranthan , to probe all aspects of the serial blast and chargesheet those involved . . . The city witnessed anger and outrage on the streets for the second consecutive day , prompting the police to burst teargas shells and use force . . . Earlier , speaking to reporters briefly at the Kokrajhar blast site , Mr. Patil said he had asked the State government to take the strongest possible action against those responsible for the blasts . I have come to share your grief . I extend my sympathy to all those who have suffered . I offer condolences to the families who lost their lives .
p110
sS'injured'
p111
g95
sS'det_loc'
p112
(lp113
S'India'
p114
aS'Assam'
p115
aS'Kokrajhar'
p116
aS'G7uwahati'
p117
ag95
asS'O'
p118
(lp119
S'Islamist outfit:7'
p120
aS'claims responsibility:9'
p121
aS'terrorist outfit:18'
p122
aS'claimed responsibility:30'
p123
aS'serial blasts:34'
p124
aS'warned:39'
p125
aS'attacks:43'
p126
aS'State:46'
p127
aS'country:53'
p128
aS'arrived:62'
p129
aS'State:65'
p130
aS'stock:68'
p131
aS'situation:71'
p132
aS'review:73'
p133
aS'security measures:75'
p134
aS'blasts:81'
p135
aS'arrival:86'
p136
aS'Lokpriya Gopinath Bardoloi international airport:89'
p137
aS'flew:98'
p138
aS'blasts:108'
p139
aS'returned:117'
p140
aS'city:120'
p141
aS'reviewed:129'
p142
aS'situation:131'
p143
aS'high-level meeting:134'
p144
aS'security officials:143'
p145
aS'speculate:153'
p146
aS'perpetrators:156'
p147
aS'blasts:159'
p148
aS'adversely affect:165'
p149
aS'investigation:168'
p150
aS'assurance:176'
p151
aS'responsible:179'
p152
aS'blasts:182'
p153
aS'severely punished:185'
p154
aS'death toll:193'
p155
aS'dying of injuries:204'
p156
aS'city hospitals:208'
p157
aS'death toll:216'
p158
aS'city:220'
p159
aS'scheduled:239'
p160
aS'arrive:241'
p161
aS'State:244'
p162
aS'stock:249'
p163
aS'situation:252'
p164
aS'blast sites:256'
p165
aS'local television news channel:262'
p166
aS'claimed:268'
p167
aS'received:271'
p168
aS'SMS:273'
p169
aS'responsibility:283'
p170
aS'blast:286'
p171
aS'studying the message:362'
p172
aS'initial report:374'
p173
aS'suspicion:385'
p174
aS'Islamic terror outfits:388'
p175
aS'initial forensic findings:410'
p176
aS'car bombs:417'
p177
aS'three places:424'
p178
aS'city:428'
p179
aS'plastic explosives:430'
p180
aS'maximise collateral damage:435'
p181
aS'explosives:442'
p182
aS'experts:443'
p183
aS'NSG collected evidence:446'
p184
aS'sites:451'
p185
aS'ordered:459'
p186
aS'headed:465'
p187
aS'probe:475'
p188
aS'aspects:477'
p189
aS'serial blast:480'
p190
aS'chargesheet:483'
p191
aS'involved:485'
p192
aS'city witnessed:490'
p193
aS'anger:492'
p194
aS'outrage:494'
p195
aS'streets:497'
p196
aS'second consecutive day:500'
p197
aS'prompting:504'
p198
aS'burst teargas shells:508'
p199
aS'reporters:521'
p200
aS'blast site:526'
p201
aS'action against:543'
p202
aS'blasts:549'
p203
aS'grief:557'
p204
aS'sympathy:562'
p205
aS'suffered:568'
p206
aS'condolences:572'
p207
asS'unexpl'
p208
(lp209
g95
asS'ocassion'
p210
g95
sS'link'
p211
S'http://www.thehindu.com/todays-paper/assam-blasts-death-toll-75/article1367388.ece'
p212
sS'date'
p213
S'30-10-2008'
p214
sS'target'
p215
S'PUBLIC PLACES'
p216
sS'hot_spot'
p217
g95
sS'delivery_mod'
p218
g95
sS'delivery_met'
p219
g95
sS'expl'
p220
(lp221
g95
asS'ORG'
p222
(lp223
(lp224
S'Sushanta'
p225
ag51
aS'Others'
p226
aa(lp227
S'Islamic Security Force'
p228
aS'21'
p229
aS'Accused'
p230
aa(lp231
S'Indian Mujahideen'
p232
aS'25'
p233
aS'Accused'
p234
aa(lp235
S'News Live'
p236
aS'266'
p237
aS'Others'
p238
aa(lp239
S'ISF'
p240
aS'277'
p241
aS'Accused'
p242
aa(lp243
S'IM'
p244
aS'279'
p245
aS'Accused'
p246
aa(lp247
S'Assam police'
p248
aS'369'
p249
aS'Others'
p250
aa(lp251
S'Harkat-ul Jihadi Islami'
p252
aS'393'
p253
aS'Others'
p254
aa(lp255
S'HUJI'
p256
aS'397'
p257
aS'Others'
p258
aa(lp259
S'Jamaat-ul Mujahideen Bangladesh'
p260
aS'401'
p261
aS'Others'
p262
aa(lp263
S'JMB'
p264
aS'405'
p265
aS'Others'
p266
aa(lp267
S'State government'
p268
aS'456'
p269
aS'Others'
p270
aa(lp271
S'Special Task Force'
p272
aS'461'
p273
aS'Others'
p274
aa(lp275
S'STF'
p276
aS'469'
p277
aS'Others'
p278
aa(lp279
S'State government'
p280
aS'536'
p281
aS'Others'
p282
aas.