(dp0
S'LOC'
p1
(lp2
(lp3
S'India'
p4
aS'25'
p5
aS'Event'
p6
aa(lp7
S'Mumbai'
p8
aS'39'
p9
aS'Neutral'
p10
aa(lp11
S'India'
p12
aS'88'
p13
aS'Event'
p14
aa(lp15
S'India'
p16
aS'121'
p17
aS'Event'
p18
aa(lp19
S'Mumbai'
p20
aS'136'
p21
aS'Neutral'
p22
aa(lp23
S'Mumbai'
p24
aS'176'
p25
aS'Assoc Event Location'
p26
aa(lp27
S'Maharashtra'
p28
aS'195'
p29
aS'Neutral'
p30
aa(lp31
S'Gujarat'
p32
aS'197'
p33
aS'Neutral'
p34
aa(lp35
S'Uttar Pradesh'
p36
aS'199'
p37
aS'Neutral'
p38
aa(lp39
S'India'
p40
aS'309'
p41
aS'Neutral'
p42
aa(lp43
S'Philadelphia'
p44
aS'331'
p45
aS'Neutral'
p46
aa(lp47
S'Pakistan'
p48
aS'337'
p49
aS'Victim Location'
p50
aasS'PER'
p51
(lp52
(lp53
S'G K Pillai'
p54
aS'5'
p55
aS'Comment'
p56
aa(lp57
S'David Coleman Headley'
p58
aS'10'
p59
aS'Accused'
p60
aa(lp61
S'Lashkar-e-Toiba'
p62
aS'31'
p63
aS'Others'
p64
aa(lp65
S'Headley'
p66
aS'69'
p67
aS'Accused'
p68
aa(lp69
S'Daood Gilani'
p70
aS'83'
p71
aS'Others'
p72
aa(lp73
S'Pillai'
p74
aS'102'
p75
aS'Others'
p76
aa(lp77
S'Headley'
p78
aS'118'
p79
aS'Accused'
p80
aa(lp81
S'Headley'
p82
aS'150'
p83
aS'Accused'
p84
aS'Others'
p85
aa(lp86
S'Headley'
p87
aS'183'
p88
aS'Accused'
p89
aa(lp90
S'Headley'
p91
aS'226'
p92
aS'Accused'
p93
aa(lp94
S'Tahawwur Hussain Rana'
p95
aS'230'
p96
aS'Accused'
p97
aa(lp98
S'Daood Gilani'
p99
aS'295'
p100
aS'Accused'
p101
aa(lp102
S'Headley'
p103
aS'313'
p104
aasS'TIM'
p105
(lp106
sS'hot_setting'
p107
S''
p108
sS'DAT'
p109
(lp110
S'2006 : 95'
p111
aS'2009 : 97'
p112
asS'death'
p113
g108
sS'title'
p114
S'Headley travelled to India nine times on business visa'
p115
sS'org_unorg'
p116
g108
sS'terror_group'
p117
(lp118
g108
asS'content'
p119
VAs Union Home Secretary G K Pillai confirmed that David Coleman Headley , arrested by the FBI for plotting a major terror attack in India at the behest of the Lashkar-e-Toiba , had visited the country , including Mumbai , several times , official sources said the government has now decided on prior clearances for visas to American citizens of Pakistani origin . . . Sources said that Headley , a Pakistani national who acquired US citizenship after changing his name from Daood Gilani , travelled to India on business visas nine times between 2006 and 2009 . . . And Pillai , responding to queries from reporters today , said : `` We do know that Headley had visited India a number of times . That is being investigated ... He has been in Mumbai and some other places . '' . . Security agencies are looking into Headley 's visits to `` several cities '' and say it is too early to say whether these were linked to the 26/11 terror strike in Mumbai . . . Official sources said Headley was suspected to have set-up an extensive network , particularly in Maharashtra , Gujarat and Uttar Pradesh , using the cover of a businessman . . . Although the government is awaiting the return of Intelligence officials who had gone to interrogate Headley and his associate Tahawwur Hussain Rana , alarm bells are already ringing in the internal security establishment with immigration records being dug out to get hold of the full picture . . . As a first step , the government , sources said , will inform the Americans that visas to its nationals of Pakistani origin will only be given after prior clearances . The government believes that Daood Gilani deliberately acquired a Christian name and American passport to avoid detection in India . . . Headley was arrested last month at Chicago 's O'Hare airport as he prepared to board a flight to Philadelphia , intending to travel to Pakistan .
p120
sS'injured'
p121
g108
sS'det_loc'
p122
(lp123
S'India'
p124
ag108
ag108
ag108
ag108
asS'O'
p125
(lp126
S'Union Home Secretary:2'
p127
aS'confirmed:8'
p128
aS'plotting:19'
p129
aS'major terror attack:21'
p130
aS'American citizens:58'
p131
aS'Pakistani origin:61'
p132
aS'Pakistani national:72'
p133
aS'US citizenship:76'
p134
aS'changing:79'
p135
aS'name:81'
p136
aS'business:90'
p137
aS'visas:91'
p138
aS'nine times:92'
p139
aS'linked:169'
p140
aS'26/11 terror strike:172'
p141
aS'extensive network:190'
p142
aS'Intelligence officials:219'
p143
aS'associate:229'
p144
aS'alarm bells:234'
p145
aS'immigration records:245'
p146
aS'Americans:274'
p147
aS'visas:276'
p148
aS'Pakistani origin:281'
p149
aS'prior clearances:288'
p150
aS'deliberately acquired:297'
p151
aS'Christian name:300'
p152
aS'American passport:303'
p153
aS'arrested:315'
p154
aS"Chicago 's O'Hare airport:319"
p155
asS'unexpl'
p156
(lp157
g108
asS'ocassion'
p158
g108
sS'link'
p159
S'http://archive.indianexpress.com/news/headley-travelled-to-india-nine-times-on-business-visa/539044/'
p160
sS'date'
p161
S'26-03-2010'
p162
sS'target'
p163
g108
sS'hot_spot'
p164
g108
sS'delivery_mod'
p165
g108
sS'delivery_met'
p166
g108
sS'expl'
p167
(lp168
g108
asS'ORG'
p169
(lp170
(lp171
S'FBI'
p172
aS'17'
p173
aS'Others'
p174
aas.