(dp0
S'LOC'
p1
(lp2
(lp3
S'New Delhi'
p4
aS'1'
p5
aS'Neutral'
p6
aa(lp7
S'Assam'
p8
aS'22'
p9
aS'Neutral'
p10
aa(lp11
S'Bengpukhuri'
p12
aS'54'
p13
aS'Neutral'
p14
aa(lp15
S'Tinsukia'
p16
aS'57'
p17
aS'Event'
p18
aa(lp19
S'Athgaon'
p20
aS'80'
p21
aS'Event'
p22
aa(lp23
S'Fatasil Ambari'
p24
aS'98'
p25
aS'Event'
p26
aa(lp27
S'Tinsukhia'
p28
aS'136'
p29
aS'Event'
p30
aa(lp31
S'cinema hall'
p32
aS'159'
p33
aS'Neutral'
p34
aa(lp35
S'Uchumati'
p36
aS'162'
p37
aS'Event'
p38
aa(lp39
S'Doomdooma'
p40
aS'164'
p41
aS'Event'
p42
aa(lp43
S'Devipukhuri Tinali'
p44
aS'184'
p45
aS'Event'
p46
aa(lp47
S'Tinsukia'
p48
aS'198'
p49
aS'Event'
p50
aa(lp51
S'Dibrugarh'
p52
aS'223'
p53
aS'Neutral'
p54
aasS'PER'
p55
(lp56
sS'TIM'
p57
(lp58
S'evening : 25'
p59
aS'1745 hrs : 188'
p60
asS'hot_setting'
p61
S''
p62
sS'DAT'
p63
(lp64
S'Sunday:24'
p65
aS'October 1:124'
p66
asS'death'
p67
S'2'
p68
sS'title'
p69
S'Serial blasts rip through Assam, two killed'
p70
sS'org_unorg'
p71
S'ORGANISED'
p72
sS'terror_group'
p73
(lp74
S'UNITED LIBERATION FRONT OF ASSAM (ULFA)'
p75
asS'content'
p76
VNew Delhi : At least two people were reportedly killed and 18 were injured in three near-simultaneous blasts that ripped through Assam on Sunday evening . . . According to security officials , the blasts were suspected to have been triggered by rebel outfit ULFA . . . Maximum damage were reported from Bengpukhuri area in Tinsukia town where one person was killed and 16 injured when a car bomb exploded . . . The second blast ripped through Athgaon area killing one person and injuring two others . . . The third explosion took place in Fatasil Ambari area of the city but there was no report of any casualty.This is the second such attack in less than two months . On October 1 , ULFA triggered powerful bomb explosions at three places in Tinsukhia , leaving four persons dead and 31 injured.Two people were killed when a powerful bomb blew up a motorcycle parked near a cinema hall at Uchumati in Doomdooma town of the district.Fourteen passersby were injured in the blast , officials said . Another bomb explosion occurred near Devipukhuri Tinali at around 1745 hrs ( IST ) near an electric transformer in Tinsukia town , killing two persons and leaving 17 injured , they said.The victims were declared brought dead in the Assam Medical College Hospital at Dibrugarh . . . .
p77
sS'injured'
p78
S'18'
p79
sS'det_loc'
p80
(lp81
S'India'
p82
aS'Assam'
p83
aS'Tinsukia'
p84
aS'guwahati'
p85
aS'Bengpukhuri'
p86
asS'O'
p87
(lp88
S'motorcycle:155'
p89
asS'unexpl'
p90
(lp91
g62
asS'ocassion'
p92
g62
sS'link'
p93
S'http://www.ibnlive.com/news/india/serial-blasts-rip-through-assam-two-killed-277095.html'
p94
sS'date'
p95
S'25-11-2007'
p96
sS'target'
p97
g62
sS'hot_spot'
p98
S'Bengpukhuri'
p99
sS'delivery_mod'
p100
g62
sS'delivery_met'
p101
S'PLANTED'
p102
sS'expl'
p103
(lp104
g62
asS'ORG'
p105
(lp106
(lp107
S'ULFA'
p108
aS'45'
p109
aS'Accused'
p110
aa(lp111
S'ULFA'
p112
aS'127'
p113
aS'Accused'
p114
aa(lp115
S'Assam Medical College Hospital'
p116
aS'218'
p117
aS'Others'
p118
aas.