(dp0
S'LOC'
p1
(lp2
(lp3
S'NEW DELHI'
p4
aS'1'
p5
aS'Event'
p6
aa(lp7
S'Hindu holy city'
p8
aS'21'
p9
aS'Event'
p10
aa(lp11
S'Varanasi'
p12
aS'25'
p13
aS'Neutral'
p14
aasS'PER'
p15
(lp16
sS'TIM'
p17
(lp18
S'evening : 14'
p19
asS'hot_setting'
p20
S''
p21
sS'DAT'
p22
(lp23
S'Tuesday : 13'
p24
asS'death'
p25
g21
sS'title'
p26
S'India on Alert as Bomb Hits Hindu Holy City'
p27
sS'det_loc'
p28
(lp29
S'India'
p30
aS'Delhi'
p31
aS'New Delhi'
p32
aS'New Delhi'
p33
aS'Hindu holy city'
p34
asS'terror_group'
p35
(lp36
g21
asS'content'
p37
VNEW DELHI Indian authorities issued security alerts in several major cities on Tuesday evening after a bomb detonated in the Hindu holy city of Varanasi . The police said the explosion and ensuing panic of pilgrims left a toddler dead and at least 20 other people injured . .
p38
sS'injured'
p39
S'20'
p40
sS'org_unorg'
p41
S'ORGANISED'
p42
sS'O'
p43
(lp44
S'police:28'
p45
asS'unexpl'
p46
(lp47
g21
asS'ocassion'
p48
g21
sS'link'
p49
S'http://www.nytimes.com/2010/12/08/world/asia/08bomb.html?_r=0'
p50
sS'date'
p51
S'07-12-2010'
p52
sS'target'
p53
g21
sS'hot_spot'
p54
S'Hindu holy city'
p55
sS'delivery_mod'
p56
g21
sS'delivery_met'
p57
S'PLANTED'
p58
sS'expl'
p59
(lp60
g21
asS'ORG'
p61
(lp62
s.