(dp0
S'LOC'
p1
(lp2
(lp3
S'GUWAHATI'
p4
aS'1'
p5
aS'Source'
p6
aS'Neutral'
p7
aa(lp8
S'Assam'
p9
aS'144'
p10
aS'Accused Location'
p11
aS'Neutral'
p12
aa(lp13
S'Dispur'
p14
aS'26'
p15
aS'Event'
p16
aa(lp17
S'Ganeshguri'
p18
aS'37'
p19
aS'Event'
p20
aa(lp21
S'Assam'
p22
aS'144'
p23
aS'Neutral'
p24
aa(lp25
S'Arunachal Pradesh'
p26
aS'146'
p27
aS'Neutral'
p28
aasS'PER'
p29
(lp30
(lp31
S'Manmohan Singh : 96'
p32
aS'Comment'
p33
aS'Others'
p34
aa(lp35
S'Manmohan Singh'
p36
aS'96'
p37
aS'Comment'
p38
aasS'TIM'
p39
(lp40
S'6:50 pm:45'
p41
aS'pm:46'
p42
asS'hot_setting'
p43
S''
p44
sS'event'
p45
S'ec0000_ei0018'
p46
sS'content'
p47
VGUWAHATI : One person was killed and ten others were critically injured in a bomb attack by suspected ULFA cadres in a market near the Dispur capital complex here on Wednesday.The bomb , kept in the Ganeshguri wholesale vegetable market , exploded at around 6:50 pm , police said.The injured were rushed to a nearby hospital.The market is located near the Indian office adjacent to a high-security complex where the offices of the chief minister and his cabinet colleagues as well as the state secretariat are located.The blast took place a day after Prime Minister Manmohan Singh delivered a tough message to ULFA militants that there would be no compromise if they resorted to violence and assured fool-proof security to Hindi-speaking people , 70 of whom were gunned down recently by the banned group.The army launched a major offensive against the ULFA in Assam and Arunachal Pradesh in the wake of the killings .
p48
sS'death'
p49
g5
sS'title'
p50
S'One killed in Guwahati bomb blast'
p51
sS'org_unorg'
p52
S'ORGANISED'
p53
sS'terror_group'
p54
(lp55
S'UNITED LIBERATION FRONT OF ASSAM (ULFA)'
p56
asS'DAT'
p57
(lp58
S'Wednesday.The : 31'
p59
asS'injured'
p60
S'10'
p61
sS'det_loc'
p62
(lp63
S'India'
p64
aS'Assam'
p65
aS'Kamrup'
p66
aS'Ganeshguri'
p67
ag44
asS'O'
p68
(lp69
S'person:4'
p70
aS'bomb attack:15'
p71
aS'vegetable market:39'
p72
aS'police said.the:48'
p73
aS'hospital.the market:56'
p74
aS'office:63'
p75
aS'complex:68'
p76
aS'prime minister:94'
p77
aS'compromise:110'
p78
aS'violence:115'
p79
aS'security:119'
p80
aS'group.the army:134'
p81
aS'offensive:139'
p82
aS'wake:150'
p83
asS'unexpl'
p84
(lp85
g44
asS'ocassion'
p86
g44
sS'link'
p87
S'http://timesofindia.indiatimes.com/india/One-killed-in-Guwahati-bomb-blast/articleshow/1257552.cms'
p88
sS'date'
p89
S'17-01-2007'
p90
sS'target'
p91
S'MARKET PLACE'
p92
sS'hot_spot'
p93
g44
sS'delivery_mod'
p94
g44
sS'delivery_met'
p95
S'PLANTED'
p96
sS'expl'
p97
(lp98
g44
asS'ORG'
p99
(lp100
(lp101
S'ULFA'
p102
aS'19'
p103
aS'Accused'
p104
aS'Others'
p105
aa(lp106
S'ULFA'
p107
aS'142'
p108
aS'Accused'
p109
aS'Others'
p110
aa(lp111
S'ULFA'
p112
aS'103'
p113
aS'Others'
p114
aas.