(dp0
S'LOC'
p1
(lp2
(lp3
S'Assam'
p4
aS'12'
p5
aS'Assoc Event Location'
p6
aa(lp7
S'Guwahati'
p8
aS'36'
p9
aS'Event'
p10
aa(lp11
S'Raj Bhawan'
p12
aS'73'
p13
aS'Neutral'
p14
aa(lp15
S'airport'
p16
aS'77'
p17
aS'Neutral'
p18
aa(lp19
S'Mumbai'
p20
aS'113'
p21
aS'Assoc Event Location'
p22
aa(lp23
S'Assam'
p24
aS'123'
p25
aS'Neutral'
p26
aa(lp27
S'Mumbai'
p28
aS'166'
p29
aS'Assoc Event Location'
p30
aa(lp31
S'Guwahati'
p32
aS'186'
p33
aS'Assoc Event Location'
p34
aa(lp35
S'Kokrajhar'
p36
aS'188'
p37
aS'Assoc Event Location'
p38
aa(lp39
S'Barpeta Road'
p40
aS'190'
p41
aS'Assoc Event Location'
p42
aa(lp43
S'Bongaigaon'
p44
aS'193'
p45
aS'Assoc Event Location'
p46
aa(lp47
S'Birubari'
p48
aS'240'
p49
aS'Event'
p50
aa(lp51
S'Bhootnath market'
p52
aS'261'
p53
aS'Event'
p54
aa(lp55
S'Kamakhya Temple'
p56
aS'266'
p57
aS'Event'
p58
aa(lp59
S'Bhangaghar'
p60
aS'304'
p61
aS'Event'
p62
aa(lp63
S'Guwahati'
p64
aS'312'
p65
aS'Assoc Event Location'
p66
aa(lp67
S'hospital'
p68
aS'348'
p69
aS'Neutral'
p70
aa(lp71
S'India'
p72
aS'407'
p73
aS'Neutral'
p74
aa(lp75
S'South Asia'
p76
aS'411'
p77
aS'Neutral'
p78
aa(lp79
S'Assam'
p80
aS'442'
p81
aS'Neutral'
p82
aa(lp83
S'Nagaland'
p84
aS'444'
p85
aS'Neutral'
p86
aa(lp87
S'Tripura'
p88
aS'446'
p89
aS'Neutral'
p90
aa(lp91
S'Kashmir'
p92
aS'448'
p93
aS'Neutral'
p94
aa(lp95
S'Arunachal Pradesh'
p96
aS'450'
p97
aS'Neutral'
p98
aa(lp99
S'Kamtapur.On'
p100
aS'453'
p101
aS'Neutral'
p102
aa(lp103
S'Jammu and Kashmir'
p104
aS'485'
p105
aS'Neutral'
p106
aa(lp107
S'Assam'
p108
aS'502'
p109
aS'Neutral'
p110
aa(lp111
S'Assam'
p112
aS'550'
p113
aS'Neutral'
p114
aa(lp115
S'India'
p116
aS'577'
p117
aS'Neutral'
p118
aasS'PER'
p119
(lp120
(lp121
S'P Chidambaram'
p122
aS'49'
p123
aS'Others'
p124
aa(lp125
S'Tarun Gogoi'
p126
aS'126'
p127
aS'Comment'
p128
aa(lp129
S'Chidambaram'
p130
aS'171'
p131
aS'Others'
p132
aa(lp133
S'Gogoi'
p134
aS'214'
p135
aS'Others'
p136
aa(lp137
S'P C Saloi'
p138
aS'390'
p139
aS'Comment'
p140
aa(lp141
S'Mrinal Hazarika'
p142
aS'463'
p143
aS'Comment'
p144
aa(lp145
S'Jiten Gogoi'
p146
aS'466'
p147
aS'Comment'
p148
aa(lp149
S'Sheikh Hasina Wajed'
p150
aS'512'
p151
aS'Others'
p152
aasS'TIM'
p153
(lp154
S'2.35 pm:242'
p155
aS'pm:243'
p156
aS'5.45 pm .:315'
p157
aS'pm:316'
p158
asS'hot_setting'
p159
S''
p160
sS'DAT'
p161
(lp162
S'2009:10'
p163
aS'26/11 : 112'
p164
aS'October:195'
p165
aS'October 30:195'
p166
aS'2008:198'
p167
aS'Thursday:404'
p168
aS'Thursday:530'
p169
aS'October:560'
p170
aS'October 30:560'
p171
aS'2009:575'
p172
asS'death'
p173
S'5'
p174
sS'title'
p175
S'Terror on Day 1: 5 killed, 67 injured in Guwahati'
p176
sS'org_unorg'
p177
S'ORGANISED'
p178
sS'terror_group'
p179
(lp180
S'UNITED LIBERATION FRONT OF ASSAM (ULFA)'
p181
asS'content'
p182
VGUWAHATI : Terror struck on the first day of 2009 in Assam where three serial blasts in as many hours triggered by suspected Ulfa militants left five people dead and more than 60 injured in Guwahati . -LRB- Watch -RRB- The explosions took place a few hours before P Chidambaram flew in for his maiden visit as home minister to review the law and order situation . He was escorted to the Raj Bhawan from the airport under heavy security , past one of the blast sites . -LRB- Watch -RRB- Terrorists appeared to mock a heavy security bandobast put in place for the New Year in the wake of the 26/11 Mumbai carnage and for the home minister 's visit . Assam chief minister Tarun Gogoi admitted as much . `` There were security lapses . Our police force needs to be modernized and trained to deal with such terror attacks , '' he said , echoing something that 's become obvious since the Mumbai attack . Ironically , Chidambaram 's visit was to review security to prevent terror bombings like the one in Guwahati , Kokrajhar , Barpeta Road and Bongaigaon on October 30 , 2008 , in which 89 people were killed . He was also scheduled to discuss with Gogoi cross-border terrorism in the state which shares a porous boundary with Bangladesh.Police said the first blast took place near Lokopriya Gopinath Bordoloi TB Hospital at Birubari at 2.35 pm , injuring five people , including a 10-year-old child.This was followed by another explosion at the busy Bhootnath market near the famed Kamakhya Temple . Two persons died and about 25 others were injured . Police said the militants had planted an IED on a bicycle . The third blast , which was more devastating , was carried out at Bhangaghar , one of the poshest areas in Guwahati , at 5.45 pm . Dotted with shopping malls , the spot is located about 200m from the The Times of India office . Three of the 34 people injured in the blast died in hospital . Police suspect the bomb was kept inside a pan shop , whose owner suffered injuries . `` We suspect Ulfa 's hand . Investigation is on . Forensic experts have rushed to the spot , '' senior superintendent of police P C Saloi said . In its mouthpiece , Freedom , Ulfa said on Thursday , `` India wanted to dominate South Asia , ignoring the sovereignty of other countries in the region . '' It accused the Centre of `` equally suppressing '' the demand of sovereignty by the people of Assam , Nagaland , Tripura , Kashmir , Arunachal Pradesh and Kamtapur.On the other hand , pro-talks Ulfa leaders led by Mrinal Hazarika and Jiten Gogoi announced that they had dropped the sovereignty demand in favour of more autonomy on the lines of Jammu and Kashmir . A senior army officer had warned that Bangladesh-based fundamentalist groups could sneak into Assam and other north-eastern states fearing pressure from the newly-elected Sheikh Hasina Wajed government . `` We can not completely rule out the involvement of such elements in Thursday 's blasts . It 's high time that state intelligence agencies became proactive , '' the officer said.Earlier , Assam accused `` external elements '' of carrying out the October 30 blasts in collaboration with Ulfa and National Democratic Front of Bodoland.QnA : Will 2009 see India fall prey to more terrorist attacks or will we be more resilient ? .
p183
sS'injured'
p184
S'60'
p185
sS'det_loc'
p186
(lp187
S'India'
p188
aS'Assam'
p189
aS'Kamrup Metropolitan'
p190
ag160
aS'Birubari, Bhootnath market,Bhangaghar'
p191
asS'O'
p192
(lp193
S'GUWAHATI:1'
p194
aS'militants:25'
p195
aS'home minister:58'
p196
aS'security:80'
p197
aS'terrorists:92'
p198
aS'security bandobast:98'
p199
aS'carnage:114'
p200
aS'home minister:118'
p201
aS'terror:151'
p202
aS'terrorism:216'
p203
aS'bangladesh.police:226'
p204
aS'explosion:257'
p205
aS'IED:286'
p206
aS'investigation:373'
p207
aS'Forensic experts:377'
p208
aS'superintendent:387'
p209
aS'sovereignty:416'
p210
aS'sovereignty:437'
p211
aS'kamtapur.on:453'
p212
aS'sovereignty demand:474'
p213
aS'autonomy:480'
p214
aS'Bangladesh-based:496'
p215
aS'government:515'
p216
aS'involvement:525'
p217
aS'intelligence:540'
p218
aS'collaboration:564'
p219
aS'bodoland.qna:572'
p220
aS'terrorist attacks:582'
p221
asS'unexpl'
p222
(lp223
g160
asS'ocassion'
p224
g160
sS'link'
p225
S'http://timesofindia.indiatimes.com/india/Terror-on-Day-1-5-killed-67-injured-in-Guwahati/articleshow/3922558.cms?referral=PM'
p226
sS'date'
p227
S'01-01-2009'
p228
sS'target'
p229
S'CITIZENS'
p230
sS'hot_spot'
p231
g160
sS'delivery_mod'
p232
S'BYCICLE'
p233
sS'delivery_met'
p234
S'PLANTED'
p235
sS'expl'
p236
(lp237
S'IED'
p238
asS'ORG'
p239
(lp240
(lp241
S'Ulfa'
p242
aS'24'
p243
aS'Accused'
p244
aa(lp245
S'Lokopriya Gopinath Bordoloi TB Hospital'
p246
aS'234'
p247
aS'Others'
p248
aa(lp249
S'The Times of India'
p250
aS'331'
p251
aS'Others'
p252
aa(lp253
S'Ulfa'
p254
aS'369'
p255
aS'Accused'
p256
aa(lp257
S'Ulfa'
p258
aS'401'
p259
aS'Others'
p260
aa(lp261
S'Ulfa'
p262
aS'459'
p263
aS'Others'
p264
aa(lp265
S'Ulfa'
p266
aS'566'
p267
aS'Accused'
p268
aa(lp269
S'National Democratic Front'
p270
aS'568'
p271
aS'Accused'
p272
aas.