(dp0
S'LOC'
p1
(lp2
(lp3
S'Guwahati'
p4
aS'1'
p5
aS'Neutral'
p6
aa(lp7
S'Naojan'
p8
aS'26'
p9
aS'Neutral'
p10
aa(lp11
S'Chungajan'
p12
aS'28'
p13
aS'Neutral'
p14
aa(lp15
S'Assams'
p16
aS'32'
p17
aS'Event'
p18
aa(lp19
S'Golaghat'
p20
aS'33'
p21
aS'Event'
p22
aa(lp23
S'Golaghat'
p24
aS'81'
p25
aS'Event'
p26
aa(lp27
S'Golaghat'
p28
aS'167'
p29
aS'Event'
p30
aa(lp31
S'Karbi Anglong'
p32
aS'169'
p33
aS'Neutral'
p34
aa(lp35
S'Assam'
p36
aS'173'
p37
aS'Event'
p38
aa(lp39
S'Nagaland'
p40
aS'256'
p41
aS'Neutral'
p42
aa(lp43
S'Dibrugarh'
p44
aS'289'
p45
aS'Neutral'
p46
aa(lp47
S'Guwahati'
p48
aS'291'
p49
aS'Event'
p50
aa(lp51
S'Dibrugarh'
p52
aS'317'
p53
aS'Neutral'
p54
aa(lp55
S'Guwahati'
p56
aS'319'
p57
aS'Event'
p58
aa(lp59
S'Chungajan'
p60
aS'382'
p61
aS'Neutral'
p62
aa(lp63
S'Guwahati'
p64
aS'399'
p65
aS'Event'
p66
aa(lp67
S'Guwahati'
p68
aS'428'
p69
aS'Event'
p70
aa(lp71
S'New Delhi'
p72
aS'440'
p73
aS'Neutral'
p74
aa(lp75
S'Dibrugarh'
p76
aS'524'
p77
aS'Neutral'
p78
aa(lp79
S'Assam'
p80
aS'527'
p81
aS'Event'
p82
aa(lp83
S'Guwahati'
p84
aS'543'
p85
aS'Event'
p86
aa(lp87
S'Guwahati'
p88
aS'554'
p89
aS'Event'
p90
aa(lp91
S'New Delhi'
p92
aS'556'
p93
aS'Neutral'
p94
aasS'PER'
p95
(lp96
(lp97
S'Prodip Saloi'
p98
aS'84'
p99
aS'Others'
p100
aa(lp101
S'Trikalagya Rabha'
p102
aS'186'
p103
aS'Others'
p104
aa(lp105
S'Satyaprakash Rai'
p106
aS'195'
p107
aS'Victim'
p108
aa(lp109
S'Sudama Rai'
p110
aS'201'
p111
aS'Victim'
p112
aa(lp113
S'Lakshman Rai'
p114
aS'207'
p115
aS'Victim'
p116
aa(lp117
S'A.K. Sah'
p118
aS'213'
p119
aS'Victim'
p120
aa(lp121
S'D. Prasad'
p122
aS'219'
p123
aS'Victim'
p124
aa(lp125
S'Lakshman Sah'
p126
aS'235'
p127
aS'Victim'
p128
aa(lp129
S'Tapas Roy'
p130
aS'238'
p131
aS'Victim'
p132
aa(lp133
S'Amarendra Singh'
p134
aS'241'
p135
aS'Victim'
p136
aa(lp137
S'B. Chowdhury'
p138
aS'244'
p139
aS'Victim'
p140
aasS'TIM'
p141
(lp142
S'1:10 am : 44'
p143
aS'6:45 am : 401'
p144
aS'11 am : 430'
p145
aS'8:15 pm : 538'
p146
aS'5:55 am : 545'
p147
aS'morning : 548'
p148
aS'7 am : 559'
p149
aS'morning : 563'
p150
aS'four hours : 569'
p151
asS'hot_setting'
p152
S''
p153
sS'DAT'
p154
(lp155
S'December 13 : 3'
p156
aS'Thursday : 47'
p157
aS'2005 : 130'
p158
aS'Thursday : 573'
p159
asS'death'
p160
S'5'
p161
sS'title'
p162
V5 die in Assam Rajdhani blast      
p163
sS'org_unorg'
p164
g153
sS'terror_group'
p165
(lp166
S'ALL ADIVASI NATIONAL LIBERATION ARMY'
p167
asS'content'
p168
VGuwahati , December 13 Five persons were killed and four others seriously injured when a bomb explosion rocked 2423 Down Dibrugarh-Guwahati-New Delhi Rajdhani Express between Naojan and Chungajan Railway stations of Assams Golaghat district , about 282 km from here , at around 1:10 am on Thursday . . . The impact of the explosion left a crater of 1.8 m diameter and 82 cm depth on the track , besides causing damage to two rails of the track . Golaghat district SP Prodip Saloi suspected hand of All Adivasi National Liberation Army ( AANLA ) in the explosion that rocked the elite train . He said an expert team was investigating into the blast . . . The AANLA , an Adivasi militant group , was floated in 2005 . The Assam police alleged that AANLA enjoyed patronage of bigger rebel groups , including the Naga rebel group NSCN-IM and the banned ULFA . . . The outfit is very active in bordering areas of Golaghat and Karbi Anglong districts of Assam . . . The north-east Frontier Railway chief public relations officer , Trikalagya Rabha informed that the deceased were identified as Satyaprakash Rai ( 45 ) , Sudama Rai ( 45 ) , Lakshman Rai ( 44 ) , A.K. Sah ( 20 ) and D. Prasad ( 19 ) . . . The four seriously inured persons were identified as Lakshman Sah , Tapas Roy , Amarendra Singh and B. Chowdhury . They have been sent to Dimapur Civil Hospital in Nagaland . The toll may go up as injured were stated to be in critical condition . . . All these passengers were travelling in the luggage van of the Rajdhani Express from Dibrugarh to Guwahati , the NFR official said . . . The Railway claims that luggage van in the train is partially utilised to accommodate passengers travelling between Dibrugarh to Guwahati . . . Initially , the explosion was suspected to have occurred inside the luggage van of the train . But later it was ascertained to have occurred on the track . . . The loco driver didnt stop the train immediately after the blast that occurred in a forest area . . . The train stopped at the next station at Chungajan , about five km from the blast site , which later resumed its onward journey to Guwahati at 6:45 am . . . Other passengers travelling in the affected luggage van were shifted to a 3-tier AC bogie . . . The train later reached Guwahati around 11 am before it proceeds to the final destination , New Delhi . Top railway and security officials had rushed to the site immediately after the blast . The Railway technical staff have already repaired the track at the blast site . . . An investigation has been launched into the blast that has affected the high security train . There has been a practice to scan the track in insurgency hit areas of the state before the Rajdhani Express is allowed to pass through . . . The 2423 Down Rajdhani Express leaves Dibrugarh in eastern Assam with five coaches , including a non-AC luggage van at 8:15 pm , and reaches Guwahati at 5:55 am next morning . . . It leaves Guwahati for New Delhi at 7 am in the morning . The train was running four hours late on Thursday because of the blast .
p169
sS'injured'
p170
S'4'
p171
sS'det_loc'
p172
(lp173
S'India'
p174
aS'Assam'
p175
aS'Golaghat'
p176
ag153
ag153
asS'O'
p177
(lp178
S'killed:8'
p179
aS'seriously injured:12'
p180
aS'bomb explosion:16'
p181
aS'2423 Down Dibrugarh-Guwahati-New Delhi Rajdhani Express:19'
p182
aS'Railway stations:29'
p183
aS'explosion:55'
p184
aS'1.8 m diameter:60'
p185
aS'82 cm depth:64'
p186
aS'track:69'
p187
aS'expert team:109'
p188
aS'blast:115'
p189
aS'Adivasi militant group:123'
p190
aS'Naga rebel group:147'
p191
aS'outfit:159'
p192
aS'luggage van:282'
p193
aS'Rajdhani Express:286'
p194
aS'Railway claims:301'
p195
aS'luggage van:304'
p196
aS'explosion:326'
p197
aS'luggage van:334'
p198
aS'train:338'
p199
aS'loco driver:355'
p200
aS'blast:364'
p201
aS'forest area:369'
p202
aS'blast site:389'
p203
aS'luggage van:412'
p204
aS'3-tier AC bogie:418'
p205
aS'Top railway:443'
p206
aS'security officials:446'
p207
aS'blast:456'
p208
aS'Railway technical staff:459'
p209
aS'blast site:469'
p210
aS'investigation:475'
p211
aS'blast:481'
p212
aS'high security train:486'
p213
aS'insurgency hit:500'
p214
aS'Rajdhani Express:508'
p215
aS'2423 Down Rajdhani Express:519'
p216
aS'non-AC luggage van:534'
p217
aS'blast:577'
p218
asS'unexpl'
p219
(lp220
g153
asS'ocassion'
p221
g153
sS'link'
p222
S'http://www.tribuneindia.com/2007/20071214/main1.htm'
p223
sS'date'
p224
S'13-12-2007'
p225
sS'target'
p226
S'RAILWAY STATION'
p227
sS'hot_spot'
p228
g153
sS'delivery_mod'
p229
S'TRAIN'
p230
sS'delivery_met'
p231
S'PLANTED'
p232
sS'expl'
p233
(lp234
g153
asS'ORG'
p235
(lp236
(lp237
S'All Adivasi National Liberation Army'
p238
aS'89'
p239
aS'Accused'
p240
aa(lp241
S'AANLA'
p242
aS'95'
p243
aS'Accused'
p244
aa(lp245
S'AANLA'
p246
aS'120'
p247
aS'Accused'
p248
aa(lp249
S'Adivasi'
p250
aS'123'
p251
aS'Accused'
p252
aS'Others'
p253
aa(lp254
S'Assam police'
p255
aS'133'
p256
aa(lp257
S'AANLA'
p258
aS'137'
p259
aS'Accused'
p260
aa(lp261
S'NSCN-IM'
p262
aS'150'
p263
aS'Others'
p264
aa(lp265
S'ULFA'
p266
aS'154'
p267
aS'Others'
p268
aa(lp269
S'north-east Frontier Railway'
p270
aS'178'
p271
aS'Others'
p272
aa(lp273
S'Dimapur Civil Hospital'
p274
aS'252'
p275
aS'Others'
p276
aa(lp277
S'NFR'
p278
aS'294'
p279
aS'Others'
p280
aas.