(dp0
S'LOC'
p1
(lp2
(lp3
S'New Delhi'
p4
aS'1'
p5
aS'Neutral'
p6
aa(lp7
S'Mumbai'
p8
aS'22'
p9
aS'Event'
p10
aa(lp11
S'Chandni Chowk'
p12
aS'94'
p13
aS'Neutral'
p14
aa(lp15
S'Connaught Place'
p16
aS'97'
p17
aS'Neutral'
p18
aa(lp19
S'Greater Kailash'
p20
aS'100'
p21
aS'Neutral'
p22
aa(lp23
S'Karol Bagh'
p24
aS'103'
p25
aS'Neutral'
p26
aa(lp27
S'Mehrauli'
p28
aS'106'
p29
aS'Neutral'
p30
aa(lp31
S'Hyderabad'
p32
aS'111'
p33
aS'Neutral'
p34
aa(lp35
S'Tirupati'
p36
aS'113'
p37
aS'Neutral'
p38
aa(lp39
S'Visakhapatnam'
p40
aS'115'
p41
aS'Neutral'
p42
aa(lp43
S'Andhra Pradesh'
p44
aS'121'
p45
aS'Neutral'
p46
aa(lp47
S'Hyderabad'
p48
aS'159'
p49
aS'Neutral'
p50
aa(lp51
S'Secunderabad'
p52
aS'161'
p53
aS'Neutral'
p54
aa(lp55
S'Hyderabad'
p56
aS'166'
p57
aS'Neutral'
p58
aa(lp59
S'Tirupati'
p60
aS'168'
p61
aS'Neutral'
p62
aa(lp63
S'Kolkata'
p64
aS'173'
p65
aS'Neutral'
p66
aa(lp67
S'Chennai'
p68
aS'242'
p69
aS'Neutral'
p70
aa(lp71
S'Mumbai'
p72
aS'264'
p73
aS'Neutral'
p74
aa(lp75
S'Dadar'
p76
aS'272'
p77
aS'Event'
p78
aa(lp79
S'Central Mumbai'
p80
aS'274'
p81
aS'Neutral'
p82
aa(lp83
S'Mumbai'
p84
aS'275'
p85
aS'Neutral'
p86
aa(lp87
S'Zaveri'
p88
aS'281'
p89
aS'Event'
p90
aa(lp91
S'Opera House'
p92
aS'285'
p93
aS'Event'
p94
aasS'PER'
p95
(lp96
(lp97
S'Ranjit Pachnanda'
p98
aS'176'
p99
aS'Others'
p100
aasS'TIM'
p101
(lp102
S'evening : 25'
p103
aS'night : 192'
p104
aS'evening : 222'
p105
asS'hot_setting'
p106
S''
p107
sS'DAT'
p108
(lp109
S'Wednesday:24'
p110
aS'Wednesday:191'
p111
aS'Wednesday:221'
p112
aS'Wednesday:266'
p113
asS'death'
p114
g107
sS'title'
p115
S'Security alert in Metros, other cities after Mumbai blasts'
p116
sS'det_loc'
p117
(lp118
S'India'
p119
aS'Maharashtra'
p120
ag107
aS'Mumbai'
p121
aS'Mumbai'
p122
asS'terror_group'
p123
(lp124
g107
asS'content'
p125
VNew Delhi : Security vigil across the country , particularly in Metro cities , was stepped up after three explosions rocked Mumbai on Wednesday evening , official sources here said.According to Home Ministry officials , all state governments have been asked to heighten security measures . `` All the state governments have been asked to increase police patrolling and keep forces on high alert , '' a Home Ministry official said.The national capital was placed on high alert and vigil was stepped up at all vulnerable areas . Security has been heightened in Chandni Chowk , Connaught Place , Greater Kailash , Karol Bagh , Mehrauli and Sarojini Nagar.Police in Hyderabad , Tirupati , Visakhapatnam and other major towns in Andhra Pradesh were also put on high alert . Police tightened security at railway and bus stations , markets , historical , religious and public places and started checking vehicles at various points in the twin cities of Hyderabad and Secunderabad . -LRB- Read : Hyderabad , Tirupati on high alert -RRB- Kolkata Police Commissioner Ranjit Pachnanda , who went round parts of the city to monitor the security preparedness Wednesday night , said `` we are on high alert . Security has been intensified around multiplexes , malls , hotels , restaurants , shops and bus stands '' . Wednesday evening saw strong police presence in various other cities in the country . -LRB- Read : Security stepped up in Chennai -RRB- The increased security measures come as 21 people were killed and over 140 were injured in three explosions that rocked Mumbai on Wednesday evening.One blast took place in Dadar in Central Mumbai and the other two in Zaveri Bazar and the Opera House in South Mumbai.All three are busy commercial and residential areas . .
p126
sS'injured'
p127
g107
sS'org_unorg'
p128
S'ORGANISED'
p129
sS'O'
p130
(lp131
S'Home Ministry:32'
p132
aS'police:57'
p133
aS'Home Ministry:68'
p134
aS'Police:130'
p135
aS'railway:134'
p136
aS'bus stations:136'
p137
aS'markets:139'
p138
aS'historical:141'
p139
aS'religious:143'
p140
aS'public places:145'
p141
aS'Police Commissioner:174'
p142
aS'intensified:205'
p143
aS'multiplexes:207'
p144
aS'malls:209'
p145
aS'hotels:211'
p146
aS'restaurants:213'
p147
aS'shops:215'
p148
aS'bus stands:217'
p149
aS'police:225'
p150
asS'unexpl'
p151
(lp152
g107
asS'ocassion'
p153
g107
sS'link'
p154
S'http://www.ndtv.com/delhi-news/security-alert-in-metros-other-cities-after-mumbai-blasts-461404'
p155
sS'date'
p156
S'13-07-2011'
p157
sS'target'
p158
S'METRO CITIES'
p159
sS'hot_spot'
p160
S'Mumbai'
p161
sS'delivery_mod'
p162
g107
sS'delivery_met'
p163
S'PLANTED'
p164
sS'expl'
p165
(lp166
g107
asS'ORG'
p167
(lp168
(lp169
S'state governments'
p170
aS'37'
p171
aS'Others'
p172
aa(lp173
S'state governments'
p174
aS'50'
p175
aS'Others'
p176
aas.