(dp0
S'LOC'
p1
(lp2
(lp3
S'Kokrajhar'
p4
aS'6'
p5
aS'Event'
p6
aa(lp7
S'Guwahati'
p8
aS'20'
p9
aS'Neutral'
p10
aa(lp11
S'Kokrajhar'
p12
aS'31'
p13
aS'Event'
p14
aa(lp15
S'Athgaon'
p16
aS'60'
p17
aS'Event'
p18
aa(lp19
S'Sati Joymoti Road'
p20
aS'79'
p21
aS'Neutral'
p22
aa(lp23
S'Athgaon'
p24
aS'140'
p25
aS'Victim Location'
p26
aa(lp27
S'Jyotinagar'
p28
aS'145'
p29
aS'Victim Location'
p30
aa(lp31
S'Bihar'
p32
aS'154'
p33
aS'Victim Location'
p34
aa(lp35
S'Dhubri'
p36
aS'159'
p37
aS'Victim Location'
p38
aa(lp39
S'Assam'
p40
aS'207'
p41
aS'Neutral'
p42
aa(lp43
S'Kokrajhar'
p44
aS'213'
p45
aS'Event'
p46
aasS'PER'
p47
(lp48
(lp49
S'Sushanta Talukdar'
p50
aS'1'
p51
aS'Others'
p52
aa(lp53
S'Partha Saha'
p54
aS'134'
p55
aS'Victim'
p56
aa(lp57
S'Nirmal Dey'
p58
aS'137'
p59
aS'Victim'
p60
aa(lp61
S'Nareswar Deka'
p62
aS'142'
p63
aS'Victim'
p64
aa(lp65
S'Md. . Anowar'
p66
aS'147'
p67
aS'Victim'
p68
aa(lp69
S'M. Ali'
p70
aS'156'
p71
aS'Victim'
p72
aa(lp73
S'D.K. Pathak'
p74
aS'237'
p75
aS'Comment'
p76
aasS'TIM'
p77
(lp78
S'10.45 a.m.:85'
p79
aS'one-year : 188'
p80
asS'hot_setting'
p81
S''
p82
sS'DAT'
p83
(lp84
S'Saturday morning : 63'
p85
asS'death'
p86
g5
sS'title'
p87
S'6 killed, 25 injured in Guwahati blast'
p88
sS'org_unorg'
p89
g82
sS'terror_group'
p90
(lp91
S'UNITED LIBERATION FRONT OF ASSAM (ULFA)'
p92
asS'content'
p93
VSushanta Talukdar . . At Kokrajhar , tragedy averted as police recover suitcase bomb from Brahmaputra Mail . . Guwahati : Even as the police averted a tragedy at the Kokrajhar railway station , six persons were killed and 25 injured in a blast , suspected to have been triggered by the United Liberation Front of Asom , at Athgaon here on Saturday morning . . . A time device planted in an autorickshaw parked on the busy Sati Joymoti Road went off around 10.45 a.m. . The police said an LPG cylinder being carried on a rickshaw also burst , adding to the impact of the explosion . . . Five persons died on the spot and another in hospital . The bodies of most of the victims were mutilated.Those identified were Partha Saha , Nirmal Dey of Athgaon , Nareswar Deka of Jyotinagar , Md. . Anowar , a rickshawman from Bihar and M. Ali from Dhubri . . . The blast came a day ahead of a public rally planned in the city by the Tarun Gogoi-led coalition Government to celebrate completion of its one-year rule . . . Acting swiftly , the Centre rushed additional paramilitary forces to beef up security in Assam . . . At the Kokrajhar station , Government Railway Police personnel recovered a suitcase bomb fitted with two improvised explosive devices from the Delhi-bound Brahmaputra Mail . ADGP D.K. Pathak said that a routine checking of the train threw up the IEDs , kept in a suitcase and concealed in a gunny bag planted in the vestibule between coaches S4 and S5 . A major tragedy would have occurred had the IEDs gone off on the running train , he said .
p94
sS'injured'
p95
S'25'
p96
sS'det_loc'
p97
(lp98
S'India'
p99
aS'Assam'
p100
aS'Kokrajhar'
p101
aS'Guwahati'
p102
ag82
asS'O'
p103
(lp104
S'tragedy:8'
p105
aS'suitcase bomb:13'
p106
aS'Brahmaputra Mail:16'
p107
aS'tragedy:28'
p108
aS'Kokrajhar railway station:31'
p109
aS'blast:44'
p110
aS'triggered:50'
p111
aS'time device planted:69'
p112
aS'autorickshaw parked:74'
p113
aS'LPG cylinder:92'
p114
aS'burst:100'
p115
aS'blast:164'
p116
aS'public rally:171'
p117
aS'Tarun Gogoi-led coalition Government:179'
p118
aS'paramilitary forces:200'
p119
aS'Government Railway Police personnel:216'
p120
aS'suitcase bomb:222'
p121
aS'improvised explosive devices:227'
p122
aS'Delhi-bound Brahmaputra Mail:232'
p123
aS'routine checking:242'
p124
aS'IEDs:250'
p125
aS'suitcase:255'
p126
aS'concealed:257'
p127
aS'gunny bag planted:260'
p128
aS'IEDs:280'
p129
aS'running train:285'
p130
asS'unexpl'
p131
(lp132
g82
asS'ocassion'
p133
g82
sS'link'
p134
S'http://www.thehindu.com/todays-paper/6-killed-25-injured-in-guwahati-blast/article1848020.ece'
p135
sS'date'
p136
g82
sS'target'
p137
g82
sS'hot_spot'
p138
g82
sS'delivery_mod'
p139
S'RICKSHAW'
p140
sS'delivery_met'
p141
S'PLANTED'
p142
sS'expl'
p143
(lp144
S'IED'
p145
asS'ORG'
p146
(lp147
(lp148
S'United Liberation Front of Asom'
p149
aS'53'
p150
aS'Accused'
p151
aa(lp152
S'Centre'
p153
aS'197'
p154
aS'Others'
p155
aas.