(dp0
S'LOC'
p1
(lp2
(lp3
S'Dibrugarh'
p4
aS'127'
p5
aS'Event'
p6
aa(lp7
S'Assam : 198'
p8
aS'Event'
p9
aS'Neutral'
p10
aa(lp11
S'Assam'
p12
aS'4'
p13
aS'Event'
p14
aa(lp15
S'GUWAHATI'
p16
aS'15'
p17
aS'Neutral'
p18
aa(lp19
S'Assam'
p20
aS'37'
p21
aS'Neutral'
p22
aa(lp23
S'Sivasagar'
p24
aS'39'
p25
aS'Neutral'
p26
aa(lp27
S'Majgaon'
p28
aS'72'
p29
aS'Neutral'
p30
aa(lp31
S'Mathurapur'
p32
aS'75'
p33
aS'Neutral'
p34
aa(lp35
S'Tinsukia'
p36
aS'201'
p37
aS'Neutral'
p38
aa(lp39
S'Dibruagarh'
p40
aS'203'
p41
aS'Neutral'
p42
aa(lp43
S'Sivasagar'
p44
aS'205'
p45
aS'Neutral'
p46
aasS'PER'
p47
(lp48
(lp49
S'Sushanta Talukdar'
p50
aS'11'
p51
aS'Others'
p52
aasS'TIM'
p53
(lp54
S'morning : 42'
p55
aS'fortnight : 194'
p56
asS'hot_setting'
p57
S''
p58
sS'DAT'
p59
(lp60
S'JUNE 24 : 17'
p61
asS'death'
p62
S'7'
p63
sS'title'
p64
S'Blast in Assam  bus kills 7'
p65
sS'org_unorg'
p66
g58
sS'terror_group'
p67
(lp68
S' UNITED LIBERATION FRONT OF ASOM'
p69
asS'content'
p70
VNational Blast in Assam bus kills 7 . . By Sushanta Talukdar . . GUWAHATI , JUNE 24 . Seven passengers were killed and 18 others injured in a bomb blast in a bus in upper Assam 's Sivasagar district this morning . . . Police suspect the banned United Liberation Front of Asom -LRB- ULFA -RRB- , to be behind it . . . As soon as the bus reached Majgaon area under Mathurapur police station , a powerful blast ripped apart the bus killing four passengers , including a woman on the spot , and injuring 18 others . While one passenger died at Sonari Civil Hospital , two others died on way to the Assam Medical College Hospital -LRB- AMCH -RRB- in neighbouring Dibrugarh district . Seven of the critically injured passengers were admitted to the AMCH . . . Police were still trying to ascertain if the blast occurred inside the bus or an explosive device had been planted on the road . A gas cylinder carried by one of the passengers could have added to the intensity to the blast . This was the sixth blast in a fortnight in the upper Assam districts of Tinsukia , Dibruagarh and Sivasagar .
p71
sS'injured'
p72
S'18'
p73
sS'det_loc'
p74
(lp75
S'India'
p76
aS'Assam'
p77
aS'Sivasagar'
p78
aS'Guwahati'
p79
ag58
asS'O'
p80
(lp81
S'blast:2'
p82
aS'kills:6'
p83
aS'killed:23'
p84
aS'injured:27'
p85
aS'bomb blast:30'
p86
aS'suspect:47'
p87
aS'banned:49'
p88
aS'mathurapur police station:75'
p89
aS'powerful blast:80'
p90
aS'killing:86'
p91
aS'four passengers:87'
p92
aS'passenger died:104'
p93
aS'critically injured passengers:133'
p94
aS'admitted:137'
p95
aS'blast:152'
p96
aS'explosive device:159'
p97
aS'planted:163'
p98
aS'gas cylinder:169'
p99
aS'intensity:182'
p100
aS'blast:185'
p101
aS'sixth blast:190'
p102
asS'unexpl'
p103
(lp104
g58
asS'ocassion'
p105
g58
sS'link'
p106
S'http://www.thehindu.com/2004/06/25/stories/2004062506031100.htm'
p107
sS'date'
p108
S'24-06-2004'
p109
sS'target'
p110
S'BUS'
p111
sS'hot_spot'
p112
g58
sS'delivery_mod'
p113
S'BUS'
p114
sS'delivery_met'
p115
S'PLANTED'
p116
sS'expl'
p117
(lp118
g58
asS'ORG'
p119
(lp120
(lp121
S'United Liberation Front of Asom'
p122
aS'50'
p123
aS'Accused'
p124
aa(lp125
S'ULFA'
p126
aS'56'
p127
aS'Accused'
p128
aa(lp129
S'Sonari Civil Hospital'
p130
aS'107'
p131
aS'Others'
p132
aa(lp133
S'Assam Medical College Hospital'
p134
aS'118'
p135
aS'Others'
p136
aa(lp137
S'AMCH'
p138
aS'123'
p139
aS'Others'
p140
aa(lp141
S'AMCH'
p142
aS'140'
p143
aS'Others'
p144
aas.
