(dp0
S'LOC'
p1
(lp2
(lp3
S'Pakistan'
p4
aS'6'
p5
aS'Neutral'
p6
aa(lp7
S'Hyderabad'
p8
aS'19'
p9
aS'Event'
p10
aa(lp11
S'Ajmer'
p12
aS'21'
p13
aS'Event'
p14
aa(lp15
S'Ludhiana'
p16
aS'23'
p17
aS'Event'
p18
aa(lp19
S'New Delhi'
p20
aS'44'
p21
aS'Neutral'
p22
aa(lp23
S'Islamabad'
p24
aS'52'
p25
aS'Neutral'
p26
aa(lp27
S'Samjhauta Express'
p28
aS'67'
p29
aS'Event'
p30
aa(lp31
S'Mecca Masjid'
p32
aS'138'
p33
aS'Event'
p34
aa(lp35
S'Hyderabad ,'
p36
aS'141'
p37
aS'Neutral'
p38
aa(lp39
S'Ajmer Mosque'
p40
aS'143'
p41
aS'Event'
p42
aa(lp43
S'Ludhiana cinema hall'
p44
aS'146'
p45
aS'Event'
p46
aa(lp47
S'UN'
p48
aS'243'
p49
aS'Neutral'
p50
aasS'PER'
p51
(lp52
(lp53
S'MK Narayanan'
p54
aS'171'
p55
aS'Comment'
p56
aa(lp57
S'KC Singh'
p58
aS'214'
p59
aS'Others'
p60
aa(lp61
S'Khalid Aziz Babar'
p62
aS'236'
p63
aS'Others'
p64
aasS'TIM'
p65
(lp66
sS'hot_setting'
p67
S''
p68
sS'DAT'
p69
(lp70
S'Monday:40'
p71
asS'death'
p72
g68
sS'title'
p73
S'Delhi to Pak: We gave you proof, give us terrorists'
p74
sS'det_loc'
p75
(lp76
S'India'
p77
aS'TELANGANA'
p78
ag68
aS'Hyderabad'
p79
aS'Hyderabad'
p80
asS'terror_group'
p81
(lp82
g68
asS'content'
p83
VNew Delhi : India sought Pakistan 's cooperation in tracking down the suspects in the bomb blasts in Hyderabad , Ajmer and Ludhiana as it provided evidence of cross-border linkages of these incidents at the Joint Anti-Terror Meeting on Monday . . . New Delhi also sought to know what action Islamabad had taken on the information provided about persons believed to be behind the cross-border Samjhauta Express blasts and other terror attacks in India over the last two years . . . `` Both sides shared new information on the terrorist incidents , including those which have occurred since the last meeting , '' a joint statement issued after the second JATM said . . . At the meeting , the Indian side provided evidence about involvement of Pakistan-based elements in the bomb blasts at the Mecca Masjid in Hyderabad , Ajmer Mosque and Ludhiana cinema hall over the last few months . . . Security agencies have blamed some Pakistan-based terrorists for these attacks . National Security Adviser MK Narayanan recently said Pakistani linkages were common to all these terror incidents . `` The Pakistani side assured that it will look into the evidence , '' a source said after the meeting . . . The Indian delegation was led by KC Singh , Additional Secretary ( International Organisations ) in the External Affairs Ministry , while the Pakistani side was headed by Khalid Aziz Babar , Additional Secretary ( UN ) in the Foreign Ministry . . . .
p84
sS'injured'
p85
g68
sS'org_unorg'
p86
S'ORGANISED'
p87
sS'O'
p88
(lp89
S'Additional Secretary:217'
p90
aS'External Affairs Ministry:225'
p91
aS'Additional Secretary:240'
p92
aS'Foreign Ministry:247'
p93
asS'unexpl'
p94
(lp95
g68
asS'ocassion'
p96
g68
sS'link'
p97
S'http://www.ibnlive.com/news/india/delhi-to-pak-we-gave-you-proof-give-us-terrorists-275057.html'
p98
sS'date'
p99
S'22-10-2007'
p100
sS'target'
p101
S'TRAIN'
p102
sS'hot_spot'
p103
S'Hyderabad'
p104
sS'delivery_mod'
p105
S'TRAIN'
p106
sS'delivery_met'
p107
S'PLANTED'
p108
sS'expl'
p109
(lp110
g68
asS'ORG'
p111
(lp112
(lp113
S'JATM'
p114
aS'113'
p115
aS'Others'
p116
aa(lp117
S'National Security Adviser'
p118
aS'168'
p119
aS'Others'
p120
aas.