(dp0
S'LOC'
p1
(lp2
(lp3
S'Digboi'
p4
aS'12'
p5
aS'Event'
p6
aa(lp7
S'Assam'
p8
aS'15'
p9
aS'Event'
p10
aa(lp11
S'Tinsukia'
p12
aS'17'
p13
aS'Event'
p14
aasS'PER'
p15
(lp16
(lp17
S'A P Tiwari'
p18
aS'53'
p19
aS'Comment'
p20
aa(lp21
S'Tiwari'
p22
aS'104'
p23
aS'Comment'
p24
aasS'TIM'
p25
(lp26
S'today : 19'
p27
asS'hot_setting'
p28
S''
p29
sS'DAT'
p30
(lp31
sS'death'
p32
g29
sS'title'
p33
S'Two bombs explode in Assam as the state celebrated 66th Republic Day'
p34
sS'det_loc'
p35
(lp36
S'India'
p37
aS'Assam'
p38
aS'Tinsukia'
p39
aS'Guwahati'
p40
ag29
asS'terror_group'
p41
(lp42
g29
asS'content'
p43
VGUWAHATI : Two low-intensity bombs exploded at the oil town of Digboi in upper Assam 's Tinsukia district today as the state celebrated the 66th Republic Day . . . `` No damage or casualty has been reported so far from the very low intensity blasts , '' Senior Superintendent of Police A P Tiwari said . . . One of the explosions took place under dumped garbage near a railway track and another in a drain under the garbage there , he said . . . `` It seems from the impact that the bombs were handmade with no impact , '' Tiwari said . . . Investigations are on , he said .
p44
sS'injured'
p45
g29
sS'org_unorg'
p46
g29
sS'O'
p47
(lp48
S'Two low-intensity bombs:3'
p49
aS'oil town:9'
p50
aS'66th republic day:25'
p51
aS'blasts:46'
p52
aS'explosions:63'
p53
aS'garbage:68'
p54
aS'railway track:71'
p55
aS'garbage:80'
p56
aS'bombs:96'
p57
asS'unexpl'
p58
(lp59
g29
asS'ocassion'
p60
S'REPULBIC DAY'
p61
sS'link'
p62
S'http://articles.economictimes.indiatimes.com/2015-01-26/news/58470002_1_two-bombs-two-low-intensity-bombs-upper-assam'
p63
sS'date'
p64
S'26-01-2015'
p65
sS'target'
p66
S'TOWN'
p67
sS'hot_spot'
p68
g29
sS'delivery_mod'
p69
g29
sS'delivery_met'
p70
S'PLANTED'
p71
sS'expl'
p72
(lp73
g29
asS'ORG'
p74
(lp75
s.