(dp0
S'LOC'
p1
(lp2
(lp3
S'Digboi'
p4
aS'19'
p5
aS'Event'
p6
aa(lp7
S'Tinsukia'
p8
aS'22'
p9
aS'Event'
p10
aa(lp11
S'Digboi'
p12
aS'37'
p13
aS'Event'
p14
aa(lp15
S'Tinsukia'
p16
aS'67'
p17
aS'Event'
p18
aa(lp19
S'Jorhat'
p20
aS'120'
p21
aS'Neutral'
p22
aa(lp23
S'Upper Assam'
p24
aS'123'
p25
aS'Neutral'
p26
aa(lp27
S'Sonitpur'
p28
aS'169'
p29
aS'Neutral'
p30
aa(lp31
S'Kokrajhar'
p32
aS'171'
p33
aS'Neutral'
p34
aa(lp35
S'Chirang'
p36
aS'173'
p37
aS'Neutral'
p38
aasS'PER'
p39
(lp40
(lp41
S'Tiwari'
p42
aS'72'
p43
aS'Comment'
p44
aasS'TIM'
p45
(lp46
S'last year : 177'
p47
asS'hot_setting'
p48
S''
p49
sS'DAT'
p50
(lp51
S'Monday : 14'
p52
aS'Monday : 125'
p53
aS'Dec 23 : 175'
p54
asS'death'
p55
g49
sS'title'
p56
S'Two blasts in Assam on Republic Day, no injuries'
p57
sS'det_loc'
p58
(lp59
S'India'
p60
aS'Assam'
p61
aS'Tinsukia'
p62
ag49
ag49
asS'terror_group'
p63
(lp64
S'NATIONAL DEMOCRATIC FRONT OF BODOLAND (NDFB)'
p65
asS'content'
p66
VSuspected militants from the anti-talks faction of the United Liberation Front of Asom Monday triggered two blasts near Digboi town in Tinsukia district . . . `` While one blast was triggered on the outskirts of Digboi town , another blast took place near a drain in the town . Both were low intensity crude bombs and there is no injury or any damage , '' Tinsukia Superintendent of Police A.P. Tiwari said . . . The police had tightened security across the state ahead of Republic Day , particularly after intelligence inputs that the anti-talks faction of the militant outfit might try to carry out subversive activities . . . Police also recovered an improvised explosive device from Jorhat town in Upper Assam Monday . . . The Assam police , Army and other security forces have intensified counter-insurgency operations across the state , particularly along the Indo-Bhutan border and Assam-Arunachal Pradesh border , after the attack by the anti-talks faction of NDFB militants on civilians in Sonitpur , Kokrajhar and Chirang districts Dec 23 last year that left over 80 people including women and children dead . . . -- Indo-Asian news Service . . ah/vip/bg . . .
p67
sS'injured'
p68
g49
sS'org_unorg'
p69
S'ORGANISED'
p70
sS'O'
p71
(lp72
S'Suspected militants:1'
p73
aS'anti-talks:5'
p74
aS'two blasts:16'
p75
aS'low intensity crude bombs:53'
p76
aS'tightened security:80'
p77
aS'Republic Day:87'
p78
aS'anti-talks:96'
p79
aS'militant outfit:100'
p80
aS'improvised explosive device:116'
p81
aS'security forces:136'
p82
aS'counter-insurgency operations:140'
p83
aS'Indo-Bhutan border:149'
p84
aS'Assam-Arunachal Pradesh border:152'
p85
aS'attack:158'
p86
aS'anti-talks:161'
p87
asS'unexpl'
p88
(lp89
g49
asS'ocassion'
p90
S'REPULBIC DAY'
p91
sS'link'
p92
S'http://www.business-standard.com/article/news-ians/two-blasts-in-assam-on-republic-day-no-injuries-115012600287_1.html'
p93
sS'date'
p94
S'26-01-2015'
p95
sS'target'
p96
S'TOWN'
p97
sS'hot_spot'
p98
g49
sS'delivery_mod'
p99
g49
sS'delivery_met'
p100
S'PLANTED'
p101
sS'expl'
p102
(lp103
S'CRUDE BOMB'
p104
asS'ORG'
p105
(lp106
(lp107
S'United Liberation Front of Asom'
p108
aS'9'
p109
aS'Accused'
p110
aa(lp111
S'Assam police'
p112
aS'130'
p113
aS'Others'
p114
aa(lp115
S'Army'
p116
aS'133'
p117
aS'Others'
p118
aa(lp119
S'NDFB'
p120
aS'164'
p121
aS'Accused'
p122
aas.