(dp0
S'LOC'
p1
(lp2
(lp3
S'UN'
p4
aS'14'
p5
aS'Neutral'
p6
aa(lp7
S'Delhi'
p8
aS'26'
p9
aS'Event'
p10
aa(lp11
S'India'
p12
aS'52'
p13
aS'Neutral'
p14
aa(lp15
S'UN'
p16
aS'72'
p17
aS'Neutral'
p18
aa(lp19
S'UN'
p20
aS'100'
p21
aS'Neutral'
p22
aa(lp23
S'UN'
p24
aS'110'
p25
aS'Neutral'
p26
aasS'PER'
p27
(lp28
(lp29
S'Ban Ki-moon'
p30
aS'16'
p31
aS'Comment'
p32
aa(lp33
S'Eduardo del Buey'
p34
aS'74'
p35
aS'Comment'
p36
aa(lp37
S'Buey'
p38
aS'91'
p39
aS'Comment'
p40
aa(lp41
S'Lebanon'
p42
aS'105'
p43
aS'Others'
p44
aa(lp45
S'Nawaf Salam'
p46
aS'111'
p47
aS'Comment'
p48
aasS'TIM'
p49
(lp50
sS'hot_setting'
p51
S''
p52
sS'DAT'
p53
(lp54
sS'death'
p55
S'12'
p56
sS'title'
p57
S'Delhi High Court blast: UN Security Council, Ban Ki-moon condemn attack'
p58
sS'org_unorg'
p59
S'ORGANISED'
p60
sS'terror_group'
p61
(lp62
g52
asS'content'
p63
VUnited Nations : The United Nations Security Council -LRB- UNSC -RRB- today joined UN Chief Ban Ki-moon in strongly condemning the deadly terror attack in Delhi , saying such `` heinous '' acts of terrorism are `` criminal and unjustifiable '' . Moon expressed solidarity with the government and people of India and reiterated `` his firm stance that there is no justification for indiscriminate violence against civilians , '' deputy UN spokesman Eduardo del Buey said.The Secretary-General `` hopes that the perpetrators will be brought to justice , '' Buey said.In a separate statement read by the current UN Security Council President , Lebanon 's envoy to the UN Nawaf Salam , the UNSC also `` condemned in the strongest terms '' the terrorist attack that killed 12 people and left over 60 injured . `` The members of the Security Council reaffirmed that terrorism in all its forms and manifestations constitutes one of the most serious threats to international peace and security , and that any acts of terrorism are criminal and unjustifiable , regardless of their motivation , wherever , whenever and by whomsoever committed , '' the 15-member council said.Expressing sympathy and condolences to families and victims of the `` heinous act '' , the Security Council said it is determined to combat all forms of terrorism . .
p64
sS'injured'
p65
S'60'
p66
sS'det_loc'
p67
(lp68
S'India'
p69
aS'Delhi'
p70
aS'New Delhi'
p71
ag52
aS'Delhi,High court'
p72
asS'O'
p73
(lp74
S'heinous:31'
p75
aS'criminal and unjustifiable:38'
p76
aS'Secretary-General:78'
p77
aS'terrorism:171'
p78
asS'unexpl'
p79
(lp80
g52
asS'ocassion'
p81
g52
sS'link'
p82
S'http://www.ndtv.com/india-news/delhi-high-court-blast-un-security-council-ban-ki-moon-condemn-attack-467025'
p83
sS'date'
p84
S'07-09-2011'
p85
sS'target'
p86
S'HIGH COURT'
p87
sS'hot_spot'
p88
S'Delhi,High court'
p89
sS'delivery_mod'
p90
g52
sS'delivery_met'
p91
S'PLANTED'
p92
sS'expl'
p93
(lp94
g52
asS'ORG'
p95
(lp96
(lp97
S'United Nations Security Council'
p98
aS'5'
p99
aS'Others'
p100
aa(lp101
S'UNSC'
p102
aS'10'
p103
aS'Others'
p104
aa(lp105
S'government'
p106
aS'48'
p107
aS'Others'
p108
aa(lp109
S'Security Council'
p110
aS'101'
p111
aS'Others'
p112
aa(lp113
S'UNSC'
p114
aS'115'
p115
aS'Others'
p116
aa(lp117
S'Security Council'
p118
aS'142'
p119
aS'Others'
p120
aa(lp121
S'Security Council'
p122
aS'210'
p123
aS'Others'
p124
aas.