(dp0
S'LOC'
p1
(lp2
(lp3
S'AHMEDABAD/LUCKNOW'
p4
aS'1'
p5
aa(lp6
S'Gujarat'
p7
aS'398'
p8
aS'Neutral'
p9
aa(lp10
S'Ahmedabad'
p11
aS'492'
p12
aa(lp13
S'Gujarat'
p14
aS'42'
p15
aS'Accused Location'
p16
aa(lp17
S'Sarai Meer'
p18
aS'70'
p19
aS'Accused Location'
p20
aa(lp21
S'Azamgarh'
p22
aS'74'
p23
aS'Accused Location'
p24
aa(lp25
S'Uttar Pradesh'
p26
aS'77'
p27
aS'Accused Location'
p28
aa(lp29
S'UP'
p30
aS'91'
p31
aS'Accused Location'
p32
aa(lp33
S'Ahmedabad'
p34
aS'148'
p35
aS'Neutral'
p36
aa(lp37
S'Jaipur'
p38
aS'164'
p39
aS'Assoc Event Location'
p40
aa(lp41
S'Hyderabad'
p42
aS'166'
p43
aS'Assoc Event Location'
p44
aa(lp45
S'Bangalore'
p46
aS'168'
p47
aS'Assoc Event Location'
p48
aa(lp49
S'Indore'
p50
aS'175'
p51
aS'Assoc Event Location'
p52
aa(lp53
S'Delhi'
p54
aS'301'
p55
aS'Neutral'
p56
aa(lp57
S'Rajasthan'
p58
aS'303'
p59
aS'Neutral'
p60
aa(lp61
S'Karnataka'
p62
aS'305'
p63
aS'Neutral'
p64
aa(lp65
S'Maharashtra'
p66
aS'307'
p67
aS'Neutral'
p68
aa(lp69
S'MP'
p70
aS'387'
p71
aS'Source'
p72
aa(lp73
S'Gujarat'
p74
aS'413'
p75
aS'Assoc Event Location'
p76
aa(lp77
S'Ahmedabad'
p78
aS'416'
p79
aS'Assoc Event Location'
p80
aa(lp81
S'Surat'
p82
aS'418'
p83
aS'Assoc Event Location'
p84
aa(lp85
S'Pavagadh'
p86
aS'434'
p87
aS'Assoc Event Location'
p88
aa(lp89
S'Vadodara'
p90
aS'439'
p91
aS'Assoc Event Location'
p92
aa(lp93
S'Bapunagar'
p94
aS'452'
p95
aS'Source'
p96
aa(lp97
S'Ahmedabad'
p98
aS'455'
p99
aS'Source'
p100
aa(lp101
S'Madhya Pradesh'
p102
aS'483'
p103
aS'Neutral'
p104
aa(lp105
S'Vatva'
p106
aS'489'
p107
aS'Source'
p108
aa(lp109
S'Yunus'
p110
aS'509'
p111
aS'Neutral'
p112
aa(lp113
S'Vadodara'
p114
aS'518'
p115
aS'Source'
p116
aa(lp117
S'Surat'
p118
aS'522'
p119
aS'Neutral'
p120
aa(lp121
S'Ahmedabad'
p122
aS'551'
p123
aS'Event'
p124
aa(lp125
S'Mumbai'
p126
aS'555'
p127
aS'Source'
p128
aa(lp129
S'Vapi'
p130
aS'572'
p131
aS'Neutral'
p132
aa(lp133
S'Gujarat'
p134
aS'575'
p135
aS'Neutral'
p136
aa(lp137
S'Bharuch'
p138
aS'581'
p139
aS'Neutral'
p140
aa(lp141
S'Ahmedabad'
p142
aS'606'
p143
aS'Event'
p144
aasS'PER'
p145
(lp146
(lp147
S'Mufti Abdul Bashar Kasmi'
p148
aS'61'
p149
aS'Accused'
p150
aa(lp151
S'Bashar'
p152
aS'94'
p153
aS'Accused'
p154
aa(lp155
S'Bashar'
p156
aS'119'
p157
aS'Accused'
p158
aa(lp159
S'Rekha Dixit'
p160
aS'136'
p161
aS'Others'
p162
aa(lp163
S'Safdar Nagori'
p164
aS'157'
p165
aS'Assoc Accused'
p166
aa(lp167
S'Nagori'
p168
aS'171'
p169
aS'Assoc Accused'
p170
aa(lp171
S'Mufti Bashar'
p172
aS'181'
p173
aS'Others'
p174
aa(lp175
S'P C Pande'
p176
aS'290'
p177
aS'Comment'
p178
aa(lp179
S'Nagori'
p180
aS'321'
p181
aS'Others'
p182
aa(lp183
S'Pande'
p184
aS'376'
p185
aS'Comment'
p186
aa(lp187
S'Mufti Abdul Bashar Kasmi'
p188
aS'393'
p189
aS'Accused'
p190
aa(lp191
S'P C Pande'
p192
aS'401'
p193
aS'Comment'
p194
aa(lp195
S'Mufti'
p196
aS'407'
p197
aS'Accused'
p198
aa(lp199
S'Bashar'
p200
aS'441'
p201
aS'Accused'
p202
aa(lp203
S'Yunus Mansuri'
p204
aS'449'
p205
aS'Assoc Accused'
p206
aa(lp207
S'Ashish Bhatia'
p208
aS'466'
p209
aS'Comment'
p210
aa(lp211
S'Bhatia'
p212
aS'526'
p213
aS'Comment'
p214
aa(lp215
S'Sajid Mansuri'
p216
aS'587'
p217
aS'Accused'
p218
aasS'TIM'
p219
(lp220
sS'hot_setting'
p221
S''
p222
sS'event'
p223
S'ec0000_ei0021'
p224
sS'content'
p225
VAHMEDABAD/LUCKNOW : Three weeks after serial blasts rocked Ahmedabad , killing 57 people , Gujarat police claimed a major breakthrough with the arrest of 10 activists of the banned Students Islamic Movement of India -LRB- SIMI -RRB- , including nine from Gujarat . -LRB- Watch -RRB- The formal announcement of these arrests was made only after the alleged mastermind , Mufti Abdul Bashar Kasmi , was picked up from Sarai Meer locality in Azamgarh district of Uttar Pradesh on Saturday . A Gujarat police team struggled to convince their reluctant UP counterparts about Bashar 's involvement and it took some phone calls between higher-ups in the two states to sort things out . -LRB- See Ninans Cartoon -RRB- Bashar was arrested in a joint operation and produced before the special CBI judge -LRB- Lucknow -RRB- Rekha Dixit who allowed 3 day transit-remand to Gujarat police.Police officials in Ahmedabad claimed that the group headed by SIMI leader Safdar Nagori had executed similar blasts in Jaipur , Hyderabad and Bangalore . After Nagori 's arrest in Indore in March ' 08 , Mufti Bashar had wrested control of SIMI 's terror module.The breakthrough is bound to boost the sagging morale of Indian agencies in the forefront of the war on terror . It 's the first time that police have moved with this kind of speed and thoroughness after a terror attack . It also marks a new level of coordination between state police forces and with central intelligence agencies , a factor cited as a negative after each terror attack . ` We say this with pleasure and pride that our investigations would lead to the cracking of other serial blasts in the country , ' said Gujarat DGP , P C Pande , acknowledging the contribution of police forces from Delhi , Rajasthan , Karnataka and Maharashtra in the investigations , apart from central agencies.Bashar re-grouped the SIMI network after Nagori 's arrest and plotted the Ahmedabad blasts with the help of a Mumbai-based techie , an employee of Wipro who is still at large . ` SIMI operatives were working under the guise of Indian Mujahideen . Remove the first and last letters of SIMI , and you have the IM , ' said Pande . . . ` Raw material for bombs came from MP ' Announcing the arrest of Mufti Abdul Bashar Kasmi , Gujarat DGP , P C Pande said : ` Mufti had paid frequent visits to Gujarat and the Ahmedabad and Surat terror strikes were planned during a camp held in January 2008 in the forests of Pavagadh , 50 km from Vadodara . Bashar planned the attacks in the house of Yunus Mansuri in Bapunagar area of Ahmedabad , ' said joint commissioner of police -LRB- crime -RRB- Ashish Bhatia , who led the investigations . ` Raw material for making the bombs arrived from Madhya Pradesh and a house in Vatva area of Ahmedabad was rented by the group to make the bombs . While some bombs were made at Yunus ' residence , the rest were manufactured in Vadodara and sent to Surat , ' said Bhatia . Crime branch officials said the two cars that were turned into deadly bombs in the Civil Hospital and L G Hospital blasts in Ahmedabad were stolen from Mumbai by SIMI activists from MP . The cars were handed over to the terror group in Vapi town of Gujarat and the car-lifters stayed in Bharuch with key SIMI operative , Sajid Mansuri , whose arrest earlier this week unravelled the whole plot . The cars were later brought to Ahmedabad and fitted with the bombs . Police have also identified the people and places from where second-hand bicycles were procured for use in the blasts .
p226
sS'death'
p227
S'57'
p228
sS'title'
p229
S'Ahmedabad blasts brains: SIMI man, techie'
p230
sS'det_loc'
p231
(lp232
S'India'
p233
aS'Gujarat'
p234
ag222
aS'Ahmedabad'
p235
ag222
asS'terror_group'
p236
(lp237
S'STUDENTS ISLAMIC MOVEMENT OF INDIA'
p238
asS'DAT'
p239
(lp240
S'Saturday:80'
p241
aS"March ' 08 : 177"
p242
aS'January 2008:428'
p243
asS'injured'
p244
g222
sS'org_unorg'
p245
g222
sS'O'
p246
(lp247
S'serial:6'
p248
aS'ahmedabad:9'
p249
aS'breakthrough:20'
p250
aS'arrest:23'
p251
aS'announcement:49'
p252
aS'mastermind:59'
p253
aS'involvement:96'
p254
aS'ninans cartoon:116'
p255
aS'cbi judge:131'
p256
aS'3 day transit-remand:140'
p257
aS'control:185'
p258
aS'morale:198'
p259
aS'terror attack:229'
p260
aS'coordination:239'
p261
aS'state police:241'
p262
aS'intelligence:247'
p263
aS'factor:251'
p264
aS'terror attack:258'
p265
aS'pleasure:266'
p266
aS'pride:268'
p267
aS'gujarat dgp:287'
p268
aS'contribution:296'
p269
aS'ahmedabad blasts:327'
p270
aS'mumbai-based techie:334'
p271
aS'guise:354'
p272
aS'joint commissioner of police:459'
p273
aS'two cars:533'
p274
aS'deadly bombs:539'
p275
aS'activists:558'
p276
aS'second-hand bicycles:623'
p277
asS'unexpl'
p278
(lp279
g222
asS'ocassion'
p280
g222
sS'link'
p281
S'http://timesofindia.indiatimes.com/india/Ahmedabad-blasts-brains-SIMI-man-techie/articleshow/3370648.cms?referral=PM'
p282
sS'date'
p283
S'26-07-2008'
p284
sS'target'
p285
g222
sS'hot_spot'
p286
g222
sS'delivery_mod'
p287
S'FOUR WHEELER'
p288
sS'delivery_met'
p289
S'PLANTED'
p290
sS'expl'
p291
(lp292
g222
asS'ORG'
p293
(lp294
(lp295
S'Gujarat police'
p296
aS'15'
p297
aS'Others'
p298
aa(lp299
S'Students Islamic Movement of India'
p300
aS'30'
p301
aS'Accused'
p302
aa(lp303
S'SIMI'
p304
aS'36'
p305
aS'Accused'
p306
aa(lp307
S'Gujarat police'
p308
aS'83'
p309
aS'Others'
p310
aa(lp311
S'SIMI'
p312
aS'155'
p313
aS'Accused'
p314
aa(lp315
S'SIMI'
p316
aS'187'
p317
aS'Accused'
p318
aa(lp319
S'SIMI'
p320
aS'318'
p321
aS'Accused'
p322
aa(lp323
S'Wipro'
p324
aS'340'
p325
aS'Victim'
p326
aa(lp327
S'SIMI'
p328
aS'348'
p329
aS'Accused'
p330
aa(lp331
S'Indian Mujahideen'
p332
aS'356'
p333
aS'Accused'
p334
aa(lp335
S'SIMI'
p336
aS'366'
p337
aS'Accused'
p338
aa(lp339
S'IM'
p340
aS'372'
p341
aS'Assoc Accused'
p342
aa(lp343
S'Civil Hospital'
p344
aS'543'
p345
aS'Victim'
p346
aa(lp347
S'L G Hospital'
p348
aS'546'
p349
aS'Victim'
p350
aa(lp351
S'SIMI'
p352
aS'557'
p353
aS'Accused'
p354
aa(lp355
S'SIMI'
p356
aS'584'
p357
aS'Accused'
p358
aas.