(dp0
S'LOC'
p1
(lp2
(lp3
S'UN'
p4
aS'3'
p5
aS'Neutral'
p6
aa(lp7
S'Hyderabad'
p8
aS'19'
p9
aS'Event'
p10
aa(lp11
S'Hyderabad'
p12
aS'52'
p13
aS'Event'
p14
aa(lp15
S'UN'
p16
aS'64'
p17
aS'Neutral'
p18
aa(lp19
S'India'
p20
aS'90'
p21
aS'Neutral'
p22
aasS'PER'
p23
(lp24
(lp25
S'Ban Ki-moon'
p26
aS'6'
p27
aS'Others'
p28
aasS'TIM'
p29
(lp30
sS'hot_setting'
p31
S''
p32
sS'DAT'
p33
(lp34
S'yesterday : 67'
p35
asS'death'
p36
S'12'
p37
sS'title'
p38
S'Hyderabad bomb blasts: UN Secretary General Ban Ki-moon condemns attack'
p39
sS'org_unorg'
p40
g32
sS'terror_group'
p41
(lp42
g32
asS'content'
p43
VWASHINGTON : UN Secretary General Ban Ki-moon has joined the international community in condemning the terrorist attack in Hyderabad that killed more than a dozen people and wounded scores of others . . . `` The Secretary-General strongly condemns the indiscriminate attacks against civilians which occurred in the Indian city of Hyderabad , '' said a statement issued by the office of the UN Secretary General yesterday . . . `` He extends his heartfelt condolences to the families of the victims and to the Government and people of India , '' the statement said .
p44
sS'injured'
p45
g32
sS'det_loc'
p46
(lp47
S'India'
p48
aS'Andhra Pradesh'
p49
ag32
aS'Hyderabad'
p50
ag32
asS'O'
p51
(lp52
S'international community:11'
p53
aS'terrorist:16'
p54
aS'killed:21'
p55
aS'wounded:28'
p56
aS'attacks:42'
p57
aS'victims:82'
p58
asS'unexpl'
p59
(lp60
g32
asS'ocassion'
p61
g32
sS'link'
p62
S'http://articles.economictimes.indiatimes.com/2013-02-22/news/37242202_1_ban-ki-moon-indiscriminate-attacks-secretary-general-ban'
p63
sS'date'
p64
S'22-02-2013'
p65
sS'target'
p66
S'CITY'
p67
sS'hot_spot'
p68
g32
sS'delivery_mod'
p69
g32
sS'delivery_met'
p70
S'PLANTED'
p71
sS'expl'
p72
(lp73
g32
asS'ORG'
p74
(lp75
s.