(dp0
S'LOC'
p1
(lp2
(lp3
S'New Delhi'
p4
aS'1'
p5
aS'Neutral'
p6
aa(lp7
S'Guwahati'
p8
aS'17'
p9
aS'Neutral'
p10
aa(lp11
S'Athgaon'
p12
aS'77'
p13
aS'Event'
p14
aasS'PER'
p15
(lp16
(lp17
S'Manmohan Singh'
p18
aS'11'
p19
aS'Comment'
p20
aa(lp21
S'Singh'
p22
aS'44'
p23
aS'Comment'
p24
aasS'TIM'
p25
(lp26
S'morning : 80'
p27
asS'hot_setting'
p28
S''
p29
sS'DAT'
p30
(lp31
S'May 26:4'
p32
asS'death'
p33
S'7'
p34
sS'title'
p35
S'PM condemns Guwahati bomb blast'
p36
sS'det_loc'
p37
(lp38
S'India'
p39
aS'Assam'
p40
ag29
aS'Guwahati'
p41
aS'Athgaon,Guwahati'
p42
asS'terror_group'
p43
(lp44
S'UNITED LIBERATION FRONT OF ASSAM (ULFA)'
p45
asS'content'
p46
VNew Delhi , May 26 ( UNI ) Prime Minister Manmohan Singh today strongly condemned the Guwahati bomb blast that left at least seven people dead . . . '' Such violent acts only harm the lives of ordinary people , '' Dr Singh said in a statement here . . . He sent his condolences to the families of those who lost their lives in the blast , triggered by ULFA militants in the busy Athgaon area this morning . . . Police said a bomb was placed in an auto-rickshaw hired by militants . . . .
p47
sS'injured'
p48
g29
sS'org_unorg'
p49
S'ORGANISED'
p50
sS'O'
p51
(lp52
S'Police:84'
p53
asS'unexpl'
p54
(lp55
g29
asS'ocassion'
p56
g29
sS'link'
p57
S'http://www.oneindia.com/2007/05/26/pm-condemns-guwahati-bomb-blast-1180179611.html'
p58
sS'date'
p59
S'26-05-2007'
p60
sS'target'
p61
g29
sS'hot_spot'
p62
S'Athgaon,Guwahati'
p63
sS'delivery_mod'
p64
S'AUTO-RICKSHAW'
p65
sS'delivery_met'
p66
S'PLANTED'
p67
sS'expl'
p68
(lp69
g29
asS'ORG'
p70
(lp71
(lp72
S'ULFA'
p73
aS'72'
p74
aS'Accused'
p75
aas.