(dp0
S'LOC'
p1
(lp2
(lp3
S'West Bengals'
p4
aS'8'
p5
aS'Event'
p6
aa(lp7
S'Bardhaman'
p8
aS'10'
p9
aS'Event'
p10
aasS'PER'
p11
(lp12
(lp13
S'Dilip Adak'
p14
aS'64'
p15
aS'Comment'
p16
aa(lp17
S'Abdul Hakim'
p18
aS'111'
p19
aS'Accused'
p20
aa(lp21
S'Hashem Molla'
p22
aS'127'
p23
aS'Accused'
p24
aasS'TIM'
p25
(lp26
S'Six days : 1'
p27
asS'hot_setting'
p28
S''
p29
sS'DAT'
p30
(lp31
S'Wednesday:44'
p32
aS'Tuesday:125'
p33
aS'Monday:138'
p34
asS'death'
p35
g29
sS'title'
p36
S'Bardhaman blast accused charged under UAPA'
p37
sS'org_unorg'
p38
g29
sS'terror_group'
p39
(lp40
g29
asS'content'
p41
VSix days after the accidental blast in West Bengals Bardhaman district , the four arrested in the case have been charged under sections of the Unlawful Activities Prevention Act -LRB- UAPA -RRB- , Criminal Investigation Department -LRB- CID -RRB- officials said here on Wednesday . . . We have charged all the four including two women under several sections of the UAPA , Dilip Adak , Deputy Inspector General of CID , told The Hindu . . . The accused have also been charged under other sections of the Indian Penal Code such as 121A , 122 and 123 relating to waging war against the state . . . While Abdul Hakim , who was present at the blast site , was arrested on Tuesday , Hashem Molla , another accused in the case was arrested on Monday .
p42
sS'injured'
p43
g29
sS'det_loc'
p44
(lp45
S'India'
p46
aS'West Bengal'
p47
aS'Bardhaman'
p48
aS'West Bengal'
p49
ag29
asS'O'
p50
(lp51
S'accidental blast:5'
p52
aS'four arrested:14'
p53
aS'Unlawful Activities Prevention Act:26'
p54
aS'UAPA:31'
p55
aS'UAPA:62'
p56
aS'accused:80'
p57
aS'Indian Penal Code:90'
p58
aS'121A:95'
p59
aS'122:97'
p60
aS'123:99'
p61
aS'waging war:102'
p62
aS'blast site:119'
p63
aS'accused:131'
p64
aS'arrested:136'
p65
asS'unexpl'
p66
(lp67
g29
asS'ocassion'
p68
g29
sS'link'
p69
S'http://www.thehindu.com/todays-paper/tp-national/bardhaman-blast-accused-charged-under-uapa/article6483352.ece'
p70
sS'date'
p71
S'02-10-2014'
p72
sS'target'
p73
g29
sS'hot_spot'
p74
g29
sS'delivery_mod'
p75
g29
sS'delivery_met'
p76
S'ACCIDENTAL'
p77
sS'expl'
p78
(lp79
g29
asS'ORG'
p80
(lp81
(lp82
S'Criminal Investigation Department'
p83
aS'34'
p84
aS'Others'
p85
aa(lp86
S'CID'
p87
aS'38'
p88
aS'Others'
p89
aa(lp90
S'CID'
p91
aS'71'
p92
aS'Others'
p93
aa(lp94
S'The Hindu'
p95
aS'74'
p96
aS'Others'
p97
aas.