(dp0
S'LOC'
p1
(lp2
(lp3
S'south Manipur'
p4
aS'23'
p5
aS'Neutral'
p6
aa(lp7
S'Manipur'
p8
aS'24'
p9
aS'Neutral'
p10
aa(lp11
S'Mizoram'
p12
aS'28'
p13
aS'Neutral'
p14
aasS'PER'
p15
(lp16
(lp17
S'Hmar'
p18
aS'18'
p19
aS'Others'
p20
aa(lp21
S'Paite'
p22
aS'20'
p23
aS'Others'
p24
aa(lp25
S'Ksh . Yoiheiba'
p26
aS'70'
p27
aS'Comment'
p28
aasS'TIM'
p29
(lp30
sS'hot_setting'
p31
S''
p32
sS'DAT'
p33
(lp34
sS'death'
p35
g32
sS'title'
p36
S'UNLF denies role in exodus'
p37
sS'org_unorg'
p38
S'ORGANISED'
p39
sS'terror_group'
p40
(lp41
S'UNITED LIBERATION FRONT OF ASSAM (ULFA)'
p42
asS'content'
p43
VImphal , Jan. 23 : The militant United National Liberation Front ( UNLF ) today denied that Hmar and Paite villagers from south Manipur fled to neighbouring Mizoram to escape persecution at the hands of its members . . . The outlawed group instead charged militants of the Hmar Peoples Convention ( Democratic ) with harassing the villagers , forcing the exodus . . . In a statement , Ksh . Yoiheiba , senior publicity officer of the UNLF , claimed that the villagers fled after the HPC ( D ) warned village chiefs against providing food and shelter to his organisations members . The UNLF also accused its rival of conniving with the army . . . The statement dismissed allegations about the UNLF using the villagers as human shields as false propaganda of Indian intelligence agencies to strain the outfits relationship with the villagers . . . The UNLF still has a good relationship with the villagers . Such propaganda will not bear fruit , it said .
p44
sS'injured'
p45
g32
sS'det_loc'
p46
(lp47
g32
ag32
ag32
ag32
ag32
asS'O'
p48
(lp49
g32
asS'unexpl'
p50
(lp51
g32
asS'ocassion'
p52
g32
sS'link'
p53
S'http://www.telegraphindia.com/1060124/asp/guwahati/story_5759110.asp'
p54
sS'date'
p55
g32
sS'target'
p56
g32
sS'hot_spot'
p57
g32
sS'delivery_mod'
p58
g32
sS'delivery_met'
p59
g32
sS'expl'
p60
(lp61
g32
asS'ORG'
p62
(lp63
(lp64
S'United National Liberation Front'
p65
aS'8'
p66
aS'Accused'
p67
aa(lp68
S'UNLF'
p69
aS'13'
p70
aS'Accused'
p71
aa(lp72
S'Hmar Peoples Convention'
p73
aS'49'
p74
aS'Others'
p75
aa(lp76
S'UNLF'
p77
aS'79'
p78
aS'Accused'
p79
aa(lp80
S'HPC'
p81
aS'88'
p82
aS'Others'
p83
aa(lp84
S'UNLF'
p85
aS'106'
p86
aS'Accused'
p87
aa(lp88
S'UNLF'
p89
aS'125'
p90
aS'Accused'
p91
aa(lp92
S'UNLF'
p93
aS'151'
p94
aS'Accused'
p95
aas.