(dp0
S'LOC'
p1
(lp2
(lp3
S'Ajmer'
p4
aS'10'
p5
aS'Event'
p6
aa(lp7
S'dargah'
p8
aS'11'
p9
aS'Event'
p10
aa(lp11
S'Ludhiana'
p12
aS'17'
p13
aS'Assoc Event Location'
p14
aa(lp15
S'Punjab'
p16
aS'24'
p17
aS'Neutral'
p18
aa(lp19
S'Ajmer'
p20
aS'55'
p21
aS'Event'
p22
aa(lp23
S'Shringhar'
p24
aS'114'
p25
aS'Assoc Event Location'
p26
aa(lp27
S'Punjab'
p28
aS'145'
p29
aS'Neutral'
p30
aasS'PER'
p31
(lp32
sS'TIM'
p33
(lp34
sS'hot_setting'
p35
S''
p36
sS'DAT'
p37
(lp38
S'Wednesday:92'
p39
asS'death'
p40
S'6'
p41
sS'title'
p42
S'Ajmer, Ludhiana blasts differ in nature'
p43
sS'org_unorg'
p44
S'ORGANISED'
p45
sS'terror_group'
p46
(lp47
g36
asS'content'
p48
VThe modus operandi of the terror attacks on the Ajmer dargah and the cinema hall in Ludhiana are different , said sources in Punjab Police probing the blast in the cinema hall that killed six persons . . . They said investigations so far showed there was no link with the recent blast at Ajmer as no evidence of any mobile or phone or its SIM card having been used in the blast in the cinema hall had come out . . . Senior police officers preferred to remain silent on Wednesday saying investigations were still on . . . Officials of the Intelligence Bureau conducted daylong investigations at the blast site in Shringhar cinema . However , the IB officials declined to divulge any details . . . National Security Guards officials have also returned after inspecting the spot and holding consultations with Punjab Police officials . .
p49
sS'injured'
p50
g36
sS'det_loc'
p51
(lp52
S'India'
p53
aS'Punjab'
p54
ag36
aS'ajmer'
p55
ag36
asS'O'
p56
(lp57
S'modus operandi:2'
p58
aS'cinema hall:14'
p59
aS'cinema hall:31'
p60
aS'SIM card:66'
p61
aS'cinema hall:76'
p62
aS'investigations:108'
p63
aS'shringhar:114'
p64
aS'shringhar cinema:114'
p65
aS'divulge:124'
p66
asS'unexpl'
p67
(lp68
g36
asS'ocassion'
p69
g36
sS'link'
p70
S'http://www.rediff.com/news/2007/oct/17ajmer.htm'
p71
sS'date'
p72
S'11-10-2007'
p73
sS'target'
p74
S'RELIGIOUS PLACES'
p75
sS'hot_spot'
p76
g36
sS'delivery_mod'
p77
g36
sS'delivery_met'
p78
S'PLANTED'
p79
sS'expl'
p80
(lp81
S'BOMB'
p82
asS'ORG'
p83
(lp84
(lp85
S'Intelligence Bureau'
p86
aS'104'
p87
aS'Others'
p88
aa(lp89
S'IB'
p90
aS'120'
p91
aS'Others'
p92
aa(lp93
S'National Security Guards'
p94
aS'130'
p95
aS'Others'
p96
aas.