(dp0
S'LOC'
p1
(lp2
(lp3
S'JAIPUR'
p4
aS'1'
p5
aS'Neutral'
p6
aa(lp7
S'India'
p8
aS'3'
p9
aS'Neutral'
p10
aa(lp11
S'Jaipur'
p12
aS'26'
p13
aS'Event'
p14
aa(lp15
S'Jaipur'
p16
aS'43'
p17
aS'Event'
p18
aa(lp19
S'Jaipur'
p20
aS'122'
p21
aS'Event'
p22
aasS'PER'
p23
(lp24
(lp25
S'Bappa Majumdar'
p26
aS'127'
p27
aa(lp28
S'Pankaj Singh'
p29
aS'111'
p30
aS'Others'
p31
aa(lp32
S'Alistair Scrutton'
p33
aS'132'
p34
aS'Others'
p35
aa(lp36
S'John Chalmers'
p37
aS'135'
p38
aS'Others'
p39
aasS'TIM'
p40
(lp41
sS'hot_setting'
p42
S''
p43
sS'DAT'
p44
(lp45
S'May 15 : 4'
p46
asS'death'
p47
S'61'
p48
sS'title'
p49
S'Indian group claims responsibility for India bombings'
p50
sS'org_unorg'
p51
S'ORGANISED'
p52
sS'terror_group'
p53
(lp54
g43
asS'content'
p55
VJAIPUR , India May 15 A little-known militant group called the Indian Mujahideen claimed responsibility for setting off bombs in the western Indian city of Jaipur that killed 61 people and injured 216 people this week , police said . Police in Jaipur said the group sent attached video clips of packets strapped to the back of bicycles , which the group said in the video contained bombs . The video was broadcast on national television channels . National media said the videos showed a serial number of one of the bicycles . `` We are examining the authenticity of the video and the claim at the moment , '' Pankaj Singh , a senior police officer , told Reuters in Jaipur . ( Reporting by Bappa Majumdar ; Editing by Alistair Scrutton and John Chalmers ) . . .
p56
sS'injured'
p57
S'216'
p58
sS'det_loc'
p59
(lp60
S'India'
p61
aS'Rajasthan'
p62
aS'Jaipur'
p63
aS'Jaipur'
p64
aS'Jaipur'
p65
asS'O'
p66
(lp67
S'police:38'
p68
asS'unexpl'
p69
(lp70
g43
asS'ocassion'
p71
g43
sS'link'
p72
S'http://www.reuters.com/article/idUSSP100897'
p73
sS'date'
p74
S'14-05-2008'
p75
sS'target'
p76
g43
sS'hot_spot'
p77
S'Jaipur'
p78
sS'delivery_mod'
p79
S'BYCICLE'
p80
sS'delivery_met'
p81
S'PLANTED'
p82
sS'expl'
p83
(lp84
g43
asS'ORG'
p85
(lp86
(lp87
S'Indian Mujahideen'
p88
aS'12'
p89
aS'Others'
p90
aa(lp91
S'National media'
p92
aS'79'
p93
aS'Others'
p94
aas.