(dp0
S'LOC'
p1
(lp2
(lp3
S'Guwahati'
p4
aS'31'
p5
aS'Event'
p6
aa(lp7
S'Upper Assam'
p8
aS'225'
p9
aS'Event'
p10
aa(lp11
S'Assam'
p12
aS'273'
p13
aS'Event'
p14
aa(lp15
S'Naojan'
p16
aS'285'
p17
aS'Neutral'
p18
aa(lp19
S'Chungajan'
p20
aS'287'
p21
aS'Neutral'
p22
aa(lp23
S'Assam'
p24
aS'289'
p25
aS'Event'
p26
aa(lp27
S'Golaghat'
p28
aS'291'
p29
aS'Event'
p30
aasS'PER'
p31
(lp32
(lp33
S'Shivraj Patil'
p34
aS'105'
p35
aS'Comment'
p36
aa(lp37
S'Madhukar Gupta'
p38
aS'185'
p39
aS'Comment'
p40
aa(lp41
S'Gupta'
p42
aS'200'
p43
aS'Others'
p44
aasS'TIM'
p45
(lp46
S'today : 52'
p47
aS'1.00 a.m.:295'
p48
asS'hot_setting'
p49
S''
p50
sS'DAT'
p51
(lp52
S'Dec 14 : 33'
p53
aS'Thursday morning : 275'
p54
aS'June 2006 : 320'
p55
asS'death'
p56
S'5'
p57
sS'title'
p58
S'NSG team to arrive in Assam today'
p59
sS'det_loc'
p60
(lp61
S'India'
p62
aS'Assam'
p63
aS'Golaghat'
p64
aS'Guwahati'
p65
ag50
asS'terror_group'
p66
(lp67
g50
asS'content'
p68
VThe Blast Investigation Operation team of the National Security Guard ( NSG ) will arrive here today to assist in the investigation of the Rajdhani Express blast . . . Guwahati , Dec 14 : The Blast Investigation Operation team of the National Security Guard ( NSG ) will arrive here today to assist in the investigation of the Rajdhani Express blast . . . The team will look for ballistic and forensic clues at the site of the incident , a spokesperson of the Home Ministry , which is closely monitoring the situation . . . Condemning the blast , Union Home Minister Shivraj Patil has said , `` I convey my sympathies to those killed and pray for speedy recovery of those injured in the incident . '' . . `` People of our country understand the designs of terrorists and will not be cowed down by such incidents . The State Governments and Railways will take necessary steps to provide protection to passengers and see that such incidents do not recur , '' he added . . . Union Home Secretary Madhukar Gupta had also spoken to the Assam Chief Secretary . The latter has briefed Gupta about the steps taken in the wake of the blast . . . Army and security forces have intensified operations against militants in the Upper Assam districts after the blast . . . Security measures on the railway tracks have also been beefed up across the State . . . At least five persons were dead and four others injured when a bomb exploded in the 2423 A Guwahati-Delhi Rajdhani Express in Assam on Thursday morning . . . The explosion took place between Naojan and Chungajan in Assam 's Golaghat District at around 1.00 a.m. . . This is the first bomb blast on the Dibrugarh-New Delhi Rajdhani , although the train has been targeted once before in June 2006 . . . addthis_url = location.href ; addthis_title = document.title ; addthis_pub = ` vijaytech ' ; . . a36 ( ) ; . . .
p69
sS'injured'
p70
S'4'
p71
sS'org_unorg'
p72
g50
sS'O'
p73
(lp74
S'investigation:22'
p75
aS'Rajdhani Express:25'
p76
aS'blast:27'
p77
aS'investigation:57'
p78
aS'Rajdhani Express blast:60'
p79
aS'ballistic:71'
p80
aS'forensic clues:73'
p81
aS'blast:100'
p82
aS'sympathies:114'
p83
aS'injured:125'
p84
aS'terrorists:142'
p85
aS'protection:164'
p86
aS'blast:210'
p87
aS'Army and security forces:214'
p88
aS'militants:222'
p89
aS'blast:230'
p90
aS'railway tracks:238'
p91
aS'bomb exploded:263'
p92
aS'2423 A Guwahati-Delhi Rajdhani Express:267'
p93
aS'explosion:281'
p94
aS'first bomb blast:302'
p95
aS'Dibrugarh-New Delhi Rajdhani:307'
p96
asS'unexpl'
p97
(lp98
g50
asS'ocassion'
p99
g50
sS'link'
p100
S'http://www.andhranews.net/India/2007/December/14-team-arrive-Assam-26044.asp'
p101
sS'date'
p102
S'13-12-2007'
p103
sS'target'
p104
S'TRAIN'
p105
sS'hot_spot'
p106
g50
sS'delivery_mod'
p107
g50
sS'delivery_met'
p108
S'PLANTED'
p109
sS'expl'
p110
(lp111
g50
asS'ORG'
p112
(lp113
(lp114
S'Blast Investigation Operation team'
p115
aS'2'
p116
aS'Others'
p117
aa(lp118
S'National Security Guard'
p119
aS'8'
p120
aS'Others'
p121
aa(lp122
S'NSG'
p123
aS'12'
p124
aS'Others'
p125
aa(lp126
S'Blast Investigation Operation team'
p127
aS'37'
p128
aS'Others'
p129
aa(lp130
S'National Security Guard'
p131
aS'43'
p132
aS'Others'
p133
aa(lp134
S'NSG'
p135
aS'47'
p136
aS'Others'
p137
aa(lp138
S'State Governments'
p139
aS'154'
p140
aS'Others'
p141
aa(lp142
S'Railways'
p143
aS'157'
p144
aS'Others'
p145
aas.