(dp0
S'LOC'
p1
(lp2
(lp3
S'PATNA'
p4
aS'1'
p5
aS'Neutral'
p6
aa(lp7
S'Guwahati'
p8
aS'16'
p9
aS'Neutral'
p10
aa(lp11
S'Assam'
p12
aS'59'
p13
aS'Neutral'
p14
aa(lp15
S'Assam government'
p16
aS'59'
p17
aS'Neutral'
p18
aa(lp19
S'Assam government'
p20
aS'59'
p21
aS'Neutral'
p22
aa(lp23
S'Biharis'
p24
aS'101'
p25
aS'Neutral'
p26
aa(lp27
S'Athgaon'
p28
aS'135'
p29
aS'Neutral'
p30
aa(lp31
S'Assam'
p32
aS'138'
p33
aS'Neutral'
p34
aa(lp35
S'Guwahati'
p36
aS'192'
p37
aS'Neutral'
p38
aa(lp39
S'Guwahati three'
p40
aS'192'
p41
aS'Neutral'
p42
aa(lp43
S'Dhaka'
p44
aS'214'
p45
aS'Neutral'
p46
aa(lp47
S'Dhaka Jail'
p48
aS'214'
p49
aS'Neutral'
p50
aa(lp51
S'Jail'
p52
aS'215'
p53
aS'Neutral'
p54
aa(lp55
S'Assam government'
p56
aS'227'
p57
aS'Neutral'
p58
aa(lp59
S'Assam'
p60
aS'227'
p61
aS'Neutral'
p62
aa(lp63
S'Assam'
p64
aS'258'
p65
aS'Neutral'
p66
aasS'PER'
p67
(lp68
(lp69
S'Nitish Kumar'
p70
aS'4'
p71
aS'Others'
p72
aa(lp73
S'Sushil Kumar Modi'
p74
aS'142'
p75
aS'Others'
p76
aa(lp77
S'Modi'
p78
aS'163'
p79
aS'Others'
p80
aa(lp81
S'Paresh Barua'
p82
aS'203'
p83
aS'Others'
p84
aa(lp85
S'Modi'
p86
aS'230'
p87
aS'Others'
p88
aasS'TIM'
p89
(lp90
sS'hot_setting'
p91
S''
p92
sS'DAT'
p93
(lp94
sS'death'
p95
S'7'
p96
sS'title'
p97
S'CM condemns bomb blast in Assam'
p98
sS'det_loc'
p99
(lp100
S'India'
p101
aS'Assam'
p102
aS'Kamrup Metropolitan'
p103
aS'Guwahati'
p104
ag92
asS'terror_group'
p105
(lp106
S'UNITED LIBERATION FRONT OF ASSAM (ULFA)'
p107
asS'content'
p108
VPATNA : CM Nitish Kumar has condemned the bomb blast triggered by the Ulfa in Guwahati , in which seven Hindi speaking people were killed , and demanded a determined and strong action against the separatist outfit . ' I condemn the blast by the Ulfa which has led to the loss of seven precious lives . The Assam government should take determined and strong action against the separatist outfit which are regularly targetting Hindi-speaking people in the north eastern state , ' Nitish said in a statement . He also demanded adequate security for the Hindi-speaking people , including Biharis , who have significant presence in some pockets of the state and were contributing to its development . Seven persons were killed and 30 wounded when Ulfa militants set off a bomb in Athgaon area of Assam . Deputy CM Sushil Kumar Modi , while expressing his shock and profound grief over the killing , demanded immediate Central intervention there . Modi said such a gory incident took place as the state government failed to take preventive action promptly after ULFA issued a threat of a major bomb explosion in Guwahati three days before the incident . He said ULFA chief Paresh Barua had announced awards for killing Hindi speaking people from Dhaka Jail which , too , was not taken up seriously by the Assam government . Modi alleged that Congress had a soft corner for ULFA as the ultra outfit had supported the party during the last elections . He said Biharis living in Assam since long have assimilated themselves with the Assamese society hence they be provided adequate security .
p109
sS'injured'
p110
S'30'
p111
sS'org_unorg'
p112
g92
sS'O'
p113
(lp114
S'cm:3'
p115
aS'hindi:21'
p116
aS'government:60'
p117
aS'hindi-speaking:75'
p118
aS'north eastern:79'
p119
aS'hindi-speaking people:97'
p120
aS'ulfa militants:128'
p121
aS'deputy:140'
p122
aS'intervention:160'
p123
aS'bomb explosion:189'
p124
aS'chief:202'
p125
aS'hindi:210'
p126
aS'government:228'
p127
aS'biharis:255'
p128
aS'assamese:266'
p129
asS'unexpl'
p130
(lp131
g92
asS'ocassion'
p132
g92
sS'link'
p133
S'http://timesofindia.indiatimes.com/city/patna/CM-condemns-bomb-blast-in-Assam/articleshow/2076968.cms?'
p134
sS'date'
p135
S'25-08-2007'
p136
sS'target'
p137
g92
sS'hot_spot'
p138
g92
sS'delivery_mod'
p139
g92
sS'delivery_met'
p140
g92
sS'expl'
p141
(lp142
g92
asS'ORG'
p143
(lp144
(lp145
S'Ulfa'
p146
aS'14'
p147
aS'Accused'
p148
aa(lp149
S'Ulfa'
p150
aS'46'
p151
aS'Accused'
p152
aa(lp153
S'Ulfa'
p154
aS'128'
p155
aS'Others'
p156
aa(lp157
S'ULFA'
p158
aS'182'
p159
aS'Others'
p160
aa(lp161
S'ULFA'
p162
aS'201'
p163
aS'Others'
p164
aa(lp165
S'Congress'
p166
aS'233'
p167
aS'Others'
p168
aa(lp169
S'ULFA'
p170
aS'239'
p171
aS'Others'
p172
aa(lp173
S'Biharis'
p174
aS'255'
p175
aS'Others'
p176
aas.