(dp0
S'LOC'
p1
(lp2
(lp3
S'Guwahati'
p4
aS'1'
p5
aS'Neutral'
p6
aa(lp7
S'Digboi'
p8
aS'25'
p9
aS'Neutral'
p10
aa(lp11
S'Tinsukia'
p12
aS'28'
p13
aS'Neutral'
p14
aa(lp15
S'Digboi'
p16
aS'43'
p17
aS'Neutral'
p18
aa(lp19
S'Jorhat'
p20
aS'130'
p21
aS'Source'
p22
aa(lp23
S'Upper Assam'
p24
aS'133'
p25
aS'Neutral'
p26
aa(lp27
S'Sonitpur'
p28
aS'179'
p29
aS'Neutral'
p30
aa(lp31
S'Kokrajhar'
p32
aS'181'
p33
aS'Neutral'
p34
aa(lp35
S'Chirang'
p36
aS'183'
p37
aS'Neutral'
p38
aasS'PER'
p39
(lp40
(lp41
S'A.P. Tiwari'
p42
aS'77'
p43
aS'Comment'
p44
aasS'TIM'
p45
(lp46
sS'hot_setting'
p47
S''
p48
sS'DAT'
p49
(lp50
S'Monday:20'
p51
aS'Monday:135'
p52
aS'Dec 23 : 185'
p53
asS'death'
p54
g48
sS'title'
p55
S'Two blasts in Assam on Republic Day, no injuries'
p56
sS'det_loc'
p57
(lp58
S'India'
p59
aS'Assam'
p60
aS'Tinsukia'
p61
aS'guwahati'
p62
aS'Tinsukia'
p63
asS'terror_group'
p64
(lp65
S'UNITED LIBERATION FRONT OF ASSAM (ULFA)'
p66
aS'NATIONAL DEMOCRATIC FRONT OF BODOLAND (NDFB)'
p67
asS'content'
p68
VGuwahati , Jan 26 : Suspected militants from the anti-talks faction of the United Liberation Front of Asom on Monday triggered two blasts near Digboi town in Tinsukia district . . . `` While one blast was triggered on the outskirts of Digboi town , another blast took place near a drain in the town . Both were low intensity crude bombs and there is no injury or any damage , '' Tinsukia Superintendent of Police A.P. Tiwari said . . . View Photos . . The police had tightened security across the state ahead of Republic Day , particularly after intelligence inputs that the anti-talks faction of the militant outfit might try to carry out subversive activities . . . Police also recovered an improvised explosive device from Jorhat town in Upper Assam Monday . . . The Assam police , Army and other security forces have intensified counter-insurgency operations across the state , particularly along the Indo-Bhutan border and Assam-Arunachal Pradesh border , after the attack by the anti-talks faction of NDFB militants on civilians in Sonitpur , Kokrajhar and Chirang districts Dec 23 last year that left over 80 people including women and children dead . . . .
p69
sS'injured'
p70
g48
sS'org_unorg'
p71
S'ORGANISED'
p72
sS'O'
p73
(lp74
g48
asS'unexpl'
p75
(lp76
g48
asS'ocassion'
p77
g48
sS'link'
p78
S'http://www.oneindia.com/india/two-blasts-in-assam-on-republic-day-no-injuries-1632536.html'
p79
sS'date'
p80
S'26-01-2015'
p81
sS'target'
p82
g48
sS'hot_spot'
p83
S'Tinsukia'
p84
sS'delivery_mod'
p85
S'DRAIN'
p86
sS'delivery_met'
p87
S'PLANTED'
p88
sS'expl'
p89
(lp90
g48
asS'ORG'
p91
(lp92
(lp93
S'United Liberation Front of Asom'
p94
aS'14'
p95
aS'Accused'
p96
aa(lp97
S'Tinsukia Superintendent of Police'
p98
aS'73'
p99
aS'Others'
p100
aa(lp101
S'Assam police'
p102
aS'140'
p103
aS'Others'
p104
aa(lp105
S'NDFB'
p106
aS'174'
p107
aS'Accused'
p108
aas.