(dp0
S'LOC'
p1
(lp2
(lp3
S'India'
p4
aS'10'
p5
aS'Event'
p6
aa(lp7
S'Gujarat'
p8
aS'18'
p9
aS'Event'
p10
aa(lp11
S'Ahmedabad'
p12
aS'26'
p13
aS'Event'
p14
aa(lp15
S'Ahmedabad'
p16
aS'54'
p17
aS'Event'
p18
aa(lp19
S'Ahmedabad .'
p20
aS'54'
p21
aS'Event'
p22
aa(lp23
S'Delhi'
p24
aS'82'
p25
aS'Accused Location'
p26
aa(lp27
S'Delhi'
p28
aS'88'
p29
aS'Accused Location'
p30
aa(lp31
S'Ahmedabad'
p32
aS'113'
p33
aS'Event'
p34
aa(lp35
S'Ahmedabad'
p36
aS'139'
p37
aS'Event'
p38
aa(lp39
S'Ahmedabad'
p40
aS'167'
p41
aS'Event'
p42
aa(lp43
S'Uttar Pradesh'
p44
aS'172'
p45
aS'Neutral'
p46
aasS'PER'
p47
(lp48
(lp49
S'Abdul Halim'
p50
aS'45'
p51
aS'Accused'
p52
aa(lp53
S'Dani Limda'
p54
aS'48'
p55
aS'Accused'
p56
aa(lp57
S'Halim'
p58
aS'56'
p59
aS'Accused'
p60
aa(lp61
S'Ashish Bhatia'
p62
aS'118'
p63
aS'Comment'
p64
aa(lp65
S'Bhatia'
p66
aS'127'
p67
aS'Comment'
p68
aa(lp69
S'Halim'
p70
aS'129'
p71
aS'Accused'
p72
aa(lp73
S'Halim'
p74
aS'147'
p75
aS'Accused'
p76
aa(lp77
S'Halim'
p78
aS'196'
p79
aS'Accused'
p80
aa(lp81
S'Bhatia'
p82
aS'212'
p83
aS'Comment'
p84
aasS'TIM'
p85
(lp86
sS'hot_setting'
p87
S''
p88
sS'DAT'
p89
(lp90
S'2002:17'
p91
aS'Sunday:24'
p92
aS'Saturday:135'
p93
asS'death'
p94
S'45'
p95
sS'title'
p96
S'Ahmedabad blasts: SIMI activist held'
p97
sS'det_loc'
p98
(lp99
S'India'
p100
aS'Gujarat'
p101
aS'Ahmedabad'
p102
aS'Ahmedabad'
p103
ag88
asS'terror_group'
p104
(lp105
g88
asS'content'
p106
VAn activist of the banned Students Islamic Movement of India , who was wanted in the 2002 Gujarat riots , was arrested on Sunday from Ahmedabad after a combing operation for his alleged connection to the blasts there . . . The police arrested Abdul Halim from Dani Limda in the heart of Ahmedabad . Halim had gone into hiding after the riots and remained untraceable so far . . . ` There were reports that he was in hiding in Delhi and we had intimidated the Delhi police as well . After receiving some specific inputs about his whereabouts , the crime branch arrested him during a combing operation , ' Ahmedabad Joint Commissioner of Police Ashish Bhatia told PTI over phone . . . Bhatia said Halim was arrested in connection with Saturday 's blasts in Ahmedabad that claimed 45 lives . . . Halim was wanted by the cops for enticing disgruntled youths from the riot victims ' refugee camps in and around Ahmedabad and taking them to Uttar Pradesh . . . ` From there an organised network was engaged in sending these youths across the border for training purpose and Halim was a part of this network . Currently he is being interrogated , ' said Bhatia . .
p107
sS'injured'
p108
g88
sS'org_unorg'
p109
g88
sS'O'
p110
(lp111
S'activist:2'
p112
aS'Students Islamic Movement of India:6'
p113
aS'2002 Gujarat riots:17'
p114
aS'operation:30'
p115
aS'connection:34'
p116
aS'arrested:44'
p117
aS'hiding:80'
p118
aS'combing operation:109'
p119
aS'45 lives:142'
p120
aS'riot:159'
p121
aS'organised network:181'
p122
aS'training:193'
p123
asS'unexpl'
p124
(lp125
g88
asS'ocassion'
p126
g88
sS'link'
p127
S'http://www.rediff.com/news/2008/jul/27ahd16.htm'
p128
sS'date'
p129
S'26-07-2008'
p130
sS'target'
p131
S'PUBLIC PLACES'
p132
sS'hot_spot'
p133
g88
sS'delivery_mod'
p134
g88
sS'delivery_met'
p135
g88
sS'expl'
p136
(lp137
g88
asS'ORG'
p138
(lp139
(lp140
S'PTI'
p141
aS'121'
p142
aS'Others'
p143
aas.