(dp0
S'LOC'
p1
(lp2
(lp3
S'Mumbai'
p4
aS'44'
p5
aS'Event'
p6
aa(lp7
S'Mumbai'
p8
aS'144'
p9
aS'Event'
p10
aa(lp11
S'Parel'
p12
aS'171'
p13
aS'Victim Location'
p14
aa(lp15
S'Borivali'
p16
aS'176'
p17
aS'Victim Location'
p18
aa(lp19
S'Andheri'
p20
aS'183'
p21
aS'Victim Location'
p22
aa(lp23
S'Bandra'
p24
aS'188'
p25
aS'Victim Location'
p26
aa(lp27
S'Mahim'
p28
aS'195'
p29
aS'Victim Location'
p30
aa(lp31
S'Bandra'
p32
aS'200'
p33
aS'Victim Location'
p34
aa(lp35
S'Juhu'
p36
aS'205'
p37
aS'Victim Location'
p38
aa(lp39
S'Bandra'
p40
aS'212'
p41
aS'Victim Location'
p42
aa(lp43
S'Mumbai'
p44
aS'230'
p45
aS'Event'
p46
aasS'PER'
p47
(lp48
sS'TIM'
p49
(lp50
sS'hot_setting'
p51
S''
p52
sS'DAT'
p53
(lp54
S'Tuesday:6'
p55
aS'Tuesday night:6'
p56
asS'death'
p57
g52
sS'title'
p58
S'Mumbai blasts: Injured need blood'
p59
sS'org_unorg'
p60
S'ORGANISED'
p61
sS'terror_group'
p62
(lp63
g52
asS'content'
p64
VHospitals in the city on Tuesday night appealed to citizens and citizens groups to donate blood , rush doctors and paramedical staff to help treat those injured in this evening 's serial bomb blasts ' injured . . . Those injured in the Mumbai serial blasts need blood urgently . Citizens were asked to donate blood in this hour of crisis . . . Doctors in several hospitals , including KEM , V N Desai and Bhabha , which are getting hordes of injured patients at the casualty and emergency wards , appealed to citizens groups to help in any way they can . . . Citizens groups were asked to contribute doctors and ambulances as well as paramedical support , hospital sources said . . . Citizens were asked to donate blood in this hour of crisis . Those injured in the Mumbai serial blasts need blood urgently . . . Some of the hospitals where the injured have been admitted are : Sion Hospital ; KEM Hospital , Parel ; Bhagwati Hospital , Borivali ; V N Desai Hospital , Andheri ; Bhabha Hospital , Bandra ; S L Raheja Hospital , Mahim ; Lilavati Hospital , Bandra ; Cooper Hospital , Juhu ; and Holy Family Hospital , Bandra . . . Those interested in donating blood may also log on to www.indianblooddonors.com . . . Mumbai blasts : Complete Coverage .
p65
sS'injured'
p66
g52
sS'det_loc'
p67
(lp68
S'India'
p69
aS'Maharashtra'
p70
aS'Mumbai-City'
p71
ag52
ag52
asS'O'
p72
(lp73
S'serial bomb:32'
p74
aS'donate blood:55'
p75
aS'hour of crisis:59'
p76
aS'paramedical support:119'
p77
aS'donate blood:132'
p78
aS'hour of crisis:136'
p79
aS'www.indianblooddonors.com:226'
p80
asS'unexpl'
p81
(lp82
g52
asS'ocassion'
p83
g52
sS'link'
p84
S'http://www.rediff.com/news/2006/jul/11train13.htm'
p85
sS'date'
p86
S'11-07-2006'
p87
sS'target'
p88
S'CITIZENS'
p89
sS'hot_spot'
p90
g52
sS'delivery_mod'
p91
g52
sS'delivery_met'
p92
g52
sS'expl'
p93
(lp94
S'BOMB'
p95
asS'ORG'
p96
(lp97
(lp98
S'Hospitals'
p99
aS'1'
p100
aS'Others'
p101
aa(lp102
S'KEM'
p103
aS'71'
p104
aS'Others'
p105
aa(lp106
S'V N Desai'
p107
aS'73'
p108
aS'Others'
p109
aa(lp110
S'Bhabha'
p111
aS'77'
p112
aS'Others'
p113
aa(lp114
S'Sion Hospital'
p115
aS'165'
p116
aS'Others'
p117
aa(lp118
S'KEM Hospital'
p119
aS'168'
p120
aS'Others'
p121
aa(lp122
S'Bhagwati Hospital'
p123
aS'173'
p124
aS'Others'
p125
aa(lp126
S'V N Desai Hospital'
p127
aS'178'
p128
aS'Others'
p129
aa(lp130
S'N Desai Hospital'
p131
aS'179'
p132
aS'Others'
p133
aa(lp134
S'Desai Hospital'
p135
aS'180'
p136
aS'Others'
p137
aa(lp138
S'Bhabha Hospital'
p139
aS'185'
p140
aS'Others'
p141
aa(lp142
S'S L Raheja Hospital'
p143
aS'190'
p144
aS'Others'
p145
aa(lp146
S'Lilavati Hospital'
p147
aS'197'
p148
aS'Others'
p149
aa(lp150
S'Cooper Hospital'
p151
aS'202'
p152
aS'Others'
p153
aa(lp154
S'Holy Family Hospital'
p155
aS'208'
p156
aS'Others'
p157
aas.