(dp0
S'LOC'
p1
(lp2
(lp3
S'upper Assam'
p4
aS'20'
p5
aS'Event'
p6
aa(lp7
S'Assam'
p8
aS'21'
p9
aS'Neutral'
p10
aa(lp11
S'tea town'
p12
aS'23'
p13
aS'Event'
p14
aa(lp15
S'Dibrugarh'
p16
aS'25'
p17
aS'Neutral'
p18
aasS'PER'
p19
(lp20
sS'TIM'
p21
(lp22
sS'hot_setting'
p23
S''
p24
sS'DAT'
p25
(lp26
sS'death'
p27
S'1'
p28
sS'title'
p29
VOne Dead, 17 Injured in Bomb Blast in Dibrugarh
p30
sS'org_unorg'
p31
S'ORGANISED'
p32
sS'terror_group'
p33
(lp34
g24
asS'content'
p35
VSuspected militants detonated a bomb killing a teenage girl and injuring 17 persons , including a woman , in upper Assam 's tea town Dibrugarh today .
p36
sS'injured'
p37
S'17'
p38
sS'det_loc'
p39
(lp40
S'India'
p41
aS'Assam'
p42
aS'Dibrugarh'
p43
ag24
aS'tea town Dibrugarh '
p44
asS'O'
p45
(lp46
S'teenage girl:8'
p47
aS'woman:17'
p48
asS'unexpl'
p49
(lp50
g24
asS'ocassion'
p51
g24
sS'link'
p52
S'http://www.outlookindia.com/newswire/story/one-dead-17-injured-in-bomb-blast-in-dibrugarh/821307'
p53
sS'date'
p54
S'17-12-2013'
p55
sS'target'
p56
g24
sS'hot_spot'
p57
S'tea town Dibrugarh '
p58
sS'delivery_mod'
p59
g24
sS'delivery_met'
p60
g24
sS'expl'
p61
(lp62
g24
asS'ORG'
p63
(lp64
s.