(dp0
S'LOC'
p1
(lp2
(lp3
S'Varanasi'
p4
aS'20'
p5
aS'Event'
p6
aa(lp7
S'Faizabad'
p8
aS'22'
p9
aS'Event'
p10
aa(lp11
S'Lucknow'
p12
aS'24'
p13
aS'Event'
p14
aa(lp15
S'Lucknow ,'
p16
aS'46'
p17
aS'Event'
p18
aa(lp19
S'Varanasi'
p20
aS'71'
p21
aS'Event'
p22
aa(lp23
S'Faizabad'
p24
aS'73'
p25
aS'Event'
p26
aa(lp27
S'Lucknow'
p28
aS'75'
p29
aS'Event'
p30
aa(lp31
S'Uttar Pradesh'
p32
aS'97'
p33
aS'Event'
p34
aa(lp35
S'Lucknow'
p36
aS'427'
p37
aS'Event'
p38
aa(lp39
S'Lucknow'
p40
aS'448'
p41
aS'Event'
p42
aa(lp43
S'Faizabad'
p44
aS'450'
p45
aS'Event'
p46
aa(lp47
S'Varanasi'
p48
aS'505'
p49
aS'Event'
p50
aa(lp51
S'Faizabad'
p52
aS'507'
p53
aS'Event'
p54
aa(lp55
S'Lucknow'
p56
aS'509'
p57
aS'Event'
p58
aa(lp59
S'Varansi'
p60
aS'518'
p61
aS'Event'
p62
aa(lp63
S'Faizabad'
p64
aS'522'
p65
aS'Event'
p66
aa(lp67
S'Lucknow'
p68
aS'526'
p69
aS'Event'
p70
aasS'PER'
p71
(lp72
(lp73
S'J. N. Chamber'
p74
aS'104'
p75
aS'Comment'
p76
aa(lp77
S'Mayawati'
p78
aS'111'
p79
aS'Comment'
p80
aa(lp81
S'Chamber'
p82
aS'172'
p83
aa(lp84
S'Mayawati'
p85
aS'176'
p86
aS'Comment'
p87
aa(lp88
S'Manmohan Singh'
p89
aS'227'
p90
aS'Comment'
p91
aa(lp92
S'P P Srivastav'
p93
aS'319'
p94
aS'Others'
p95
aa(lp96
S'A K Jain'
p97
aS'417'
p98
aS'Others'
p99
aa(lp100
S'Rahul Gandhi'
p101
aS'570'
p102
aS'Others'
p103
aasS'TIM'
p104
(lp105
S'night : 484'
p106
aS'15 minutes : 539'
p107
asS'hot_setting'
p108
S''
p109
sS'DAT'
p110
(lp111
S'Saturday : 6'
p112
aS'Friday:66'
p113
aS'Friday : 179'
p114
aS'Friday:231'
p115
aS'Thursday:468'
p116
asS'death'
p117
g109
sS'title'
p118
S'UP govt hikes compensation for victims of Fridays blasts'
p119
sS'det_loc'
p120
(lp121
S'India'
p122
aS'Uttar Pradesh'
p123
ag109
aS' Uttar Pradesh'
p124
aS' Uttar Pradesh'
p125
asS'terror_group'
p126
(lp127
g109
asS'content'
p128
VThe Uttar Pradesh Government on Saturday announced an increase in the compensation for victims of Fridays multiple blasts in Varanasi , Faizabad and Lucknow that claimed the lives of at least 15 people , including four lawyers , and injured over 80 . . . Lucknow , Nov 24 : The Uttar Pradesh Government on Saturday announced an increase in the compensation for victims of Friday 's multiple blasts in Varanasi , Faizabad and Lucknow that claimed the lives of at least 15 people , including four lawyers , and injured over 80 . . . Uttar Pradesh Principal Secretary ( Home ) J. N. Chamber said that Chief Minister Mayawati has increased the compensation keeping in view `` the economic condition of the families of the victims '' . . The kin of each of the dead would get five lakh rupees , while one lakh rupees is to be paid to each of the severely injured and those who sustained minor injuries will get 50,000 rupees each , said Chamber . . . Mayawati had on Friday announced a compensation of Rs . 2 lakh to the next of kin to each of those killed and Rs .50,000 for those injured in the incidents . . . Condoling the loss of lives in the blasts and expressing concern for the injured , Prime Minister Manmohan Singh , on Friday , also announced an ex-gratia relief of one lakh rupees for the next of the kin of the dead and Rs .50,000 for the seriously injured from the Prime Minister 's National Relief Fund . . . Meanwhile , the Uttar Pradesh police released the sketches of two suspects believed to be behind the blasts . . . The sketches were prepared based on the statements of eyewitnesses , including a cycle-store owner and a cycle-stand employee . . . The Deputy Inspector General ( DIG ) P P Srivastav released the sketch of a 25-year-old youth wearing spectacles who had allegedly picked up a bicycle from the cycle stand at the railway station and after loading it with explosives allegedly kept it in the compound of the Faizabad civil court . . . `` The person purchased the cycle which was found at the site of the incident and was parked at the stand . There is also a possibility that there may be two different persons involved , one purchased the cycle and the other used it for the purpose , '' said A K Jain , Inspector General ( IG ) of Lucknow zone . . . The state police last night released sketches of three suspects believed to behind the blasts in Lucknow and Faizabad courts . . . The sketch of the suspect who purchased the bicycle from a shop on Thursday and kept it at the railway station stand was among the three sketches released last night . . . Meanwhile , Special Task Force has been asked to probe the near-simultaneous blasts in court premises at Varanasi , Faizabad and Lucknow . . . Six bombs - three in Varansi , two in Faizabad and one in Lucknow - some planted on cycles , went off within a span of 15 minutes . . . The blasts came a week after the Uttar Pradesh police along with central security agencies busted a Jaish-e-Mohammed module , which wanted to target Congress leader Rahul Gandhi . . . addthis_url = location.href ; addthis_title = document.title ; addthis_pub = ` vijaytech ' ; . . a36 ( ) ; . . .
p129
sS'injured'
p130
g109
sS'org_unorg'
p131
S'ORGANISED'
p132
sS'O'
p133
(lp134
S'Chief Minister:109'
p135
aS'Deputy Inspector General:313'
p136
aS'cycles:531'
p137
asS'unexpl'
p138
(lp139
g109
asS'ocassion'
p140
g109
sS'link'
p141
S'http://www.andhranews.net/India/2007/November/24-govt-hikes-compensation-victims-23606.asp'
p142
sS'date'
p143
S'23-11-2007'
p144
sS'target'
p145
g109
sS'hot_spot'
p146
S' Uttar Pradesh'
p147
sS'delivery_mod'
p148
g109
sS'delivery_met'
p149
S'PLANTED'
p150
sS'expl'
p151
(lp152
g109
asS'ORG'
p153
(lp154
(lp155
S'Uttar Pradesh Government'
p156
aS'2'
p157
aS'Others'
p158
aa(lp159
S'Uttar Pradesh Government'
p160
aS'52'
p161
aS'Others'
p162
aa(lp163
S'Uttar Pradesh police'
p164
aS'272'
p165
aS'Others'
p166
aa(lp167
S'Faizabad civil court'
p168
aS'360'
p169
aS'Others'
p170
aa(lp171
S'Special Task Force'
p172
aS'490'
p173
aS'Others'
p174
aa(lp175
S'Uttar Pradesh police'
p176
aS'551'
p177
aS'Others'
p178
aa(lp179
S'Jaish-e-Mohammed'
p180
aS'561'
p181
aS'Accused'
p182
aa(lp183
S'Congress'
p184
aS'568'
p185
aS'Others'
p186
aas.