(dp0
S'LOC'
p1
(lp2
(lp3
S'Khagragarh'
p4
aS'6'
p5
aS'Event'
p6
aa(lp7
S'Bardhaman'
p8
aS'8'
p9
aS'Event'
p10
aasS'PER'
p11
(lp12
(lp13
S'G.M.P. Reddy'
p14
aS'14'
p15
aS'Others'
p16
aa(lp17
S'Basudeb Banerjee'
p18
aS'49'
p19
aS'Accused'
p20
aa(lp21
S'Banerjee'
p22
aS'50'
p23
aS'Comment'
p24
aa(lp25
S'Banerjee'
p26
aS'55'
p27
aS'Comment'
p28
aa(lp29
S'Shakil Ahmed'
p30
aS'92'
p31
aS'Accused'
p32
aa(lp33
S'Sovan Mondal'
p34
aS'95'
p35
aS'Accused'
p36
aa(lp37
S'Abdul Hakim'
p38
aS'98'
p39
aS'Accused'
p40
aa(lp41
S'Banerjee'
p42
aS'110'
p43
aS'Comment'
p44
aa(lp45
S'Banerjee'
p46
aS'135'
p47
aS'Comment'
p48
aasS'TIM'
p49
(lp50
sS'hot_setting'
p51
S''
p52
sS'DAT'
p53
(lp54
S'Sunday:52'
p55
asS'death'
p56
g52
sS'title'
p57
S'Composite task force to probe explosion'
p58
sS'det_loc'
p59
(lp60
S'India'
p61
aS'West Bengal'
p62
aS'Bardhaman'
p63
aS'Bardhaman'
p64
aS'Khagragarh'
p65
asS'terror_group'
p66
(lp67
g52
asS'content'
p68
VTo investigate Thursdays blast at Khagragarh in Bardhaman district , Director-General of Police G.M.P. Reddy has formed a composite task force . . . The task force includes officers from various State agencies who have experience in handling such cases , said Additional Chief Secretary -LRB- Home -RRB- Basudeb Banerjee on Sunday . Mr. Banerjee rubbished media reports which said that some officials of the National Investigation Agency -LRB- NIA -RRB- accused the State officials of non-cooperation in the probe . Two persons have been arrested . . . Three persons Shakil Ahmed , Sovan Mondal and Abdul Hakim were making improvised grenades in the building , said Mr. Banerjee . He denied media reports which claimed that the State officials tried to remove evidence by blasting the 55 improvised explosive devices . Mr. Banerjee said that this was standard procedure and the team from the Central Forensic Science Laboratory has done its work accordingly .
p69
sS'injured'
p70
g52
sS'org_unorg'
p71
S'ORGANISED'
p72
sS'O'
p73
(lp74
S'Director-General of Police:11'
p75
aS'grenades:103'
p76
aS'explosive devices:131'
p77
asS'unexpl'
p78
(lp79
g52
asS'ocassion'
p80
g52
sS'link'
p81
S'http://www.thehindu.com/todays-paper/tp-national/composite-task-force-to-probe-explosion/article6474378.ece'
p82
sS'date'
p83
S'02-10-2014'
p84
sS'target'
p85
g52
sS'hot_spot'
p86
S'Khagragarh'
p87
sS'delivery_mod'
p88
g52
sS'delivery_met'
p89
S'PLANTED'
p90
sS'expl'
p91
(lp92
g52
asS'ORG'
p93
(lp94
(lp95
S'National Investigation Agency'
p96
aS'66'
p97
aS'Others'
p98
aa(lp99
S'NIA'
p100
aS'70'
p101
aS'Others'
p102
aa(lp103
S'Central Forensic Science Laboratory'
p104
aS'147'
p105
aS'Others'
p106
aas.