(dp0
S'LOC'
p1
(lp2
(lp3
S'Guwahati'
p4
aS'1'
p5
aS'Neutral'
p6
aa(lp7
S'Srirampur checkgate'
p8
aS'10'
p9
aS'Event'
p10
aa(lp11
S'Assam'
p12
aS'16'
p13
aS'Neutral'
p14
aa(lp15
S'Srirampur checkgate'
p16
aS'46'
p17
aS'Event'
p18
aa(lp19
S'West Bengal'
p20
aS'50'
p21
aS'Neutral'
p22
aa(lp23
S'Halfong'
p24
aS'110'
p25
aS'Neutral'
p26
aa(lp27
S'NC Hills'
p28
aS'112'
p29
aS'Neutral'
p30
aasS'PER'
p31
(lp32
(lp33
S'Ashwini Kumar'
p34
aS'119'
p35
aS'Others'
p36
aa(lp37
S'P Duwara'
p38
aS'122'
p39
aS'Others'
p40
aasS'TIM'
p41
(lp42
S'0730 hours : 131'
p43
asS'hot_setting'
p44
S''
p45
sS'DAT'
p46
(lp47
sS'death'
p48
g45
sS'title'
p49
S'Eight injured in powerful blast in Assam'
p50
sS'det_loc'
p51
(lp52
S'India'
p53
aS'Assam'
p54
ag45
aS'guwahati'
p55
aS'Srirampur checkgate'
p56
asS'terror_group'
p57
(lp58
S'UNITED LIBERATION FRONT OF ASSAM (ULFA)'
p59
asS'content'
p60
VGuwahati , Jan 22 : A powerful blast rocked Srirampur checkgate at the entrance to Assam injuring eight people , three of them seriously , while suspected Dimasa militants kidnapped two Railway officials today . . . Police said a powerful bomb blast shook the Srirampur checkgate adjacent to West Bengal at around 1130 hours . The bomb was kept in a bicycle which was placed in front of the transport checkgate . . . Eight persons were injured in the explosion , three of them seriously . The injured had been hospitalised . . . In the other incident suspected Dimasa militants barged into a railway complex in Halfong of NC Hills district and kidnapped section engineer Ashwini Kumar and P Duwara . The incident took place at around 0730 hours . . . Meanwhile , security forces have stepped up patrolling all over the state following intelligence report that the ULFA was trying to create trouble before the Republic Day celebration . . . .
p61
sS'injured'
p62
S'8'
p63
sS'org_unorg'
p64
S'ORGANISED'
p65
sS'O'
p66
(lp67
S'Police:38'
p68
asS'unexpl'
p69
(lp70
g45
asS'ocassion'
p71
g45
sS'link'
p72
S'http://www.oneindia.com/2008/01/22/blast-kidnapping-rock-assam-1200994757.html'
p73
sS'date'
p74
S'22-01-2008'
p75
sS'target'
p76
g45
sS'hot_spot'
p77
S'Srirampur checkgate'
p78
sS'delivery_mod'
p79
S'BYCICLE'
p80
sS'delivery_met'
p81
S'PLANTED'
p82
sS'expl'
p83
(lp84
g45
asS'ORG'
p85
(lp86
(lp87
S'Dimasa'
p88
aS'28'
p89
aS'Accused'
p90
aa(lp91
S'Dimasa'
p92
aS'102'
p93
aS'Accused'
p94
aa(lp95
S'ULFA'
p96
aS'153'
p97
aS'Accused'
p98
aas.