(dp0
S'LOC'
p1
(lp2
(lp3
S'Guwahati-Puri Express'
p4
aS'20'
p5
aS'Event'
p6
aa(lp7
S'Kamrup'
p8
aS'23'
p9
aS'Neutral'
p10
aa(lp11
S'Assam'
p12
aS'26'
p13
aS'Neutral'
p14
aa(lp15
S'Dhatkuchi'
p16
aS'63'
p17
aS'Neutral'
p18
aa(lp19
S'Rangia'
p20
aS'65'
p21
aS'Neutral'
p22
aa(lp23
S'Ghagrapar'
p24
aS'67'
p25
aS'Neutral'
p26
aa(lp27
S'Guwahati-Puri Express'
p28
aS'225'
p29
aS'Event'
p30
aa(lp31
S'Guwahati'
p32
aS'228'
p33
aS'Neutral'
p34
aa(lp35
S'Puri'
p36
aS'230'
p37
aS'Neutral'
p38
aasS'PER'
p39
(lp40
(lp41
S'Nripendra Bhattacharya'
p42
aS'42'
p43
aS'Others'
p44
aasS'TIM'
p45
(lp46
S'8:30 : 59'
p47
aS'5:30 am : 232'
p48
asS'hot_setting'
p49
S''
p50
sS'DAT'
p51
(lp52
S'Monday:36'
p53
aS'Sunday:61'
p54
aS'Monday:235'
p55
asS'death'
p56
g50
sS'title'
p57
S'IED blast caused Assam train accident: Railways'
p58
sS'org_unorg'
p59
S'ORGANISED'
p60
sS'terror_group'
p61
(lp62
S'NATIONAL DEMOCRATIC FRONT OF BODOLAND (NDFB)'
p63
asS'content'
p64
VGuwahati : An improvised explosive device was used to trigger the blast that led to the derailment of the Guwahati-Puri Express in Kamrup district in Assam that left 100 passengers injured , officials said on Monday . . . Railway PRO Nripendra Bhattacharya said the explosion led to the engine and eight coaches jumping the rails at around 8:30 on Sunday at Dhatkuchi between Rangia and Ghagrapar in the district . . . Four of the coaches toppled over and fell into a three feet water-filled ditch following the explosion , he said . . . A large crater beside the tracks and a huge length of fuse wire leading to a jungle were found by the Bomb Disposal Squad after the derailment . . . A senior police officer said it appeared to be the handiwork of the Ranjan Daimary-led National Democratic Front of Bodoland anti-talk faction , active in the area . . . The officer said at least 100 passengers were injured who were admitted to the Guwahati Medical College and Hospital . . . Of the injured , 41 were in a serious condition , hospital sources said . . . Railway officials are supervising restoration operations at the spot with 300 labourers at work , the officer said . . . A special train with 800 passengers of the Guwahati-Puri Express left Guwahati for Puri at 5:30 am on Monday . . . .
p65
sS'injured'
p66
S'100'
p67
sS'det_loc'
p68
(lp69
S'India'
p70
aS'Assam'
p71
aS'Kamrup'
p72
aS'guwahati'
p73
aS'Guwahati-Puri Express'
p74
asS'O'
p75
(lp76
g50
asS'unexpl'
p77
(lp78
g50
asS'ocassion'
p79
g50
sS'link'
p80
S'http://www.ibnlive.com/news/india/ied-blast-caused-assam-train-accident-railways-383231.html'
p81
sS'date'
p82
S'11-07-2011'
p83
sS'target'
p84
S'TRAIN'
p85
sS'hot_spot'
p86
S'Guwahati-Puri Express'
p87
sS'delivery_mod'
p88
S'TRAIN'
p89
sS'delivery_met'
p90
S'PLANTED'
p91
sS'expl'
p92
(lp93
g50
asS'ORG'
p94
(lp95
(lp96
S'Bomb Disposal Squad'
p97
aS'118'
p98
aS'Others'
p99
aa(lp100
S'National Democratic Front of Bodoland'
p101
aS'142'
p102
aS'Accused'
p103
aa(lp104
S'Guwahati Medical College and Hospital'
p105
aS'171'
p106
aS'Others'
p107
aas.