(dp0
S'LOC'
p1
(lp2
(lp3
S'Ahmedabad'
p4
aS'22'
p5
aS'Event'
p6
aS'Neutral'
p7
aa(lp8
S'Navi Mumbai'
p9
aS'89'
p10
aS'Source'
p11
aS'Neutral'
p12
aa(lp13
S'AHMEDABAD'
p14
aS'1'
p15
aS'Source'
p16
aa(lp17
S'Ahmedabad'
p18
aS'22'
p19
aS'Neutral'
p20
aa(lp21
S'Vadodara'
p22
aS'24'
p23
aS'Neutral'
p24
aa(lp25
S'Gujarat'
p26
aS'46'
p27
aS'Neutral'
p28
aa(lp29
S'Ahmedabad'
p30
aS'51'
p31
aS'Neutral'
p32
aa(lp33
S'Surat'
p34
aS'61'
p35
aS'Neutral'
p36
aa(lp37
S'Navi Mumbai'
p38
aS'89'
p39
aS'Neutral'
p40
aa(lp41
S'Ahmedabad'
p42
aS'109'
p43
aS'Neutral'
p44
aa(lp45
S'Vadodara'
p46
aS'111'
p47
aS'Neutral'
p48
aa(lp49
S'Vadodara'
p50
aS'125'
p51
aS'Neutral'
p52
aa(lp53
S'Surat'
p54
aS'136'
p55
aS'Neutral'
p56
aa(lp57
S'Vadodara'
p58
aS'160'
p59
aS'Neutral'
p60
aa(lp61
S'Vadodara'
p62
aS'177'
p63
aS'Neutral'
p64
aa(lp65
S'Ahmedabad'
p66
aS'222'
p67
aS'Neutral'
p68
aa(lp69
S'Vadodara'
p70
aS'266'
p71
aS'Event'
p72
aa(lp73
S'Ahmedabad'
p74
aS'268'
p75
aS'Victim Location'
p76
aasS'PER'
p77
(lp78
sS'TIM'
p79
(lp80
S'3 pm : 181'
p81
asS'hot_setting'
p82
S''
p83
sS'event'
p84
S'ec0000_ei0021'
p85
sS'DAT'
p86
(lp87
S'Saturday:16'
p88
aS'July 3:30'
p89
aS'26 : 33'
p90
aS'Saturday:53'
p91
aS'July 3:92'
p92
aS'July 3:184'
p93
aS'July 7:202'
p94
aS'8 : 205'
p95
aS'9 : 207'
p96
aS'23 : 209'
p97
aS'24 : 211'
p98
aS'July 26:229'
p99
aS'July 7 : 269'
p100
asS'death'
p101
S'29'
p102
sS'title'
p103
S'Car used in Ahmedabad Civil Hospital blast moved 6 times between cities'
p104
sS'det_loc'
p105
(lp106
S'India'
p107
aS'Gujarat'
p108
aS'Ahmedabad'
p109
ag83
ag83
asS'terror_group'
p110
(lp111
g83
asS'content'
p112
VAHMEDABAD : The car bomb that killed 29 people in the Civil Hospital blast on Saturday travelled back and forth between Ahmedabad and Vadodara at least six times between July 3 and 26 , investigations have revealed.Of the four car bombs used by terrorists in Gujarat two that exploded in Ahmedabad on Saturday and the other two found abandoned in Surat police has been able to gather some information on the movement of only the WagonR that caused the maximum damage at the hospital.This car was stolen from Navi Mumbai on July 3 but the complaint was filed later . Terrorists used this vehicle extensively for travel between Ahmedabad and Vadodara , as per expressway records . It is possible that the bombers used Vadodara as the base for making bombs and also travelled to Surat in the vehicle during the period.The car used in the Civil Hospital blast had a fake registration number GJ 6D 9778 of a Vadodara two-wheeler . Inquiries revealed that the first record of the car 's movement was at the Vadodara toll plaza at 3 pm on July 3 , indicating that it was headed for Ahmedabad.Subsequently , movements of the car are recorded on July 7 , 8 , 9 , 23 and 24 . Police believe the bombs may have been brought to Ahmedabad just two days before the blasts.On July 26 , the car packed with IEDs and LPG gas cylinders became the spearhead of the terrorist operation , accounting for nearly two-third of the total casualties in Ahmedabad.Movement of the car bomb along ExpresswayJuly 3 Vadodara to Ahmedabad July 7 Ahmedabad-Vadodara-AhmedabadJuly 8 Ahmedabad-Vadodara-AhmedabadJuly 9 Ahmedabad-Vadodara-AhmedabadJuly 23 Ahmedabad-Vadodara-AhmedabadJuly 24 Ahmedabad-Vadodara-Ahmedabad .
p113
sS'injured'
p114
g83
sS'org_unorg'
p115
g83
sS'O'
p116
(lp117
S'car bomb:4'
p118
aS'civil hospital blast:12'
p119
aS'car bombs:40'
p120
aS'hospital.this car:84'
p121
aS'vehicle:104'
p122
aS'expressway:115'
p123
aS'vadodara:125'
p124
aS'operation:247'
p125
aS'car bomb:261'
p126
asS'unexpl'
p127
(lp128
g83
asS'ocassion'
p129
g83
sS'link'
p130
S'http://timesofindia.indiatimes.com/India/Car_used_in_Ahmedabad_Civil_Hospital_blast_moved_6_times_between_cities/rssarticleshow/3307998.cms'
p131
sS'date'
p132
S'26-07-2008'
p133
sS'target'
p134
g83
sS'hot_spot'
p135
g83
sS'delivery_mod'
p136
S'CAR'
p137
sS'delivery_met'
p138
S'PLACED'
p139
sS'expl'
p140
(lp141
S'LPG CYLINDER'
p142
aS'IED'
p143
asS'ORG'
p144
(lp145
(lp146
S'Surat police'
p147
aS'61'
p148
aS'Others'
p149
aa(lp150
S'Civil Hospital'
p151
aS'147'
p152
aS'Others'
p153
aas.