(dp0
S'LOC'
p1
(lp2
(lp3
S'GUWAHATI'
p4
aS'1'
p5
aS'Source'
p6
aa(lp7
S'Assam'
p8
aS'27'
p9
aS'Victim Location'
p10
aa(lp11
S'Dispur'
p12
aS'73'
p13
aS'Neutral'
p14
aa(lp15
S'New Delhi'
p16
aS'79'
p17
aS'Neutral'
p18
aa(lp19
S'Guwahati'
p20
aS'202'
p21
aS'Neutral'
p22
aa(lp23
S'Maligaon'
p24
aS'222'
p25
aS'Neutral'
p26
aa(lp27
S'Guwahati'
p28
aS'227'
p29
aS'Neutral'
p30
aa(lp31
S'Maligaon'
p32
aS'250'
p33
aS'Neutral'
p34
aa(lp35
S'Maligaon police station'
p36
aS'250'
p37
aS'Neutral'
p38
aa(lp39
S'Dhekiajuli in Sonitpur'
p40
aS'377'
p41
aS'Neutral'
p42
aa(lp43
S'Dhekiajuli'
p44
aS'377'
p45
aS'Neutral'
p46
aa(lp47
S'Sonitpur district'
p48
aS'379'
p49
aS'Neutral'
p50
aa(lp51
S'Sonitpur'
p52
aS'379'
p53
aS'Neutral'
p54
aa(lp55
S'Sonitpur district'
p56
aS'379'
p57
aS'Neutral'
p58
aa(lp59
S'Mancachar police station'
p60
aS'432'
p61
aS'Victim Location'
p62
aa(lp63
S'Mancachar'
p64
aS'432'
p65
aS'Victim Location'
p66
aa(lp67
S'Mancachar police station'
p68
aS'432'
p69
aS'Victim Location'
p70
aa(lp71
S'Dhubri'
p72
aS'436'
p73
aS'Victim Location'
p74
aa(lp75
S'Dhubri district'
p76
aS'436'
p77
aS'Victim Location'
p78
aa(lp79
S'Dhubri district'
p80
aS'436'
p81
aS'Victim Location'
p82
aa(lp83
S'Garo Basti area'
p84
aS'448'
p85
aS'Victim Location'
p86
aa(lp87
S'Udalguri district'
p88
aS'452'
p89
aS'Victim Location'
p90
aa(lp91
S'Udalguri'
p92
aS'452'
p93
aS'Neutral'
p94
aa(lp95
S'Udalguri district'
p96
aS'452'
p97
aS'Neutral'
p98
aa(lp99
S'Karbi Anglong'
p100
aS'463'
p101
aS'Victim Location'
p102
aa(lp103
S'Maligaon'
p104
aS'556'
p105
aS'Neutral'
p106
aa(lp107
S'Maligaon blast'
p108
aS'556'
p109
aS'Neutral'
p110
aa(lp111
S'Maligaon blast'
p112
aS'556'
p113
aS'Event'
p114
aa(lp115
S'Sonitpur district'
p116
aS'606'
p117
aS'Victim Location'
p118
aa(lp119
S'Sonitpur'
p120
aS'606'
p121
aS'Victim Location'
p122
aa(lp123
S'Sonitpur district'
p124
aS'606'
p125
aS'Victim Location'
p126
aa(lp127
S'Maligaon'
p128
aS'622'
p129
aS'Neutral'
p130
aasS'PER'
p131
(lp132
(lp133
S'Prime Minister Manmohan Singh'
p134
aS'15'
p135
aS'Others'
p136
aa(lp137
S'Manmohan Singh'
p138
aS'17'
p139
aS'Others'
p140
aa(lp141
S'Union home minister P'
p142
aS'83'
p143
aS'Others'
p144
aa(lp145
S'Union home minister P'
p146
aS'83'
p147
aS'Others'
p148
aa(lp149
S'home minister P Chidambaram'
p150
aS'84'
p151
aS'Others'
p152
aa(lp153
S'P Chidambaram'
p154
aS'86'
p155
aS'Others'
p156
aa(lp157
S'Chidambaram'
p158
aS'87'
p159
aS'Others'
p160
aa(lp161
S'minister Tarun'
p162
aS'90'
p163
aS'Others'
p164
aa(lp165
S'minister Tarun Gogoi'
p166
aS'90'
p167
aS'Others'
p168
aa(lp169
S'Tarun Gogoi'
p170
aS'91'
p171
aS'Others'
p172
aa(lp173
S'Chidamabaram'
p174
aS'197'
p175
aS'Others'
p176
aa(lp177
S'Gogoi'
p178
aS'471'
p179
aS'Others'
p180
aa(lp181
S'G P Singh'
p182
aS'498'
p183
aS'Others'
p184
aa(lp185
S'G P'
p186
aS'498'
p187
aS'Others'
p188
aa(lp189
S'Singh'
p190
aS'500'
p191
aS'Others'
p192
aa(lp193
S'Ulfa'
p194
aS'502'
p195
aS'Others'
p196
aa(lp197
S'Deepak'
p198
aS'590'
p199
aS'Accused'
p200
aa(lp201
S'Sagar Topno'
p202
aS'598'
p203
aS'Assoc Accused'
p204
aasS'TIM'
p205
(lp206
S'1.40 pm:229'
p207
aS'pm:230'
p208
asS'hot_setting'
p209
S''
p210
sS'DAT'
p211
(lp212
S'Monday:35'
p213
aS'Tuesday:75'
p214
aS'Tuesday:115'
p215
aS'Tuesday:158'
p216
aS'January : 192'
p217
aS'Monday:210'
p218
aS'April:528'
p219
aS'April 7:528'
p220
aS'Tuesday:659'
p221
asS'death'
p222
S'9'
p223
sS'title'
p224
S"Terror blasts ahead of PM's visit rock Assam, kill 9"
p225
sS'org_unorg'
p226
g210
sS'terror_group'
p227
(lp228
S'UNITED LIBERATION FRONT OF ASSAM (ULFA)'
p229
asS'content'
p230
VGUWAHATI : Ten days before it goes to the polls and 24 hours before Prime Minister Manmohan Singh was to land in his home state , Assam was rocked by four deadly explosions on Monday that left at least nine people dead and more than 60 people injured . -LRB- Watch -RRB- Undeterred by the terror attacks , the prime minister will go ahead with his visit and address a rally at Dispur on Tuesday , officials in New Delhi said . Union home minister P Chidambaram called chief minister Tarun Gogoi minutes after the blasts . Official sources said the Union cabinet secretary , defence secretary and home secretary would arrive here on Tuesday to take stock of the situation . The finger of suspicion pointed to the northeast 's most active terrorist outfit , the United Liberation Front Of Asom -LRB- Ulfa -RRB- , which is to mark its 30th ` Raising Day ' on Tuesday . In the past , Ulfa terrorists have triggered blasts in the state to observe the day and also planted bombs just ahead of VVIP visits , the deadliest being serial blasts in January , just ahead of Chidamabaram 's first visit to Guwahati as home minister . -LRB- Watch -RRB- Monday 's deadliest blast was triggered at a busy bus stop at Maligaon on the outskirts of Guwahati around 1.40 pm and killed eight people , including a 10-year-old boy . More than 50 people were injured there . The Maligaon police station and the headquarters of the Northeast Frontier Railway are a stone 's throw from the site . According to a police officer scanning the site minutes after the blast , the explosion at Maligaon was caused by an improvised explosive device -LRB- IED -RRB- planted either on a bicycle or a motorcycle . People waiting at the bus stop were the first to be hit . The blast was so powerful that several cars and motorcycles parked nearby caught fire . The flames soon spread to neighbouring houses . Many people jumped out of their windows in panic to escape the fire and smoke and injured themselves . Less than two hours later , another explosion , this time at a busy marketplace in Dhekiajuli in Sonitpur district , injured three Railway Protection Force personnel on election duty . Here , too , the bomb was strapped to a parked bicycle , a vehicle of terror that has been used effectively by Ulfa terrorists . In the third blast in the evening , terrorists threw a grenade at the Mancachar police station in Dhubri district , killing a constable . Another grenade lobbed in the Garo Basti area in Udalguri district did not explode . A fourth bomb explosion rocked Karbi Anglong district , injuring two people . Gogoi condemned the blasts and said his government would crush the terrorist elements operating in the state . Deputy inspector general of police -LRB- central range -RRB- G P Singh said Ulfa was behind the blasts . ` We had information about the outfit 's plans to carry out terror activities ahead of its foundation day on April 7 , ' he said . Sources said intercepted messages of Ulfa militants suggest the outfit will now target security forces and non-Assamese people . ` The Maligaon blast may have been carried out by one of Ulfa 's 109th battalion members who have recently sneaked into the city . We came to know about a 27th battalion Ulfa cadre named Deepak who had supposedly hired a man called Sagar Topno to carry out the blast in Sonitpur district , ' a source said . Forensic experts who visited the blast site at Maligaon said bicycle ball-bearings were packed into the bomb as shrapnel . Experts said chemical tests would be required to confirm the type of explosives used . An NSG bomb squad is also expected to arrive on Tuesday .
p231
sS'injured'
p232
S'60'
p233
sS'det_loc'
p234
(lp235
S'India'
p236
aS'Assam'
p237
aS'Kamrup Metropolitan'
p238
ag210
ag210
asS'O'
p239
(lp240
S'home state:24'
p241
aS'terror:56'
p242
aS'minister:61'
p243
aS'visit:67'
p244
aS'rally:71'
p245
aS'union:83'
p246
aS'minister:90'
p247
aS'official:98'
p248
aS'official sources:98'
p249
aS'union cabinet secretary:102'
p250
aS'union:102'
p251
aS'cabinet secretary:103'
p252
aS'defence secretary:106'
p253
aS'home secretary:109'
p254
aS'stock:118'
p255
aS'situation:121'
p256
aS'finger:124'
p257
aS'suspicion:126'
p258
aS'northeast:130'
p259
aS'outfit:135'
p260
aS'united liberation:138'
p261
aS'front:140'
p262
aS'asom:142'
p263
aS'ulfa:144'
p264
aS'raising day:154'
p265
aS'past:162'
p266
aS'ulfa terrorists:164'
p267
aS'ulfa:164'
p268
aS'state:171'
p269
aS'day:175'
p270
aS'vvip visits:183'
p271
aS'vvip:183'
p272
aS'blasts in January:190'
p273
aS'visit:200'
p274
aS'home minister:204'
p275
aS'blast:213'
p276
aS'bus:219'
p277
aS'boy:239'
p278
aS'headquarters:255'
p279
aS'northeast frontier railway:258'
p280
aS'stone:263'
p281
aS'site:268'
p282
aS'police officer scanning:273'
p283
aS'site:277'
p284
aS'blast:281'
p285
aS'explosion:284'
p286
aS'explosion at Maligaon:284'
p287
aS'maligaon:286'
p288
aS'device:293'
p289
aS'ied:295'
p290
aS'bicycle:301'
p291
aS'motorcycle:304'
p292
aS'bus stop:310'
p293
aS'blast:320'
p294
aS'fire:332'
p295
aS'panic:350'
p296
aS'fire:354'
p297
aS'smoke:356'
p298
aS'explosion:368'
p299
aS'time:371'
p300
aS'marketplace:375'
p301
aS'district:380'
p302
aS'railway protection force:384'
p303
aS'force personnel:386'
p304
aS'election duty:389'
p305
aS'bomb:397'
p306
aS'bicycle:403'
p307
aS'vehicle:406'
p308
aS'terror:408'
p309
aS'ulfa terrorists:415'
p310
aS'ulfa:415'
p311
aS'blast:421'
p312
aS'evening:424'
p313
aS'grenade:429'
p314
aS'police station:433'
p315
aS'district:437'
p316
aS'constable:441'
p317
aS'grenade:444'
p318
aS'garo basti:448'
p319
aS'area:450'
p320
aS'district:453'
p321
aS'bomb explosion:460'
p322
aS'district:465'
p323
aS'gogoi:471'
p324
aS'government:478'
p325
aS'state:487'
p326
aS'deputy:489'
p327
aS'deputy inspector general:489'
p328
aS'inspector general:490'
p329
aS'police:493'
p330
aS'range:496'
p331
aS'information:511'
p332
aS'outfit:514'
p333
aS'terror:520'
p334
aS'foundation day:525'
p335
aS'ulfa:540'
p336
aS'ulfa militants:540'
p337
aS'outfit:544'
p338
aS'security:548'
p339
aS'Maligaon blast:556'
p340
aS'blast:557'
p341
aS'ulfa:566'
p342
aS'battalion:569'
p343
aS'city:577'
p344
aS'battalion ulfa:586'
p345
aS'battalion:586'
p346
aS'ulfa cadre:587'
p347
aS'ulfa:587'
p348
aS'cadre:588'
p349
aS'deepak:590'
p350
aS'man:596'
p351
aS'blast:604'
p352
aS'district:607'
p353
aS'source:611'
p354
aS'Forensic:614'
p355
aS'blast site:619'
p356
aS'bicycle:624'
p357
aS'bomb:630'
p358
aS'shrapnel:632'
p359
aS'chemical:636'
p360
aS'type:644'
p361
aS'nsg bomb squad:650'
p362
aS'nsg:650'
p363
aS'bomb squad:651'
p364
asS'unexpl'
p365
(lp366
S'BALL BEARING'
p367
asS'ocassion'
p368
S'ELECTIONS'
p369
sS'link'
p370
S'http://timesofindia.indiatimes.com/india/Terror-blasts-ahead-of-PMs-visit-rock-Assam-kill-9/articleshow/4365349.cms?'
p371
sS'date'
p372
S'01-01-2009'
p373
sS'target'
p374
g210
sS'hot_spot'
p375
g210
sS'delivery_mod'
p376
S'TWO WHEELER'
p377
sS'delivery_met'
p378
S'PLACED'
p379
sS'expl'
p380
(lp381
S'GRENADE'
p382
aS'IED'
p383
asS'ORG'
p384
(lp385
(lp386
S'the United Liberation Front Of Asom'
p387
aS'137'
p388
aS'Assoc Accused'
p389
aa(lp390
S'-LRB-'
p391
aS'143'
p392
aS'Assoc Accused'
p393
aa(lp394
S'Ulfa'
p395
aS'144'
p396
aS'Assoc Accused'
p397
aa(lp398
S'-RRB-'
p399
aS'145'
p400
aS'Assoc Accused'
p401
aa(lp402
S'Ulfa'
p403
aS'164'
p404
aS'Accused'
p405
aa(lp406
S'Northeast Frontier Railway'
p407
aS'258'
p408
aS'Others'
p409
aa(lp410
S'Railway Protection Force'
p411
aS'384'
p412
aS'Victim'
p413
aa(lp414
S'Ulfa'
p415
aS'415'
p416
aS'Accused'
p417
aa(lp418
S'Garo'
p419
aS'448'
p420
aS'Victim'
p421
aS'Others'
p422
aa(lp423
S'Ulfa'
p424
aS'502'
p425
aS'Victim'
p426
aa(lp427
S'of Ulfa'
p428
aS'565'
p429
aS'Accused'
p430
aa(lp431
S'Ulfa'
p432
aS'587'
p433
aS'Accused'
p434
aas.