(dp0
S'LOC'
p1
(lp2
(lp3
S'lower Assam'
p4
aS'18'
p5
aS'Neutral'
p6
aa(lp7
S'Nalbari'
p8
aS'22'
p9
aS'Event'
p10
aa(lp11
S'Nalbari'
p12
aS'51'
p13
aS'Event'
p14
aa(lp15
S'Nalbari'
p16
aS'145'
p17
aS'Event'
p18
aasS'PER'
p19
(lp20
(lp21
S'Mintu Barman'
p22
aS'1'
p23
aS'Victim'
p24
aa(lp25
S'Barman'
p26
aS'45'
p27
aS'Victim'
p28
aa(lp29
S'Qader Ali'
p30
aS'81'
p31
aS'Victim'
p32
aa(lp33
S'Ali'
p34
aS'93'
p35
aS'Victim'
p36
aa(lp37
S'Aqid Zaman'
p38
aS'124'
p39
aS'Victim'
p40
aasS'TIM'
p41
(lp42
sS'hot_setting'
p43
S''
p44
sS'DAT'
p45
(lp46
S'November 22 : 24'
p47
aS'Sunday : 34'
p48
aS'Saturday : 77'
p49
asS'death'
p50
g44
sS'title'
p51
S'Another Nalbari victim succumbs,toll8'
p52
sS'det_loc'
p53
(lp54
S'India'
p55
aS'Assam'
p56
aS'Nalbari'
p57
ag44
aS'Nalbari'
p58
asS'terror_group'
p59
(lp60
S'UNITED LIBERATION FRONT OF ASSAM (ULFA)'
p61
asS'content'
p62
VMintu Barman ,19 , who was seriously injured in the twin explosions that took place in the lower Assam town of Nalbari on November 22 , died in a private hospital here on Sunday , taking the death toll to eight . . . Barman , a biscuit vendor in Nalbari town , was seriously injured in the second blast when he tried to rescue some persons injured in the first blast . . . On Saturday , another injured Qader Ali had breathed his last at the GMC Hospital here . Ali ( 50 ) , a shopkeeper , was on his way to meet a doctor with his pregnant wife and 11-year-old son when the explosions took place . His son Aqid Zaman is still undergoing treatment at the hospital . . . While the police have attributed the twin explosions in Nalbari to the outlawed United Liberation Front of Assam ( ULFA ) , the militant group denied its involvement in a statement issued the next day of the blasts.The police have rounded up three ULFA militants in connection with the serial blasts . . . .
p63
sS'injured'
p64
g44
sS'org_unorg'
p65
S'ORGANISED'
p66
sS'O'
p67
(lp68
S'police:174'
p69
asS'unexpl'
p70
(lp71
g44
asS'ocassion'
p72
g44
sS'link'
p73
S'http://indianexpress.com/article/news-archive/web/another-nalbari-victim-succumbs-toll-8/'
p74
sS'date'
p75
S'22-11-2009'
p76
sS'target'
p77
g44
sS'hot_spot'
p78
S'Nalbari'
p79
sS'delivery_mod'
p80
g44
sS'delivery_met'
p81
S'PLANTED'
p82
sS'expl'
p83
(lp84
g44
asS'ORG'
p85
(lp86
(lp87
S'GMC Hospital'
p88
aS'89'
p89
aS'Others'
p90
aa(lp91
S'United Liberation Front of Assam'
p92
aS'149'
p93
aS'Accused'
p94
aa(lp95
S'ULFA'
p96
aS'155'
p97
aS'Accused'
p98
aa(lp99
S'ULFA'
p100
aS'179'
p101
aS'Accused'
p102
aas.