(dp0
S'LOC'
p1
(lp2
(lp3
S'Bardhaman'
p4
aS'13'
p5
aS'Event'
p6
aa(lp7
S'Bangladesh'
p8
aS'31'
p9
aS'Accused Location'
p10
aasS'PER'
p11
(lp12
(lp13
S'Kausar'
p14
aS'79'
p15
aS'Accused'
p16
aa(lp17
S'Rezaul Karim'
p18
aS'81'
p19
aS'Others'
p20
aasS'TIM'
p21
(lp22
sS'hot_setting'
p23
S''
p24
sS'DAT'
p25
(lp26
S'Oct. 2 : 11'
p27
aS'Friday:17'
p28
asS'death'
p29
S'2'
p30
sS'title'
p31
S'Bardhaman: accused belong to JuM'
p32
sS'org_unorg'
p33
S'ORGANISED'
p34
sS'terror_group'
p35
(lp36
S'JAMAAT-UL-MUJAHIDEEN BANGLADESH '
p37
asS'content'
p38
V: The National Investigation Agency -LRB- NIA -RRB- probing the Oct. 2 Bardhaman blast said on Friday that the accused and their associates belong to the Jamaat-ul-Mujahideen -LRB- JuM -RRB- Bangladesh , a terror organisation proscribed there . . . The NIA might announce cash rewards for information on those absconding . . . Two persons died in the blast . Four persons , including two women , are under the custody of the NIA . . . Kausar and Rezaul Karim , from whose house a cache of improvised explosives was recovered days after the blast , are still at large .
p39
sS'injured'
p40
S'0'
p41
sS'det_loc'
p42
(lp43
S'India'
p44
aS'West Bengal'
p45
aS'Bardhaman'
p46
aS'Bardhaman'
p47
aS'Bardhaman'
p48
asS'O'
p49
(lp50
g24
asS'unexpl'
p51
(lp52
g24
asS'ocassion'
p53
g24
sS'link'
p54
S'http://www.thehindu.com/todays-paper/tp-national/bardhaman-accused-belong-to-jum/article6531878.ece'
p55
sS'date'
p56
S'02-10-2014'
p57
sS'target'
p58
g24
sS'hot_spot'
p59
S'Bardhaman'
p60
sS'delivery_mod'
p61
g24
sS'delivery_met'
p62
S'PLANTED'
p63
sS'expl'
p64
(lp65
g24
asS'ORG'
p66
(lp67
(lp68
S'National Investigation Agency'
p69
aS'3'
p70
aS'Others'
p71
aa(lp72
S'NIA'
p73
aS'7'
p74
aS'Others'
p75
aa(lp76
S'Jamaat-ul-Mujahideen'
p77
aS'27'
p78
aS'Accused'
p79
aa(lp80
S'JuM'
p81
aS'29'
p82
aS'Accused'
p83
aa(lp84
S'NIA'
p85
aS'42'
p86
aS'Others'
p87
aa(lp88
S'NIA'
p89
aS'75'
p90
aS'Others'
p91
aas.