(dp0
S'LOC'
p1
(lp2
(lp3
S'Rangiya'
p4
aS'25'
p5
aS'Event'
p6
aa(lp7
S'Lower Assam'
p8
aS'27'
p9
aS'Event'
p10
aa(lp11
S'Assam'
p12
aS'28'
p13
aS'Source'
p14
aa(lp15
S'Kamrup'
p16
aS'30'
p17
aS'Event'
p18
aa(lp19
S'Guwahati'
p20
aS'51'
p21
aS'Event'
p22
aa(lp23
S'Rangiya station'
p24
aS'60'
p25
aS'Neutral'
p26
aa(lp27
S'Bhatkuchi'
p28
aS'74'
p29
aS'Event'
p30
aa(lp31
S'Jagannath temple'
p32
aS'102'
p33
aS'Victim Location'
p34
aa(lp35
S'Bhatkuchi'
p36
aS'142'
p37
aS'Event'
p38
aa(lp39
S'Rangiya'
p40
aS'145'
p41
aS'Assoc Event Location'
p42
aa(lp43
S'Ghagrapar'
p44
aS'147'
p45
aS'Assoc Event Location'
p46
aasS'PER'
p47
(lp48
(lp49
S'S. Hajong ,'
p50
aS'109'
p51
aS'Comment'
p52
aasS'TIM'
p53
(lp54
S'8.20 p.m.:33'
p55
aS'6.45 p.m.:54'
p56
aS'8.05 p.m.:63'
p57
asS'hot_setting'
p58
S''
p59
sS'DAT'
p60
(lp61
S'Sunday:36'
p62
asS'death'
p63
g59
sS'title'
p64
S'100 injured as Puri Express derails after blast in Assam'
p65
sS'det_loc'
p66
(lp67
S'India'
p68
aS'Assam'
p69
aS'Kamrup'
p70
aS'Guwahati'
p71
aS'near Rangiya in Lower Assam'
p72
asS'terror_group'
p73
(lp74
g59
asS'content'
p75
VAt least 100 passengers of 15640 Dn Puri Express were injured when four bogies derailed and four more overturned after a powerful blast near Rangiya in Lower Assam 's Kamrup district around 8.20 p.m. on Sunday . . . Earlier , the train , bound for Puri , departed the Guwahati station at 6.45 p.m. . It left the Rangiya station at 8.05 p.m. and the blast occurred 7 km away , at Bhatkuchi . . . Passengers and local residents said they heard a deafening sound just before the derailment . . . The injured included pilgrims bound for the Jagannath temple at Puri . . . S. Hajong , Chief Public Relations Officer , Northeast Frontier Railway , told The Hindu that the derailment was caused due to a powerful bomb blast . . . The derailment occurred at Bhatkuchi between the Rangiya and Ghagrapar stations . The condition of several passengers was stated to be serious . A large crater was created on the track due to the impact of the remote-controlled blast . Train movement along the route was disrupted . . . No outfit has so far claimed responsibility for the blast . The four derailed bogies were just behind the engine . . . Shocked and traumatised injured passengers who included a number of children and women had to wait on the tracks for more than one-and-half-hour for rescue teams to reach the site and evacuate them to hospitals . . . Senior railway officials , accompanied by rescue teams , rushed to the spot . But before they could arrive , the local residents gave the injured first aid . . . Condition of several passengers said to be serious No outfit has so far claimed responsibility . . Condition of several passengers said to be serious . . No outfit has . . so far claimed responsibility .
p76
sS'injured'
p77
S'100'
p78
sS'org_unorg'
p79
S'ORGANISED'
p80
sS'O'
p81
(lp82
S'Puri Express:8'
p83
aS'Puri:47'
p84
aS'Passengers:78'
p85
aS'local residents:80'
p86
aS'derailment:91'
p87
aS'pilgrims:98'
p88
aS'Puri:105'
p89
aS'Chief Public Relations Officer:112'
p90
aS'Northeast Frontier Railway:117'
p91
aS'The Hindu:122'
p92
aS'derailment:126'
p93
aS'derailment:139'
p94
aS'Senior railway officials:249'
p95
asS'unexpl'
p96
(lp97
g59
asS'ocassion'
p98
g59
sS'link'
p99
S'http://www.thehindu.com/todays-paper/100-injured-as-puri-express-derails-after-blast-in-assam/article2217389.ece'
p100
sS'date'
p101
S'10-07-2011'
p102
sS'target'
p103
S'PUBLIC TRANSPORT'
p104
sS'hot_spot'
p105
S'near Rangiya in Lower Assam'
p106
sS'delivery_mod'
p107
S'TRAIN'
p108
sS'delivery_met'
p109
S'PLANTED'
p110
sS'expl'
p111
(lp112
g59
asS'ORG'
p113
(lp114
s.