(dp0
S'LOC'
p1
(lp2
(lp3
S'Guwahati'
p4
aS'1'
p5
aS'Event'
p6
aa(lp7
S'Naojan'
p8
aS'26'
p9
aS'Neutral'
p10
aa(lp11
S'Chungajan'
p12
aS'28'
p13
aS'Neutral'
p14
aa(lp15
S'Assams'
p16
aS'32'
p17
aS'Event'
p18
aa(lp19
S'Golaghat'
p20
aS'33'
p21
aS'Event'
p22
aa(lp23
S'Golaghat'
p24
aS'81'
p25
aS'Event'
p26
aa(lp27
S'Golaghat'
p28
aS'167'
p29
aS'Neutral'
p30
aa(lp31
S'Karbi'
p32
aS'169'
p33
aS'Neutral'
p34
aa(lp35
S'Anglong'
p36
aS'170'
p37
aS'Neutral'
p38
aa(lp39
S'Assam'
p40
aS'173'
p41
aS'Event'
p42
aa(lp43
S'Nagaland'
p44
aS'256'
p45
aS'Neutral'
p46
aa(lp47
S'Dibrugarh'
p48
aS'289'
p49
aS'Neutral'
p50
aa(lp51
S'Guwahati'
p52
aS'291'
p53
aS'Neutral'
p54
aa(lp55
S'Dibrugarh'
p56
aS'317'
p57
aS'Neutral'
p58
aa(lp59
S'Guwahati'
p60
aS'319'
p61
aS'Neutral'
p62
aa(lp63
S'Chungajan'
p64
aS'382'
p65
aS'Neutral'
p66
aa(lp67
S'Guwahati'
p68
aS'399'
p69
aS'Neutral'
p70
aa(lp71
S'Guwahati'
p72
aS'428'
p73
aS'Neutral'
p74
aa(lp75
S'New Delhi'
p76
aS'440'
p77
aS'Neutral'
p78
aa(lp79
S'Dibrugarh'
p80
aS'524'
p81
aS'Neutral'
p82
aa(lp83
S'Assam'
p84
aS'527'
p85
aS'Neutral'
p86
aa(lp87
S'Guwahati'
p88
aS'543'
p89
aS'Neutral'
p90
aa(lp91
S'Guwahati'
p92
aS'554'
p93
aS'Neutral'
p94
aa(lp95
S'New Delhi'
p96
aS'556'
p97
aS'Neutral'
p98
aasS'PER'
p99
(lp100
(lp101
S'Prodip Saloi'
p102
aS'84'
p103
aS'Others'
p104
aa(lp105
S'Trikalagya Rabha'
p106
aS'186'
p107
aS'Comment'
p108
aa(lp109
S'Satyaprakash Rai'
p110
aS'195'
p111
aS'Victim'
p112
aa(lp113
S'Sudama Rai'
p114
aS'201'
p115
aS'Victim'
p116
aa(lp117
S'Lakshman Rai'
p118
aS'207'
p119
aS'Victim'
p120
aa(lp121
S'A.K. Sah'
p122
aS'213'
p123
aS'Victim'
p124
aa(lp125
S'D. Prasad'
p126
aS'219'
p127
aS'Victim'
p128
aa(lp129
S'Lakshman Sah'
p130
aS'235'
p131
aS'Victim'
p132
aa(lp133
S'Tapas Roy'
p134
aS'238'
p135
aS'Victim'
p136
aa(lp137
S'Amarendra Singh'
p138
aS'241'
p139
aS'Victim'
p140
aa(lp141
S'B. Chowdhury'
p142
aS'244'
p143
aS'Victim'
p144
aasS'TIM'
p145
(lp146
S'Guwahati : 1'
p147
aS'1:10 am : 44'
p148
aS'6:45 am : 401'
p149
aS'11 am : 430'
p150
aS'8:15 pm : 538'
p151
aS'5:55 am : 545'
p152
aS'7 am : 559'
p153
aS'morning : 563'
p154
aS'four hours : 569'
p155
asS'hot_setting'
p156
S''
p157
sS'DAT'
p158
(lp159
S'December 13 : 3'
p160
aS'Thursday : 47'
p161
aS'2005 : 130'
p162
aS'Thursday : 573'
p163
asS'death'
p164
S'5'
p165
sS'title'
p166
V5 die in Assam Rajdhani blast      
p167
sS'org_unorg'
p168
g157
sS'terror_group'
p169
(lp170
S'UNITED LIBERATION FRONT OF ASSAM (ULFA)'
p171
asS'content'
p172
VGuwahati , December 13 Five persons were killed and four others seriously injured when a bomb explosion rocked 2423 Down Dibrugarh-Guwahati-New Delhi Rajdhani Express between Naojan and Chungajan Railway stations of Assams Golaghat district , about 282 km from here , at around 1:10 am on Thursday . . . The impact of the explosion left a crater of 1.8 m diameter and 82 cm depth on the track , besides causing damage to two rails of the track . Golaghat district SP Prodip Saloi suspected hand of All Adivasi National Liberation Army ( AANLA ) in the explosion that rocked the elite train . He said an expert team was investigating into the blast . . . The AANLA , an Adivasi militant group , was floated in 2005 . The Assam police alleged that AANLA enjoyed patronage of bigger rebel groups , including the Naga rebel group NSCN-IM and the banned ULFA . . . The outfit is very active in bordering areas of Golaghat and Karbi Anglong districts of Assam . . . The north-east Frontier Railway chief public relations officer , Trikalagya Rabha informed that the deceased were identified as Satyaprakash Rai ( 45 ) , Sudama Rai ( 45 ) , Lakshman Rai ( 44 ) , A.K. Sah ( 20 ) and D. Prasad ( 19 ) . . . The four seriously inured persons were identified as Lakshman Sah , Tapas Roy , Amarendra Singh and B. Chowdhury . They have been sent to Dimapur Civil Hospital in Nagaland . The toll may go up as injured were stated to be in critical condition . . . All these passengers were travelling in the luggage van of the Rajdhani Express from Dibrugarh to Guwahati , the NFR official said . . . The Railway claims that luggage van in the train is partially utilised to accommodate passengers travelling between Dibrugarh to Guwahati . . . Initially , the explosion was suspected to have occurred inside the luggage van of the train . But later it was ascertained to have occurred on the track . . . The loco driver didnt stop the train immediately after the blast that occurred in a forest area . . . The train stopped at the next station at Chungajan , about five km from the blast site , which later resumed its onward journey to Guwahati at 6:45 am . . . Other passengers travelling in the affected luggage van were shifted to a 3-tier AC bogie . . . The train later reached Guwahati around 11 am before it proceeds to the final destination , New Delhi . Top railway and security officials had rushed to the site immediately after the blast . The Railway technical staff have already repaired the track at the blast site . . . An investigation has been launched into the blast that has affected the high security train . There has been a practice to scan the track in insurgency hit areas of the state before the Rajdhani Express is allowed to pass through . . . The 2423 Down Rajdhani Express leaves Dibrugarh in eastern Assam with five coaches , including a non-AC luggage van at 8:15 pm , and reaches Guwahati at 5:55 am next morning . . . It leaves Guwahati for New Delhi at 7 am in the morning . The train was running four hours late on Thursday because of the blast .
p173
sS'injured'
p174
g157
sS'det_loc'
p175
(lp176
S'India'
p177
aS'Assam'
p178
aS'Golaghat'
p179
ag157
ag157
asS'O'
p180
(lp181
S'killed:8'
p182
aS'injured:13'
p183
aS'bomb explosion:16'
p184
aS'2423 Down Dibrugarh-Guwahati-New Delhi Rajdhani Express:19'
p185
aS'Railway stations:29'
p186
aS'explosion:55'
p187
aS'two rails:75'
p188
aS'track:79'
p189
aS'explosion:99'
p190
aS'elite train:103'
p191
aS'expert team:109'
p192
aS'blast:115'
p193
aS'Adivasi militant:123'
p194
aS'Naga rebel group:147'
p195
aS'outfit:159'
p196
aS'luggage van:282'
p197
aS'Rajdhani Express:286'
p198
aS'Railway:301'
p199
aS'luggage van:304'
p200
aS'explosion:326'
p201
aS'luggage van:334'
p202
aS'train:338'
p203
aS'track:350'
p204
aS'blast:364'
p205
aS'blast site:389'
p206
aS'luggage van:412'
p207
aS'3-tier AC bogie:418'
p208
aS'blast:456'
p209
aS'Railway technical staff:459'
p210
aS'blast site:469'
p211
aS'investigation:475'
p212
aS'blast:481'
p213
aS'high security train:486'
p214
aS'scan:496'
p215
aS'insurgency hit:500'
p216
aS'Rajdhani Express:508'
p217
aS'2423 Down Rajdhani Express:519'
p218
aS'non-AC luggage van:534'
p219
aS'blast:577'
p220
asS'unexpl'
p221
(lp222
g157
asS'ocassion'
p223
g157
sS'link'
p224
S'http://www.tribuneindia.com/2007/20071214/main1.htm'
p225
sS'date'
p226
S'13-12-2007'
p227
sS'target'
p228
S'RAILWAY STATION'
p229
sS'hot_spot'
p230
g157
sS'delivery_mod'
p231
S'TRAIN'
p232
sS'delivery_met'
p233
S'PLANTED'
p234
sS'expl'
p235
(lp236
g157
asS'ORG'
p237
(lp238
(lp239
S'All Adivasi National Liberation Army'
p240
aS'89'
p241
aS'Others'
p242
aa(lp243
S'AANLA'
p244
aS'95'
p245
aS'Others'
p246
aa(lp247
S'AANLA'
p248
aS'120'
p249
aS'Others'
p250
aa(lp251
S'Adivasi'
p252
aS'123'
p253
aS'Others'
p254
aa(lp255
S'Assam police'
p256
aS'133'
p257
aS'Others'
p258
aa(lp259
S'AANLA'
p260
aS'137'
p261
aS'Others'
p262
aa(lp263
S'NSCN-IM'
p264
aS'150'
p265
aS'Others'
p266
aa(lp267
S'ULFA'
p268
aS'154'
p269
aS'Others'
p270
aa(lp271
S'north-east Frontier Railway'
p272
aS'178'
p273
aS'Others'
p274
aa(lp275
S'Dimapur Civil Hospital'
p276
aS'252'
p277
aS'Others'
p278
aa(lp279
S'NFR'
p280
aS'294'
p281
aS'Others'
p282
aas.