(dp0
S'LOC'
p1
(lp2
(lp3
S'Digboi'
p4
aS'20'
p5
aS'Event'
p6
aa(lp7
S'Tinsukia'
p8
aS'23'
p9
aS'Event'
p10
aa(lp11
S'Digboi'
p12
aS'37'
p13
aS'Event'
p14
aa(lp15
S'Tinsukia'
p16
aS'66'
p17
aS'Event'
p18
aa(lp19
S'Jorhat'
p20
aS'119'
p21
aS'Accused Location'
p22
aa(lp23
S'Upper Assam'
p24
aS'122'
p25
aS'Accused Location'
p26
aa(lp27
S'Assam'
p28
aS'129'
p29
aS'Event'
p30
aa(lp31
S'Indo-Bhutan'
p32
aS'148'
p33
aS'Neutral'
p34
aa(lp35
S'Assam-Arunachal Pradesh'
p36
aS'151'
p37
aS'Neutral'
p38
aa(lp39
S'Sonitpur'
p40
aS'168'
p41
aS'Event'
p42
aa(lp43
S'Kokrajhar'
p44
aS'170'
p45
aS'Event'
p46
aa(lp47
S'Chirang'
p48
aS'172'
p49
aS'Event'
p50
aasS'PER'
p51
(lp52
(lp53
S'A.P. Tiwari'
p54
aS'70'
p55
aS'Comment'
p56
aasS'TIM'
p57
(lp58
sS'hot_setting'
p59
S'ahead of Republic Day '
p60
sS'DAT'
p61
(lp62
S'Monday:15'
p63
aS'Monday:124'
p64
aS'Dec 23 : 174'
p65
asS'death'
p66
S''
p67
sS'title'
p68
S'Two blasts in Assam on R-Day'
p69
sS'det_loc'
p70
(lp71
S'India'
p72
aS'Assam'
p73
aS'Tinsukia'
p74
aS'Guwahati'
p75
aS' Digboi town '
p76
asS'terror_group'
p77
(lp78
S' UNITED LIBERATION FRONT OF ASOM'
p79
asS'content'
p80
VSuspected militants from the anti-talks faction of the United Liberation Front of Asom on Monday triggered two blasts near Digboi town in Tinsukia district . . . While one blast was triggered on the outskirts of Digboi town , another blast took place near a drain in the town . Both were low intensity crude bombs and there is no injury or any damage , Tinsukia Superintendent of Police A.P. Tiwari said . . . The police had tightened security across the state ahead of Republic Day , particularly after intelligence inputs that the anti-talks faction of the militant outfit might try to carry out subversive activities . . . Police also recovered an improvised explosive device from Jorhat town in Upper Assam Monday . . . The Assam police , Army and other security forces have intensified counter-insurgency operations across the state , particularly along the Indo-Bhutan border and Assam-Arunachal Pradesh border , after the attack by the anti-talks faction of NDFB militants on civilians in Sonitpur , Kokrajhar and Chirang districts Dec 23 last year that left over 80 people including women and children dead.IANS .
p81
sS'injured'
p82
g67
sS'org_unorg'
p83
S'ORGANISED'
p84
sS'O'
p85
(lp86
S'militants:2'
p87
aS'two blasts:17'
p88
aS'outskirts:35'
p89
aS'drain:46'
p90
aS'Superintendent:67'
p91
aS'Republic Day:86'
p92
aS'militant:99'
p93
aS'subversive activities:106'
p94
aS'improvised explosive:115'
p95
aS'state:143'
p96
aS'anti-talks faction:160'
p97
aS'80 people:181'
p98
asS'unexpl'
p99
(lp100
g67
asS'ocassion'
p101
g67
sS'link'
p102
S'http://www.thehindu.com/todays-paper/tp-in-school/two-blasts-in-assam-on-rday/article6824495.ece'
p103
sS'date'
p104
S'26-01-2015'
p105
sS'target'
p106
g67
sS'hot_spot'
p107
S' Digboi town '
p108
sS'delivery_mod'
p109
g67
sS'delivery_met'
p110
S'PLANTED'
p111
sS'expl'
p112
(lp113
S'CRUDE BOMB'
p114
asS'ORG'
p115
(lp116
(lp117
S'anti-talks faction'
p118
aS'5'
p119
aS'Accused'
p120
aa(lp121
S'United Liberation Front of Asom'
p122
aS'9'
p123
aS'Accused'
p124
aa(lp125
S'Police'
p126
aS'69'
p127
aS'Others'
p128
aa(lp129
S'police'
p130
aS'77'
p131
aS'Others'
p132
aa(lp133
S'anti-talks faction'
p134
aS'95'
p135
aS'Accused'
p136
aa(lp137
S'Police'
p138
aS'111'
p139
aS'Others'
p140
aa(lp141
S'police'
p142
aS'130'
p143
aS'Others'
p144
aa(lp145
S'Army'
p146
aS'132'
p147
aS'Others'
p148
aa(lp149
S'security forces'
p150
aS'135'
p151
aS'Others'
p152
aa(lp153
S'anti-talks faction'
p154
aS'160'
p155
aS'Accused'
p156
aa(lp157
S'NDFB militants'
p158
aS'163'
p159
aS'Accused'
p160
aas.