(dp0
S'LOC'
p1
(lp2
(lp3
S'GUWAHATI'
p4
aS'1'
p5
aS'Neutral'
p6
aa(lp7
S'central Assams Karbi Anglong'
p8
aS'24'
p9
aS'Neutral'
p10
aa(lp11
S'Karbi Anglong'
p12
aS'68'
p13
aS'Neutral'
p14
aa(lp15
S'Diphu'
p16
aS'81'
p17
aS'Event'
p18
aa(lp19
S'Sukanjan'
p20
aS'111'
p21
aS'Neutral'
p22
aa(lp23
S'fish market'
p24
aS'203'
p25
aS'Event'
p26
aa(lp27
S'Diphu'
p28
aS'206'
p29
aS'Event'
p30
aa(lp31
S'Karbi Anglong'
p32
aS'212'
p33
aS'Neutral'
p34
aa(lp35
S'market place'
p36
aS'287'
p37
aS'Event'
p38
aasS'PER'
p39
(lp40
(lp41
S'Anurag Tangkha'
p42
aS'73'
p43
aa(lp44
S'Kamesh Mesh'
p45
aS'149'
p46
aS'Others'
p47
aa(lp48
S'Tangkha'
p49
aS'157'
p50
aS'Comment'
p51
aa(lp52
S'L.R. Bisnoi'
p53
aS'229'
p54
aS'Comment'
p55
aa(lp56
S'Bisnoi'
p57
aS'252'
p58
aS'Comment'
p59
aasS'TIM'
p60
(lp61
S'8 : 35 p.m. : 125'
p62
aS'District around 6:21 p.m.:215'
p63
aS'6:21 p.m.:217'
p64
aS'p.m.:218'
p65
asS'hot_setting'
p66
S''
p67
sS'DAT'
p68
(lp69
S'Friday:30'
p70
aS'Friday night:30'
p71
asS'death'
p72
S'2'
p73
sS'title'
p74
S'Child killed, 23 injured in Karbi Anglong blasts'
p75
sS'org_unorg'
p76
S'ORGANISED'
p77
sS'terror_group'
p78
(lp79
S' UNITED LIBERATION FRONT OF ASOM'
p80
aS'KUKI REVOLUTIONARY ARMY'
p81
asS'content'
p82
VGUWAHATI : A two-year-old child was killed and at least 23 people were injured in two separate incidents of blasts which occurred in central Assams Karbi Anglong district on Friday night . . . The injured included two suspected militants of Manipur-based militant Kuki Revolutionary Army -LRB- KRA -RRB- and five security personnel . Police suspected that the other blast was triggered by ULFA . . . Karbi Anglong Superintendent of Police Anurag Tangkha told The Hindu over phone from Diphu that a two-year old child died on the spot and about nine other were injured when a grenade went off when being carried by two suspected KRA militants at Sukanjan under Bokajan police station of the hill district . The incident occurred around 8 : 35 p.m. when when the suspected KRA militants were enquiring about a watch shop . The deceased child has been identified as Kamesh Mesh , the SP added . Mr Tangkha said that one of the two couriers of the grenade who were injured in the blast injured confessed that he was an activist of KRA . . . Earlier , 14 persons including five security personnel were injured when a bomb went off near a fish market in Diphu town , the headquarters of Karbi Anglong Hill District around 6:21 p.m. . . Deputy Inspector-General of Police -LRB- Central Range -RRB- L.R. Bisnoi said that the five security personnel , who had received injury included two CPRF men and three Assam Police personnel.Mr . Bisnoi , however , said that a major tragedy could be avoided because of the quick action of the CPRF and police personnel in cordoning off the area after located the bomb in the busy market place .
p83
sS'injured'
p84
S'23'
p85
sS'det_loc'
p86
(lp87
S'India'
p88
aS'Assam'
p89
aS'Karbi Anglong'
p90
aS'GUWAHATI'
p91
aS'central Assams Karbi Anglong'
p92
asS'O'
p93
(lp94
S'deputy inspector-general of police:221'
p95
aS'CPRF:244'
p96
aS'cprf:271'
p97
asS'unexpl'
p98
(lp99
g67
asS'ocassion'
p100
g67
sS'link'
p101
S'http://www.thehindu.com/todays-paper/child-killed-23-injured-in-karbi-anglong-blasts/article1889896.ece'
p102
sS'date'
p103
S'10-08-2007'
p104
sS'target'
p105
g67
sS'hot_spot'
p106
S'central Assams Karbi Anglong'
p107
sS'delivery_mod'
p108
g67
sS'delivery_met'
p109
S'PLANTED'
p110
sS'expl'
p111
(lp112
S'GRENADE'
p113
asS'ORG'
p114
(lp115
(lp116
S'Kuki Revolutionary Army'
p117
aS'44'
p118
aS'Accused'
p119
aa(lp120
S'KRA'
p121
aS'48'
p122
aS'Accused'
p123
aa(lp124
S'ULFA'
p125
aS'64'
p126
aS'Accused'
p127
aa(lp128
S'Police Anurag Tangkha'
p129
aS'72'
p130
aS'Others'
p131
aa(lp132
S'The Hindu'
p133
aS'76'
p134
aS'Others'
p135
aa(lp136
S'KRA'
p137
aS'108'
p138
aS'Accused'
p139
aa(lp140
S'Bokajan police'
p141
aS'113'
p142
aS'Others'
p143
aa(lp144
S'KRA'
p145
aS'133'
p146
aS'Accused'
p147
aa(lp148
S'KRA'
p149
aS'182'
p150
aS'Accused'
p151
aa(lp152
S'Assam Police'
p153
aS'248'
p154
aS'Others'
p155
aas.