(dp0
S'LOC'
p1
(lp2
(lp3
S'DEHRA DUN'
p4
aS'5'
p5
aS'Neutral'
p6
aa(lp7
S'Uttaranchal'
p8
aS'15'
p9
aS'Neutral'
p10
aa(lp11
S'Rishikesh'
p12
aS'27'
p13
aS'Neutral'
p14
aa(lp15
S'Uttaranchal'
p16
aS'65'
p17
aS'Neutral'
p18
aa(lp19
S'Uttar Pradesh'
p20
aS'68'
p21
aS'Neutral'
p22
aa(lp23
S'Delhi'
p24
aS'104'
p25
aS'Neutral'
p26
aa(lp27
S'Rishikesh'
p28
aS'107'
p29
aS'Neutral'
p30
aa(lp31
S'Dehra Dun'
p32
aS'137'
p33
aS'Neutral'
p34
aasS'PER'
p35
(lp36
(lp37
S'Karam Vir Singh'
p38
aS'36'
p39
aS'Others'
p40
aa(lp41
S'Prem Singh Mallick'
p42
aS'41'
p43
aS'Others'
p44
aa(lp45
S'Narain Singh Rana'
p46
aS'153'
p47
aS'Others'
p48
aa(lp49
S'Garhwal Mandal Vikas Nigam'
p50
aS'194'
p51
aS'Others'
p52
aa(lp53
S'S. S. Barnala'
p54
aS'232'
p55
aS'Others'
p56
aasS'TIM'
p57
(lp58
S'2 a.m. : 31'
p59
aS'today : 33'
p60
aS'1-30 a.m. : 111'
p61
asS'hot_setting'
p62
S''
p63
sS'DAT'
p64
(lp65
S'JAN. 26 : 8'
p66
asS'death'
p67
g63
sS'title'
p68
S'Two killed in Rishikesh bus blast'
p69
sS'org_unorg'
p70
g63
sS'terror_group'
p71
(lp72
g63
asS'content'
p73
VBy Our Staff Correspondent DEHRA DUN , JAN. 26 . Republic Day celebrations in Uttaranchal were marred by a bomb explosion aboard a bus at the Rishikesh bus stand around 2 a.m. today . Driver Karam Vir Singh and conductor Prem Singh Mallick were killed on the spot . Consequently , a red alert was sounded and intensive checking of all vehicles ordered across Uttaranchal and western Uttar Pradesh . The explosion could have been triggered by a time device . The target must have been a larger number of persons but the designs of the criminals were foiled as the bus from Delhi , reached Rishikesh before schedule around 1-30 a.m. , a senior official said . An adjoining bus was also damaged and its driver and conductor received minor injuries . Ill-timed dance In Dehra Dun , a dance by the Minister of State for Culture and Sports , Mr. Narain Singh Rana , at the Republic Day celebrations on the Parade Ground came in for criticism from people who wondered why he did so despite knowing about the death of two persons in the bomb blast . Tableaux of the Garhwal Mandal Vikas Nigam , the G. B. Pant University of Agriculture and Technology , the Eco Task Force and the Bharat Heavy Electricals were appreciated by all as the Governor of the newborn - State , Mr. S. S. Barnala , took the salute at an impressive march-past by school children , police and para-military forces . . . By Our Staff Correspondent . . DEHRA DUN , JAN. 26 . Republic Day celebrations in Uttaranchal were marred by a bomb explosion aboard a bus at the Rishikesh bus stand around 2 a.m. today . Driver Karam Vir Singh and conductor Prem Singh Mallick were killed on the spot . . . Consequently , a red alert was sounded and intensive checking of all vehicles ordered across Uttaranchal and western Uttar Pradesh . . . The explosion could have been triggered by a time device . The target must have been a larger number of persons but the designs of the criminals were foiled as the bus from Delhi , reached Rishikesh before schedule around 1-30 a.m. , a senior official said . . . An adjoining bus was also damaged and its driver and conductor received minor injuries . . . Ill-timed dance . . In Dehra Dun , a dance by the Minister of State for Culture and Sports , Mr. Narain Singh Rana , at the Republic Day celebrations on the Parade Ground came in for criticism from people who wondered why he did so despite knowing about the death of two persons in the bomb blast . . . Tableaux of the Garhwal Mandal Vikas Nigam , the G. B. Pant University of Agriculture and Technology , the Eco Task Force and the Bharat Heavy Electricals were appreciated by all as the Governor of the newborn - State , Mr. S. S. Barnala , took the salute at an impressive march-past by school children , police and para-military forces .
p74
sS'injured'
p75
g63
sS'det_loc'
p76
(lp77
S'India'
p78
aS'Uttaranchal'
p79
aS'Dehradun'
p80
aS'Dehradun'
p81
ag63
asS'O'
p82
(lp83
S'Republic Day celebrations:11'
p84
aS'marred:17'
p85
aS'bomb explosion:20'
p86
aS'bus:24'
p87
aS'bus stand:28'
p88
aS'killed:45'
p89
aS'spot:48'
p90
aS'red alert:53'
p91
aS'sounded:56'
p92
aS'intensive:58'
p93
aS'vehicles:62'
p94
aS'explosion:72'
p95
aS'triggered:76'
p96
aS'time device:79'
p97
aS'target:83'
p98
aS'designs:94'
p99
aS'criminals:97'
p100
aS'foiled:99'
p101
aS'schedule:109'
p102
aS'adjoining bus:120'
p103
aS'damaged:124'
p104
aS'minor injuries:131'
p105
aS'Culture and Sports:148'
p106
aS'Republic Day celebrations:159'
p107
aS'Parade Ground:164'
p108
aS'criticism:169'
p109
aS'wondered:173'
p110
aS'bomb blast:188'
p111
aS'Tableaux:191'
p112
aS'Eco Task Force:210'
p113
aS'Bharat Heavy Electricals:215'
p114
aS'appreciated:219'
p115
aS'newborn:227'
p116
aS'salute:238'
p117
aS'impressive:241'
p118
aS'march-past:242'
p119
aS'police and para-military forces:247'
p120
asS'unexpl'
p121
(lp122
g63
asS'ocassion'
p123
g63
sS'link'
p124
S'http://www.thehindu.com/2001/01/27/stories/02270009.htm'
p125
sS'date'
p126
S'26-01-2001'
p127
sS'target'
p128
S'PARADE GROUND'
p129
sS'hot_spot'
p130
g63
sS'delivery_mod'
p131
g63
sS'delivery_met'
p132
S'PLANTED'
p133
sS'expl'
p134
(lp135
g63
asS'ORG'
p136
(lp137
(lp138
S'G. B. Pant University of Agriculture and Technology'
p139
aS'200'
p140
aS'Others'
p141
aas.