(dp0
S'LOC'
p1
(lp2
(lp3
S'Barpeta'
p4
aS'9'
p5
aS'Event'
p6
aa(lp7
S'Bardhaman'
p8
aS'34'
p9
aS'Event'
p10
aa(lp11
S'West Bengal'
p12
aS'36'
p13
aS'Neutral'
p14
aa(lp15
S'Kamrup'
p16
aS'42'
p17
aS'Neutral'
p18
aa(lp19
S'Assam'
p20
aS'72'
p21
aS'Neutral'
p22
aa(lp23
S'Bangladesh'
p24
aS'97'
p25
aS'Neutral'
p26
aa(lp27
S'Dhaka'
p28
aS'109'
p29
aS'Event'
p30
aasS'PER'
p31
(lp32
(lp33
S'Golam Osmani'
p34
aS'50'
p35
aS'Accused'
p36
aa(lp37
S'Johurddin'
p38
aS'53'
p39
aS'Accused'
p40
aa(lp41
S'Siraj Ali Khan'
p42
aS'55'
p43
aS'Accused'
p44
aa(lp45
S'Rafiqul Islam'
p46
aS'59'
p47
aS'Accused'
p48
aa(lp49
S'Sarbes Ali'
p50
aS'62'
p51
aS'Accused'
p52
aa(lp53
S'Saiful Islam'
p54
aS'65'
p55
aS'Accused'
p56
aa(lp57
S'G.D. Tripathi'
p58
aS'75'
p59
aS'Comment'
p60
aasS'TIM'
p61
(lp62
S'August 17 , 2005 : 112'
p63
asS'hot_setting'
p64
S''
p65
sS'DAT'
p66
(lp67
S'October 2:30'
p68
aS'October:30'
p69
aS'Friday:45'
p70
asS'death'
p71
g65
sS'title'
p72
S'6 held in Assam for terror links'
p73
sS'org_unorg'
p74
S'ORGANISED'
p75
sS'terror_group'
p76
(lp77
S'JAMAATUL MUJAHIDEEN BANGLADESH (JMB)'
p78
asS'content'
p79
VThe Assam Police have arrested six persons in Barpeta district for alleged links with the Jamaatul Mujahideen Bangladesh -LRB- JMB -RRB- , which is suspected to be behind the October 2 blast at Bardhaman in West Bengal . . . A Kamrup court on Friday remanded all the arrested Golam Osmani , Johurddin , Siraj Ali Khan , Rafiqul Islam , Sarbes Ali and Saiful Islam in 14-day police custody , Assam Home Commissioner G.D. Tripathi said . . . Terror activities of the JMB attracted global attention when it created a reign of terror in Bangladesh by triggering blasts in 300 locations in 63 districts , including Dhaka , on August 17 , 2005 .
p80
sS'injured'
p81
g65
sS'det_loc'
p82
(lp83
S'India'
p84
aS'Assam'
p85
aS'Barpeta'
p86
aS'Guwahati'
p87
aS'Barpeta'
p88
asS'O'
p89
(lp90
S'police:69'
p91
aS'home commissioner:73'
p92
aS'terror activities:81'
p93
asS'unexpl'
p94
(lp95
g65
asS'ocassion'
p96
g65
sS'link'
p97
S'http://www.thehindu.com/todays-paper/tp-national/tp-otherstates/6-held-in-assam-for-terror-links/article6490869.ece'
p98
sS'date'
p99
S'02-10-2014'
p100
sS'target'
p101
g65
sS'hot_spot'
p102
S'Barpeta'
p103
sS'delivery_mod'
p104
g65
sS'delivery_met'
p105
S'PLANTED'
p106
sS'expl'
p107
(lp108
g65
asS'ORG'
p109
(lp110
(lp111
S'Assam Police'
p112
aS'2'
p113
aS'Others'
p114
aa(lp115
S'Jamaatul Mujahideen Bangladesh'
p116
aS'16'
p117
aS'Accused'
p118
aa(lp119
S'JMB'
p120
aS'20'
p121
aS'Accused'
p122
aa(lp123
S'JMB'
p124
aS'85'
p125
aS'Accused'
p126
aas.