(dp0
S'LOC'
p1
(lp2
(lp3
S'Safrai'
p4
aS'11'
p5
aS'Neutral'
p6
aa(lp7
S'Lakwa'
p8
aS'13'
p9
aS'Neutral'
p10
aa(lp11
S'Upper Assam'
p12
aS'24'
p13
aS'Event'
p14
aa(lp15
S'Maligaon'
p16
aS'55'
p17
aS'Neutral'
p18
aasS'PER'
p19
(lp20
sS'TIM'
p21
(lp22
S'3.35 a.m.:27'
p23
asS'hot_setting'
p24
S''
p25
sS'DAT'
p26
(lp27
sS'death'
p28
g25
sS'title'
p29
S'Blast derails  8 wagons'
p30
sS'det_loc'
p31
(lp32
S'India'
p33
aS'Assam'
p34
ag25
aS'Upper Assam '
p35
aS'Upper Assam '
p36
asS'terror_group'
p37
(lp38
g25
asS'content'
p39
VEight wagons of an empty goods train derailed between the Safrai and Lakwa stations of the Northeast Frontier Railway -LRB- NFR -RRB- in Upper Assam around 3.35 a.m. today when suspected ULFA militants blasted a bomb on the track . Luckily , there was no casualty . . . Senior NFR officials at the Maligaon headquarters here said the blast created a crater three feet deep and four feet wide . . . Police found a 138-metre long wire leading into a nearby tea garden from where the bomb seems to have been detonated . . . A metal container which is supposed to have contained the explosive charge was found near the blast site . . . Empty packets of dry food recovered from the tea garden suggest that the militants had bided their time through the night , police said .
p40
sS'injured'
p41
g25
sS'org_unorg'
p42
S'ORGANISED'
p43
sS'O'
p44
(lp45
S'Northeast Frontier Railway:17'
p46
aS'Police:74'
p47
asS'unexpl'
p48
(lp49
g25
asS'ocassion'
p50
g25
sS'link'
p51
S'http://www.thehindu.com/2003/08/26/stories/2003082607430900.htm'
p52
sS'date'
p53
S'23-08-2003'
p54
sS'target'
p55
g25
sS'hot_spot'
p56
S'Upper Assam '
p57
sS'delivery_mod'
p58
g25
sS'delivery_met'
p59
S'PLANTED'
p60
sS'expl'
p61
(lp62
g25
asS'ORG'
p63
(lp64
(lp65
S'ULFA'
p66
aS'32'
p67
aS'Accused'
p68
aas.