(dp0
S'LOC'
p1
(lp2
(lp3
S'NEW DELHI'
p4
aS'5'
p5
aS'Event'
p6
aa(lp7
S'Delhi'
p8
aS'39'
p9
aS'Event'
p10
aa(lp11
S'Mehrauli'
p12
aS'60'
p13
aS'Event'
p14
aasS'PER'
p15
(lp16
(lp17
S'Shivraj Patil'
p18
aS'24'
p19
aS'Others'
p20
aa(lp21
S'Madhukar Gupta'
p22
aS'71'
p23
aS'Others'
p24
aa(lp25
S'Y.S. Dadwal'
p26
aS'87'
p27
aS'Comment'
p28
aa(lp29
S'Gupta'
p30
aS'93'
p31
aS'Comment'
p32
aa(lp33
S'Pranab Mukherjee'
p34
aS'128'
p35
aS'Comment'
p36
aasS'TIM'
p37
(lp38
sS'hot_setting'
p39
S''
p40
sS'DAT'
p41
(lp42
S'Saturday:19'
p43
asS'death'
p44
g40
sS'title'
p45
S'Patil reviews security situation'
p46
sS'det_loc'
p47
(lp48
S'India'
p49
aS'Delhi'
p50
aS'New Delhi'
p51
ag40
ag40
asS'terror_group'
p52
(lp53
g40
asS'content'
p54
VSpecial Correspondent . . NEW DELHI : As the Capital was rocked again by a bomb blast on Saturday , Union Home Minister Shivraj Patil reviewed the security situation with top officials and extended all assistance to the Delhi Police Commissioner to deal with the situation . . . Soon after the blast in the busy flower market at Mehrauli , he spoke to senior officials , including Home Secretary Madhukar Gupta , who , in turn , was in constant touch with Delhi police chief Y.S. Dadwal . . . Mr. Gupta also spoke to authorities of the All-India Institute of Medical Sciences to find out the condition of the injured , a Ministry spokesman said . . . Condemning the blast , External Affairs Minister Pranab Mukherjee said : We will have to wait for investigations to find out who are responsible for this act . . . The police were determined to bring the culprits to book .
p55
sS'injured'
p56
g40
sS'org_unorg'
p57
g40
sS'O'
p58
(lp59
S'special correspondent:1'
p60
aS'capital:10'
p61
aS'rocked again:12'
p62
aS'bomb blast:16'
p63
aS'security situation:28'
p64
aS'top officials:31'
p65
aS'assistance:36'
p66
aS'situation:46'
p67
aS'blast:53'
p68
aS'busy flower market:56'
p69
aS'constant touch:81'
p70
aS'authorities:97'
p71
aS'injured:112'
p72
aS'blast:123'
p73
aS'investigations:138'
p74
aS'culprits:158'
p75
asS'unexpl'
p76
(lp77
g40
asS'ocassion'
p78
g40
sS'link'
p79
S'http://www.thehindu.com/todays-paper/tp-national/patil-reviews-security-situation/article1347292.ece'
p80
sS'date'
p81
S'27-09-2008'
p82
sS'target'
p83
S'CITY'
p84
sS'hot_spot'
p85
g40
sS'delivery_mod'
p86
g40
sS'delivery_met'
p87
g40
sS'expl'
p88
(lp89
g40
asS'ORG'
p90
(lp91
(lp92
S'Delhi Police'
p93
aS'39'
p94
aS'Others'
p95
aa(lp96
S'Delhi police'
p97
aS'84'
p98
aS'Others'
p99
aa(lp100
S'All-India Institute of Medical Sciences'
p101
aS'100'
p102
aS'Others'
p103
aas.