(dp0
S'LOC'
p1
(lp2
sS'PER'
p3
(lp4
(lp5
S'R Ashok'
p6
aS'4'
p7
aS'Others'
p8
aasS'TIM'
p9
(lp10
S'morning : 14'
p11
asS'hot_setting'
p12
S''
p13
sS'DAT'
p14
(lp15
sS'death'
p16
g13
sS'title'
p17
S'Bangalore bomb blast injures 16; Centre joins probe'
p18
sS'det_loc'
p19
(lp20
S'India'
p21
aS'Karnataka'
p22
aS'Bangalore Urban'
p23
aS'Bangalore'
p24
ag13
asS'terror_group'
p25
(lp26
g13
asS'content'
p27
VState Home Minister R Ashok said the bomb blast in the city this morning was an act of terrorism , resulting in injury to 16 people , including eight policemen .
p28
sS'injured'
p29
S'16'
p30
sS'org_unorg'
p31
g13
sS'O'
p32
(lp33
S'bomb blast:8'
p34
aS'terrorism:19'
p35
asS'unexpl'
p36
(lp37
g13
asS'ocassion'
p38
g13
sS'link'
p39
S'http://www.business-standard.com/article/current-affairs/bangalore-bomb-blast-injures-16-centre-joins-probe-113041700120_1.html'
p40
sS'date'
p41
S'18-08-2013'
p42
sS'target'
p43
S'CITY'
p44
sS'hot_spot'
p45
g13
sS'delivery_mod'
p46
g13
sS'delivery_met'
p47
S'PLANTED'
p48
sS'expl'
p49
(lp50
g13
asS'ORG'
p51
(lp52
s.