(dp0
S'LOC'
p1
(lp2
(lp3
S'Delhi'
p4
aS'20'
p5
aS'Neutral'
p6
aa(lp7
S'Old Delhi'
p8
aS'27'
p9
aS'Neutral'
p10
aa(lp11
S'PANIPAT'
p12
aS'36'
p13
aS'Event'
p14
aa(lp15
S'Delhi'
p16
aS'98'
p17
aS'Neutral'
p18
aa(lp19
S'Mumbai'
p20
aS'100'
p21
aS'Neutral'
p22
aa(lp23
S'Punjab'
p24
aS'102'
p25
aS'Neutral'
p26
aa(lp27
S'Karachi'
p28
aS'220'
p29
aS'Neutral'
p30
aa(lp31
S'New Delhi'
p32
aS'230'
p33
aS'Event'
p34
aa(lp35
S'Delhi'
p36
aS'269'
p37
aS'Neutral'
p38
aa(lp39
S'Ahmedabad'
p40
aS'293'
p41
aS'Neutral'
p42
aa(lp43
S'Deewana'
p44
aS'330'
p45
aS'Neutral'
p46
aa(lp47
S'Old Delhi'
p48
aS'395'
p49
aS'Neutral'
p50
aasS'PER'
p51
(lp52
(lp53
S'Devesh Pandey'
p54
aS'1'
p55
aS'Others'
p56
aa(lp57
S'Sharad Kumar'
p58
aS'122'
p59
aS'Others'
p60
aa(lp61
S'Bharti Arora'
p62
aS'125'
p63
aS'Others'
p64
aa(lp65
S'Kumar'
p66
aS'148'
p67
aS'Comment'
p68
aa(lp69
S'Harish Mohammed'
p70
aS'211'
p71
aS'Victim'
p72
aa(lp73
S'Kumar'
p74
aS'387'
p75
aS'Comment'
p76
aasS'TIM'
p77
(lp78
S'30 minutes : 14'
p79
aS'30 minutes : 322'
p80
aS'11.55 p.m.:347'
p81
asS'hot_setting'
p82
S''
p83
sS'DAT'
p84
(lp85
S'Tuesday:115'
p86
aS'Tuesday:233'
p87
asS'death'
p88
g83
sS'title'
p89
S'Sketches of suspects released, death toll 68'
p90
sS'org_unorg'
p91
S'ORGANISED'
p92
sS'terror_group'
p93
(lp94
g83
asS'content'
p95
VDevesh Pandey . . 2 jumped off the train when it slowed down 30 minutes after its departure from Delhi There was security lapse at the Old Delhi railway station , says police . . PANIPAT : A day after the Samjhauta Express was firebombed , the Haryana police released the sketches of two youths suspected to have planted the bombs in the train . . . While a reward of Rs . 1 lakh has been announced for anyone giving clues leading to the suspects , the police have sought the help of their counterparts in Delhi , Mumbai and Punjab in the investigations . . . At a press meet here on Tuesday , Inspector-General -LRB- Rohtak Range -RRB- Sharad Kumar and Bharti Arora , Superintendent of Police , Government Railway Police , released the sketches based on inputs given by some passengers . Mr. Kumar said one of the suspects was about 35 years old , fat and of wheatish complexion . He had a moustache and wore a jacket . The other one was about 26 years old and had his face covered with a muffler . . . The police believe that more than four persons could be involved in the incident . . . Harish Mohammed -LRB- 15 -RRB- , a resident of Karachi , died of burns in the Safdarjung Hospital in New Delhi on Tuesday , taking the death toll to 68 . So far , 18 bodies have been identified , including 13 Pakistanis . An injured passenger told the police that soon after the train started moving from Delhi , there was a heated exchange between Railway Protection Force personnel and the suspects . The two said they wanted to go to Ahmedabad and the RPF men told them that they had boarded the wrong train and they should get off when it slowed down . The suspects jumped out after 30 minutes and as the train crossed the Deewana station , the improvised explosive devices in two of the eight unreserved coaches went off at 11.55 p.m. Two other bombs in other coaches did not explode . . . The police displayed a specially-designed metal pipe , bottles containing inflammable liquid , an orange coloured cloth and a suitcase recovered at the site . Mr. Kumar said there were security lapses at the Old Delhi station . So the perpetrators boarded the train with suitcases . . . Samjhauta Express blasts photos .
p96
sS'injured'
p97
g83
sS'det_loc'
p98
(lp99
S'India'
p100
aS'Haryana'
p101
aS'Panipat'
p102
aS'PANIPAT'
p103
aS'PANIPAT'
p104
asS'O'
p105
(lp106
S'Samjhauta Express:42'
p107
aS'Superintendent of Police:128'
p108
aS'Safdarjung Hospital:227'
p109
aS'bottles containing inflammable liquid:369'
p110
aS'an orange coloured cloth:374'
p111
asS'unexpl'
p112
(lp113
g83
asS'ocassion'
p114
g83
sS'link'
p115
S'http://www.thehindu.com/todays-paper/sketches-of-suspects-released-death-toll-68/article1800272.ece'
p116
sS'date'
p117
S'20-02-2007'
p118
sS'target'
p119
g83
sS'hot_spot'
p120
S'PANIPAT'
p121
sS'delivery_mod'
p122
g83
sS'delivery_met'
p123
S'PLANTED'
p124
sS'expl'
p125
(lp126
g83
asS'ORG'
p127
(lp128
(lp129
S'Haryana police'
p130
aS'48'
p131
aS'Others'
p132
aa(lp133
S'Government Railway Police'
p134
aS'132'
p135
aS'Others'
p136
aa(lp137
S'Railway Protection Force'
p138
aS'277'
p139
aS'Others'
p140
aa(lp141
S'RPF'
p142
aS'296'
p143
aS'Others'
p144
aas.