(dp0
S'LOC'
p1
(lp2
(lp3
S'GUWAHATI'
p4
aS'13'
p5
aS'Event'
p6
aa(lp7
S'Bijni'
p8
aS'33'
p9
aS'Event'
p10
aa(lp11
S'Chirang'
p12
aS'35'
p13
aS'Event'
p14
aa(lp15
S'Bongaigaon'
p16
aS'51'
p17
aS'Neutral'
p18
aa(lp19
S'Bijni'
p20
aS'123'
p21
aS'Event'
p22
aa(lp23
S'Delhi'
p24
aS'166'
p25
aS'Assoc Event Location'
p26
aasS'PER'
p27
(lp28
(lp29
S'Bhaskarjyoti Mahanta'
p30
aS'66'
p31
aS'Comment'
p32
aasS'TIM'
p33
(lp34
S'11.05:126'
p35
aS'11.05 a.m.:126'
p36
aS'three days : 153'
p37
asS'hot_setting'
p38
S''
p39
sS'DAT'
p40
(lp41
S'Thursday:38'
p42
asS'death'
p43
g39
sS'title'
p44
S'22 injured in Assam bomb blast'
p45
sS'org_unorg'
p46
g39
sS'terror_group'
p47
(lp48
S'UNITED LIBERATION FRONT OF ASSAM (ULFA)'
p49
asS'content'
p50
VSpecial Correspondent . . Bomb was planted on a cycle . . GUWAHATI : Twenty-two persons were injured when a bomb planted on a cycle went off at a crowded place at Bijni in Chirang district on Thursday . The injured have been admitted to the Lower Assam Hospital at Bongaigaon . . . Suspicion . . Inspector-General of Police -LRB- Law and Order -RRB- Bhaskarjyoti Mahanta told The Hindu that the bomb was suspected to have been planted by the United Liberation Front of Asom -LRB- ULFA -RRB- . The recent arrests and surrender of its cadres might have been forced the ULFA to trigger the blast , he claimed . . . The blast occurred near the circle office at Bijni town around 11.05 a.m. when the place was crowded with office and market-goers . . . Alert . . A general alert was sounded throughout the State for past three days against possible strikes by the militant outfits in different places following Delhi blasts .
p51
sS'injured'
p52
S'21'
p53
sS'det_loc'
p54
(lp55
S'India'
p56
aS'Assam'
p57
aS'Chirang'
p58
aS'Guwahati'
p59
ag39
asS'O'
p60
(lp61
S'Special Correspondent:1'
p62
aS'Bomb:5'
p63
aS'planted:7'
p64
aS'cycle:10'
p65
aS'injured:18'
p66
aS'bomb:21'
p67
aS'planted:22'
p68
aS'cycle:25'
p69
aS'crowded place:30'
p70
aS'injured:41'
p71
aS'admitted:44'
p72
aS'Lower Assam Hospital:47'
p73
aS'Suspicion:55'
p74
aS'Law and Order:62'
p75
aS'bomb:73'
p76
aS'suspected:75'
p77
aS'planted:79'
p78
aS'arrests:93'
p79
aS'surrender:95'
p80
aS'cadres:98'
p81
aS'forced:102'
p82
aS'trigger:106'
p83
aS'blast:108'
p84
aS'claimed:111'
p85
aS'blast:116'
p86
aS'circle office:120'
p87
aS'crowded:132'
p88
aS'market-goers:136'
p89
aS'Alert:140'
p90
aS'alert:145'
p91
aS'sounded:147'
p92
aS'State:150'
p93
aS'strikes:157'
p94
aS'militant outfits:160'
p95
aS'blasts:167'
p96
asS'unexpl'
p97
(lp98
g39
asS'ocassion'
p99
g39
sS'link'
p100
S'http://www.thehindu.com/todays-paper/tp-national/22-injured-in-assam-bomb-blast/article1341313.ece'
p101
sS'date'
p102
S'18-09-2008'
p103
sS'target'
p104
S'CROWDED PLACE'
p105
sS'hot_spot'
p106
g39
sS'delivery_mod'
p107
S'BYCICLE'
p108
sS'delivery_met'
p109
S'PLANTED'
p110
sS'expl'
p111
(lp112
g39
asS'ORG'
p113
(lp114
(lp115
S'The Hindu'
p116
aS'69'
p117
aS'Others'
p118
aa(lp119
S'United Liberation Front of Asom'
p120
aS'82'
p121
aS'Accused'
p122
aa(lp123
S'ULFA'
p124
aS'88'
p125
aS'Accused'
p126
aa(lp127
S'ULFA'
p128
aS'104'
p129
aS'Accused'
p130
aas.