(dp0
S'LOC'
p1
(lp2
(lp3
S'NEW DELHI'
p4
aS'5'
p5
aS'Neutral'
p6
aa(lp7
S'Bangalore'
p8
aS'13'
p9
aS'Event'
p10
aa(lp11
S'Ahmedabad'
p12
aS'15'
p13
aS'Event'
p14
aa(lp15
S'Karnataka'
p16
aS'26'
p17
aS'Neutral'
p18
aasS'PER'
p19
(lp20
sS'TIM'
p21
(lp22
sS'hot_setting'
p23
S''
p24
sS'DAT'
p25
(lp26
S'Sunday:20'
p27
asS'death'
p28
g24
sS'title'
p29
S'Stand united: CPI'
p30
sS'org_unorg'
p31
S'ORGANISED'
p32
sS'terror_group'
p33
(lp34
g24
asS'content'
p35
VSpecial Correspondent . . NEW DELHI : Condemning the bomb blasts in Bangalore and Ahmedabad , the CPI on Sunday asked the Centre and the Karnataka and Gujarat governments to work in coordination for a thorough investigation into the incidents , instead of blaming each other . . . Calling for the need to ensure that the culprits are booked and punished without delay , the Central Secretariat of the party called upon the people to remain united and not allow any provocation so that the forces that were opposed to the country could be isolated and defeated . . . Terming the blasts an evil design to destabilise the country , the party said the targeting of common people was to create scare and strife among them .
p36
sS'injured'
p37
g24
sS'det_loc'
p38
(lp39
S'India'
p40
aS'Karnataka'
p41
ag24
aS'Bangalore'
p42
aS'Bangalore'
p43
asS'O'
p44
(lp45
S'central secretariat:67'
p46
asS'unexpl'
p47
(lp48
g24
asS'ocassion'
p49
g24
sS'link'
p50
S'http://www.thehindu.com/todays-paper/tp-national/stand-united-cpi/article1302766.ece'
p51
sS'date'
p52
g24
sS'target'
p53
g24
sS'hot_spot'
p54
S'Bangalore'
p55
sS'delivery_mod'
p56
g24
sS'delivery_met'
p57
S'PLANTED'
p58
sS'expl'
p59
(lp60
g24
asS'ORG'
p61
(lp62
(lp63
S'CPI'
p64
aS'18'
p65
aS'Others'
p66
aa(lp67
S'Gujarat governments'
p68
aS'28'
p69
aS'Others'
p70
aas.