(dp0
S'LOC'
p1
(lp2
(lp3
S'Bengal'
p4
aS'12'
p5
aS'Neutral'
p6
aa(lp7
S'Bardhaman'
p8
aS'61'
p9
aS'Neutral'
p10
aa(lp11
S'Bardhaman'
p12
aS'90'
p13
aS'Neutral'
p14
aa(lp15
S'West Bengal'
p16
aS'114'
p17
aS'Neutral'
p18
aasS'PER'
p19
(lp20
sS'TIM'
p21
(lp22
sS'hot_setting'
p23
S''
p24
sS'DAT'
p25
(lp26
S'Thursday:38'
p27
aS'October 2 .:93'
p28
asS'death'
p29
g24
sS'title'
p30
S'NIA to probe Bengal blast'
p31
sS'org_unorg'
p32
S'ORGANISED'
p33
sS'terror_group'
p34
(lp35
g24
asS'content'
p36
VThe National Investigation Agency -LRB- NIA -RRB- will now probe the Bengal blast case . The Union Home Ministry has ordered to register a case under NIA Act , a senior Home Ministry official has confirmed on Thursday . . . The West Bengal Government will now be legally bound to hand over evidences and documents related to last weeks Bardhaman blast to the NIA officials , who are expected to arrive in the city shortly . . . The blast had killed two persons in a colony in Bardhaman district on October 2 . According to the police , the blast has brought to light a terror network , hitherto unknown in West Bengal .
p37
sS'injured'
p38
g24
sS'det_loc'
p39
(lp40
S'India'
p41
aS'West Bengal'
p42
aS'Bardhaman'
p43
aS'Bardhaman'
p44
aS'Bardhaman'
p45
asS'O'
p46
(lp47
S'Union Home Ministry:17'
p48
aS'home ministry:32'
p49
aS'police:99'
p50
aS'terror network:108'
p51
asS'unexpl'
p52
(lp53
g24
asS'ocassion'
p54
g24
sS'link'
p55
S'http://www.thehindu.com/todays-paper/nia-to-probe-bengal-blast/article6486932.ece'
p56
sS'date'
p57
S'09-10-2014'
p58
sS'target'
p59
g24
sS'hot_spot'
p60
S'Bardhaman'
p61
sS'delivery_mod'
p62
g24
sS'delivery_met'
p63
S'PLANTED'
p64
sS'expl'
p65
(lp66
g24
asS'ORG'
p67
(lp68
(lp69
S'National Investigation Agency'
p70
aS'2'
p71
aS'Others'
p72
aa(lp73
S'NIA'
p74
aS'6'
p75
aS'Others'
p76
aa(lp77
S'NIA'
p78
aS'27'
p79
aS'Others'
p80
aa(lp81
S'West Bengal Government'
p82
aS'43'
p83
aS'Others'
p84
aa(lp85
S'NIA'
p86
aS'65'
p87
aS'Others'
p88
aas.