(dp0
S'LOC'
p1
(lp2
(lp3
S'Nalbari'
p4
aS'10'
p5
aS'Event'
p6
aa(lp7
S'police station'
p8
aS'54'
p9
aS'Neutral'
p10
aa(lp11
S'Nalbari'
p12
aS'57'
p13
aS'Event'
p14
aasS'PER'
p15
(lp16
(lp17
S'Kader Ali'
p18
aS'38'
p19
aS'Victim'
p20
aa(lp21
S'Ali'
p22
aS'59'
p23
aS'Victim'
p24
aasS'TIM'
p25
(lp26
sS'hot_setting'
p27
S''
p28
sS'DAT'
p29
(lp30
S'November 22 : 13'
p31
aS'Saturday : 25'
p32
asS'death'
p33
S'7'
p34
sS'title'
p35
S'Toll in Nalbari blasts rises toeight'
p36
sS'det_loc'
p37
(lp38
S'India'
p39
aS'Assam'
p40
aS'Nalbari'
p41
aS'guwahati'
p42
aS'Nalbari'
p43
asS'terror_group'
p44
(lp45
g28
asS'content'
p46
VThe toll in the twin bomb blasts in Assams Nalbari town on November 22 rose to eight with a person succumbing to injuries on Saturday , official sources said here . . . A cloth merchant , Kader Ali and his 10-year-old son were injured in the second blast that took place near police station in Nalbari . Ali , who was brought to the Guwahati Medical College Hospital here in a critical condition , succumbed to injuries and his son is still battling for life , they said . . . Seven people died on the day of the blasts while 54 others were injured with 34 of them shifted to the GMCH here . . . .
p47
sS'injured'
p48
S'54'
p49
sS'org_unorg'
p50
S'ORGANISED'
p51
sS'O'
p52
(lp53
S'twin bomb:5'
p54
asS'unexpl'
p55
(lp56
g28
asS'ocassion'
p57
g28
sS'link'
p58
S'http://indianexpress.com/article/india/regional/toll-in-nalbari-blasts-rises-to-eight/'
p59
sS'date'
p60
S'22-11-2009'
p61
sS'target'
p62
g28
sS'hot_spot'
p63
S'Nalbari'
p64
sS'delivery_mod'
p65
g28
sS'delivery_met'
p66
S'PLANTED'
p67
sS'expl'
p68
(lp69
g28
asS'ORG'
p70
(lp71
(lp72
S'Guwahati Medical College Hospital'
p73
aS'66'
p74
aS'Others'
p75
aa(lp76
S'GMCH'
p77
aS'114'
p78
aS'Others'
p79
aas.