(dp0
S'LOC'
p1
(lp2
(lp3
S'Ahmedabad'
p4
aS'36'
p5
aS'Event'
p6
aa(lp7
S'Ahmedabad'
p8
aS'57'
p9
aS'Event'
p10
aa(lp11
S'Ahmedabad'
p12
aS'165'
p13
aa(lp14
S'SIMI'
p15
aS'315'
p16
aS'Accused Location'
p17
aa(lp18
S'BHOPAL/AHMEDABAD'
p19
aS'1'
p20
aS'Source'
p21
aa(lp22
S'Madhya Pradesh'
p23
aS'4'
p24
aS'Neutral'
p25
aa(lp26
S'Mumbai'
p27
aS'75'
p28
aS'Accused Location'
p29
aa(lp30
S'Karnataka'
p31
aS'80'
p32
aS'Accused Location'
p33
aa(lp34
S'Delhi'
p35
aS'94'
p36
aS'Neutral'
p37
aa(lp38
S'Delhi'
p39
aS'103'
p40
aS'Neutral'
p41
aa(lp42
S'Rajdhani Express for Delhi'
p43
aS'122'
p44
aS'Neutral'
p45
aa(lp46
S'Delhi'
p47
aS'125'
p48
aS'Neutral'
p49
aa(lp50
S'Ahmedabad'
p51
aS'127'
p52
aS'Neutral'
p53
aa(lp54
S'Ahmedabad'
p55
aS'158'
p56
aS'Event'
p57
aa(lp58
S'Batla House'
p59
aS'174'
p60
aS'Accused Location'
p61
aa(lp62
S'Madhya Pradesh'
p63
aS'179'
p64
aS'Neutral'
p65
aa(lp66
S'Delhi'
p67
aS'194'
p68
aS'Neutral'
p69
aa(lp70
S'Wadi Taiwada in Vadodara'
p71
aS'362'
p72
aS'Neutral'
p73
aa(lp74
S'Wadi Taiwada'
p75
aS'362'
p76
aS'Neutral'
p77
aa(lp78
S'Vadodara'
p79
aS'365'
p80
aS'Neutral'
p81
aa(lp82
S'Vadodara'
p83
aS'368'
p84
aS'Neutral'
p85
aa(lp86
S'Batla House'
p87
aS'399'
p88
aS'Neutral'
p89
aa(lp90
S'New Delhi'
p91
aS'405'
p92
aS'Event'
p93
aa(lp94
S'Batla House'
p95
aS'424'
p96
aS'Neutral'
p97
aa(lp98
S'Ahmedabad'
p99
aS'428'
p100
aS'Event'
p101
aa(lp102
S'Kapadia'
p103
aS'431'
p104
aS'Neutral'
p105
aa(lp106
S'Ahmedabad'
p107
aS'447'
p108
aS'Neutral'
p109
aa(lp110
S'Ahmedabad'
p111
aS'498'
p112
aS'Victim Location'
p113
aa(lp114
S'Ahmedabad'
p115
aS'528'
p116
aS'Neutral'
p117
aa(lp118
S'Gujarat police'
p119
aS'530'
p120
aS'Neutral'
p121
aa(lp122
S'Gujarat'
p123
aS'530'
p124
aS'Neutral'
p125
aa(lp126
S'Kapadia'
p127
aS'536'
p128
aS'Neutral'
p129
aa(lp130
S'Kapadia'
p131
aS'549'
p132
aS'Neutral'
p133
aa(lp134
S'Surat.Joint'
p135
aS'564'
p136
aS'Accused Location'
p137
aa(lp138
S'Kapadia'
p139
aS'585'
p140
aS'Neutral'
p141
aa(lp142
S'Kapadia'
p143
aS'632'
p144
aS'Neutral'
p145
aasS'PER'
p146
(lp147
(lp148
S'Kapadia'
p149
aS'51'
p150
aS'Accused'
p151
aS'Others'
p152
aa(lp153
S'blasts.Atif'
p154
aS'95'
p155
aS'Accused'
p156
aS'Others'
p157
aa(lp158
S'Qayamuddin Kapadia'
p159
aS'13'
p160
aS'Accused'
p161
aa(lp162
S'Abdul Subhan Qureshi'
p163
aS'69'
p164
aS'Assoc Accused'
p165
aa(lp166
S'Tauqeer'
p167
aS'73'
p168
aS'Assoc Accused'
p169
aa(lp170
S'Riaz Bhatkal'
p171
aS'77'
p172
aS'Assoc Accused'
p173
aa(lp174
S'Atif'
p175
aS'89'
p176
aS'Accused'
p177
aa(lp178
S'Kapadia'
p179
aS'106'
p180
aS'Accused'
p181
aa(lp182
S'Atif'
p183
aS'112'
p184
aS'Accused'
p185
aa(lp186
S'Atifs'
p187
aS'148'
p188
aS'Accused'
p189
aa(lp190
S'Kapadia'
p191
aS'167'
p192
aS'Accused'
p193
aa(lp194
S'DIG Pawan Shrivastava'
p195
aS'183'
p196
aS'Others'
p197
aa(lp198
S'Pawan Shrivastava'
p199
aS'184'
p200
aS'Others'
p201
aa(lp202
S'Kapadias'
p203
aS'252'
p204
aS'Others'
p205
aa(lp206
S'Atif'
p207
aS'260'
p208
aS'Accused'
p209
aa(lp210
S'Tauqeer'
p211
aS'300'
p212
aS'Accused'
p213
aa(lp214
S'Bhatkal'
p215
aS'307'
p216
aS'Others'
p217
aa(lp218
S'net.Kapadia'
p219
aS'336'
p220
aS'Accused'
p221
aa(lp222
S'Qayamuddin Kapadia'
p223
aS'347'
p224
aS'Accused'
p225
aa(lp226
S'Moosa'
p227
aS'350'
p228
aS'Accused'
p229
aa(lp230
S'Ashwaq'
p231
aS'352'
p232
aS'Accused'
p233
aa(lp234
S'Abdul Qadir'
p235
aS'354'
p236
aS'Accused'
p237
aa(lp238
S'Rizwan'
p239
aS'357'
p240
aS'Accused'
p241
aa(lp242
S'Shrivastava'
p243
aS'390'
p244
aS'Others'
p245
aa(lp246
S'R I Asari'
p247
aS'513'
p248
aS'Others'
p249
aa(lp250
S'R'
p251
aS'513'
p252
aS'Others'
p253
aa(lp254
S'Asari'
p255
aS'515'
p256
aS'Others'
p257
aa(lp258
S'Ashish Bhatia'
p259
aS'572'
p260
aS'Others'
p261
aa(lp262
S'Tauqeer'
p263
aS'597'
p264
aS'Accused'
p265
aa(lp266
S'Ahmedabad and Surat.Kapadia'
p267
aS'608'
p268
aS'Others'
p269
aa(lp270
S'Surat.Kapadia'
p271
aS'610'
p272
aS'Others'
p273
aa(lp274
S'Safdar Nagori'
p275
aS'627'
p276
aS'Others'
p277
aasS'TIM'
p278
(lp279
sS'hot_setting'
p280
S''
p281
sS'DAT'
p282
(lp283
S'Sunday:10'
p284
aS'Sunday night:10'
p285
aS'July:45'
p286
aS'July 26:45'
p287
aS'September 13:200'
p288
aS'September:200'
p289
aS'Monday morning:492'
p290
aS'Monday:492'
p291
aS'Monday morning:492'
p292
asS'death'
p293
S'57'
p294
sS'title'
p295
S'Ahmedabad blasts plotter held in MP'
p296
sS'det_loc'
p297
(lp298
S'India'
p299
aS'Gujarat'
p300
aS'Ahmedabad'
p301
ag281
ag281
asS'terror_group'
p302
(lp303
g281
asS'content'
p304
VBHOPAL/AHMEDABAD : The Madhya Pradesh Anti-Terror Squad late on Sunday night arrested Qayamuddin Kapadia , a top-ranking jehadi belonging to the outlawed SIMI and a key conspirator and executor of the 19 serial blasts in Ahmedabad which killed 57 and injured over 200 on July 26 . Police claimed that Kapadia admitted his involvement in the Ahmedabad blasts , as also that he along with fellow jehadis , Abdul Subhan Qureshi alias Tauqeer of Mumbai and Riaz Bhatkal of Karnataka , collaborated with the SIMI cell led by Atif to carry out the Delhi blasts.Atif was later killed in an encounter with Delhi Police . Kapadia aka KP , who knew Atif only by the latters code name , boarded the Rajdhani Express for Delhi from Ahmedabad just before the explosives they had planted in Gujarats biggest city went off.He even stayed in the L-18 apartment , Atifs hideout in New Delhis Batla House , after the Ahmedabad blasts . After the blasts in Ahmedabad , Kapadia had spent a few nights at Batla House , chief of Madhya Pradesh ATS , DIG Pawan Shrivastava told TOI . He was also spotted in Delhi before the serial blasts on September 13 . The arrest after a massive manhunt is important for several reasons . It strengthens the governments case against the outlawed SIMI , while validating the assumption of cops that Indian Mujahideen was just a badge that SIMI activists embraced for tactical reasons.While he is sure to recant later , Kapadias statement to cops marks another confirmation of Atif allegedly being a hardcore jehadi rather than a simple student of Jamia Millia as many have continued to maintain . His arrest , besides helping to add valuable inputs to the already thick dossier cops have on the absconding Tauqeer whom he was close to and Bhatkal , also marks a serious blow to SIMI which has , over the past couple of months , seen many of its top operatives falling in the police net.Kapadia has nearly half-a-dozen names . The police registered him as Qayamuddin Kapadia alias Moosa alias Ashwaq alias Abdul Qadir alias Rizwan , a resident of Wadi Taiwada in Vadodara . In Vadodara , he and his brother were running a DTP business and doing well . His father is an imam there , Shrivastava said . He identified all those in the Batla House and accused in the New Delhi blasts . He told us that he knew them personally and was hiding in that flat in Batla House after the Ahmedabad blasts . Kapadia had , in a cold blooded manner , filmed the blast at Civil Hospital in Ahmedabad that day , which saw the maximum casualty of 32 . This clip was later posted in an email by the Indian Mujahideen sent to media houses.He had hand-picked the terror operatives and also helped procure the cycles used to plant bombs . On Monday morning , MP police informed Ahmedabad crime branch about Kapadias arrest , whose team under assistant commissioner of police , R I Asari rushed to get his custody.In the aftermath of the serial blasts in Ahmedabad , Gujarat police had issued warrant against Kapadia and the other absconders to all police stations across the country . Kapadia is also suspected to have played a role in planting the 29 bombs in Surat.Joint commissioner of police , crime branch , Ashish Bhatia said , This is a very important arrest for us . Kapadia is not only part of the terror conspiracy , along with Tauqeer , but also the executioner of the terror plan for Ahmedabad and Surat.Kapadia had escaped during the MP police crackdown on a SIMI hideout when 13 SIMI activists including Safdar Nagori were arrested . Kapadia has been attached to the SIMI for five years . Police added that he is a high-school graduate .
p305
sS'injured'
p306
S'200'
p307
sS'org_unorg'
p308
g281
sS'O'
p309
(lp310
S'anti-terror squad:6'
p311
aS'jehadi:18'
p312
aS'simi:23'
p313
aS'conspirator:27'
p314
aS'executor:29'
p315
aS'serial:33'
p316
aS'ahmedabad:36'
p317
aS'ahmedabad blasts:57'
p318
aS'jehadis:67'
p319
aS'simi:85'
p320
aS'cell:86'
p321
aS'atif:89'
p322
aS'delhi blasts.atif:94'
p323
aS'blasts.atif:95'
p324
aS'kapadia:106'
p325
aS'kp:108'
p326
aS'atif:112'
p327
aS'name:118'
p328
aS'rajdhani express:122'
p329
aS'gujarats:136'
p330
aS'city:138'
p331
aS'off.he:140'
p332
aS'l-18 apartment:145'
p333
aS'atifs hideout:148'
p334
aS'atifs:148'
p335
aS'hideout:149'
p336
aS'ahmedabad:158'
p337
aS'ahmedabad blasts:158'
p338
aS'chief:177'
p339
aS'toi:187'
p340
aS'arrest:204'
p341
aS'manhunt:208'
p342
aS'case:219'
p343
aS'simi:223'
p344
aS'assumption:228'
p345
aS'badge:237'
p346
aS'simi activists:239'
p347
aS'simi:239'
p348
aS'reasons.while:244'
p349
aS'statement:253'
p350
aS'confirmation:258'
p351
aS'atif:260'
p352
aS'hardcore jehadi:264'
p353
aS'student:270'
p354
aS'arrest:282'
p355
aS'dossier:294'
p356
aS'tauqeer:300'
p357
aS'blow:313'
p358
aS'simi:315'
p359
aS'couple:322'
p360
aS'police net.kapadia:335'
p361
aS'police:343'
p362
aS'resident:360'
p363
aS'brother:373'
p364
aS'dtp business:377'
p365
aS'father:384'
p366
aS'imam:387'
p367
aS'ahmedabad:428'
p368
aS'ahmedabad blasts:428'
p369
aS'manner:438'
p370
aS'blast:442'
p371
aS'hospital:445'
p372
aS'day:449'
p373
aS'maximum casualty:454'
p374
aS'mp police:495'
p375
aS'ahmedabad crime branch:498'
p376
aS'ahmedabad:498'
p377
aS'crime branch:499'
p378
aS'arrest:503'
p379
aS'team:506'
p380
aS'assistant commissioner:508'
p381
aS'police:511'
p382
aS'custody.in:520'
p383
aS'aftermath:522'
p384
aS'serial:525'
p385
aS'warrant:534'
p386
aS'country:547'
p387
aS'role:557'
p388
aS'surat.joint commissioner:564'
p389
aS'crime branch:569'
p390
aS'terror conspiracy:592'
p391
aS'tauqeer:597'
p392
aS'executioner:602'
p393
aS'terror plan:605'
p394
aS'ahmedabad:608'
p395
aS'mp police crackdown:615'
p396
aS'simi hideout:620'
p397
aS'simi:620'
p398
aS'simi:624'
p399
aS'simi:638'
p400
aS'high-school graduate:649'
p401
asS'unexpl'
p402
(lp403
g281
asS'ocassion'
p404
g281
sS'link'
p405
S'http://timesofindia.indiatimes.com/india/Ahmedabad-blasts-plotter-held-in-MP/articleshow/3697294.cms?referral=PM'
p406
sS'date'
p407
S'26-07-2008'
p408
sS'target'
p409
g281
sS'hot_spot'
p410
g281
sS'delivery_mod'
p411
g281
sS'delivery_met'
p412
g281
sS'expl'
p413
(lp414
g281
asS'ORG'
p415
(lp416
(lp417
S'SIMI'
p418
aS'23'
p419
aS'Accused'
p420
aa(lp421
S'SIMI'
p422
aS'85'
p423
aS'Accused'
p424
aa(lp425
S'New Delhis Batla House'
p426
aS'151'
p427
aS'Others'
p428
aa(lp429
S'SIMI'
p430
aS'223'
p431
aS'Accused'
p432
aa(lp433
S'Indian Mujahideen'
p434
aS'232'
p435
aS'Others'
p436
aa(lp437
S'SIMI'
p438
aS'239'
p439
aS'Accused'
p440
aa(lp441
S'Jamia Millia'
p442
aS'272'
p443
aS'Others'
p444
aa(lp445
S'Indian Mujahideen'
p446
aS'469'
p447
aS'Others'
p448
aa(lp449
S'SIMI'
p450
aS'620'
p451
aS'Accused'
p452
aa(lp453
S'SIMI'
p454
aS'624'
p455
aS'Accused'
p456
aa(lp457
S'SIMI'
p458
aS'638'
p459
aS'Accused'
p460
aas.
