(dp0
S'LOC'
p1
(lp2
(lp3
S'Bardhaman'
p4
aS'8'
p5
aS'Event'
p6
aa(lp7
S'West Bengal'
p8
aS'10'
p9
aS'Neutral'
p10
aa(lp11
S'West Bengal'
p12
aS'145'
p13
aS'Neutral'
p14
aa(lp15
S'Bardhaman'
p16
aS'155'
p17
aS'Event'
p18
aa(lp19
S'Murshidabad'
p20
aS'157'
p21
aS'Neutral'
p22
aasS'PER'
p23
(lp24
(lp25
S'Ajit Doval'
p26
aS'36'
p27
aS'Comment'
p28
aa(lp29
S'Doval'
p30
aS'61'
p31
aS'Comment'
p32
aa(lp33
S'Prakash Mishra'
p34
aS'121'
p35
aS'Others'
p36
aa(lp37
S'Sharad Kumar'
p38
aS'150'
p39
aS'Others'
p40
aasS'TIM'
p41
(lp42
sS'hot_setting'
p43
S''
p44
sS'DAT'
p45
(lp46
S'October 2:28'
p47
aS'October 24:159'
p48
asS'death'
p49
g44
sS'title'
p50
S'NSA sees large network behind Bardhaman blast'
p51
sS'det_loc'
p52
(lp53
S'India'
p54
aS'West Bengal'
p55
aS'Bardhaman'
p56
aS'Bardhaman'
p57
aS'Bardhaman'
p58
asS'terror_group'
p59
(lp60
S'JAMAATUL MUJAHIDEEN BANGLADESH (JMB)'
p61
asS'content'
p62
VOn the eve of his visit to Bardhaman in West Bengal , where two suspected members of Jamaat-ul Mujahideen Bangladesh -LRB- JMB -RRB- were killed in the October 2 bomb blast , National Security Adviser Ajit Doval said there appeared to be a large network of the banned group that the investigators were working to unravel . . . Mr. Doval told The Hindu that both Indian and Bangladeshi governments were working in close coordination in the fight against terrorism . Both the countries enjoy excellent bilateral relations and we have been working together , he said . . . The NSA said the case had serious implications and required a comprehensive investigation . Special Secretary -LRB- Internal Security -RRB- Prakash Mishra and representatives of the Research and Analysis Wing , the Intelligence Bureau and the National Investigation Agency may accompany the NSA to West Bengal . NIA Director-General Sharad Kumar had earlier visited Bardhaman and Murshidabad on October 24 .
p63
sS'injured'
p64
g44
sS'org_unorg'
p65
S'ORGANISED'
p66
sS'O'
p67
(lp68
g44
asS'unexpl'
p69
(lp70
g44
asS'ocassion'
p71
g44
sS'link'
p72
S'http://www.thehindu.com/todays-paper/nsa-sees-large-network-behind-bardhaman-blast/article6536254.ece'
p73
sS'date'
p74
S'02-10-2014'
p75
sS'target'
p76
g44
sS'hot_spot'
p77
S'Bardhaman'
p78
sS'delivery_mod'
p79
g44
sS'delivery_met'
p80
S'PLANTED'
p81
sS'expl'
p82
(lp83
g44
asS'ORG'
p84
(lp85
(lp86
S'Jamaat-ul Mujahideen Bangladesh'
p87
aS'18'
p88
aS'Accused'
p89
aa(lp90
S'JMB'
p91
aS'22'
p92
aS'Accused'
p93
aa(lp94
S'National Security Adviser'
p95
aS'33'
p96
aS'Others'
p97
aa(lp98
S'The Hindu'
p99
aS'63'
p100
aS'Others'
p101
aa(lp102
S'Bangladeshi governments'
p103
aS'69'
p104
aS'Others'
p105
aa(lp106
S'NSA'
p107
aS'102'
p108
aS'Others'
p109
aa(lp110
S'Intelligence Bureau'
p111
aS'133'
p112
aS'Others'
p113
aa(lp114
S'National Investigation Agency'
p115
aS'137'
p116
aS'Others'
p117
aa(lp118
S'NSA'
p119
aS'143'
p120
aS'Others'
p121
aa(lp122
S'NIA'
p123
aS'148'
p124
aS'Others'
p125
aas.