(dp0
S'LOC'
p1
(lp2
(lp3
S'Kolkata'
p4
aS'1'
p5
aS'Neutral'
p6
aa(lp7
S'Burdwan'
p8
aS'8'
p9
aS'Event'
p10
aa(lp11
S'SSKM'
p12
aS'125'
p13
aS'Event'
p14
aa(lp15
S'Khagragarh'
p16
aS'152'
p17
aS'Event'
p18
aa(lp19
S'Burdwan'
p20
aS'154'
p21
aS'Event'
p22
aasS'PER'
p23
(lp24
(lp25
S'Abdul Hakim'
p26
aS'11'
p27
aS'Accused'
p28
aS'Others'
p29
aa(lp30
S'M Mumtaz Khan'
p31
aS'52'
p32
aS'Others'
p33
aa(lp34
S'Hakim'
p35
aS'56'
p36
aS'Accused'
p37
aa(lp38
S'Hasem Mollah'
p39
aS'96'
p40
aS'Accused'
p41
aa(lp42
S'Rajia Bibi'
p43
aS'99'
p44
aS'Accused'
p45
aa(lp46
S'Alima Bibi'
p47
aS'102'
p48
aS'Accused'
p49
aasS'TIM'
p50
(lp51
sS'hot_setting'
p52
S''
p53
sS'DAT'
p54
(lp55
S'November 14:62'
p56
aS'November 20:111'
p57
aS'October 2:157'
p58
asS'death'
p59
S'2'
p60
sS'title'
p61
S"Burdwan Blast Accused Remanded to 10 Days' NIA Custody"
p62
sS'org_unorg'
p63
S'ORGANISED'
p64
sS'terror_group'
p65
(lp66
g53
asS'content'
p67
VKolkata : A city court today remanded Burdwan blast accused Abdul Hakim to 10 days ' National Investigation Agency or NIA custody after he was produced before it following his release from hospital , where he was undergoing treatment for injuries suffered during the blast.Chief judge , city sessions court , M Mumtaz Khan granted Hakim 's custody to NIA till November 14 , following a prayer by the agency for 15 days ' custody so that it can interrogate him in connection with the blast.The other three arrested in connection with the case - Hasem Mollah , Rajia Bibi and Alima Bibi - were remanded to judicial custody till November 20 on a prayer by the NIA counsel.Hakim was released from the state-run SSKM Hospital today after being treated for splinter injuries.The other three were already in judicial custody.Two persons were killed in the accidental blast in a house at Khagragarh in Burdwan district on October 2 , while hand grenades were being manufactured there , leading to the unearthing of an international terror racket .
p68
sS'injured'
p69
g53
sS'det_loc'
p70
(lp71
S'India'
p72
aS'West Bengal'
p73
ag53
aS'Bardhaman'
p74
aS'Burdwan'
p75
asS'O'
p76
(lp77
S'hospital:33'
p78
aS'city sessions court:48'
p79
aS'Hospital:126'
p80
aS'international terror racket:174'
p81
asS'unexpl'
p82
(lp83
g53
asS'ocassion'
p84
g53
sS'link'
p85
S'http://www.ndtv.com/india-news/burdwan-blast-accused-remanded-to-10-days-nia-custody-689231'
p86
sS'date'
p87
S'05-11-2014'
p88
sS'target'
p89
g53
sS'hot_spot'
p90
S'Burdwan'
p91
sS'delivery_mod'
p92
g53
sS'delivery_met'
p93
S'PLANTED'
p94
sS'expl'
p95
(lp96
g53
asS'ORG'
p97
(lp98
(lp99
S'National Investigation Agency'
p100
aS'17'
p101
aS'Others'
p102
aa(lp103
S'NIA'
p104
aS'21'
p105
aS'Others'
p106
aa(lp107
S'NIA'
p108
aS'60'
p109
aS'Others'
p110
aa(lp111
S'NIA'
p112
aS'118'
p113
aS'Others'
p114
aas.