(dp0
S'LOC'
p1
(lp2
(lp3
S'Srinagar'
p4
aS'4'
p5
aS'Neutral'
p6
aa(lp7
S'Baramullah'
p8
aS'32'
p9
aS'Event'
p10
aa(lp11
S'Srinagar'
p12
aS'50'
p13
aS'Neutral'
p14
aasS'PER'
p15
(lp16
(lp17
S'Mukhtar Ahmad'
p18
aS'1'
p19
aS'Others'
p20
aasS'TIM'
p21
(lp22
sS'hot_setting'
p23
S''
p24
sS'DAT'
p25
(lp26
S'Thursday:33'
p27
aS'Tuesday:89'
p28
asS'death'
p29
S'2'
p30
sS'title'
p31
S'2 killed in skirmish between BSF and militants'
p32
sS'org_unorg'
p33
S'UNORGANISED'
p34
sS'terror_group'
p35
(lp36
g24
asS'content'
p37
VMukhtar Ahmad in Srinagar . . One civilian and a Border Security Force jawan were killed and six others injured in an exchange of fire between militants and security forces in Baramullah Thursday evening . . . The skirmish followed close on the heels of two bomb blasts in Srinagar early in the day that killed 10 people , including a journalist , and left 27 others injured . . . The blasts were the first major terrorist strike after the Hizbul Mujahideen withdrew its cease-fire offer on Tuesday . . . Complete coverage . . Back to top . . Tell us what you think of this report .
p38
sS'injured'
p39
S'6'
p40
sS'det_loc'
p41
(lp42
S'India'
p43
aS'Jammu & Kashmir'
p44
aS'Baramula'
p45
aS'Baramula'
p46
ag24
asS'O'
p47
(lp48
S'Border Security Force jawan:11'
p49
aS'exchange of fire:23'
p50
aS'militants:27'
p51
aS'security forces:29'
p52
aS'bomb blasts:47'
p53
aS'Srinagar:50'
p54
aS'terrorist strike:78'
p55
aS'Hizbul Mujahideen:82'
p56
asS'unexpl'
p57
(lp58
g24
asS'ocassion'
p59
g24
sS'link'
p60
S'http://www.rediff.com/news/2000/aug/10jk.htm'
p61
sS'date'
p62
S'10-08-2000'
p63
sS'target'
p64
g24
sS'hot_spot'
p65
g24
sS'delivery_mod'
p66
g24
sS'delivery_met'
p67
g24
sS'expl'
p68
(lp69
g24
asS'ORG'
p70
(lp71
(lp72
S'Hizbul Mujahideen'
p73
aS'82'
p74
aS'Others'
p75
aas.