(dp0
S'LOC'
p1
(lp2
(lp3
S'Assam'
p4
aS'30'
p5
aS'Neutral'
p6
aa(lp7
S'Goalpara'
p8
aS'32'
p9
aS'Event'
p10
aasS'PER'
p11
(lp12
sS'TIM'
p13
(lp14
sS'hot_setting'
p15
S''
p16
sS'DAT'
p17
(lp18
sS'death'
p19
S'6'
p20
sS'title'
p21
S'Six killed in Assam blast'
p22
sS'org_unorg'
p23
S'ORGANISED'
p24
sS'terror_group'
p25
(lp26
S'UNITED LIBERATION FRONT OF ASSAM (ULFA)'
p27
asS'content'
p28
VSix persons , including a CRPF jawan , were killed and 50 injured in a bomb blast triggered by the banned ULFA targeting a truck carrying security personnel in Assam 's Goalpara district today . . . Police said the IED planted by ULFA militants on National Highway 36 went off when the truck carrying the CRPF jawans and a passenger bus were crossing the area . . . PTI .
p29
sS'injured'
p30
S'50'
p31
sS'det_loc'
p32
(lp33
S'India'
p34
aS'Assam'
p35
aS'Goalpara'
p36
aS'GUWAHATI'
p37
aS'Goalpara'
p38
asS'O'
p39
(lp40
S'CRPF jawan:6'
p41
aS'Police:38'
p42
asS'unexpl'
p43
(lp44
g16
asS'ocassion'
p45
g16
sS'link'
p46
S'http://www.thehindu.com/2003/03/17/stories/2003031704620100.htm'
p47
sS'date'
p48
S'13-03-2003'
p49
sS'target'
p50
g16
sS'hot_spot'
p51
S'Goalpara'
p52
sS'delivery_mod'
p53
g16
sS'delivery_met'
p54
S'PLANTED'
p55
sS'expl'
p56
(lp57
S'IED'
p58
asS'ORG'
p59
(lp60
(lp61
S'ULFA'
p62
aS'22'
p63
aS'Accused'
p64
aa(lp65
S'ULFA'
p66
aS'44'
p67
aS'Accused'
p68
aa(lp69
S'PTI'
p70
aS'70'
p71
aS'Others'
p72
aas.