(dp0
S'LOC'
p1
(lp2
(lp3
S'Burdwan'
p4
aS'4'
p5
aS'Event'
p6
aa(lp7
S'West Bengal'
p8
aS'25'
p9
aS'Neutral'
p10
aa(lp11
S'Burdwan'
p12
aS'28'
p13
aS'Neutral'
p14
aa(lp15
S'Bangladesh'
p16
aS'46'
p17
aS'Assoc Event Location'
p18
aa(lp19
S'Khagragarh'
p20
aS'67'
p21
aS'Event'
p22
aa(lp23
S'Simulia madarsa'
p24
aS'139'
p25
aS'Neutral'
p26
aa(lp27
S'Beldanga'
p28
aS'145'
p29
aS'Accused Location'
p30
aa(lp31
S'Murshidabad'
p32
aS'147'
p33
aS'Accused Location'
p34
aa(lp35
S'Kolkata'
p36
aS'175'
p37
aS'Neutral'
p38
aasS'PER'
p39
(lp40
(lp41
S'Sharad Kumar'
p42
aS'20'
p43
aS'Others'
p44
aa(lp45
S'Sharad Kumar'
p46
aS'106'
p47
aS'Others'
p48
aa(lp49
S'Sanjeev Kumar Singh'
p50
aS'115'
p51
aS'Others'
p52
aa(lp53
S'Vikram Kharate'
p54
aS'122'
p55
aS'Others'
p56
aa(lp57
S'Shakil Gazi'
p58
aS'156'
p59
aS'Accused'
p60
aa(lp61
S'Kumar'
p62
aS'163'
p63
aS'Others'
p64
aasS'TIM'
p65
(lp66
sS'hot_setting'
p67
S''
p68
sS'DAT'
p69
(lp70
S'October 2:38'
p71
asS'death'
p72
S'2'
p73
sS'title'
p74
S'National Investigation Agency Chief Takes Stock of Burdwan Blast Probe'
p75
sS'det_loc'
p76
(lp77
S'India'
p78
aS'West Bengal'
p79
aS'Bardhaman'
p80
aS'Bardhaman'
p81
aS'building in Burdwan'
p82
asS'terror_group'
p83
(lp84
S'JAMIAT-UL-MUJAHIDEEN'
p85
asS'content'
p86
VThe building in Burdwan where an explosion occurred on October 2Kolkata : National Investigation Agency -LRB- NIA -RRB- chief Sharad Kumar arrived today in West Bengal 's Burdwan district to take stock of the investigation into the October 2 blast in which militant outfit Jamaat-ul-Mujahideen Bangladesh is suspected to have been involved.The blast of an improvised explosive device -LRB- IED -RRB- in a rented house in Khagragarh killed two suspected militants and injured another.Six people , including two women , have been arrested for involvement in the blast which is being probed by the NIA following a directive by the union home ministry.NIA Director General Sharad Kumar , accompanied by Inspector General of Police Sanjeev Kumar Singh and Superintendent of Police Vikram Kharate , visited the house in which the blast occurred.He is also slated to visit the Simulia madarsa and then go to Beldanga in Murshidabad district where one of the killed militants , Shakil Gazi , had a rented accommodation.Mr Kumar will later hold a meeting with the NIA probe team in Kolkata . .
p87
sS'injured'
p88
S'6'
p89
sS'org_unorg'
p90
S'ORGANISED'
p91
sS'O'
p92
(lp93
S'ied:60'
p94
aS'rented house:64'
p95
aS'militants:71'
p96
aS'director general:104'
p97
aS'superintendent:119'
p98
aS'house:127'
p99
aS'militants:154'
p100
asS'unexpl'
p101
(lp102
g68
asS'ocassion'
p103
g68
sS'link'
p104
S'http://www.ndtv.com/india-news/national-investigation-agency-chief-takes-stock-of-burdwan-blast-probe-683549'
p105
sS'date'
p106
S'02-10-2014'
p107
sS'target'
p108
g68
sS'hot_spot'
p109
S'building in Burdwan'
p110
sS'delivery_mod'
p111
g68
sS'delivery_met'
p112
S'PLANTED'
p113
sS'expl'
p114
(lp115
S'IED'
p116
asS'ORG'
p117
(lp118
(lp119
S'National Investigation Agency'
p120
aS'13'
p121
aS'Others'
p122
aa(lp123
S'NIA'
p124
aS'17'
p125
aS'Others'
p126
aa(lp127
S'Jamaat-ul-Mujahideen'
p128
aS'45'
p129
aS'Accused'
p130
aa(lp131
S'NIA'
p132
aS'95'
p133
aS'Others'
p134
aa(lp135
S'Police'
p136
aS'121'
p137
aS'Others'
p138
aa(lp139
S'NIA'
p140
aS'171'
p141
aS'Others'
p142
aas.