(dp0
S'LOC'
p1
(lp2
(lp3
S'NEW DELHI'
p4
aS'5'
p5
aS'Neutral'
p6
aa(lp7
S'Gorakhpur'
p8
aS'25'
p9
aS'Event'
p10
aa(lp11
S'Gorakhpur'
p12
aS'100'
p13
aS'Event'
p14
aasS'PER'
p15
(lp16
(lp17
S'K.V. Prasad'
p18
aS'1'
p19
aS'Others'
p20
aa(lp21
S'Madhukar Gupta'
p22
aS'57'
p23
aS'Comment'
p24
aasS'TIM'
p25
(lp26
sS'hot_setting'
p27
S''
p28
sS'DAT'
p29
(lp30
S'Tuesday:37'
p31
asS'death'
p32
g28
sS'title'
p33
S'Centre monitoring situation'
p34
sS'org_unorg'
p35
S'ORGANISED'
p36
sS'terror_group'
p37
(lp38
g28
asS'content'
p39
VK.V. Prasad . . NEW DELHI : The Union Government has asked the Uttar Pradesh Government to take all steps to maintain peace in Gorakhpur , where six persons were injured in serial bomb blasts on Tuesday . . . The Home Ministry was in touch with the State Government . . . Union Home Secretary Madhukar Gupta spoke to the State Director-General of Police and advised that special care be taken to see that peace was maintained in the area and nothing untoward happened in the wake of the blasts , a Ministry spokesman said . . . Gorakhpur had witnessed communal clashes earlier this year .
p40
sS'injured'
p41
S'6'
p42
sS'det_loc'
p43
(lp44
S'India'
p45
aS'Uttar Pradesh'
p46
aS'Gorakpur'
p47
ag28
aS'Gorakhpur'
p48
asS'O'
p49
(lp50
S'Home Ministry:42'
p51
aS'Director-General of Police:63'
p52
asS'unexpl'
p53
(lp54
g28
asS'ocassion'
p55
g28
sS'link'
p56
S'http://www.thehindu.com/todays-paper/centre-monitoring-situation/article1846096.ece'
p57
sS'date'
p58
S'22-05-2007'
p59
sS'target'
p60
g28
sS'hot_spot'
p61
S'Gorakhpur'
p62
sS'delivery_mod'
p63
g28
sS'delivery_met'
p64
g28
sS'expl'
p65
(lp66
g28
asS'ORG'
p67
(lp68
(lp69
S'Union Government'
p70
aS'9'
p71
aS'Others'
p72
aa(lp73
S'Uttar Pradesh Government'
p74
aS'14'
p75
aS'Others'
p76
aa(lp77
S'State Government'
p78
aS'49'
p79
aS'Others'
p80
aas.