(dp0
S'LOC'
p1
(lp2
(lp3
S'Delhi'
p4
aS'4'
p5
aS'Event'
p6
aa(lp7
S'Faridabad'
p8
aS'87'
p9
aS'Accused Location'
p10
aa(lp11
S'Patna'
p12
aS'110'
p13
aS'Accused Location'
p14
aasS'PER'
p15
(lp16
(lp17
S'Dipak Misra'
p18
aS'178'
p19
aS'Others'
p20
aasS'TIM'
p21
(lp22
sS'hot_setting'
p23
S''
p24
sS'DAT'
p25
(lp26
S'Thursday:76'
p27
aS'Wednesday:161'
p28
aS'May 25:226'
p29
asS'death'
p30
S'12'
p31
sS'title'
p32
S"Delhi HC blast: Sleuths look for 'getaway' car owner"
p33
sS'org_unorg'
p34
g24
sS'terror_group'
p35
(lp36
g24
asS'content'
p37
VInvestigators probing the Delhi high court blast have zeroed in on a Patna-based man and have launched a hunt to nab the owner of a car which is suspected to have ferried the perpetrators . . . ` The car 's owner has cheated a few people and they have told the investigators that the face of the car owner resembles the sketch of a suspect released last evening , ' official sources said on Thursday . . . The car has been traced to neighbouring Faridabad , nand efforts were on to trace the owner of the vehicle , they said . . . ` Another man from Patna who was arrested on charges of using a stolen ATM card is being interrogated by the joint team led by National Investigation Agency , ' they said . Twelve people have died and 75 injured in the powerful blast that took place outside gate number 5 of the court on Wednesday . . . Meanwhile , Delhi police and NIA teams met Delhi high court Chief Justice Dipak Misra and discussed with him measures to beef up security in and around court premises and installation of CCTV cameras , metal-detectors and other security gadgets . . . The sources said the government has also decided to hand over to NIA the case relating to the May 25 low-intensity blast outside the Delhi high court . .
p38
sS'injured'
p39
S'75'
p40
sS'det_loc'
p41
(lp42
S'India'
p43
aS'Delhi'
p44
aS'New Delhi'
p45
ag24
aS'Delhi High Court'
p46
asS'O'
p47
(lp48
S'delhi high court blast:4'
p49
aS'launched a hunt:17'
p50
aS'suspected to have ferried the perpetrators:29'
p51
aS'sketch of a suspect:63'
p52
aS'stolen atm card:119'
p53
aS'gate number 5:154'
p54
aS'beef up security:186'
p55
aS'installation of cctv cameras:195'
p56
asS'unexpl'
p57
(lp58
g24
asS'ocassion'
p59
g24
sS'link'
p60
S'http://www.rediff.com/news/report/delhi-hc-blast-sleuths-look-for-getaway-car-owner/20110908.htm'
p61
sS'date'
p62
S'07-09-2011'
p63
sS'target'
p64
S'HIGH COURT'
p65
sS'hot_spot'
p66
g24
sS'delivery_mod'
p67
g24
sS'delivery_met'
p68
g24
sS'expl'
p69
(lp70
g24
asS'ORG'
p71
(lp72
(lp73
S'National Investigation Agency'
p74
aS'131'
p75
aS'Others'
p76
aa(lp77
S'Delhi police'
p78
aS'167'
p79
aS'Others'
p80
aa(lp81
S'NIA'
p82
aS'170'
p83
aS'Others'
p84
aa(lp85
S'Delhi high court'
p86
aS'173'
p87
aS'Victim'
p88
aa(lp89
S'NIA'
p90
aS'220'
p91
aS'Others'
p92
aa(lp93
S'Delhi high court'
p94
aS'232'
p95
aS'Victim'
p96
aas.