(dp0
S'LOC'
p1
(lp2
(lp3
S'Guwahati'
p4
aS'5'
p5
aS'Neutral'
p6
aa(lp7
S'Ganeshguri'
p8
aS'37'
p9
aS'Event'
p10
aa(lp11
S'Dispur'
p12
aS'40'
p13
aS'Neutral'
p14
aa(lp15
S'Solmari'
p16
aS'148'
p17
aS'Event'
p18
aa(lp19
S'lower Assam'
p20
aS'150'
p21
aS'Event'
p22
aa(lp23
S'Goalpara'
p24
aS'153'
p25
aS'Neutral'
p26
aa(lp27
S'upper Assam'
p28
aS'195'
p29
aS'Neutral'
p30
aa(lp31
S'Dibrugarh'
p32
aS'207'
p33
aS'Neutral'
p34
aa(lp35
S'Rupa'
p36
aS'220'
p37
aS'Neutral'
p38
aa(lp39
S'Bomdila'
p40
aS'222'
p41
aS'Neutral'
p42
aa(lp43
S'Arunachal Pradesh'
p44
aS'225'
p45
aS'Neutral'
p46
aa(lp47
S'Dibrugarh'
p48
aS'232'
p49
aS'Neutral'
p50
aa(lp51
S'Laipuli'
p52
aS'240'
p53
aS'Neutral'
p54
aa(lp55
S'Tinsukia'
p56
aS'242'
p57
aS'Neutral'
p58
aasS'PER'
p59
(lp60
(lp61
S'Sushanta Talukdar'
p62
aS'1'
p63
aS'Others'
p64
aa(lp65
S'Rajen Singh'
p66
aS'114'
p67
aS'Comment'
p68
aa(lp69
S'Gill'
p70
aS'216'
p71
aS'Others'
p72
aasS'TIM'
p73
(lp74
S'6.30 p.m.:48'
p75
asS'hot_setting'
p76
S''
p77
sS'DAT'
p78
(lp79
S'Wednesday:42'
p80
asS'death'
p81
g63
sS'title'
p82
S'Bomb explosion near Dispur kills one'
p83
sS'det_loc'
p84
(lp85
S'India'
p86
aS'Assam'
p87
ag77
aS'Guwahati'
p88
aS'Ganeshguri'
p89
asS'terror_group'
p90
(lp91
S'UNITED LIBERATION FRONT OF ASOM '
p92
asS'content'
p93
VSushanta Talukdar . . Guwahati : One person was killed and 17 were injured in a bomb blast suspected to have been triggered by the United Liberation Front of Asom -LRB- ULFA -RRB- in the busy Ganeshguri area near Dispur on Wednesday . The blast occurred around 6.30 p.m. about 100 meters from the Dispur police station . . . Injured admitted to hospital . . The condition of three of the injured is stated to be critical and they have been admitted to the intensive care unit of the Guwahati Medical College and Hospital . A CRPF patrol party , stationed nearby , escaped unharmed . . . Additional Superintendent of Police Rajen Singh told The Hindu that the explosion was suspected to have been triggered by a timer device concealed in a vegetable sack . . . Another blast . . Another blast occurred at Solmari in lower Assam 's Goalpara district earlier in the day immediately after an Army vehicle crossed the area , police sources said . . . There was no report of any casualty . . . The blasts occurred amid intensified counter-insurgency operations by the Army in upper Assam . Sources said a new brigade headquarters was shifted to Dibrugarh . The Mountain Brigade headed by Brig. I.P.S. Gill was shifted from Rupa in Bomdila district of Arunachal Pradesh . It will concentrate on Dibrugarh district while another brigade headquarters based at Laipuli in Tinsukia district will mainly carry out counter-insurgency operations in the district .
p94
sS'injured'
p95
S'17'
p96
sS'org_unorg'
p97
S'ORGANISED'
p98
sS'O'
p99
(lp100
S'crpf:98'
p101
aS'additional superintendent of police:110'
p102
asS'unexpl'
p103
(lp104
g77
asS'ocassion'
p105
g77
sS'link'
p106
S'http://www.thehindu.com/todays-paper/bomb-explosion-near-dispur-kills-one/article1784274.ece'
p107
sS'date'
p108
S'17-01-2007'
p109
sS'target'
p110
g77
sS'hot_spot'
p111
S'Ganeshguri'
p112
sS'delivery_mod'
p113
g77
sS'delivery_met'
p114
S'PLANTED'
p115
sS'expl'
p116
(lp117
g77
asS'ORG'
p118
(lp119
(lp120
S'United Liberation Front of Asom'
p121
aS'26'
p122
aS'Accused'
p123
aa(lp124
S'ULFA'
p125
aS'32'
p126
aS'Accused'
p127
aa(lp128
S'Dispur police'
p129
aS'55'
p130
aS'Others'
p131
aa(lp132
S'Guwahati Medical College and Hospital'
p133
aS'91'
p134
aS'Others'
p135
aa(lp136
S'The Hindu'
p137
aS'117'
p138
aS'Others'
p139
aas.