(dp0
S'LOC'
p1
(lp2
(lp3
S'Godhra'
p4
aS'27'
p5
aS'Event'
p6
aa(lp7
S'Lunawada'
p8
aS'29'
p9
aS'Event'
p10
aa(lp11
S'New Delhi'
p12
aS'49'
p13
aS'Neutral'
p14
aa(lp15
S'Delhi'
p16
aS'50'
p17
aS'Neutral'
p18
aa(lp19
S'Godhra'
p20
aS'52'
p21
aS'Neutral'
p22
aa(lp23
S'Godhra'
p24
aS'161'
p25
aS'Neutral'
p26
aa(lp27
S'Lunawada'
p28
aS'191'
p29
aS'Neutral'
p30
aasS'PER'
p31
(lp32
(lp33
S'Narsimha Kumar'
p34
aS'81'
p35
aS'Comment'
p36
aa(lp37
S'Kumar'
p38
aS'120'
p39
aS'Comment'
p40
aasS'TIM'
p41
(lp42
sS'hot_setting'
p43
S''
p44
sS'DAT'
p45
(lp46
S'Saturday:54'
p47
aS'October 15:163'
p48
asS'death'
p49
g44
sS'title'
p50
S'NSG team inspects Gujarat blast sites'
p51
sS'det_loc'
p52
(lp53
S'India'
p54
aS'Gujarat'
p55
aS'Panchmahals'
p56
aS'Godhra'
p57
aS'Godhra'
p58
asS'terror_group'
p59
(lp60
g44
asS'content'
p61
VA three-member team of explosive experts of the National Security Guards -LRB- NSG -RRB- is investigating the nature and mechanism used in recent bomb explosions at Godhra and Lunawada which left 12 persons injured , police said today . . . The NSG team , which arrived from New Delhi at Godhra on Saturday , is investigating the nature of the explosives used , how the devices were assembled and their mechanism , the Panchmahal Deputy Superintendent of Police , Narsimha Kumar has said . . . The team examined material gathered from the ` spots ' of two bomb explosions while the Forensic Science laboratory and the local bomb squads are also looking into the explosions , Mr. Kumar said . . . There is no breakthrough in the case despite interrogation of more than 60 persons rounded up since the two blasts , he added . . . A crude bomb explosion in a State transport bus at Godhra on October 15 , had left at least four persons , including the conductor injured , while in another explosion the next day , inside a bus terminus at Lunawada , at least eight persons were injured , two of them seriously .
p62
sS'injured'
p63
S'12'
p64
sS'org_unorg'
p65
S'ORGANISED'
p66
sS'O'
p67
(lp68
S'Forensic Science laboratory:104'
p69
aS'crude bomb explosion:152'
p70
asS'unexpl'
p71
(lp72
g44
asS'ocassion'
p73
g44
sS'link'
p74
S'http://www.thehindu.com/2002/10/20/stories/2002102004291000.htm'
p75
sS'date'
p76
S'15-10-2002'
p77
sS'target'
p78
g44
sS'hot_spot'
p79
S'Godhra'
p80
sS'delivery_mod'
p81
g44
sS'delivery_met'
p82
S'PLANTED'
p83
sS'expl'
p84
(lp85
g44
asS'ORG'
p86
(lp87
(lp88
S'National Security Guards'
p89
aS'9'
p90
aS'Others'
p91
aa(lp92
S'NSG'
p93
aS'43'
p94
aS'Others'
p95
aa(lp96
S'Panchmahal Deputy Superintendent of Police'
p97
aS'75'
p98
aS'Others'
p99
aas.