(dp0
S'LOC'
p1
(lp2
(lp3
S'Bardhaman'
p4
aS'8'
p5
aS'Neutral'
p6
aa(lp7
S'West Bengal'
p8
aS'18'
p9
aS'Event'
p10
aa(lp11
S'Bangladeshs'
p12
aS'50'
p13
aS'Neutral'
p14
aa(lp15
S'Bangladesh'
p16
aS'70'
p17
aS'Neutral'
p18
aa(lp19
S'India'
p20
aS'79'
p21
aS'Neutral'
p22
aa(lp23
S'India'
p24
aS'129'
p25
aS'Neutral'
p26
aa(lp27
S'Bardhaman'
p28
aS'190'
p29
aS'Event'
p30
aa(lp31
S'Bangladesh'
p32
aS'196'
p33
aS'Neutral'
p34
aa(lp35
S'Bangladesh'
p36
aS'200'
p37
aS'Neutral'
p38
aa(lp39
S'India'
p40
aS'206'
p41
aS'Neutral'
p42
aasS'PER'
p43
(lp44
(lp45
S'Asaduzzaman Khan Kamal'
p46
aS'75'
p47
aS'Comment'
p48
aa(lp49
S'Shakil Ahmed'
p50
aS'93'
p51
aS'Others'
p52
aa(lp53
S'Sobhan Mandal'
p54
aS'96'
p55
aS'Others'
p56
aa(lp57
S'Hasan Saheb'
p58
aS'140'
p59
aS'Victim'
p60
aa(lp61
S'Rajira Bibi'
p62
aS'150'
p63
aS'Accused'
p64
aa(lp65
S'Rumi'
p66
aS'153'
p67
aS'Accused'
p68
aa(lp69
S'Amina Bibi'
p70
aS'155'
p71
aS'Accused'
p72
aa(lp73
S'Hafez Mollah'
p74
aS'158'
p75
aS'Accused'
p76
aa(lp77
S'Hasan'
p78
aS'161'
p79
aS'Accused'
p80
aa(lp81
S'Syed Akbaruddin'
p82
aS'174'
p83
aS'Others'
p84
aasS'TIM'
p85
(lp86
sS'hot_setting'
p87
S''
p88
sS'DAT'
p89
(lp90
S'October 2:4'
p91
aS'October 2:210'
p92
asS'death'
p93
g88
sS'title'
p94
S'Bangladesh extremists finding shelter in W.B.?'
p95
sS'org_unorg'
p96
g88
sS'terror_group'
p97
(lp98
S'JAMAATUL MUJAHIDEEN BANGLADESH (JMB)'
p99
asS'content'
p100
VInvestigations of the October 2 explosion in Bardhaman have indicated that extremists may be taking shelter in West Bengal . One of those arrested suspected of belonging to the banned Jamaatul Mujahideen Bangladesh allegedly confessed that bombs were being assembled for terror strikes across the border . . . Bangladeshs elite anti-terror Rapid Action Battalion is currently verifying names and identities that have emerged from the Indian probe . Bangladesh Minister for Home Affairs Asaduzzaman Khan Kamal said India had not yet officially provided the nationality of the two persons suspected militants Shakil Ahmed and Sobhan Mandal killed in the blast . We are always against terrorism . We will not allow anyone to use our land to conduct militant or terrorist activities against our country or neighbouring India , he said . Besides the two killed , one Hasan Saheb was injured in the blast ; three persons Rajira Bibi alias Rumi , Amina Bibi and Hafez Mollah alias Hasan have been arrested . According to Indian Ministry of External Affairs spokesperson Syed Akbaruddin , Indian investigating agencies have been asked to collate and tabulate information on the Bardhaman blast to be shared with Bangladesh . . . Bangladesh has offered all support to India in probing the October 2 incident .
p101
sS'injured'
p102
g88
sS'det_loc'
p103
(lp104
S'India'
p105
aS'West Bengal'
p106
aS'Bardhaman'
p107
ag88
ag88
asS'O'
p108
(lp109
S'Investigations:1'
p110
aS'explosion:6'
p111
aS'extremists:12'
p112
aS'shelter:16'
p113
aS'arrested:24'
p114
aS'suspected:25'
p115
aS'banned:30'
p116
aS'confessed:35'
p117
aS'bombs:37'
p118
aS'assembled:40'
p119
aS'terror strikes:42'
p120
aS'border:46'
p121
aS'Bangladeshs elite anti-terror:50'
p122
aS'names and identities:59'
p123
aS'emerged:64'
p124
aS'Indian probe:67'
p125
aS'officially provided:83'
p126
aS'suspected militants:91'
p127
aS'killed:98'
p128
aS'blast:101'
p129
aS'terrorism:107'
p130
aS'militant:120'
p131
aS'terrorist activities:122'
p132
aS'two killed:136'
p133
aS'injured:143'
p134
aS'blast:146'
p135
aS'arrested:164'
p136
aS'collate and tabulate information:184'
p137
aS'Bardhaman blast:190'
p138
aS'support:204'
p139
aS'probing:208'
p140
asS'unexpl'
p141
(lp142
g88
asS'ocassion'
p143
g88
sS'link'
p144
S'http://www.thehindu.com/todays-paper/tp-national/bangladesh-extremists-finding-shelter-in-wb/article6494829.ece'
p145
sS'date'
p146
S'02-10-2014'
p147
sS'target'
p148
S'TOWN'
p149
sS'hot_spot'
p150
g88
sS'delivery_mod'
p151
g88
sS'delivery_met'
p152
S'PLANTED'
p153
sS'expl'
p154
(lp155
g88
asS'ORG'
p156
(lp157
(lp158
S'Jamaatul Mujahideen Bangladesh'
p159
aS'31'
p160
aS'Accused'
p161
aa(lp162
S'Rapid Action Battalion'
p163
aS'53'
p164
aS'Others'
p165
aa(lp166
S'Indian Ministry of External Affairs'
p167
aS'168'
p168
aS'Others'
p169
aa(lp170
S'Indian investigating agencies'
p171
aS'177'
p172
aS'Others'
p173
aas.