(dp0
S'LOC'
p1
(lp2
(lp3
S'Burdwan'
p4
aS'4'
p5
aS'Event'
p6
aa(lp7
S'West Bengal'
p8
aS'16'
p9
aS'Neutral'
p10
aa(lp11
S'Burdwan'
p12
aS'19'
p13
aS'Event'
p14
aa(lp15
S'Bangladesh'
p16
aS'58'
p17
aS'Neutral'
p18
aa(lp19
S'Bengal'
p20
aS'87'
p21
aS'Neutral'
p22
aa(lp23
S'Burdwan'
p24
aS'101'
p25
aS'Event'
p26
aa(lp27
S'Burdwan'
p28
aS'121'
p29
aS'Event'
p30
aa(lp31
S'Murshidabad'
p32
aS'128'
p33
aS'Accused Location'
p34
aa(lp35
S'Beldanga'
p36
aS'131'
p37
aS'Accused Location'
p38
aa(lp39
S'Bengal'
p40
aS'182'
p41
aS'Neutral'
p42
aa(lp43
S'Bangladesh'
p44
aS'215'
p45
aS'Neutral'
p46
aa(lp47
S'Bengal'
p48
aS'324'
p49
aS'Neutral'
p50
aa(lp51
S'Bangladesh'
p52
aS'328'
p53
aS'Neutral'
p54
aa(lp55
S'Dhaka'
p56
aS'330'
p57
aS'Neutral'
p58
aa(lp59
S'Bangladesh'
p60
aS'345'
p61
aS'Neutral'
p62
aa(lp63
S'Bangladesh'
p64
aS'363'
p65
aS'Neutral'
p66
aasS'PER'
p67
(lp68
(lp69
S'Shakil Ahmed aka Shakil Gazi'
p70
aS'89'
p71
aS'Victim'
p72
aa(lp73
S'Subir Bhaumik'
p74
aS'205'
p75
aS'Comment'
p76
aa(lp77
S'Manash Ghosh'
p78
aS'243'
p79
aS'Others'
p80
aa(lp81
S'Shiekh Hasina'
p82
aS'334'
p83
aS'Comment'
p84
aa(lp85
S'Ghosh'
p86
aS'368'
p87
aS'Comment'
p88
aa(lp89
S'Sheikh Hasina'
p90
aS'388'
p91
aS'Others'
p92
aasS'TIM'
p93
(lp94
sS'hot_setting'
p95
S''
p96
sS'DAT'
p97
(lp98
S'October 2:104'
p99
aS'2005:350'
p100
aS'October:405'
p101
aS'October 2:405'
p102
asS'death'
p103
S'1'
p104
sS'title'
p105
S'Experts Suggest Joint Venture Between Indian and Bangladeshi Terror Outfits in Burdwan Blast'
p106
sS'det_loc'
p107
(lp108
S'India'
p109
aS'West Bengal'
p110
aS'Bardhaman'
p111
aS'Bardhaman'
p112
aS'Burdwan'
p113
asS'terror_group'
p114
(lp115
S'INDIAN MUJAHIDEEN'
p116
aS'AL-UMAR-MUJAHIDEEN'
p117
aS'AL JIHAD'
p118
aS'JAMAAT-E-MUJAHIDEEN'
p119
asS'content'
p120
VThe building in Burdwan where an explosion occurred on October 2Kolkata : The blast in West Bengal 's Burdwan district has raised a question in intelligence circles . Is there a joint venture between Bangladeshi and Indian terror outfits ? Most experts say the answer is a resounding yes . If the external outfit is the Jamaat-e-Mujahideen Bangladesh -LRB- JMB -RRB- , what are some of the Indian groups linked to it , groups which have helped JMB set up its network and bomb-making units in Bengal ? Shakil Ahmed aka Shakil Gazi , the man who died in the Burdwan blast on October 2 , is believed to be a Bangladeshi . Before setting up the bomb-making unit in Burdwan , he used to live in Murshidabad district 's Beldanga with his wife and child , where he ran a burqa-making factory.Interrogation of his widow , who was arrested from the blast site , and intelligence inputs suggest he was a member of the JMB which entered into a joint venture with Indian terror groups to set up shop in Bengal . `` This was definitely a joint venture between at least two groups of terrorists , if not three , '' says Subir Bhaumik , a journalist who has been a long-time Bangladesh watcher . `` The JMB was definitely involved , from all evidence , This was actually something that was happening over a period of time . `` Manash Ghosh of the Statesman newspaper agreed as well . `` No doubt about it . It is absolutely sure . I hope our investigating agencies are able to unearth the nexus . On the ground , we can see it happening , '' said Mr Ghosh.Names of many Indian terror groups have surfaced in connection with the blasts , including the Indian Mujahideen , Al Jihad , Al Ummah and even SIMI.But why would JMB want to make bombs in Bengal for export to Bangladesh ? Dhaka watchers suggest that Shiekh Hasina made it impossible for the JMB to function in Bangladesh after is ban in 2005 . `` It was getting too hot for Jamaat to operate in Bangladesh , '' said Mr Ghosh . `` Many of their cadres were getting killed in crossfire , in encounters with rapid action battalions of Sheikh Hasina government . `` A probe by the National Investigation Agency is currently underway into the October 2 blast . .
p121
sS'injured'
p122
g96
sS'org_unorg'
p123
S'ORGANISED'
p124
sS'O'
p125
(lp126
S'Bangladeshi and Indian:35'
p127
aS'Indian:68'
p128
aS'Bangladeshi:112'
p129
aS'bomb-making:118'
p130
aS'Indian terror:174'
p131
aS'terrorists:197'
p132
aS'journalist:209'
p133
asS'unexpl'
p134
(lp135
g96
asS'ocassion'
p136
g96
sS'link'
p137
S'http://www.ndtv.com/india-news/experts-suggest-joint-venture-between-indian-and-bangladeshi-terror-outfits-in-burdwan-blast-683391'
p138
sS'date'
p139
S'02-10-2014'
p140
sS'target'
p141
g96
sS'hot_spot'
p142
S'Burdwan'
p143
sS'delivery_mod'
p144
g96
sS'delivery_met'
p145
S'PLANTED'
p146
sS'expl'
p147
(lp148
g96
asS'ORG'
p149
(lp150
(lp151
S'Jamaat-e-Mujahideen'
p152
aS'57'
p153
aS'Accused'
p154
aa(lp155
S'JMB'
p156
aS'60'
p157
aS'Accused'
p158
aa(lp159
S'JMB'
p160
aS'78'
p161
aS'Accused'
p162
aa(lp163
S'JMB'
p164
aS'166'
p165
aS'Accused'
p166
aa(lp167
S'JMB'
p168
aS'220'
p169
aS'Accused'
p170
aa(lp171
S'Indian Mujahideen'
p172
aS'305'
p173
aS'Accused'
p174
aa(lp175
S'Al Jihad'
p176
aS'308'
p177
aS'Accused'
p178
aa(lp179
S'Al Ummah'
p180
aS'311'
p181
aS'Accused'
p182
aS'Others'
p183
aa(lp184
S'JMB'
p185
aS'318'
p186
aS'Accused'
p187
aa(lp188
S'JMB'
p189
aS'341'
p190
aS'Accused'
p191
aa(lp192
S'Jamaat'
p193
aS'359'
p194
aS'Others'
p195
aa(lp196
S'government'
p197
aS'390'
p198
aS'Others'
p199
aa(lp200
S'National Investigation Agency'
p201
aS'397'
p202
aS'Others'
p203
aas.