(dp0
S'LOC'
p1
(lp2
(lp3
S'TINSUKIA'
p4
aS'1'
p5
aS'Event'
p6
aa(lp7
S'Assam'
p8
aS'19'
p9
aS'Event'
p10
aa(lp11
S'Tinsukia'
p12
aS'21'
p13
aS'Event'
p14
aa(lp15
S'Chamber road'
p16
aS'44'
p17
aS'Event'
p18
aa(lp19
S'Tinsukia'
p20
aS'51'
p21
aS'Event'
p22
aa(lp23
S'Dibrugarh'
p24
aS'120'
p25
aS'Neutral'
p26
aa(lp27
S'Guwahati'
p28
aS'143'
p29
aS'Assoc Event Location'
p30
aa(lp31
S'Guwahati'
p32
aS'215'
p33
aS'Assoc Event Location'
p34
aasS'PER'
p35
(lp36
(lp37
S'P C Ram'
p38
aS'153'
p39
aS'Victim'
p40
aa(lp41
S'Ram'
p42
aS'188'
p43
aS'Victim'
p44
aasS'TIM'
p45
(lp46
S'7:30 am : 35'
p47
asS'hot_setting'
p48
S''
p49
sS'DAT'
p50
(lp51
S'Friday : 24'
p52
aS'April 17 : 161'
p53
asS'death'
p54
g49
sS'title'
p55
S'4 injured in Assam car bomb blast'
p56
sS'org_unorg'
p57
g49
sS'terror_group'
p58
(lp59
S'UNITED LIBERATION FRONT OF ASSAM (ULFA)'
p60
asS'content'
p61
VTINSUKIA : Four persons were wounded grievously in a car bomb explosion by the proscribed ULFA in upper Assam 's Tinsukia district on Friday . The time-device fitted inside a vehicle exploded at around 7:30 am near the foodgrains wholesale market on busy Chamber road , the commercial hub of Tinsukia , police said . Eye witnesses said the vehicle was driven by a man to the area some time before the explosion occurred . The casualty would have been much higher had the bomb exploded two hours later when the market opened for business , the police said adding the area has been cordoned off . The injured have been shifted to nearby Assam Medical College hospital in Dibrugarh district , police said . This blast and another one inside the Food Corporation of India -LRB- FCI -RRB- gowdown premises in Guwahati yesterday could be linked to FCI NE Executive director P C Ram 's abduction by ULFA on April 17 , the police said . Essential food items from FCI are brought to Chamber Road market . ULFA has demanded Rs 21 crore for releasing Ram but has freed his driver . A car bomb was first used by the outfit to trigger an explosion in front of a police station in Guwahati early this year but none was injured in that incident .
p62
sS'injured'
p63
S'4'
p64
sS'det_loc'
p65
(lp66
S'India'
p67
aS'Assam'
p68
aS'Tinsukia'
p69
ag49
ag49
asS'O'
p70
(lp71
S'Four persons:3'
p72
aS'wounded:6'
p73
aS'car bomb explosion:10'
p74
aS'time-device:27'
p75
aS'inside:29'
p76
aS'vehicle:31'
p77
aS'foodgrains wholesale market:39'
p78
aS'commercial hub:48'
p79
aS'Eye witnesses:56'
p80
aS'vehicle:60'
p81
aS'driven:62'
p82
aS'a man:64'
p83
aS'casualty:77'
p84
aS'much higher:81'
p85
aS'bomb exploded:85'
p86
aS'two hours later:87'
p87
aS'This blast:126'
p88
aS'another one:129'
p89
aS'linked:147'
p90
aS'NE Executive director:150'
p91
aS'abduction:157'
p92
aS'demanded:182'
p93
aS'Rs 21 crore:183'
p94
aS'freed:191'
p95
aS'driver:193'
p96
aS'car bomb:196'
p97
aS'first:199'
p98
aS'explosion:207'
p99
aS'front of a police station:209'
p100
asS'unexpl'
p101
(lp102
S'TIMER'
p103
asS'ocassion'
p104
g49
sS'link'
p105
S'http://timesofindia.indiatimes.com/india/4-injured-in-Assam-car-bomb-blast/articleshow/2002380.cms'
p106
sS'date'
p107
S'04-05-2007'
p108
sS'target'
p109
S'MARKET PLACE'
p110
sS'hot_spot'
p111
g49
sS'delivery_mod'
p112
S'CAR'
p113
sS'delivery_met'
p114
S'PLANTED'
p115
sS'expl'
p116
(lp117
g49
asS'ORG'
p118
(lp119
(lp120
S'ULFA'
p121
aS'16'
p122
aS'Accused'
p123
aa(lp124
S'Assam Medical College hospital'
p125
aS'115'
p126
aS'Others'
p127
aa(lp128
S'Food Corporation of India'
p129
aS'133'
p130
aS'Assoc Victim'
p131
aa(lp132
S'FCI'
p133
aS'138'
p134
aS'Assoc Victim'
p135
aa(lp136
S'FCI'
p137
aS'149'
p138
aS'Assoc Victim'
p139
aa(lp140
S'ULFA'
p141
aS'159'
p142
aS'Accused'
p143
aa(lp144
S'ULFA'
p145
aS'180'
p146
aS'Accused'
p147
aas.