(dp0
S'LOC'
p1
(lp2
(lp3
S'Assam'
p4
aS'8'
p5
aS'Neutral'
p6
aa(lp7
S'Barpeta'
p8
aS'62'
p9
aS'Victim Location'
p10
aa(lp11
S'Assam'
p12
aS'65'
p13
aS'Victim Location'
p14
aasS'PER'
p15
(lp16
(lp17
S'Devan Soram'
p18
aS'36'
p19
aS'Others'
p20
aa(lp21
S'Kurab Boro'
p22
aS'56'
p23
aS'Victim'
p24
aa(lp25
S'Arun Boro'
p26
aS'59'
p27
aS'Victim'
p28
aa(lp29
S'Modhu Soibam'
p30
aS'70'
p31
aS'Victim'
p32
aasS'TIM'
p33
(lp34
sS'hot_setting'
p35
S''
p36
sS'DAT'
p37
(lp38
S'Thursday evening:26'
p39
asS'death'
p40
g36
sS'title'
p41
S'3 injured seriously in bomb blast'
p42
sS'org_unorg'
p43
g36
sS'terror_group'
p44
(lp45
g36
asS'content'
p46
VThree labourers , including two migrants from Assam , were seriously wounded when a bomb was detonated in the storeroom where they were working on Thursday evening . They were employed by a trader , Devan Soram , who deals in scrap . . . Police sources said when the remote-controlled bomb was detonated , Kurab Boro and Arun Boro from Barpeta district of Assam and a local labourer Modhu Soibam were seriously wounded by the shrapnel . They are battling for their lives in hospital . No underground organisation has claimed responsibility for the blast . Police have registered a case .
p47
sS'injured'
p48
S'3'
p49
sS'det_loc'
p50
(lp51
S'India'
p52
aS'Assam'
p53
aS'Barpeta'
p54
ag36
ag36
asS'O'
p55
(lp56
S'Three labourers:1'
p57
aS'two migrants:5'
p58
aS'seriously wounded:11'
p59
aS'bomb:15'
p60
aS'detonated:17'
p61
aS'storeroom:20'
p62
aS'employed:31'
p63
aS'trader:34'
p64
aS'deals:40'
p65
aS'scrap:42'
p66
aS'remote-controlled bomb:51'
p67
aS'detonated:54'
p68
aS'local labourer:68'
p69
aS'seriously wounded:73'
p70
aS'shrapnel:77'
p71
aS'battling:81'
p72
aS'hospital:86'
p73
aS'blast:96'
p74
aS'registered:100'
p75
asS'unexpl'
p76
(lp77
S'SHRAPNEL'
p78
asS'ocassion'
p79
g36
sS'link'
p80
S'http://www.thehindu.com/todays-paper/tp-national/tp-otherstates/3-injured-seriously-in-bomb-blast/article6202901.ece'
p81
sS'date'
p82
S'10-07-2014'
p83
sS'target'
p84
g36
sS'hot_spot'
p85
g36
sS'delivery_mod'
p86
S'REMOTE CONTROL DEVICE'
p87
sS'delivery_met'
p88
S'STORED'
p89
sS'expl'
p90
(lp91
g36
asS'ORG'
p92
(lp93
s.