(dp0
S'LOC'
p1
(lp2
(lp3
S'Ludhiana'
p4
aS'3'
p5
aS'Event'
p6
aa(lp7
S'Ludhiana'
p8
aS'139'
p9
aS'Event'
p10
aa(lp11
S'Punjab'
p12
aS'171'
p13
aS'Event'
p14
aa(lp15
S'Chandigarh'
p16
aS'417'
p17
aS'Neutral'
p18
aa(lp19
S'Punjab'
p20
aS'438'
p21
aS'Event'
p22
aa(lp23
S'Punjab'
p24
aS'520'
p25
aS'Event'
p26
aa(lp27
S'Chandigarh'
p28
aS'672'
p29
aS'Neutral'
p30
aa(lp31
S'Punjab'
p32
aS'718'
p33
aS'Event'
p34
aa(lp35
S'Punjab'
p36
aS'729'
p37
aS'Event'
p38
aasS'PER'
p39
(lp40
(lp41
S'Ajit Doval'
p42
aS'86'
p43
aS'Comment'
p44
aa(lp45
S'Doval'
p46
aS'131'
p47
aS'Comment'
p48
aa(lp49
S'Ishwar Singh'
p50
aS'142'
p51
aS'Comment'
p52
aa(lp53
S'N P S Aulakh'
p54
aS'177'
p55
aS'Comment'
p56
aa(lp57
S'Ishwar Singh'
p58
aS'250'
p59
aS'Comment'
p60
aa(lp61
S'Rajesh Paul'
p62
aS'348'
p63
aS'Comment'
p64
aa(lp65
S'Aulakh'
p66
aS'406'
p67
aS'Comment'
p68
aa(lp69
S'Ishwar Singh'
p70
aS'475'
p71
aS'Comment'
p72
aa(lp73
S'Parkash Singh Badal'
p74
aS'523'
p75
aS'Comment'
p76
aa(lp77
S'Badal'
p78
aS'551'
p79
aS'Comment'
p80
aa(lp81
S'Madhukar Gupta'
p82
aS'725'
p83
aS'Comment'
p84
aa(lp85
S'Shivraj Patil'
p86
aS'791'
p87
aS'Others'
p88
aasS'TIM'
p89
(lp90
S'8.40 pm:198'
p91
aS'8.40 pm .:198'
p92
aS'7 pm:206'
p93
asS'hot_setting'
p94
S''
p95
sS'DAT'
p96
(lp97
S'Sunday:5'
p98
aS'Sunday:50'
p99
asS'death'
p100
S'6'
p101
sS'title'
p102
S'Blast in Ludhiana cinema hall: 6 dead, 30 hurt'
p103
sS'det_loc'
p104
(lp105
S'India'
p106
aS'Punjab'
p107
aS'Ludhiana'
p108
ag95
ag95
asS'terror_group'
p109
(lp110
g95
asS'content'
p111
VTerror struck Ludhiana on Sunday when six people were killed and 30 injured in a blast in one of the three cinema halls in a multiplex located in a busy shopping area of this industrial town in Punjab.The multiplex has a capacity for 1,050 persons and being a festive Sunday evening , it was full . Police said the blast may have been caused by a low intensity explosive.The Intelligence Bureau has not ruled out a terrorist link to the blast . Former IB director Ajit Doval even hinted at a possible ISI linkage . Some sleeper cells of terrorists have been looking for such an opportunity . The IB has to study this development , as such an attack can not be carried out without months of planning , Doval told rediff.com . . . However , Ludhiana Range DID Ishwar Singh confirmed that the blast had been carried out by a terrorist group . No outfit has yet claimed responsibility . . . Confirming the death toll , Punjab 's Director General of Police N P S Aulakh said the involvement of the Babbar Khalsa could not be ruled out . The blast occurred around 8.40 pm . The evening show commenced at 7 pm . . . Four died on the spot while two died in hospital , police said . Half of the injured were in a critical condition and some of them underwent surgeries at the nearby Christian Medical College hospital . . . Ishwar Singh said the bomb was planted between the second and third seat in the third row of second block on the right side of the lower stall in the blast affected hall . Maximum damage was done to the ` lower class ' area of the hall , which is usually frequented by migrant labourers . . . The intensity of the blast was such that it created a big crater in the hall and window panes were smashed . A Bhojpuri film Janam Janam Ka Saath was being screened in the hall . . . Dr Rajesh Paul , a CMC doctor , said the victims brought to the hospital had injuries in upper and lower limbs . ` They are basically blast injuries , ' he said , adding that ` the number of casualties may go up . ' Eyewitnesses said some of the deceased had their limbs dismembered . . . Aulakh said a forensic team had already reached the spot from Chandigarh and was lifting samples , adding the nature of the explosives would be known later on . He said that Punjab had been already put on maximum alert in view of the current festive season . . . Police said that investigations were on to know the nature of explosives used in the attack . . . Ishwar Singh said that those who died in the incident were all males and added that only one blast had occurred and did not agree with some eyewitness accounts that two blasts had rocked the cinema hall . . . Strongly condemning the incident , Punjab Chief Minister Parkash Singh Badal said that fundamental and anti-national forces inimical to peace and communal harmony will not be allowed to succeed in their nefarious designs . . . Badal said that law and order in the state will be maintained at all costs and appealed to people to remain calm . He also directed the civil and police officials in the state to remain vigilant and added that government will provide free medical treatment to the injured and will give adequate compensation to the next of those who had died in the incident . . . The blast occurred when the film being screened had resumed after an interval , eyewitness accounts said , adding a song was being screened when the hall was rocked by the blast . . . Immediately after the blast , panic-stricken viewers rushed out of the theatre , officials said . . . Chandigarh was put on high alertfollowing the blast . . . A police spokesmansaid security around the inter-state bus terminus , railway station and other important buildings and installations had been beefed up . . . Meanwhile , the Centreis closely monitoring the security situation in Punjab . . . Union Home secretary Madhukar Gupta spoke to Punjab 's chief secretary and Director General of Police to have first hand information about the incident , official sources said . . . The Centre has assured all assistance to the state government and was also rushing bomb experts from elite National Security Guards . The Union Home secretary , after talking to Punjab chief secretary , apprised the home minister Shivraj Patil about the situation.Additional Reportage : PTI .
p112
sS'injured'
p113
S'30'
p114
sS'org_unorg'
p115
g95
sS'O'
p116
(lp117
S'terror struck ludhiana:1'
p118
aS'terrorist link to the blast:77'
p119
aS'sleeper cells of terrorists have been looking for such an opportunity:97'
p120
aS'no outfit has yet claimed responsibility:157'
p121
aS"lower class ' area:291"
p122
aS'usually frequented by migrant labourers:301'
p123
aS'Janam Janam Ka Saath:334'
p124
aS'injuries in upper and lower limbs:363'
p125
aS'blast injuries:374'
p126
aS'incident were all males:484'
p127
aS'adequate compensation to the next of those who had died:603'
p128
aS'blast occurred when the film being screened:620'
p129
aS'centreis closely monitoring the security situation:711'
p130
aS'rushing bomb experts from elite national security guards:766'
p131
asS'unexpl'
p132
(lp133
g95
asS'ocassion'
p134
S'RELIGIOUS FESTIVAL'
p135
sS'link'
p136
S'http://www.rediff.com/news/2007/oct/14punjab1.htm'
p137
sS'date'
p138
S'14-10-2007'
p139
sS'target'
p140
S'CINEMA HALL'
p141
sS'hot_spot'
p142
g95
sS'delivery_mod'
p143
g95
sS'delivery_met'
p144
S'PLANTED'
p145
sS'expl'
p146
(lp147
g95
asS'ORG'
p148
(lp149
(lp150
S'Intelligence Bureau'
p151
aS'70'
p152
aS'Others'
p153
aa(lp154
S'IB'
p155
aS'84'
p156
aS'Others'
p157
aa(lp158
S'ISI'
p159
aS'93'
p160
aS'Accused'
p161
aa(lp162
S'IB'
p163
aS'110'
p164
aS'Others'
p165
aa(lp166
S'rediff.com'
p167
aS'133'
p168
aS'Others'
p169
aa(lp170
S'Babbar Khalsa'
p171
aS'186'
p172
aS'Accused'
p173
aa(lp174
S'Christian Medical College hospital'
p175
aS'243'
p176
aS'Others'
p177
aa(lp178
S'CMC'
p179
aS'352'
p180
aS'Others'
p181
aa(lp182
S'National Security Guards'
p183
aS'771'
p184
aS'Others'
p185
aas.