(dp0
S'LOC'
p1
(lp2
(lp3
S'Bardhaman'
p4
aS'12'
p5
aS'Event'
p6
aa(lp7
S'West Bengal'
p8
aS'33'
p9
aS'Event'
p10
aa(lp11
S'West Bengal'
p12
aS'79'
p13
aS'Event'
p14
aasS'PER'
p15
(lp16
(lp17
S'Ajit Doval'
p18
aS'30'
p19
aS'Others'
p20
aa(lp21
S'Mamata Banerjee'
p22
aS'37'
p23
aS'Others'
p24
aa(lp25
S'Prakash Mishra'
p26
aS'61'
p27
aS'Others'
p28
aa(lp29
S'Banerjee'
p30
aS'117'
p31
aS'Comment'
p32
aa(lp33
S'Mishra'
p34
aS'166'
p35
aS'Comment'
p36
aa(lp37
S'Mishra'
p38
aS'173'
p39
aS'Comment'
p40
aasS'TIM'
p41
(lp42
S'two-hour : 51'
p43
asS'hot_setting'
p44
S''
p45
sS'DAT'
p46
(lp47
S'Monday:45'
p48
asS'death'
p49
g45
sS'title'
p50
S'Centre, State are together on Bardhaman blast probe'
p51
sS'det_loc'
p52
(lp53
S'India'
p54
aS'West Bengal'
p55
aS'Bardhaman'
p56
aS'kolkata'
p57
ag45
asS'terror_group'
p58
(lp59
g45
asS'content'
p60
V: Stressing that the Centre has taken the accidental blast at Bardhaman very seriously , senior officials of the Union Home Ministry including National Security Adviser -LRB- NSA -RRB- Ajit Doval met West Bengal Chief Minister Mamata Banerjee at the State Secretariat here on Monday . . . After a two-hour meeting with the Chief Minister and senior officials , Prakash Mishra , Special Secretary -LRB- Internal Security -RRB- at the Union Home Ministry said the Centre and West Bengal are together in fighting terror . . . The visit of senior Home Ministry officials is crucial as the Trinamool Congress had initially opposed the probe by National Investigation Agency -LRB- NIA -RRB- . Recently Ms. Banerjee had expressed displeasure that the Centre had not taken her into confidence while ordering the probe . . . I am very happy to say that the Chief Minister has given an assurance that the Centre and State will work together in unearthing the entire case , Mr. Mishra told journalists . . . Mr. Mishra also added that the Home Ministry will work on improving the capacity of State police and central forces engaged in this operation so that the investigation reaches its logical end .
p61
sS'injured'
p62
g45
sS'org_unorg'
p63
g45
sS'O'
p64
(lp65
S'Stressing:2'
p66
aS'Centre:5'
p67
aS'accidental blast:9'
p68
aS'seriously:14'
p69
aS'Union Home Ministry:20'
p70
aS'National Security Adviser:24'
p71
aS'NSA:28'
p72
aS'meeting:52'
p73
aS'Chief Minister:55'
p74
aS'Special Secretary:64'
p75
aS'Internal Security:67'
p76
aS'Union Home Ministry:72'
p77
aS'Centre:77'
p78
aS'fighting terror:84'
p79
aS'crucial:97'
p80
aS'Trinamool Congress:100'
p81
aS'opposed:104'
p82
aS'expressed:119'
p83
aS'displeasure:120'
p84
aS'Centre:123'
p85
aS'confidence:129'
p86
aS'probe:133'
p87
aS'assurance:150'
p88
aS'Centre:153'
p89
aS'State:155'
p90
aS'unearthing:160'
p91
aS'entire case:162'
p92
aS'State police:187'
p93
aS'central forces:190'
p94
aS'operation:195'
p95
aS'investigation:199'
p96
aS'logical end:202'
p97
asS'unexpl'
p98
(lp99
g45
asS'ocassion'
p100
g45
sS'link'
p101
S'http://www.thehindu.com/todays-paper/centre-state-are-together-on-bardhaman-blast-probe/article6539665.ece'
p102
sS'date'
p103
S'27-10-2014'
p104
sS'target'
p105
g45
sS'hot_spot'
p106
g45
sS'delivery_mod'
p107
g45
sS'delivery_met'
p108
S'ACCIDENTAL'
p109
sS'expl'
p110
(lp111
g45
asS'ORG'
p112
(lp113
(lp114
S'State Secretariat'
p115
aS'41'
p116
aS'Others'
p117
aa(lp118
S'National Investigation Agency'
p119
aS'108'
p120
aS'Others'
p121
aa(lp122
S'NIA'
p123
aS'112'
p124
aS'Others'
p125
aas.