(dp0
S'LOC'
p1
(lp2
(lp3
S'Mumbai'
p4
aS'2'
p5
aS'Event'
p6
aa(lp7
S'India'
p8
aS'32'
p9
aS'Neutral'
p10
aa(lp11
S'Pakistan'
p12
aS'34'
p13
aS'Neutral'
p14
aa(lp15
S'US'
p16
aS'68'
p17
aS'Neutral'
p18
aa(lp19
S'US'
p20
aS'99'
p21
aS'Neutral'
p22
aa(lp23
S'Moscow'
p24
aS'124'
p25
aS'Neutral'
p26
aa(lp27
S'UN'
p28
aS'167'
p29
aS'Neutral'
p30
aa(lp31
S'India'
p32
aS'274'
p33
aS'Neutral'
p34
aa(lp35
S'Mumbai'
p36
aS'279'
p37
aS'Neutral'
p38
aa(lp39
S'Pakistan'
p40
aS'326'
p41
aS'Neutral'
p42
aa(lp43
S'Pakistan'
p44
aS'340'
p45
aS'Neutral'
p46
aa(lp47
S'Pakistan'
p48
aS'354'
p49
aS'Neutral'
p50
aa(lp51
S'India'
p52
aS'358'
p53
aS'Neutral'
p54
aa(lp55
S'India'
p56
aS'370'
p57
aS'Neutral'
p58
aa(lp59
S'Kashmiri'
p60
aS'403'
p61
aS'Neutral'
p62
aa(lp63
S'Pakistan'
p64
aS'426'
p65
aS'Neutral'
p66
aa(lp67
S'India'
p68
aS'438'
p69
aS'Neutral'
p70
aa(lp71
S'India'
p72
aS'497'
p73
aS'Neutral'
p74
aa(lp75
S'Pakistan'
p76
aS'499'
p77
aS'Neutral'
p78
aasS'PER'
p79
(lp80
(lp81
S'George Bush'
p82
aS'38'
p83
aS'Others'
p84
aa(lp85
S'Barack Obama'
p86
aS'62'
p87
aS'Others'
p88
aa(lp89
S'Condoleezza Rice'
p90
aS'73'
p91
aS'Comment'
p92
aa(lp93
S'Dmitry Medvedev'
p94
aS'126'
p95
aS'Comment'
p96
aa(lp97
S'Ban Ki-moon'
p98
aS'169'
p99
aS'Others'
p100
aa(lp101
S'Gordon Brown'
p102
aS'178'
p103
aS'Comment'
p104
aa(lp105
S'Manhoman'
p106
aS'215'
p107
aS'Others'
p108
aa(lp109
S'David Miliband'
p110
aS'234'
p111
aS'Comment'
p112
aa(lp113
S'Singh'
p114
aS'297'
p115
aS'Others'
p116
aa(lp117
S'Shah Mehmood Qureshi'
p118
aS'431'
p119
aS'Others'
p120
aa(lp121
S'Miliband'
p122
aS'460'
p123
aS'Others'
p124
aa(lp125
S'Singh'
p126
aS'464'
p127
aS'Comment'
p128
aa(lp129
S'Singh'
p130
aS'479'
p131
aasS'TIM'
p132
(lp133
sS'hot_setting'
p134
S''
p135
sS'DAT'
p136
(lp137
S'1971 : 361'
p138
aS'December 2001 : 374'
p139
aS'Wednesday : 440'
p140
asS'death'
p141
g135
sS'title'
p142
S'Attacks draw worldwide condemnation'
p143
sS'det_loc'
p144
(lp145
S'India'
p146
aS'Maharashtra'
p147
aS'Mumbai-City'
p148
aS'Mumbai'
p149
aS'Mumbai'
p150
asS'terror_group'
p151
(lp152
g135
asS'content'
p153
VThe Mumbai attacks drew widespread international condemnation as cowardly acts of terrorism . But beneath the stock responses was an undercurrent of anxiety that the atrocity could aggravate latent tensions between India and Pakistan . . . George Bush offered his condolences to the Indian people as the White House convened a meeting of top intelligence and counter-terrorism officials . President-elect Barack Obama was briefed by the US secretary of state , Condoleezza Rice , and said in a statement : `` These coordinated attacks on innocent civilians demonstrate the grave and urgent threat of terrorism . The US must continue to strengthen partnerships with India and nations around the world to root out and destroy terrorist networks . '' . . In Moscow President Dmitry Medvedev said : `` We are concerned about the loss of life and consider acts of terrorism of this type are harmful to the whole international order and a challenge to humanity . '' . . The Pope and the UN secretary-general Ban Ki-moon both deplored the violence . . . Gordon Brown said : `` I think I speak for the whole world - shocked and outraged at the tragic destruction of innocent lives . I have already sent my sympathy and support to prime minister [ Manhoman ) Singh . We will do everything we can to help the Indian government . '' . . David Miliband , the foreign secretary , condemned `` a callous inhuman and indiscriminate attack on people of all races and all religions '' . He said : `` This is an attack on all of us because democracy in India is vibrant and because Mumbai is one of the world 's most diverse cities . '' . . Comments by prime minister Singh blaming the attacks on a terrorist group with `` external linkages '' rang alarm bells that echoed the dark days of India-Pakistan relations when India routinely saw a Pakistan hand in militant attacks , blaming groups it claimed were set up by Pakistan 's spy agency , the Inter-Services Intelligence , or ISI , to avenge Pakistan 's defeat by India in the 1971 war . . . A terrorist attack on India 's parliament in December 2001 triggered a mass mobilisation along the two countries ' borders and brought them close to a fourth war . That incident was blamed by India on Pakistan-based Kashmiri militant groups . . . Pakistan 's government strongly condemned the violence and expressed deep sorrow over the loss of life . Pakistan 's foreign minister , Shah Mehmood Qureshi , who arrived in India on Wednesday , condemned the attacks but warned against jumping to any conclusions about the background to them . . . Miliband paid tribute to Singh , saying : `` I believe that the comments and leadership of prime minister Singh show that he is a man also of great statesmanship and great determination to build links between India and Pakistan . '' . . .
p154
sS'injured'
p155
g135
sS'org_unorg'
p156
S'ORGANISED'
p157
sS'O'
p158
(lp159
S'White House:49'
p160
asS'unexpl'
p161
(lp162
g135
asS'ocassion'
p163
g135
sS'link'
p164
S'http://www.theguardian.com/world/2008/nov/28/mumbai-terror-attacks-international-response'
p165
sS'date'
p166
S'26-11-2008'
p167
sS'target'
p168
g135
sS'hot_spot'
p169
S'Mumbai'
p170
sS'delivery_mod'
p171
g135
sS'delivery_met'
p172
S'PLANTED'
p173
sS'expl'
p174
(lp175
g135
asS'ORG'
p176
(lp177
(lp178
S'Indian government'
p179
aS'228'
p180
aS'Others'
p181
aa(lp182
S'Inter-Services Intelligence'
p183
aS'346'
p184
aS'Others'
p185
aa(lp186
S'ISI'
p187
aS'350'
p188
aS'Others'
p189
aa(lp190
S"Pakistan 's government"
p191
aS'409'
p192
aS'Others'
p193
aas.