(dp0
S'LOC'
p1
(lp2
(lp3
S'Guwahati'
p4
aS'5'
p5
aS'Neutral'
p6
aa(lp7
S'Bamunimaidan'
p8
aS'34'
p9
aS'Event'
p10
aa(lp11
S'Railway Colony market'
p12
aS'57'
p13
aS'Event'
p14
aa(lp15
S'Bamunimaidan'
p16
aS'61'
p17
aS'Event'
p18
aa(lp19
S'Begusarai'
p20
aS'200'
p21
aS'Accused Location'
p22
aa(lp23
S'Guwahati'
p24
aS'228'
p25
aS'Neutral'
p26
aasS'PER'
p27
(lp28
(lp29
S'Sushanta Talukdar'
p30
aS'1'
p31
aS'Others'
p32
aa(lp33
S'Rajen Singh'
p34
aS'131'
p35
aS'Comment'
p36
aa(lp37
S'Ramlal Das'
p38
aS'191'
p39
aS'Accused'
p40
aa(lp41
S'R.N. Mathur'
p42
aS'255'
p43
aS'Others'
p44
aasS'TIM'
p45
(lp46
S'11.45 a.m.:53'
p47
asS'hot_setting'
p48
S''
p49
sS'DAT'
p50
(lp51
S'Saturday:38'
p52
asS'death'
p53
g31
sS'title'
p54
S'One killed, 20 injured in Guwahati blast'
p55
sS'det_loc'
p56
(lp57
S'India'
p58
aS'Assam'
p59
ag49
ag49
ag49
asS'terror_group'
p60
(lp61
S'UNITED LIBERATION FRONT OF ASSAM (ULFA)'
p62
asS'content'
p63
VSushanta Talukdar . . Guwahati : One person was killed and 20 people were injured in a bomb blast suspected to have been triggered by the United Liberation Front of Asom in the Bamunimaidan locality here on Saturday . . . Police said a bomb kept in a three-wheeler went off at 11.45 a.m. at the Railway Colony market of Bamunimaidan , a busy commercial area , leading to the explosion of three gas cylinders in the shops nearby . Several shops were gutted . The windowpanes of nearby houses were shattered . . . The three-wheeler , in which the bomb was kept hidden , was blown to pieces . . . The vehicle had a sticker of the Indian airline on its body . Additional Superintendent of Police Rajen Singh said the police were trying to ascertain the facts . . . They said it was not immediately known whether the driver of the van was among the critically injured persons . . . The cylinder blasts caused panic . There was confusion over whether another blast had taken place . . . The deceased was identified as Ramlal Das -LRB- 60 -RRB- , a cobbler from Begusarai in Bihar . There were heart-rending scenes as the family members and relatives of the victims gathered at the site . The injured were taken to the Guwahati Medical College and Hospital . . . Assam Chief Minister Tarun Gogoi condemned the incident as an act of cowardice and asked the Director-General of Police R.N. Mathur to review the security measures in and around the city and other parts of the State .
p64
sS'injured'
p65
S'20'
p66
sS'org_unorg'
p67
g49
sS'O'
p68
(lp69
S'killed:10'
p70
aS'injured:15'
p71
aS'bomb blast:18'
p72
aS'suspected:20'
p73
aS'triggered:24'
p74
aS'bomb:45'
p75
aS'kept:46'
p76
aS'three-wheeler:49'
p77
aS'busy commercial area:64'
p78
aS'explosion:71'
p79
aS'three gas cylinders:73'
p80
aS'gutted:84'
p81
aS'windowpanes:87'
p82
aS'shattered:92'
p83
aS'three-wheeler:97'
p84
aS'bomb:102'
p85
aS'kept hidden:104'
p86
aS'blown:108'
p87
aS'pieces:110'
p88
aS'vehicle:115'
p89
aS'sticker:118'
p90
aS'Indian airline:121'
p91
aS'ascertain:139'
p92
aS'facts:141'
p93
aS'driver:154'
p94
aS'van:157'
p95
aS'critically injured:161'
p96
aS'cylinder blasts:168'
p97
aS'panic:171'
p98
aS'confusion:175'
p99
aS'another blast:178'
p100
aS'deceased:187'
p101
aS'cobbler:198'
p102
aS'heart-rending scenes:206'
p103
aS'victims:216'
p104
aS'gathered:217'
p105
aS'site:220'
p106
aS'injured:223'
p107
aS'Tarun Gogoi:239'
p108
aS'condemned:241'
p109
aS'cowardice:248'
p110
aS'review:258'
p111
aS'security measures:260'
p112
asS'unexpl'
p113
(lp114
g49
asS'ocassion'
p115
g49
sS'link'
p116
S'http://www.thehindu.com/todays-paper/one-killed-20-injured-in-guwahati-blast/article1903553.ece'
p117
sS'date'
p118
S'01-09-2007'
p119
sS'target'
p120
S'MARKET PLACE'
p121
sS'hot_spot'
p122
g49
sS'delivery_mod'
p123
S'THREE WHEELER'
p124
sS'delivery_met'
p125
S'PLANTED'
p126
sS'expl'
p127
(lp128
g49
asS'ORG'
p129
(lp130
(lp131
S'United Liberation Front of Asom'
p132
aS'27'
p133
aS'Accused'
p134
aa(lp135
S'Guwahati Medical College and Hospital'
p136
aS'228'
p137
aS'Others'
p138
aas.