(dp0
S'LOC'
p1
(lp2
(lp3
S'Guwahati'
p4
aS'1'
p5
aS'Event'
p6
aa(lp7
S'Guwahati'
p8
aS'8'
p9
aS'Event'
p10
aa(lp11
S'Assam'
p12
aS'22'
p13
aS'Neutral'
p14
aa(lp15
S'Guwahati'
p16
aS'45'
p17
aS'Event'
p18
aa(lp19
S'Guwahati -'
p20
aS'45'
p21
aS'Event'
p22
aa(lp23
S'Pan Bazar'
p24
aS'47'
p25
aS'Event'
p26
aa(lp27
S'Bhangagarh'
p28
aS'50'
p29
aS'Event'
p30
aa(lp31
S'Ganeshguri'
p32
aS'52'
p33
aS'Event'
p34
aa(lp35
S'Hatigaon'
p36
aS'54'
p37
aS'Event'
p38
aa(lp39
S'Guwahati'
p40
aS'71'
p41
aS'Event'
p42
aa(lp43
S'Guwahati'
p44
aS'121'
p45
aS'Event'
p46
aa(lp47
S'Dispur'
p48
aS'127'
p49
aS'Neutral'
p50
aa(lp51
S'Pan Bazaar'
p52
aS'130'
p53
aS'Event'
p54
aa(lp55
S'Ganeshguri'
p56
aS'133'
p57
aS'Event'
p58
aa(lp59
S'Fancy Bazaar'
p60
aS'135'
p61
aS'Event'
p62
aa(lp63
S'Barpeta'
p64
aS'144'
p65
aS'Event'
p66
aa(lp67
S'Kokrajhar'
p68
aS'146'
p69
aS'Event'
p70
aa(lp71
S'Bongaigoan'
p72
aS'148'
p73
aS'Event'
p74
aa(lp75
S'Tinsukia'
p76
aS'150'
p77
aS'Event'
p78
aa(lp79
S'Ganeshguri'
p80
aS'156'
p81
aS'Event'
p82
aa(lp83
S'Assam'
p84
aS'169'
p85
aS'Neutral'
p86
aa(lp87
S'Guwahati'
p88
aS'181'
p89
aS'Event'
p90
aa(lp91
S'Kokrajhar'
p92
aS'195'
p93
aS'Event'
p94
aa(lp95
S'Barpeta'
p96
aS'206'
p97
aS'Event'
p98
aasS'PER'
p99
(lp100
(lp101
S'Tarun Gogoi'
p102
aS'172'
p103
aS'Others'
p104
aasS'TIM'
p105
(lp106
S'morning : 25'
p107
asS'hot_setting'
p108
S''
p109
sS'DAT'
p110
(lp111
S'Thursday:24'
p112
asS'death'
p113
g109
sS'title'
p114
S'Curfew imposed in Guwahati following blasts'
p115
sS'org_unorg'
p116
S'ORGANISED'
p117
sS'terror_group'
p118
(lp119
g109
asS'content'
p120
VGuwahati : Curfew has been imposed in Guwahati following the serial bomb blasts in the city and some other cities of Assam on Thursday morning . . . The Director General of Police office said that curfew has been imposed in four areas in Guwahati - Pan Bazar , Bhangagarh , Ganeshguri and Hatigaon . . . Following the blasts , crowds angry clashed with police in some areas of Guwahati . Some people were injured in the clash and at one place the police even fired in the air to disperse an angry mob . . . The state has been rocked by 11 blasts in which at least 39 people have killed and 196 others injured . In Guwahati the blasts took place on Dispur Road , Pan Bazaar , Ganeshguri and Fancy Bazaar . . . More bombs exploded in Barpeta , Kokrajhar , Bongaigoan and Tinsukia districts . The bomb at Ganeshguri was planted in a car and took place about 100 meters from Assam Chief Minister Tarun Gogoi 's official residence . . . In Guwahati the death toll stood at 16 while 98 people were injured while in Kokrajhar 11 people have been killed and 53 injured . In Barpeta 12 people have been killed and 45 others have been injured . . . All the blasts took place almost simultaneously at about 1130 hrs IST at crowded marketplaces . . . .
p121
sS'injured'
p122
g109
sS'det_loc'
p123
(lp124
S'India'
p125
aS'Assam'
p126
ag109
aS'guwahati'
p127
aS'guwahati'
p128
asS'O'
p129
(lp130
S'Director General of Police:30'
p131
aS'car:161'
p132
aS'Chief Minister:170'
p133
asS'unexpl'
p134
(lp135
g109
asS'ocassion'
p136
g109
sS'link'
p137
S'http://www.ibnlive.com/news/india/curfew-imposed-in-guwahati-following-blasts-300646.html'
p138
sS'date'
p139
S'30-10-2008'
p140
sS'target'
p141
g109
sS'hot_spot'
p142
S'guwahati'
p143
sS'delivery_mod'
p144
g109
sS'delivery_met'
p145
S'PLANTED'
p146
sS'expl'
p147
(lp148
g109
asS'ORG'
p149
(lp150
s.