(dp0
S'LOC'
p1
(lp2
(lp3
S'HYDERABAD'
p4
aS'1'
p5
aS'Neutral'
p6
aa(lp7
S'Assam'
p8
aS'18'
p9
aS'Neutral'
p10
aasS'PER'
p11
(lp12
sS'TIM'
p13
(lp14
sS'hot_setting'
p15
S''
p16
sS'DAT'
p17
(lp18
S'Thursday:42'
p19
asS'death'
p20
g16
sS'title'
p21
S'CPI condemns Assam blasts'
p22
sS'org_unorg'
p23
g16
sS'terror_group'
p24
(lp25
g16
asS'content'
p26
VHYDERABAD : The CPI has condemned the killing of several people in bomb blasts by militants in Assam and demanded that necessary steps be taken for restoring peace in the troubled State . The partys State Executive which met here on Thursday expressed its shock over the heinous act and conveyed its condolences to the members of the bereaved families . It sought payment of Rs .5 lakh each to the kin of those killed in the blasts . Special Correspondent .
p27
sS'injured'
p28
g16
sS'det_loc'
p29
(lp30
S'India'
p31
aS'Assam'
p32
ag16
ag16
ag16
asS'O'
p33
(lp34
S'condemned:6'
p35
aS'killing:8'
p36
aS'bomb blasts:13'
p37
aS'militants:16'
p38
aS'demanded:20'
p39
aS'necessary steps:22'
p40
aS'peace:28'
p41
aS'troubled:31'
p42
aS'state executive:36'
p43
aS'expressed:43'
p44
aS'shock:45'
p45
aS'heinous act:48'
p46
aS'conveyed:51'
p47
aS'condolences:53'
p48
aS'bereaved families:59'
p49
aS'payment:64'
p50
aS'Rs .5 lakh:66'
p51
aS'kin:72'
p52
aS'killed:75'
p53
aS'blasts:78'
p54
asS'unexpl'
p55
(lp56
g16
asS'ocassion'
p57
g16
sS'link'
p58
S'http://www.thehindu.com/todays-paper/tp-national/tp-andhrapradesh/cpi-condemns-assam-blasts/article1366741.ece'
p59
sS'date'
p60
S'31-10-2008'
p61
sS'target'
p62
g16
sS'hot_spot'
p63
g16
sS'delivery_mod'
p64
g16
sS'delivery_met'
p65
g16
sS'expl'
p66
(lp67
g16
asS'ORG'
p68
(lp69
(lp70
S'CPI'
p71
aS'4'
p72
aS'Others'
p73
aas.