(dp0
S'LOC'
p1
(lp2
(lp3
S'Tukogunj'
p4
aS'460'
p5
aa(lp6
S'MUMBAI/NASHIK'
p7
aS'1'
p8
aS'Event'
p9
aa(lp10
S'Malegaon'
p11
aS'31'
p12
aS'Event'
p13
aa(lp14
S'Bhikku Chowk'
p15
aS'195'
p16
aS'Event'
p17
aa(lp18
S'central Malegaon'
p19
aS'198'
p20
aS'Event'
p21
aa(lp22
S'MP'
p23
aS'255'
p24
aS'Accused Location'
p25
aa(lp26
S'Gwalior'
p27
aS'333'
p28
aS'Neutral'
p29
aa(lp30
S'Indore'
p31
aS'442'
p32
aS'Neutral'
p33
aa(lp34
S'Indore'
p35
aS'451'
p36
aS'Accused Location'
p37
aa(lp38
S'Madhya Pradesh'
p39
aS'462'
p40
aS'Accused Location'
p41
aa(lp42
S'Malegaon'
p43
aS'511'
p44
aS'Event'
p45
aa(lp46
S'Surat'
p47
aS'525'
p48
aS'Neutral'
p49
aasS'PER'
p50
(lp51
(lp52
S'Pragya Singh Thakur'
p53
aS'133'
p54
aS'Accused'
p55
aa(lp56
S'Hemant Karkare'
p57
aS'151'
p58
aS'Others'
p59
aa(lp60
S'Shamlal Bhavar Sahu'
p61
aS'170'
p62
aS'Accused'
p63
aa(lp64
S'Shivnarayan Singh'
p65
aS'177'
p66
aS'Accused'
p67
aa(lp68
S'Dilip Nehar'
p69
aS'224'
p70
aS'Accused'
p71
aa(lp72
S'Dharmendra Bajrangi'
p73
aS'227'
p74
aS'Accused'
p75
aa(lp76
S'Thakur'
p77
aS'328'
p78
aS'Accused'
p79
aa(lp80
S'Avdeshanand Giri'
p81
aS'386'
p82
aS'Others'
p83
aa(lp84
S'Thakur'
p85
aS'389'
p86
aS'Accused'
p87
aa(lp88
S'Karkare'
p89
aS'444'
p90
aS'Comment'
p91
aa(lp92
S'Sahu'
p93
aS'453'
p94
aS'Others'
p95
aa(lp96
S'Shivnarayan'
p97
aS'473'
p98
aS'Accused'
p99
aa(lp100
S'Karkare'
p101
aS'503'
p102
aS'Comment'
p103
aa(lp104
S'Thakur'
p105
aS'516'
p106
aS'Accused'
p107
aa(lp108
S'Thakur'
p109
aS'531'
p110
aS'Accused'
p111
aa(lp112
S'Sahu'
p113
aS'533'
p114
aS'Accused'
p115
aa(lp116
S'Sahu'
p117
aS'558'
p118
aS'Accused'
p119
aasS'TIM'
p120
(lp121
sS'hot_setting'
p122
S''
p123
sS'DAT'
p124
(lp125
S'September 29:26'
p126
aS'September:26'
p127
aS'Friday edition:50'
p128
aS'Friday:50'
p129
aS'Friday edition:50'
p130
aS'Friday:60'
p131
aS'November:74'
p132
aS'November 3:74'
p133
aS'1997:357'
p134
aS'January:377'
p135
aS'January 2007:377'
p136
aS'2002:410'
p137
asS'death'
p138
S'6'
p139
sS'title'
p140
S'Sadhvi in jail for Malegaon blast'
p141
sS'org_unorg'
p142
g123
sS'terror_group'
p143
(lp144
g123
asS'content'
p145
VMUMBAI/NASHIK : The Hindu face of terrorism has emerged with the arrest of three persons , including a woman , suspected to be behind the September 29 bomb blast in Malegaon which killed six and injured 89 others . -LRB- Watch -RRB- TOI had reported their detention in its Friday edition . Maharashtras Anti-Terrorism Squad -LRB- ATS -RRB- on Friday produced them before a Nashik court which remanded them to police custody till November 3 . The three have been charged with murder , attempt to murder , unlawful assembly under the IPC and Section 16 -LRB- punishment for terror acts -RRB- and Section 18 -LRB- punishment for terror conspiracy -RRB- of the Unlawful Activities Prevention Act , and several sections of the Explosives Act . The woman has been identified as Pragya Singh Thakur -LRB- 38 -RRB- , a sadhvi -LRB- woman monk -RRB- . According to ATS chief Hemant Karkare , the motorcycle in which the bomb was planted was traced to her.The other two arrested , Shamlal Bhavar Sahu -LRB- 42 -RRB- and Shivnarayan Singh -LRB- 36 -RRB- , have been accused of plotting as well as planting the bomb at Bhikku Chowk in central Malegaon , just outside the sealed office of the banned outfit , the Students Islamic Movement of India -LRB- SIMI -RRB- . Two more suspects Dilip Nehar and Dharmendra Bajrangi have also been detained by the ATS.Those arrested are reported to have given the names of their collaborators . An ATS team will soon go to MP to make more arrests . They -LRB- the suspects -RRB- were driven by their desire to retaliate against jihadi terrorism and to avenge the killings of Hindus , said a source in intelligence . Security agencies are alarmed by the clear evidence of the beginning of radicalisation of the majority community . This , they say , is the first instance of reverse terrorism resulting in killing . According to sources , Thakur , a resident of Gwalior , was a popular leader of the Akhil Bharatiya Vidyarthi Parishad -LRB- ABVP -RRB- , the student wing of the BJP , till 1997 . The ABVP , though , has denied the allegation . She quit the ABVP and took sanyas in January 2007 after becoming a disciple of religious guru Avdeshanand Giri . Thakur , who was in the state executive council of the ABVP , was known for her fiery speeches . In 2002 , she had formed the Jai Vande Mataram Jan Kalyan Samiti . We have seized some pamphlets and are conducting investigations . She had also launched the Rashtriya Jagran Manch in Indore , Karkare said.Shivnaryan is an electrical contractor in Indore while Sahu runs a cell-phone repairing shop in Tukogunj in Madhya Pradesh . He is also a small-time property broker . Shivnarayan attends RSS shakhas and has a shop in the Bengali Chauraha area.According to the ATS , Thakur , Singh and Sahu are members of right-wing Hindu radical organisations . Karkare said that the motor bike used in Malegaon bomb blast belonged to Thakur who is now a sadhvi and regularly visited Surat to deliver religious lectures . Thakur and Sahu had spoken to each other for 400 minutes on the cellphone over several days after the Malegaon blast , an ATS officer said.Shivnarayan and Sahu have been termed by the police as mechanical and electronics experts . They are suspected to have assembled the bombs . We want to know who taught them bomb making and whether there is any training camp for such destructive activities , said an officer .
p146
sS'injured'
p147
S'89'
p148
sS'det_loc'
p149
(lp150
S'India'
p151
aS'Maharashtra'
p152
aS'Nashik'
p153
ag123
ag123
asS'O'
p154
(lp155
S'hindu face of terrorism:4'
p156
aS'arrest of three persons:12'
p157
aS'woman:19'
p158
aS'killed six:33'
p159
aS'injured 89:36'
p160
aS'detention:47'
p161
aS'nashik court:65'
p162
aS'police custody:71'
p163
aS'custody:72'
p164
aS'charged:81'
p165
aS'murder:83'
p166
aS'attempt to murder:85'
p167
aS'unlawful assembly:89'
p168
aS'ipc:93'
p169
aS'section 16:95'
p170
aS'punishment for terror acts:98'
p171
aS'section 18:104'
p172
aS'punishment for terror conspiracy:107'
p173
aS'unlawful activities:114'
p174
aS'prevention act:116'
p175
aS'explosives act:124'
p176
aS'woman:128'
p177
aS'sadhvi:141'
p178
aS'woman monk:143'
p179
aS'ats chief:149'
p180
aS'motorcycle:155'
p181
aS'bomb:193'
p182
aS'central malegaon:198'
p183
aS'sealed office:204'
p184
aS'ats team:249'
p185
aS'jihadi terrorism:274'
p186
aS'avenge the killings of hindus:278'
p187
aS'radicalisation:302'
p188
aS'majority community:305'
p189
aS'popular leader:337'
p190
aS'student wing:350'
p191
aS'sanyas:375'
p192
aS'disciple:382'
p193
aS'guru:385'
p194
aS'contractor:449'
p195
aS'property broker:470'
p196
aS'bengali chauraha:483'
p197
aS'right-wing hindu:498'
p198
aS'motor bike:507'
p199
aS'bomb blast:512'
p200
aS'sadhvi:521'
p201
aS'surat:525'
p202
aS'cellphone:544'
p203
aS'malegaon blast:550'
p204
aS'bomb making:587'
p205
aS'training camp:594'
p206
aS'officer:603'
p207
asS'unexpl'
p208
(lp209
g123
asS'ocassion'
p210
g123
sS'link'
p211
S'http://timesofindia.indiatimes.com/india/Sadhvi-in-jail-for-Malegaon-blast/articleshow/3637596.cms?referral=PM'
p212
sS'date'
p213
S'08-09-2006'
p214
sS'target'
p215
g123
sS'hot_spot'
p216
S'Sealed office of the SIMI'
p217
sS'delivery_mod'
p218
S'TWO WHEELER'
p219
sS'delivery_met'
p220
S'PLANTED'
p221
sS'expl'
p222
(lp223
g123
asS'ORG'
p224
(lp225
(lp226
S'TOI'
p227
aS'43'
p228
aS'Others'
p229
aa(lp230
S'Maharashtras Anti-Terrorism Squad'
p231
aS'53'
p232
aS'Others'
p233
aa(lp234
S'ATS'
p235
aS'149'
p236
aS'Others'
p237
aa(lp238
S'Students Islamic Movement of India'
p239
aS'212'
p240
aS'Accused'
p241
aa(lp242
S'ATS.Those'
p243
aS'235'
p244
aS'Others'
p245
aa(lp246
S'ATS'
p247
aS'249'
p248
aS'Others'
p249
aa(lp250
S'Akhil Bharatiya Vidyarthi Parishad'
p251
aS'341'
p252
aS'Assoc Accused'
p253
aa(lp254
S'BJP'
p255
aS'354'
p256
aS'Assoc Accused'
p257
aa(lp258
S'ABVP'
p259
aS'360'
p260
aS'Assoc Accused'
p261
aa(lp262
S'ABVP'
p263
aS'372'
p264
aS'Assoc Accused'
p265
aa(lp266
S'ABVP'
p267
aS'400'
p268
aS'Assoc Accused'
p269
aa(lp270
S'Jai Vande Mataram Jan Kalyan Samiti'
p271
aS'416'
p272
aS'Others'
p273
aa(lp274
S'Rashtriya Jagran Manch'
p275
aS'438'
p276
aS'Others'
p277
aa(lp278
S'RSS'
p279
aS'475'
p280
aS'Others'
p281
aa(lp282
S'right-wing Hindu radical organisations'
p283
aS'498'
p284
aS'Others'
p285
aa(lp286
S'ATS'
p287
aS'554'
p288
aS'Others'
p289
aas.