(dp0
S'LOC'
p1
(lp2
(lp3
S'NEW DELHI'
p4
aS'5'
p5
aS'Neutral'
p6
aa(lp7
S'Mehrauli'
p8
aS'22'
p9
aS'Neutral'
p10
aasS'PER'
p11
(lp12
(lp13
S'M. C. Misra'
p14
aS'138'
p15
aS'Comment'
p16
aa(lp17
S'Misra'
p18
aS'161'
p19
aS'Comment'
p20
aasS'TIM'
p21
(lp22
sS'hot_setting'
p23
S''
p24
sS'DAT'
p25
(lp26
S'Monday:40'
p27
aS'Monday:79'
p28
asS'death'
p29
g24
sS'title'
p30
S'Two more victims reach AIIMS'
p31
sS'org_unorg'
p32
S'ORGANISED'
p33
sS'terror_group'
p34
(lp35
g24
asS'content'
p36
VStaff Reporter . . NEW DELHI : Two more persons , admitted to a private hospital after being injured in the Mehrauli bomb blast here over the weekend , were brought to the All-India Institute of Medical Sciences on Monday with splinter injuries . . . According to a senior physician at the AIIMS Trauma Centre , a seven-year-old girl and her father , both of whom sustained splinter injuries in the blast , were brought in on Monday morning . That had earlier got themselves admitted to a private hospital . . . The two are now under treatment and their condition is stable . We have two critically ill patients with head injuries , while four others are stable . Seven other patients under our care are doing well , said Trauma Centre Medical Superintendent M. C. Misra . . . Stating that the best possible medical care was being given to patients admitted to AIIMS , Dr. Misra said : While we are extremely worried about the condition of two patients who are critically ill , we are optimistic about the recovery of the other patients who seem to be responding well to treatment . We also want appeal to the blood donors to leave their phone numbers with us so that we can call them as and when needed .
p37
sS'injured'
p38
S'2'
p39
sS'det_loc'
p40
(lp41
S'India'
p42
aS'Delhi'
p43
aS'South West'
p44
aS'DELHI'
p45
aS'Mehrauli'
p46
asS'O'
p47
(lp48
S'Trauma Centre Medical Superintendent:134'
p49
asS'unexpl'
p50
(lp51
g24
asS'ocassion'
p52
g24
sS'link'
p53
S'http://www.thehindu.com/todays-paper/tp-national/tp-newdelhi/two-more-victims-reach-aiims/article1348554.ece'
p54
sS'date'
p55
S'27-09-2008'
p56
sS'target'
p57
g24
sS'hot_spot'
p58
S'Mehrauli'
p59
sS'delivery_mod'
p60
g24
sS'delivery_met'
p61
S'PLANTED'
p62
sS'expl'
p63
(lp64
g24
asS'ORG'
p65
(lp66
(lp67
S'All-India Institute of Medical Sciences'
p68
aS'34'
p69
aS'Others'
p70
aa(lp71
S'AIIMS Trauma Centre'
p72
aS'54'
p73
aS'Others'
p74
aa(lp75
S'AIIMS'
p76
aS'158'
p77
aS'Others'
p78
aas.