(dp0
S'LOC'
p1
(lp2
(lp3
S'NEW DELHI'
p4
aS'5'
p5
aS'Neutral'
p6
aa(lp7
S'Lajpat Rai Market'
p8
aS'15'
p9
aS'Neutral'
p10
aa(lp11
S'Walled City'
p12
aS'20'
p13
aS'Neutral'
p14
aa(lp15
S'Old Delhi'
p16
aS'90'
p17
aS'Neutral'
p18
aasS'PER'
p19
(lp20
sS'TIM'
p21
(lp22
S'half-an-hour : 84'
p23
asS'hot_setting'
p24
S''
p25
sS'DAT'
p26
(lp27
S'Wednesday:12'
p28
asS'death'
p29
g25
sS'title'
p30
S'Delhi police question shopkeepers'
p31
sS'org_unorg'
p32
S'ORGANISED'
p33
sS'terror_group'
p34
(lp35
g25
asS'content'
p36
VStaff Reporter . . NEW DELHI : The Delhi police on Wednesday visited the Lajpat Rai Market in the Walled City area and questioned several shopkeepers to find out whether the perpetrators of the Samjhauta Express blasts purchased circuit boards and electronic components used in the improvised explosive devices from there . The market is famous for its cheap electronic goods . . . While the Haryana police believe that two of the perpetrators got off the train when it slowed down about half-an-hour after it departed from the Old Delhi station , it is learnt that intelligence agencies here doubt the theory . ` Terrorists will not travel by the same train in which they have planted bombs unless they are suicide-bombers , ' said an officer . . . According to the officer , there was a possibility that the perpetrators , who could be more than four in number , left the suitcases containing the IEDs in the coaches on platform No. 18 and vanished from the scene before the train departed .
p37
sS'injured'
p38
g25
sS'det_loc'
p39
(lp40
S'India'
p41
aS'Haryana'
p42
aS'Panipat'
p43
ag25
aS'Panipat'
p44
asS'O'
p45
(lp46
S'Person:0'
p47
aS'Samjhauta Express:35'
p48
aS'Terrorists:106'
p49
aS'IEDs:159'
p50
aS'platform No. 18:164'
p51
asS'unexpl'
p52
(lp53
g25
asS'ocassion'
p54
g25
sS'link'
p55
S'http://www.thehindu.com/todays-paper/tp-national/delhi-police-question-shopkeepers/article1800627.ece'
p56
sS'date'
p57
S'18-02-2007'
p58
sS'target'
p59
S'TRAIN'
p60
sS'hot_spot'
p61
S'Panipat'
p62
sS'delivery_mod'
p63
S'TRAIN'
p64
sS'delivery_met'
p65
S'PLANTED'
p66
sS'expl'
p67
(lp68
g25
asS'ORG'
p69
(lp70
(lp71
S'Delhi police'
p72
aS'9'
p73
aS'Others'
p74
aa(lp75
S'Haryana police'
p76
aS'67'
p77
aS'Others'
p78
aas.