(dp0
S'LOC'
p1
(lp2
(lp3
S'Assam'
p4
aS'4'
p5
aS'Event'
p6
aa(lp7
S'Manipur'
p8
aS'6'
p9
aS'Event'
p10
aa(lp11
S'India'
p12
aS'15'
p13
aS'Neutral'
p14
aa(lp15
S'Gujarat'
p16
aS'21'
p17
aS'Neutral'
p18
aa(lp19
S'Jammu and Kashmir'
p20
aS'32'
p21
aS'Neutral'
p22
aa(lp23
S'Goa'
p24
aS'49'
p25
aS'Neutral'
p26
aa(lp27
S'Assam'
p28
aS'83'
p29
aS'Event'
p30
aa(lp31
S'Tengapara'
p32
aS'89'
p33
aS'Event'
p34
aa(lp35
S'Kokrajhar'
p36
aS'91'
p37
aS'Neutral'
p38
aa(lp39
S'Bijni'
p40
aS'112'
p41
aS'Source'
p42
aa(lp43
S'Chirang'
p44
aS'114'
p45
aS'Neutral'
p46
aa(lp47
S'Chirang'
p48
aS'125'
p49
aS'Neutral'
p50
aa(lp51
S'Manipur'
p52
aS'132'
p53
aS'Event'
p54
aasS'PER'
p55
(lp56
(lp57
S'Narendra Modi'
p58
aS'24'
p59
aS'Others'
p60
aa(lp61
S'Omar Abdullah'
p62
aS'37'
p63
aS'Comment'
p64
aa(lp65
S'Okram Ibobi Singh'
p66
aS'143'
p67
aS'Others'
p68
aasS'TIM'
p69
(lp70
sS'hot_setting'
p71
S''
p72
sS'DAT'
p73
(lp74
S'Thursday:17'
p75
asS'death'
p76
g72
sS'title'
p77
S'Blasts in Assam, Manipur on Independence Day'
p78
sS'det_loc'
p79
(lp80
S'India'
p81
aS'Assam'
p82
ag72
aS'Assam'
p83
aS'Assam'
p84
asS'terror_group'
p85
(lp86
S'BODO'
p87
asS'content'
p88
VBomb blasts in Assam and Manipur marred an otherwise peaceful Independence Day celebration across India on Thursday that also saw Gujarat Chief Minister Narendra Modi take on the prime minister and Jammu and Kashmir Chief Minister Omar Abdullah voice unhappiness over the different treatment meted to his state.In Goa , a man chose the occasion to swim across the Mandovi river to demand a halt to mushrooming casinos in the coastal state.Suspected Bodo militants tried to disrupt the Independence Day celebrations in Assam by triggering a blast in Tengapara of Kokrajhar town , injuring one person . Police recovered another grenade from the same location . A grenade was recovered at Bijni in Chirang district , while four motorcycle-riding youths lobbed a grenade in Chirang , but it did not explode.In Manipur , a bomb blast marred the celebrations as Chief Minister Okram Ibobi Singh appealed for peace in the state . No one was injured in the explosion . .
p89
sS'injured'
p90
g72
sS'org_unorg'
p91
S'ORGANISED'
p92
sS'O'
p93
(lp94
S'prime minister:29'
p95
aS'Chief Minister:35'
p96
aS'Police:98'
p97
asS'unexpl'
p98
(lp99
g72
asS'ocassion'
p100
S'INDEPENDENCE DAY'
p101
sS'link'
p102
S'http://indiatoday.intoday.in/story/independence-day-blasts-in-assam-manipur/1/299622.html'
p103
sS'date'
p104
S'15-08-2013'
p105
sS'target'
p106
g72
sS'hot_spot'
p107
S'Assam'
p108
sS'delivery_mod'
p109
g72
sS'delivery_met'
p110
S'PLANTED'
p111
sS'expl'
p112
(lp113
g72
asS'ORG'
p114
(lp115
(lp116
S'Bodo'
p117
aS'73'
p118
aS'Accused'
p119
aas.